
7c86cbfa-f01a-4170-aa59-be0c653cdd6b.elf:     file format elf64-littleaarch64
7c86cbfa-f01a-4170-aa59-be0c653cdd6b.elf
architecture: aarch64, flags 0x00000150:
HAS_SYMS, DYNAMIC, D_PAGED
start address 0x0000000000001668

Program Header:
    LOAD off    0x0000000000001000 vaddr 0x0000000000000000 paddr 0x0000000000000000 align 2**12
         filesz 0x00000000000126d0 memsz 0x00000000000126d0 flags r-x
    LOAD off    0x0000000000014000 vaddr 0x0000000000013000 paddr 0x0000000000013000 align 2**12
         filesz 0x00000000000004f4 memsz 0x000000000000b5c0 flags rw-
 DYNAMIC off    0x00000000000142a0 vaddr 0x00000000000132a0 paddr 0x00000000000132a0 align 2**3
         filesz 0x0000000000000110 memsz 0x0000000000000110 flags rw-
   STACK off    0x0000000000000000 vaddr 0x0000000000000000 paddr 0x0000000000000000 align 2**4
         filesz 0x0000000000000000 memsz 0x0000000000000000 flags rw-

Dynamic Section:
  HASH                 0x0000000000012508
  GNU_HASH             0x0000000000012498
  STRTAB               0x0000000000012500
  SYMTAB               0x00000000000124b8
  STRSZ                0x0000000000000001
  SYMENT               0x0000000000000018
  DEBUG                0x0000000000000000
  RELA                 0x0000000000012520
  RELASZ               0x0000000000000390
  RELAENT              0x0000000000000018
  FLAGS_1              0x0000000008000000
  RELACOUNT            0x0000000000000012
private flags = 0:

Sections:
Idx Name          Size      VMA               LMA               File off  Algn
  0 .ta_head      00000020  0000000000000000  0000000000000000  00001000  2**3
                  CONTENTS, ALLOC, LOAD, READONLY, DATA
  1 .text         0000c840  0000000000000020  0000000000000020  00001020  2**2
                  CONTENTS, ALLOC, LOAD, READONLY, CODE
  2 .eh_frame     000028e4  000000000000c860  000000000000c860  0000d860  2**3
                  CONTENTS, ALLOC, LOAD, READONLY, DATA
  3 .rodata       0000334a  000000000000f148  000000000000f148  00010148  2**3
                  CONTENTS, ALLOC, LOAD, READONLY, DATA
  4 .gnu.hash     0000001c  0000000000012498  0000000000012498  00013498  2**3
                  CONTENTS, ALLOC, LOAD, READONLY, DATA
  5 .dynsym       00000048  00000000000124b8  00000000000124b8  000134b8  2**3
                  CONTENTS, ALLOC, LOAD, READONLY, DATA
  6 .dynstr       00000001  0000000000012500  0000000000012500  00013500  2**0
                  CONTENTS, ALLOC, LOAD, READONLY, DATA
  7 .hash         00000018  0000000000012508  0000000000012508  00013508  2**3
                  CONTENTS, ALLOC, LOAD, READONLY, DATA
  8 .rela.dyn     000001b0  0000000000012520  0000000000012520  00013520  2**3
                  CONTENTS, ALLOC, LOAD, READONLY, DATA
  9 .got          000000c0  0000000000013000  0000000000013000  00014000  2**3
                  CONTENTS, ALLOC, LOAD, DATA
 10 .rela.got     000001e0  00000000000130c0  00000000000130c0  000140c0  2**3
                  CONTENTS, ALLOC, LOAD, READONLY, DATA
 11 .dynamic      00000110  00000000000132a0  00000000000132a0  000142a0  2**3
                  CONTENTS, ALLOC, LOAD, DATA
 12 .data         00000144  00000000000133b0  00000000000133b0  000143b0  2**3
                  CONTENTS, ALLOC, LOAD, DATA
 13 .bss          0000b0c8  00000000000134f8  00000000000134f8  000144f4  2**3
                  ALLOC
 14 .debug_info   0002037b  0000000000000000  0000000000000000  000144f4  2**0
                  CONTENTS, READONLY, DEBUGGING
 15 .debug_abbrev 00003c92  0000000000000000  0000000000000000  0003486f  2**0
                  CONTENTS, READONLY, DEBUGGING
 16 .debug_loc    000250ed  0000000000000000  0000000000000000  00038501  2**0
                  CONTENTS, READONLY, DEBUGGING
 17 .debug_aranges 000008c0  0000000000000000  0000000000000000  0005d5f0  2**4
                  CONTENTS, READONLY, DEBUGGING
 18 .debug_macro  000135ab  0000000000000000  0000000000000000  0005deb0  2**0
                  CONTENTS, READONLY, DEBUGGING
 19 .debug_line   0000d5c3  0000000000000000  0000000000000000  0007145b  2**0
                  CONTENTS, READONLY, DEBUGGING
 20 .debug_str    00012cda  0000000000000000  0000000000000000  0007ea1e  2**0
                  CONTENTS, READONLY, DEBUGGING
 21 .comment      00000055  0000000000000000  0000000000000000  000916f8  2**0
                  CONTENTS, READONLY
 22 .debug_ranges 00001b40  0000000000000000  0000000000000000  00091750  2**4
                  CONTENTS, READONLY, DEBUGGING
SYMBOL TABLE:
0000000000000000 l    d  .ta_head	0000000000000000 .ta_head
0000000000000020 l    d  .text	0000000000000000 .text
000000000000c860 l    d  .eh_frame	0000000000000000 .eh_frame
000000000000f148 l    d  .rodata	0000000000000000 .rodata
0000000000012498 l    d  .gnu.hash	0000000000000000 .gnu.hash
00000000000124b8 l    d  .dynsym	0000000000000000 .dynsym
0000000000012500 l    d  .dynstr	0000000000000000 .dynstr
0000000000012508 l    d  .hash	0000000000000000 .hash
0000000000012520 l    d  .rela.dyn	0000000000000000 .rela.dyn
0000000000013000 l    d  .got	0000000000000000 .got
00000000000130c0 l    d  .rela.got	0000000000000000 .rela.got
00000000000132a0 l    d  .dynamic	0000000000000000 .dynamic
00000000000133b0 l    d  .data	0000000000000000 .data
00000000000134f8 l    d  .bss	0000000000000000 .bss
0000000000000000 l    d  .debug_info	0000000000000000 .debug_info
0000000000000000 l    d  .debug_abbrev	0000000000000000 .debug_abbrev
0000000000000000 l    d  .debug_loc	0000000000000000 .debug_loc
0000000000000000 l    d  .debug_aranges	0000000000000000 .debug_aranges
0000000000000000 l    d  .debug_macro	0000000000000000 .debug_macro
0000000000000000 l    d  .debug_line	0000000000000000 .debug_line
0000000000000000 l    d  .debug_str	0000000000000000 .debug_str
0000000000000000 l    d  .comment	0000000000000000 .comment
0000000000000000 l    d  .debug_ranges	0000000000000000 .debug_ranges
0000000000000000 l    df *ABS*	0000000000000000 user_ta_header.c
000000000000f268 l     O .rodata	0000000000000004 __compound_literal.4
000000000000f26c l     O .rodata	0000000000000004 __compound_literal.3
000000000000f270 l     O .rodata	0000000000000001 __compound_literal.2
000000000000f271 l     O .rodata	0000000000000001 __compound_literal.1
000000000000f272 l     O .rodata	0000000000000001 __compound_literal.0
0000000000000000 l    df *ABS*	0000000000000000 snfc_ta_utils.c
0000000000000000 l    df *ABS*	0000000000000000 snfc_ta_authentication.c
0000000000000000 l    df *ABS*	0000000000000000 snfc_ta_handshake.c
00000000000007e8 l     F .text	000000000000007c write_ecc_public_values
0000000000000864 l     F .text	0000000000000070 iv_init
00000000000008d4 l     F .text	0000000000000084 create_key
0000000000000958 l     F .text	0000000000000250 process_key_exchange
000000000000fe84 l     O .rodata	0000000000001800 SECURITY_ASSOCIATIONS
000000000000f284 l     O .rodata	0000000000000c00 KEY_EXCHANGE_ASSOCIATIONS
0000000000000000 l    df *ABS*	0000000000000000 snfc_ta_communication.c
0000000000000f28 l     F .text	0000000000000108 create_next_iv
0000000000000000 l    df *ABS*	0000000000000000 snfc_ta.c
0000000000000000 l    df *ABS*	0000000000000000 bget_malloc.c
0000000000001684 l     F .text	0000000000000044 raw_malloc_return_hook.constprop.21
00000000000119f9 l     O .rodata	0000000000000005 __func__.3627
00000000000119fe l     O .rodata	0000000000000006 __func__.3642
0000000000011a04 l     O .rodata	0000000000000005 __func__.3660
0000000000011a09 l     O .rodata	0000000000000006 __func__.3651
0000000000011a0f l     O .rodata	0000000000000006 __func__.3669
0000000000011a15 l     O .rodata	0000000000000007 __func__.3679
0000000000011a1c l     O .rodata	0000000000000014 __func__.3843
0000000000011a30 l     O .rodata	000000000000000e __func__.3794
0000000000011a3e l     O .rodata	0000000000000013 __func__.3741
0000000000013458 l     O .data	0000000000000080 malloc_ctx
0000000000000000 l    df *ABS*	0000000000000000 memcpy.c
0000000000000000 l    df *ABS*	0000000000000000 memset.c
0000000000000000 l    df *ABS*	0000000000000000 assert.c
0000000000000000 l    df *ABS*	0000000000000000 tee_api.c
0000000000013560 l     O .bss	0000000000000008 tee_api_instance_data
0000000000011693 l     O .rodata	000000000000000b __func__.4664
0000000000000000 l    df *ABS*	0000000000000000 tee_api_objects.c
0000000000000000 l    df *ABS*	0000000000000000 tee_api_operations.c
000000000000350c l     F .text	0000000000000220 tee_buffer_update
0000000000000000 l    df *ABS*	0000000000000000 tee_api_panic.c
0000000000000000 l    df *ABS*	0000000000000000 tee_api_arith_mpi.c
0000000000005968 l     F .text	0000000000000030 api_panic
0000000000005998 l     F .text	0000000000000030 mpi_panic
00000000000059c8 l     F .text	0000000000000098 get_mpi
0000000000005a60 l     F .text	0000000000000064 copy_mpi_to_bigint
0000000000005ac4 l     F .text	0000000000000118 bigint_binary
0000000000005bdc l     F .text	0000000000000020 mpi_is_odd
0000000000005bfc l     F .text	0000000000000028 rng_read
0000000000005c24 l     F .text	000000000000054c mpi_egcd
0000000000013568 l     O .bss	0000000000003000 data.4653
000000000000650c l     F .text	0000000000000194 bigint_binary_mod
0000000000011d2d l     O .rodata	0000000000000008 __func__.4687
0000000000011d35 l     O .rodata	000000000000000e __func__.4784
0000000000011d43 l     O .rodata	0000000000000009 __func__.4930
0000000000011d4c l     O .rodata	0000000000000012 __func__.4654
0000000000011d5e l     O .rodata	000000000000000f __func__.4693
0000000000011d6d l     O .rodata	000000000000001f __func__.4711
0000000000011d8c l     O .rodata	0000000000000019 __func__.4718
0000000000011da5 l     O .rodata	0000000000000012 __func__.4796
0000000000011db7 l     O .rodata	0000000000000015 __func__.4749
0000000000011dcc l     O .rodata	000000000000000e __func__.4824
0000000000011dda l     O .rodata	000000000000000e __func__.4853
0000000000011de8 l     O .rodata	000000000000000e __func__.4861
0000000000011df6 l     O .rodata	0000000000000011 __func__.4890
0000000000011e07 l     O .rodata	0000000000000018 __func__.4907
0000000000011e1f l     O .rodata	000000000000001d __func__.4987
0000000000011e3c l     O .rodata	0000000000000019 __func__.5040
0000000000011e55 l     O .rodata	0000000000000015 __func__.5055
0000000000000000 l    df *ABS*	0000000000000000 user_ta_entry.c
00000000000072ac l     F .text	0000000000000028 ta_header_get_session
00000000000072d4 l     F .text	0000000000000094 ta_header_remove_session
0000000000007368 l     F .text	0000000000000014 ta_header_save_params.part.0
000000000001e5b8 l     O .bss	0000000000000001 init_done
00000000000134d8 l     O .data	0000000000000010 ta_sessions
0000000000000000 l    df *ABS*	0000000000000000 utee_syscalls_a64.o
0000000000000000 l    df *ABS*	0000000000000000 trace_ext.c
0000000000000000 l    df *ABS*	0000000000000000 bignum.c
0000000000007998 l     F .text	0000000000000064 mpi_get_digit
00000000000079fc l     F .text	0000000000000060 mpi_sub_hlp
0000000000007a5c l     F .text	00000000000004d4 mpi_mul_hlp
0000000000009944 l     F .text	00000000000000d4 mpi_write_hlp
0000000000009bec l     F .text	0000000000000098 mpi_check_small_factors
000000000000a700 l     F .text	0000000000000288 mpi_miller_rabin
00000000000116a0 l     O .rodata	00000000000002a0 small_prime
0000000000011940 l     O .rodata	0000000000000024 gcd_pairs
0000000000000000 l    df *ABS*	0000000000000000 platform_util.c
00000000000134e8 l     O .data	0000000000000008 memset_func
0000000000000000 l    df *ABS*	0000000000000000 snprintf.c
0000000000000000 l    df *ABS*	0000000000000000 memmove.c
0000000000000000 l    df *ABS*	0000000000000000 strlen.c
0000000000000000 l    df *ABS*	0000000000000000 snprintk.c
000000000001237e l     O .rodata	0000000000000011 hexdigits
000000000001238f l     O .rodata	0000000000000011 HEXDIGITS
0000000000000000 l    df *ABS*	0000000000000000 trace.c
00000000000123d8 l     O .rodata	0000000000000005 lvl_strs.3485
0000000000000000 l    df *ABS*	0000000000000000 mempool.c
00000000000123f7 l     O .rodata	0000000000000013 __func__.3538
000000000001240a l     O .rodata	000000000000000e __func__.3547
0000000000000000 l    df *ABS*	0000000000000000 consttime_memcmp.c
0000000000000000 l    df *ABS*	0000000000000000 memchr.c
0000000000000000 l    df *ABS*	0000000000000000 
00000000000132a0 l     O *ABS*	0000000000000000 _DYNAMIC
0000000000013018 l     O *ABS*	0000000000000000 _GLOBAL_OFFSET_TABLE_
000000000000795c g     F .text	000000000000003c putchar
0000000000000278 g     F .text	0000000000000080 create_digest
0000000000002c28 g     F .text	00000000000000c0 TEE_PopulateTransientObject
00000000000070f4 g     F .text	0000000000000004 TEE_BigIntConvertToFMM
0000000000006c50 g     F .text	000000000000000c TEE_BigIntSquareMod
00000000000066a0 g     F .text	000000000000016c TEE_BigIntShiftRight
000000000000777c g     F .text	000000000000000c utee_storage_obj_create
0000000000007fd4 g     F .text	00000000000000f8 mbedtls_mpi_grow
0000000000007584 g     F .text	000000000000000c utee_return
0000000000004544 g     F .text	0000000000000064 TEE_DigestUpdate
00000000000027e4 g     F .text	0000000000000008 TEE_Realloc
0000000000004294 g     F .text	0000000000000190 TEE_SetOperationKey2
0000000000007854 g     F .text	00000000000000c8 printf
0000000000007590 g     F .text	000000000000000c utee_log
0000000000002ce8 g     F .text	0000000000000054 TEE_InitRefAttribute
00000000000024c4 g     F .text	00000000000000b8 TEE_InvokeTACommand
0000000000007f40 g     F .text	0000000000000028 mbedtls_mpi_init_mempool
0000000000008748 g     F .text	00000000000000c4 mbedtls_mpi_write_binary
0000000000004f7c g     F .text	00000000000001c0 TEE_AEEncryptFinal
00000000000001d8 g     F .text	00000000000000a0 verify_digest_signature
000000000000c2ec g     F .text	0000000000000054 vsnprintk
0000000000008edc g     F .text	0000000000000040 mbedtls_mpi_sub_int
000000000000b640 g     F .text	000000000000005c memmove
00000000000012d0 g     F .text	00000000000001b8 process_snfc_packet
0000000000000470 g     F .text	0000000000000058 create_authentication_id
000000000000b574 g     F .text	0000000000000078 snprintf
00000000000064c4 g     F .text	0000000000000048 TEE_BigIntCmpS32
0000000000002d3c g     F .text	0000000000000050 TEE_InitValueAttribute
00000000000080cc g     F .text	0000000000000120 mbedtls_mpi_shrink
0000000000006898 g     F .text	000000000000000c TEE_BigIntAdd
00000000000075b4 g     F .text	000000000000000c utee_get_property_name_to_index
000000000000f278 g     O .rodata	0000000000000008 ta_heap_size
0000000000002bd4 g     F .text	0000000000000054 TEE_ResetTransientObject
0000000000007638 g     F .text	000000000000000c utee_cryp_state_alloc
0000000000007740 g     F .text	000000000000000c utee_authenc_enc_final
00000000000090a0 g     F .text	00000000000001e4 mbedtls_mpi_read_string
000000000000f1b4 g     O .rodata	0000000000000004 CERT_SIGNATURE_HASH_LENGTH
0000000000004670 g     F .text	00000000000000a4 TEE_CipherInit
00000000000068b0 g     F .text	00000000000000b0 TEE_BigIntNeg
0000000000000020 g       .text	0000000000000000 __text_start
000000000000f160 g     O .rodata	000000000000001c CA_PRIVATE_KEY
0000000000003230 g     F .text	0000000000000050 TEE_StartPersistentObjectEnumerator
000000000000890c g     F .text	00000000000000c8 mbedtls_mpi_shift_r
0000000000002228 g     F .text	000000000000006c malloc_buffer_overlaps_heap
0000000000006c38 g     F .text	000000000000000c TEE_BigIntSubMod
000000000000ae78 g     F .text	000000000000030c mbedtls_mpi_gen_prime
000000000000850c g     F .text	000000000000002c mbedtls_mpi_get_bit
0000000000008690 g     F .text	00000000000000b8 mbedtls_mpi_read_binary
0000000000004cd8 g     F .text	00000000000000cc TEE_AEInit
000000000000c3e0 g     F .text	0000000000000238 trace_printf
0000000000009cc0 g     F .text	0000000000000134 mbedtls_mpi_montmul
0000000000002294 g     F .text	0000000000000020 memcpy
0000000000007650 g     F .text	000000000000000c utee_cryp_state_free
00000000000070f8 g     F .text	000000000000009c TEE_BigIntConvertFromFMM
0000000000005960 g     F .text	0000000000000008 TEE_Panic
0000000000004424 g     F .text	0000000000000120 TEE_CopyOperation
000000000000791c g     F .text	0000000000000040 puts
0000000000007194 g     F .text	0000000000000118 TEE_BigIntComputeFMM
0000000000001e20 g     F .text	0000000000000038 malloc_get_stats
0000000000007698 g     F .text	000000000000000c utee_cipher_final
0000000000002760 g     F .text	0000000000000028 TEE_GetREETime
0000000000003180 g     F .text	0000000000000060 TEE_AllocatePersistentObjectEnumerator
00000000000133b0 g     O .data	00000000000000a8 ta_props
00000000000052d8 g     F .text	0000000000000148 TEE_AsymmetricEncrypt
000000000000f1bc g     O .rodata	0000000000000004 CERT_SIGNATURE_ALG
0000000000001e58 g     F .text	0000000000000050 malloc
00000000000076d4 g     F .text	000000000000000c utee_cryp_obj_close
000000000000b5ec g     F .text	0000000000000054 vsnprintf
0000000000002e8c g     F .text	0000000000000088 TEE_GenerateKey
00000000000134f0 g     O .data	0000000000000004 trace_level
000000000000645c g     F .text	0000000000000068 TEE_BigIntCmp
000000000000f260 g     O .rodata	0000000000000008 ta_num_props
0000000000001bd0 g     F .text	00000000000000cc bgetr
0000000000007734 g     F .text	000000000000000c utee_authenc_update_payload
000000000000c780 g     F .text	0000000000000044 mempool_free
0000000000004714 g     F .text	000000000000014c TEE_CipherUpdate
000000000000f1f8 g     O .rodata	0000000000000004 CERT_ECC_CURVE
00000000000062bc g     F .text	0000000000000094 TEE_BigIntConvertToOctetString
0000000000003fe0 g     F .text	000000000000014c TEE_GetOperationInfoMultiple
0000000000007818 g     F .text	000000000000000c utee_cache_operation
0000000000008618 g     F .text	000000000000005c mbedtls_mpi_bitlen
000000000000771c g     F .text	000000000000000c utee_authenc_init
000000000000680c g     F .text	000000000000004c TEE_BigIntGetBit
000000000000f280 g     O .rodata	0000000000000003 trace_ext_prefix
0000000000001888 g     F .text	000000000000008c bgetz
0000000000002620 g     F .text	000000000000000c TEE_GetInstanceData
000000000000266c g     F .text	000000000000003c TEE_Wait
00000000000077e8 g     F .text	000000000000000c utee_storage_obj_write
0000000000008f1c g     F .text	0000000000000150 mbedtls_mpi_mul_mpi
00000000000027f8 g     F .text	0000000000000008 TEE_CacheFlush
0000000000001490 g     F .text	000000000000000c TA_DestroyEntryPoint
0000000000007f30 g     F .text	0000000000000010 mbedtls_mpi_init
00000000000085c4 g     F .text	0000000000000054 mbedtls_mpi_lsb
00000000000022d0 g     F .text	0000000000000044 _assert_log
00000000000070ec g     F .text	0000000000000008 TEE_BigIntFMMContextSizeInU32
0000000000004c14 g     F .text	00000000000000c4 TEE_MACCompareFinal
000000000000310c g     F .text	0000000000000074 TEE_RenamePersistentObject
00000000000045a8 g     F .text	00000000000000c8 TEE_DigestDoFinal
0000000000006170 g     F .text	0000000000000050 _TEE_MathAPI_Init
0000000000008d88 g     F .text	0000000000000088 mbedtls_mpi_add_mpi
00000000000077d0 g     F .text	000000000000000c utee_storage_next_enum
00000000000165b8 g     O .bss	0000000000008000 ta_heap
0000000000006c5c g     F .text	000000000000011c TEE_BigIntInvMod
00000000000014ac g     F .text	0000000000000004 TA_CloseSessionEntryPoint
0000000000005420 g     F .text	000000000000014c TEE_AsymmetricDecrypt
0000000000002f14 g     F .text	00000000000000c0 TEE_OpenPersistentObject
0000000000008e10 g     F .text	000000000000008c mbedtls_mpi_sub_mpi
000000000000c7c4 g     F .text	0000000000000070 consttime_memcmp
000000000000759c g     F .text	000000000000000c __utee_panic
0000000000007644 g     F .text	000000000000000c utee_cryp_state_copy
00000000000014b0 g     F .text	00000000000001b8 TA_InvokeCommandEntryPoint
0000000000001f74 g     F .text	0000000000000018 free_wipe
000000000000c684 g     F .text	00000000000000ac mempool_alloc
00000000000076c8 g     F .text	000000000000000c utee_cryp_obj_alloc
000000000000762c g     F .text	000000000000000c utee_set_ta_time
00000000000076bc g     F .text	000000000000000c utee_cryp_obj_get_attr
000000000000c730 g     F .text	0000000000000050 mempool_calloc
0000000000002e38 g     F .text	0000000000000054 TEE_CopyObjectAttributes
0000000000001ea8 g     F .text	0000000000000064 calloc
000000000000f208 g     O .rodata	000000000000001c CERT_PRIVATE_KEY
0000000000013500 g     O .bss	0000000000000060 ctx
0000000000002788 g     F .text	000000000000005c TEE_Malloc
0000000000007608 g     F .text	000000000000000c utee_mask_cancellation
00000000000076e0 g     F .text	000000000000000c utee_cryp_obj_reset
0000000000002600 g     F .text	0000000000000014 TEE_CheckMemoryAccessRights
000000000001e5c0 g       .bss	0000000000000000 __gprof_buf_end
00000000000084a4 g     F .text	0000000000000068 mbedtls_mpi_lset
0000000000003300 g     F .text	000000000000006c TEE_ReadObjectData
0000000000002974 g     F .text	00000000000000ac TEE_GetObjectBufferAttribute
000000000000149c g     F .text	0000000000000010 TA_OpenSessionEntryPoint
00000000000077c4 g     F .text	000000000000000c utee_storage_start_enum
000000000000372c g     F .text	0000000000000044 TEE_FreeOperation
0000000000007794 g     F .text	000000000000000c utee_storage_obj_rename
0000000000016568 g     O .bss	0000000000000004 ta_param_types
00000000000097b0 g     F .text	0000000000000040 mbedtls_mpi_div_int
0000000000002808 g     F .text	0000000000000050 __utee_from_attr
000000000000adc0 g     F .text	00000000000000a8 mbedtls_mpi_is_prime_ext
0000000000007084 g     F .text	0000000000000050 TEE_BigIntIsProbablePrime
000000000000906c g     F .text	0000000000000034 mbedtls_mpi_mul_int
000000000000f200 g     O .rodata	0000000000000008 CERT_KEY_SIZE
0000000000003098 g     F .text	0000000000000048 TEE_CloseAndDeletePersistentObject1
0000000000009e34 g     F .text	000000000000068c mbedtls_mpi_exp_mod
0000000000008300 g     F .text	00000000000000c0 mbedtls_mpi_safe_cond_assign
0000000000000020 g     F .text	000000000000007c alg_to_type
00000000000075a8 g     F .text	000000000000000c utee_get_property
000000000000513c g     F .text	000000000000019c TEE_AEDecryptFinal
00000000000061c0 g     F .text	0000000000000070 TEE_BigIntInit
000000000000262c g     F .text	0000000000000008 TEE_MemMove
000000000000b560 g     F .text	0000000000000014 mbedtls_platform_zeroize
0000000000006230 g     F .text	000000000000008c TEE_BigIntConvertFromOctetString
00000000000089d4 g     F .text	000000000000009c mbedtls_mpi_cmp_abs
0000000000004a10 g     F .text	00000000000000a4 TEE_MACInit
000000000000556c g     F .text	000000000000013c TEE_AsymmetricSignDigest
000000000000c834 g     F .text	000000000000002c memchr
00000000000025a8 g     F .text	000000000000002c TEE_UnmaskCancellation
0000000000002858 g     F .text	0000000000000048 TEE_GetObjectInfo
000000000000b184 g     F .text	00000000000003dc mbedtls_mpi_self_test
00000000000005b0 g     F .text	000000000000011c create_authentication_proof
0000000000007788 g     F .text	000000000000000c utee_storage_obj_del
0000000000004e38 g     F .text	0000000000000144 TEE_AEUpdate
0000000000007800 g     F .text	000000000000000c utee_storage_obj_seek
0000000000002b80 g     F .text	0000000000000054 TEE_FreeTransientObject
0000000000008b48 g     F .text	0000000000000040 mbedtls_mpi_cmp_int
0000000000007668 g     F .text	000000000000000c utee_hash_update
000000000000593c g     F .text	0000000000000024 rand
000000000000f17c g     O .rodata	0000000000000038 CA_PUBLIC_KEY
0000000000003f98 g     F .text	0000000000000048 TEE_GetOperationInfo
0000000000006bc8 g     F .text	0000000000000064 TEE_BigIntMod
00000000000098a4 g     F .text	00000000000000a0 mbedtls_mpi_mod_int
00000000000075cc g     F .text	000000000000000c utee_close_ta_session
0000000000006a50 g     F .text	0000000000000178 TEE_BigIntDiv
000000000000f148 g     O .rodata	0000000000000004 CA_SIGNATURE_HASH_LENGTH
00000000000081ec g     F .text	00000000000000b4 mbedtls_mpi_copy
0000000000001e08 g     F .text	0000000000000018 malloc_reset_stats
000000000000768c g     F .text	000000000000000c utee_cipher_update
00000000000028e0 g     F .text	0000000000000044 TEE_RestrictObjectUsage1
0000000000001f0c g     F .text	0000000000000050 realloc
00000000000082a0 g     F .text	0000000000000060 mbedtls_mpi_swap
000000000000c61c g     F .text	0000000000000068 mempool_alloc_pool
0000000000007764 g     F .text	000000000000000c utee_asymm_verify
0000000000000140 g     F .text	0000000000000098 create_digest_signature
0000000000006960 g     F .text	00000000000000e8 TEE_BigIntMul
000000000000412c g     F .text	0000000000000078 TEE_ResetOperation
000000000000880c g     F .text	0000000000000100 mbedtls_mpi_shift_l
0000000000008a70 g     F .text	00000000000000d8 mbedtls_mpi_cmp_mpi
000000000000263c g     F .text	0000000000000008 TEE_MemFill
0000000000001f8c g     F .text	000000000000011c malloc_add_pool
0000000000004ab4 g     F .text	00000000000000a0 TEE_MACUpdate
000000000000c3d0 g     F .text	0000000000000010 trace_get_level
0000000000008b88 g     F .text	000000000000012c mbedtls_mpi_add_abs
0000000000007710 g     F .text	000000000000000c utee_cryp_random_number_generate
0000000000002924 g     F .text	0000000000000050 TEE_RestrictObjectUsage
00000000000070dc g     F .text	0000000000000010 TEE_BigIntFMMSizeInU32
00000000000070d4 g     F .text	0000000000000004 TEE_BigIntInitFMM
0000000000007758 g     F .text	000000000000000c utee_asymm_operate
0000000000002af4 g     F .text	0000000000000028 TEE_CloseObject
000000000000737c g     F .text	00000000000001fc __utee_entry
000000000000c860 g       .text	0000000000000000 __text_end
0000000000006d78 g     F .text	00000000000000d4 TEE_BigIntRelativePrime
00000000000097f0 g     F .text	00000000000000b4 mbedtls_mpi_mod_mpi
0000000000001c9c g     F .text	00000000000000d4 bpool
000000000000257c g     F .text	000000000000002c TEE_GetCancellationFlag
000000000000a4c0 g     F .text	00000000000001bc mbedtls_mpi_gcd
000000000000271c g     F .text	0000000000000044 TEE_SetTAPersistentTime
00000000000000b4 g     F .text	0000000000000010 get_flag
00000000000022b4 g     F .text	000000000000001c memset
00000000000026a8 g     F .text	0000000000000074 TEE_GetTAPersistentTime
000000000000c618 g     F .text	0000000000000004 dhex_dump
0000000000002fd4 g     F .text	00000000000000c4 TEE_CreatePersistentObject
00000000000025d4 g     F .text	000000000000002c TEE_MaskCancellation
0000000000001030 g     F .text	0000000000000074 create_integrity_check_value
0000000000004da4 g     F .text	0000000000000094 TEE_AEUpdateAAD
00000000000077dc g     F .text	000000000000000c utee_storage_obj_read
00000000000002f8 g     F .text	00000000000000ac read_ecc_public_key
00000000000033d4 g     F .text	0000000000000060 TEE_TruncateObjectData
00000000000076ec g     F .text	000000000000000c utee_cryp_obj_populate
000000000000f158 g     O .rodata	0000000000000008 CA_KEY_SIZE
00000000000028a0 g     F .text	0000000000000040 TEE_GetObjectInfo1
000000000000c3b4 g     F .text	000000000000001c trace_set_level
00000000000076a4 g     F .text	000000000000000c utee_cryp_obj_get_info
0000000000002a20 g     F .text	00000000000000d4 TEE_GetObjectValueAttribute
00000000000041a4 g     F .text	00000000000000f0 TEE_SetOperationKey
00000000000077a0 g     F .text	000000000000000c utee_storage_alloc_enum
00000000000077b8 g     F .text	000000000000000c utee_storage_reset_enum
00000000000077f4 g     F .text	000000000000000c utee_storage_obj_trunc
00000000000063d4 g     F .text	0000000000000088 TEE_BigIntConvertToS32
00000000000068a4 g     F .text	000000000000000c TEE_BigIntSub
00000000000075e4 g     F .text	000000000000000c utee_get_cancellation_flag
000000000000765c g     F .text	000000000000000c utee_hash_init
000000000000167c g     F .text	0000000000000008 tahead_get_trace_level
0000000000002328 g     F .text	0000000000000078 __utee_from_param
0000000000003434 g     F .text	00000000000000d8 TEE_SeekObjectData
0000000000000d94 g     F .text	00000000000000f4 process_handshake_request
00000000000023a0 g     F .text	000000000000006c __utee_to_param
0000000000009df4 g     F .text	0000000000000040 mbedtls_mpi_montred
000000000000f1c0 g     O .rodata	0000000000000038 CERT_CA_SIGNATURE
0000000000004860 g     F .text	00000000000001b0 TEE_CipherDoFinal
0000000000006350 g     F .text	0000000000000084 TEE_BigIntConvertFromS32
0000000000008e9c g     F .text	0000000000000040 mbedtls_mpi_add_int
000000000000f1b8 g     O .rodata	0000000000000004 CERT_SIGNATURE_HASH_ALG
00000000000076b0 g     F .text	000000000000000c utee_cryp_obj_restrict_usage
00000000000020a8 g     F .text	0000000000000180 malloc_buffer_is_within_alloced
00000000000076f8 g     F .text	000000000000000c utee_cryp_obj_copy
00000000000070d8 g     F .text	0000000000000004 TEE_BigIntInitFMMContext
0000000000007704 g     F .text	000000000000000c utee_cryp_derive_key
0000000000000bb8 g     F .text	0000000000000068 security_context_close
000000000000774c g     F .text	000000000000000c utee_authenc_dec_final
000000000000336c g     F .text	0000000000000068 TEE_WriteObjectData
0000000000003208 g     F .text	0000000000000028 TEE_ResetPersistentObjectEnumerator
0000000000000c20 g     F .text	00000000000000b4 set_security_parameters
0000000000006a48 g     F .text	0000000000000008 TEE_BigIntSquare
0000000000001488 g     F .text	0000000000000008 TA_CreateEntryPoint
0000000000001668 g     F .text	0000000000000014 __ta_entry
000000000000c340 g     F .text	0000000000000074 snprintk
0000000000009c84 g     F .text	000000000000003c mbedtls_mpi_montg_init
0000000000006858 g     F .text	0000000000000040 TEE_BigIntGetBitCount
0000000000006c44 g     F .text	000000000000000c TEE_BigIntMulMod
000000000000a988 g     F .text	0000000000000438 mbedtls_mpi_inv_mod
00000000000057d4 g     F .text	0000000000000144 TEE_DeriveKey
0000000000016570 g     O .bss	0000000000000040 ta_params
000000000000013c g     F .text	0000000000000004 print_ta_hex
0000000000009284 g     F .text	000000000000052c mbedtls_mpi_div_mpi
0000000000008674 g     F .text	000000000000001c mbedtls_mpi_size
00000000000016c8 g     F .text	00000000000001c0 bget
0000000000002b1c g     F .text	0000000000000064 TEE_AllocateTransientObject
0000000000008538 g     F .text	000000000000008c mbedtls_mpi_set_bit
00000000000027ec g     F .text	0000000000000004 TEE_Free
000000000000ae68 g     F .text	0000000000000010 mbedtls_mpi_is_prime
0000000000002800 g     F .text	0000000000000008 TEE_CacheInvalidate
0000000000000ba8 g     F .text	0000000000000010 get_evaluation_time
0000000000007680 g     F .text	000000000000000c utee_cipher_init
0000000000002314 g     F .text	0000000000000014 _assert_break
0000000000006c2c g     F .text	000000000000000c TEE_BigIntAddMod
00000000000003a4 g     F .text	00000000000000cc get_certificate_keypair
00000000000077ac g     F .text	000000000000000c utee_storage_free_enum
0000000000007728 g     F .text	000000000000000c utee_authenc_update_aad
0000000000003770 g     F .text	0000000000000828 TEE_AllocateOperation
0000000000005918 g     F .text	0000000000000024 TEE_GenerateRandom
000000000000f14c g     O .rodata	0000000000000004 CA_SIGNATURE_HASH_ALG
0000000000002634 g     F .text	0000000000000008 TEE_MemCompare
000000000000b6b8 g     F .text	0000000000000c34 __vsnprintf
00000000000031e0 g     F .text	0000000000000028 TEE_FreePersistentObjectEnumerator
000000000000240c g     F .text	0000000000000090 TEE_OpenTASession
0000000000007578 g     F .text	000000000000000c utee_panic
0000000000007824 g     F .text	0000000000000028 trace_ext_puts
000000000000784c g     F .text	0000000000000008 trace_ext_get_thread_id
00000000000030e0 g     F .text	000000000000002c TEE_CloseAndDeletePersistentObject
0000000000007f68 g     F .text	000000000000006c mbedtls_mpi_free
00000000000000f4 g     F .text	0000000000000048 write_tee_object_ref_attribute
00000000000027f0 g     F .text	0000000000000008 TEE_CacheClean
00000000000075c0 g     F .text	000000000000000c utee_open_ta_session
00000000000010a4 g     F .text	000000000000022c create_snfc_packet
00000000000000c4 g     F .text	0000000000000030 write_buffer
00000000000083c0 g     F .text	00000000000000e4 mbedtls_mpi_safe_cond_swap
00000000000006cc g     F .text	000000000000011c process_authentication_proof
0000000000002d8c g     F .text	00000000000000ac TEE_CopyObjectAttributes1
0000000000007674 g     F .text	000000000000000c utee_hash_final
000000000000b69c g     F .text	000000000000001c strlen
0000000000006e4c g     F .text	0000000000000238 TEE_BigIntComputeExtendedGcd
000000000000f224 g     O .rodata	0000000000000038 CERT_PUBLIC_KEY
0000000000007770 g     F .text	000000000000000c utee_storage_obj_open
00000000000075d8 g     F .text	000000000000000c utee_invoke_ta_command
0000000000007614 g     F .text	000000000000000c utee_wait
0000000000000e88 g     F .text	00000000000000a0 process_handshake_reply
000000000000f150 g     O .rodata	0000000000000004 CA_SIGNATURE_ALG
0000000000002644 g     F .text	0000000000000028 TEE_GetSystemTime
0000000000000000 g     O .ta_head	0000000000000020 ta_head
000000000000009c g     F .text	0000000000000018 set_flag
0000000000001914 g     F .text	00000000000002bc brel
0000000000008cb4 g     F .text	00000000000000d4 mbedtls_mpi_sub_abs
0000000000007620 g     F .text	000000000000000c utee_get_time
000000000000a67c g     F .text	0000000000000084 mbedtls_mpi_fill_random
0000000000002614 g     F .text	000000000000000c TEE_SetInstanceData
00000000000075fc g     F .text	000000000000000c utee_unmask_cancellation
00000000000075f0 g     F .text	000000000000000c utee_check_access_rights
0000000000009a18 g     F .text	00000000000001d4 mbedtls_mpi_write_string
0000000000003280 g     F .text	0000000000000080 TEE_GetNextPersistentObject
0000000000000cd4 g     F .text	00000000000000c0 create_handshake_request
000000000000780c g     F .text	000000000000000c utee_cryp_obj_generate_key
00000000000004c8 g     F .text	00000000000000e8 process_authentication_id
000000000000249c g     F .text	0000000000000028 TEE_CloseTASession
00000000000056a8 g     F .text	000000000000012c TEE_AsymmetricVerifyDigest
000000000000f154 g     O .rodata	0000000000000004 CA_ECC_CURVE
00000000000134f8 g     O .bss	0000000000000008 elapsed
000000000001e5c0 g       .bss	0000000000000000 __gprof_buf_start
0000000000001f5c g     F .text	0000000000000018 free
0000000000001d70 g     F .text	0000000000000098 bstats
0000000000004b54 g     F .text	00000000000000c0 TEE_MACComputeFinal
00000000000165b0 g     O .bss	0000000000000008 mbedtls_mpi_mempool



Disassembly of section .text:

0000000000000020 <alg_to_type>:
alg_to_type():
/home/thesis/Desktop/secure_nfc/ta/snfc_ta_utils.c:9
      20:	52800021 	mov	w1, #0x1                   	// #1
      24:	72a60001 	movk	w1, #0x3000, lsl #16
      28:	6b01001f 	cmp	w0, w1
      2c:	540002a0 	b.eq	80 <alg_to_type+0x60>  // b.none
      30:	540001a8 	b.hi	64 <alg_to_type+0x44>  // b.pmore
      34:	52804201 	mov	w1, #0x210                 	// #528
      38:	72a20001 	movk	w1, #0x1000, lsl #16
      3c:	6b01001f 	cmp	w0, w1
      40:	54000260 	b.eq	8c <alg_to_type+0x6c>  // b.none
/home/thesis/Desktop/secure_nfc/ta/snfc_ta_utils.c:23
      44:	11080021 	add	w1, w1, #0x200
      48:	6b01001f 	cmp	w0, w1
      4c:	52800200 	mov	w0, #0x10                  	// #16
      50:	528017e1 	mov	w1, #0xbf                  	// #191
      54:	72b40000 	movk	w0, #0xa000, lsl #16
      58:	72b40001 	movk	w1, #0xa000, lsl #16
      5c:	1a810000 	csel	w0, w0, w1, eq  // eq = none
/home/thesis/Desktop/secure_nfc/ta/snfc_ta_utils.c:25
      60:	d65f03c0 	ret
/home/thesis/Desktop/secure_nfc/ta/snfc_ta_utils.c:9
      64:	52800081 	mov	w1, #0x4                   	// #4
      68:	72a60001 	movk	w1, #0x3000, lsl #16
      6c:	6b01001f 	cmp	w0, w1
      70:	54000120 	b.eq	94 <alg_to_type+0x74>  // b.none
/home/thesis/Desktop/secure_nfc/ta/snfc_ta_utils.c:23
      74:	52810201 	mov	w1, #0x810                 	// #2064
      78:	72a80001 	movk	w1, #0x4000, lsl #16
      7c:	17fffff3 	b	48 <alg_to_type+0x28>
/home/thesis/Desktop/secure_nfc/ta/snfc_ta_utils.c:20
      80:	52800020 	mov	w0, #0x1                   	// #1
/home/thesis/Desktop/secure_nfc/ta/snfc_ta_utils.c:17
      84:	72b40000 	movk	w0, #0xa000, lsl #16
      88:	17fffff6 	b	60 <alg_to_type+0x40>
/home/thesis/Desktop/secure_nfc/ta/snfc_ta_utils.c:14
      8c:	52800200 	mov	w0, #0x10                  	// #16
      90:	17fffffd 	b	84 <alg_to_type+0x64>
/home/thesis/Desktop/secure_nfc/ta/snfc_ta_utils.c:17
      94:	52800080 	mov	w0, #0x4                   	// #4
      98:	17fffffb 	b	84 <alg_to_type+0x64>

000000000000009c <set_flag>:
set_flag():
/home/thesis/Desktop/secure_nfc/ta/snfc_ta_utils.c:32
      9c:	12000000 	and	w0, w0, #0x1
      a0:	1ac12000 	lsl	w0, w0, w1
      a4:	79400041 	ldrh	w1, [x2]
      a8:	2a010000 	orr	w0, w0, w1
      ac:	79000040 	strh	w0, [x2]
/home/thesis/Desktop/secure_nfc/ta/snfc_ta_utils.c:33
      b0:	d65f03c0 	ret

00000000000000b4 <get_flag>:
get_flag():
/home/thesis/Desktop/secure_nfc/ta/snfc_ta_utils.c:36
      b4:	12003c21 	and	w1, w1, #0xffff
/home/thesis/Desktop/secure_nfc/ta/snfc_ta_utils.c:37
      b8:	1ac02820 	asr	w0, w1, w0
/home/thesis/Desktop/secure_nfc/ta/snfc_ta_utils.c:38
      bc:	12000000 	and	w0, w0, #0x1
      c0:	d65f03c0 	ret

00000000000000c4 <write_buffer>:
write_buffer():
/home/thesis/Desktop/secure_nfc/ta/snfc_ta_utils.c:41
      c4:	a9be7bfd 	stp	x29, x30, [sp, #-32]!
      c8:	aa0103e3 	mov	x3, x1
/home/thesis/Desktop/secure_nfc/ta/snfc_ta_utils.c:42
      cc:	aa0003e1 	mov	x1, x0
/home/thesis/Desktop/secure_nfc/ta/snfc_ta_utils.c:41
      d0:	910003fd 	mov	x29, sp
/home/thesis/Desktop/secure_nfc/ta/snfc_ta_utils.c:42
      d4:	aa0303e0 	mov	x0, x3
/home/thesis/Desktop/secure_nfc/ta/snfc_ta_utils.c:41
      d8:	f9000bf3 	str	x19, [sp, #16]
      dc:	aa0203f3 	mov	x19, x2
/home/thesis/Desktop/secure_nfc/ta/snfc_ta_utils.c:42
      e0:	9400086d 	bl	2294 <memcpy>
/home/thesis/Desktop/secure_nfc/ta/snfc_ta_utils.c:44
      e4:	8b130000 	add	x0, x0, x19
      e8:	f9400bf3 	ldr	x19, [sp, #16]
      ec:	a8c27bfd 	ldp	x29, x30, [sp], #32
      f0:	d65f03c0 	ret

00000000000000f4 <write_tee_object_ref_attribute>:
write_tee_object_ref_attribute():
/home/thesis/Desktop/secure_nfc/ta/snfc_ta_utils.c:47
      f4:	a9bd7bfd 	stp	x29, x30, [sp, #-48]!
      f8:	910003fd 	mov	x29, sp
      fc:	a90153f3 	stp	x19, x20, [sp, #16]
/home/thesis/Desktop/secure_nfc/ta/snfc_ta_utils.c:51
     100:	9100a3f3 	add	x19, sp, #0x28
     104:	aa1303e3 	mov	x3, x19
/home/thesis/Desktop/secure_nfc/ta/snfc_ta_utils.c:47
     108:	aa0203f4 	mov	x20, x2
/home/thesis/Desktop/secure_nfc/ta/snfc_ta_utils.c:51
     10c:	91002042 	add	x2, x2, #0x8
/home/thesis/Desktop/secure_nfc/ta/snfc_ta_utils.c:48
     110:	f90017ff 	str	xzr, [sp, #40]
/home/thesis/Desktop/secure_nfc/ta/snfc_ta_utils.c:51
     114:	94000a18 	bl	2974 <TEE_GetObjectBufferAttribute>
/home/thesis/Desktop/secure_nfc/ta/snfc_ta_utils.c:53
     118:	aa1403e1 	mov	x1, x20
     11c:	d2800102 	mov	x2, #0x8                   	// #8
     120:	aa1303e0 	mov	x0, x19
     124:	97ffffe8 	bl	c4 <write_buffer>
/home/thesis/Desktop/secure_nfc/ta/snfc_ta_utils.c:56
     128:	f94017e0 	ldr	x0, [sp, #40]
     12c:	a94153f3 	ldp	x19, x20, [sp, #16]
     130:	91002000 	add	x0, x0, #0x8
     134:	a8c37bfd 	ldp	x29, x30, [sp], #48
     138:	d65f03c0 	ret

000000000000013c <print_ta_hex>:
print_ta_hex():
/home/thesis/Desktop/secure_nfc/ta/snfc_ta_utils.c:66
     13c:	d65f03c0 	ret

0000000000000140 <create_digest_signature>:
create_digest_signature():
/home/thesis/Desktop/secure_nfc/ta/snfc_ta_utils.c:69
     140:	a9bb7bfd 	stp	x29, x30, [sp, #-80]!
     144:	910003fd 	mov	x29, sp
     148:	a90153f3 	stp	x19, x20, [sp, #16]
     14c:	aa0303f4 	mov	x20, x3
/home/thesis/Desktop/secure_nfc/ta/snfc_ta_utils.c:74
     150:	2a0203e3 	mov	w3, w2
     154:	52800042 	mov	w2, #0x2                   	// #2
/home/thesis/Desktop/secure_nfc/ta/snfc_ta_utils.c:69
     158:	a9025bf5 	stp	x21, x22, [sp, #32]
     15c:	aa0103f6 	mov	x22, x1
     160:	aa0403f5 	mov	x21, x4
/home/thesis/Desktop/secure_nfc/ta/snfc_ta_utils.c:74
     164:	2a0003e1 	mov	w1, w0
     168:	910123e0 	add	x0, sp, #0x48
/home/thesis/Desktop/secure_nfc/ta/snfc_ta_utils.c:69
     16c:	a90317e6 	stp	x6, x5, [sp, #48]
/home/thesis/Desktop/secure_nfc/ta/snfc_ta_utils.c:74
     170:	94000d80 	bl	3770 <TEE_AllocateOperation>
     174:	a94317e6 	ldp	x6, x5, [sp, #48]
     178:	350002c0 	cbnz	w0, 1d0 <create_digest_signature+0x90>
/home/thesis/Desktop/secure_nfc/ta/snfc_ta_utils.c:76
     17c:	f94027e0 	ldr	x0, [sp, #72]
     180:	aa1603e1 	mov	x1, x22
     184:	a9031be5 	stp	x5, x6, [sp, #48]
     188:	94001007 	bl	41a4 <TEE_SetOperationKey>
     18c:	2a0003f3 	mov	w19, w0
     190:	a9431be5 	ldp	x5, x6, [sp, #48]
     194:	35000100 	cbnz	w0, 1b4 <create_digest_signature+0x74>
/home/thesis/Desktop/secure_nfc/ta/snfc_ta_utils.c:78
     198:	f94027e0 	ldr	x0, [sp, #72]
     19c:	2a1503e4 	mov	w4, w21
     1a0:	aa1403e3 	mov	x3, x20
     1a4:	52800002 	mov	w2, #0x0                   	// #0
     1a8:	d2800001 	mov	x1, #0x0                   	// #0
     1ac:	940014f0 	bl	556c <TEE_AsymmetricSignDigest>
     1b0:	2a0003f3 	mov	w19, w0
/home/thesis/Desktop/secure_nfc/ta/snfc_ta_utils.c:82 (discriminator 1)
     1b4:	f94027e0 	ldr	x0, [sp, #72]
     1b8:	94000d5d 	bl	372c <TEE_FreeOperation>
/home/thesis/Desktop/secure_nfc/ta/snfc_ta_utils.c:86
     1bc:	2a1303e0 	mov	w0, w19
     1c0:	a94153f3 	ldp	x19, x20, [sp, #16]
     1c4:	a9425bf5 	ldp	x21, x22, [sp, #32]
     1c8:	a8c57bfd 	ldp	x29, x30, [sp], #80
     1cc:	d65f03c0 	ret
     1d0:	2a0003f3 	mov	w19, w0
     1d4:	17fffffa 	b	1bc <create_digest_signature+0x7c>

00000000000001d8 <verify_digest_signature>:
verify_digest_signature():
/home/thesis/Desktop/secure_nfc/ta/snfc_ta_utils.c:89
     1d8:	a9ba7bfd 	stp	x29, x30, [sp, #-96]!
     1dc:	910003fd 	mov	x29, sp
     1e0:	a90153f3 	stp	x19, x20, [sp, #16]
     1e4:	aa0303f4 	mov	x20, x3
/home/thesis/Desktop/secure_nfc/ta/snfc_ta_utils.c:94
     1e8:	2a0203e3 	mov	w3, w2
     1ec:	52800062 	mov	w2, #0x3                   	// #3
/home/thesis/Desktop/secure_nfc/ta/snfc_ta_utils.c:89
     1f0:	a9025bf5 	stp	x21, x22, [sp, #32]
     1f4:	aa0403f5 	mov	x21, x4
     1f8:	aa0603f6 	mov	x22, x6
     1fc:	f9001bf7 	str	x23, [sp, #48]
     200:	aa0103f7 	mov	x23, x1
/home/thesis/Desktop/secure_nfc/ta/snfc_ta_utils.c:94
     204:	2a0003e1 	mov	w1, w0
     208:	910163e0 	add	x0, sp, #0x58
/home/thesis/Desktop/secure_nfc/ta/snfc_ta_utils.c:89
     20c:	f90027e5 	str	x5, [sp, #72]
/home/thesis/Desktop/secure_nfc/ta/snfc_ta_utils.c:94
     210:	94000d58 	bl	3770 <TEE_AllocateOperation>
     214:	350002e0 	cbnz	w0, 270 <verify_digest_signature+0x98>
/home/thesis/Desktop/secure_nfc/ta/snfc_ta_utils.c:96
     218:	f9402fe0 	ldr	x0, [sp, #88]
     21c:	aa1703e1 	mov	x1, x23
     220:	94000fe1 	bl	41a4 <TEE_SetOperationKey>
     224:	2a0003f3 	mov	w19, w0
     228:	f94027e5 	ldr	x5, [sp, #72]
     22c:	35000120 	cbnz	w0, 250 <verify_digest_signature+0x78>
/home/thesis/Desktop/secure_nfc/ta/snfc_ta_utils.c:98
     230:	f9402fe0 	ldr	x0, [sp, #88]
     234:	2a1603e6 	mov	w6, w22
     238:	2a1503e4 	mov	w4, w21
     23c:	aa1403e3 	mov	x3, x20
     240:	52800002 	mov	w2, #0x0                   	// #0
     244:	d2800001 	mov	x1, #0x0                   	// #0
     248:	94001518 	bl	56a8 <TEE_AsymmetricVerifyDigest>
     24c:	2a0003f3 	mov	w19, w0
/home/thesis/Desktop/secure_nfc/ta/snfc_ta_utils.c:102 (discriminator 1)
     250:	f9402fe0 	ldr	x0, [sp, #88]
     254:	94000d36 	bl	372c <TEE_FreeOperation>
/home/thesis/Desktop/secure_nfc/ta/snfc_ta_utils.c:106
     258:	2a1303e0 	mov	w0, w19
     25c:	a94153f3 	ldp	x19, x20, [sp, #16]
     260:	a9425bf5 	ldp	x21, x22, [sp, #32]
     264:	f9401bf7 	ldr	x23, [sp, #48]
     268:	a8c67bfd 	ldp	x29, x30, [sp], #96
     26c:	d65f03c0 	ret
     270:	2a0003f3 	mov	w19, w0
     274:	17fffff9 	b	258 <verify_digest_signature+0x80>

0000000000000278 <create_digest>:
create_digest():
/home/thesis/Desktop/secure_nfc/ta/snfc_ta_utils.c:109
     278:	a9bb7bfd 	stp	x29, x30, [sp, #-80]!
     27c:	910003fd 	mov	x29, sp
     280:	a90153f3 	stp	x19, x20, [sp, #16]
     284:	aa0103f4 	mov	x20, x1
/home/thesis/Desktop/secure_nfc/ta/snfc_ta_utils.c:114
     288:	2a0003e1 	mov	w1, w0
     28c:	910123e0 	add	x0, sp, #0x48
/home/thesis/Desktop/secure_nfc/ta/snfc_ta_utils.c:109
     290:	a9025bf5 	stp	x21, x22, [sp, #32]
     294:	aa0203f5 	mov	x21, x2
     298:	aa0303f6 	mov	x22, x3
/home/thesis/Desktop/secure_nfc/ta/snfc_ta_utils.c:114
     29c:	528000a2 	mov	w2, #0x5                   	// #5
     2a0:	52800003 	mov	w3, #0x0                   	// #0
/home/thesis/Desktop/secure_nfc/ta/snfc_ta_utils.c:109
     2a4:	f9001fe4 	str	x4, [sp, #56]
/home/thesis/Desktop/secure_nfc/ta/snfc_ta_utils.c:114
     2a8:	94000d32 	bl	3770 <TEE_AllocateOperation>
     2ac:	35000220 	cbnz	w0, 2f0 <create_digest+0x78>
/home/thesis/Desktop/secure_nfc/ta/snfc_ta_utils.c:116
     2b0:	f94027e0 	ldr	x0, [sp, #72]
     2b4:	94000f9e 	bl	412c <TEE_ResetOperation>
/home/thesis/Desktop/secure_nfc/ta/snfc_ta_utils.c:117
     2b8:	f9401fe4 	ldr	x4, [sp, #56]
     2bc:	aa1603e3 	mov	x3, x22
     2c0:	f94027e0 	ldr	x0, [sp, #72]
     2c4:	2a1503e2 	mov	w2, w21
     2c8:	aa1403e1 	mov	x1, x20
     2cc:	940010b7 	bl	45a8 <TEE_DigestDoFinal>
     2d0:	2a0003f3 	mov	w19, w0
/home/thesis/Desktop/secure_nfc/ta/snfc_ta_utils.c:120
     2d4:	f94027e0 	ldr	x0, [sp, #72]
     2d8:	94000d15 	bl	372c <TEE_FreeOperation>
/home/thesis/Desktop/secure_nfc/ta/snfc_ta_utils.c:124
     2dc:	2a1303e0 	mov	w0, w19
     2e0:	a94153f3 	ldp	x19, x20, [sp, #16]
     2e4:	a9425bf5 	ldp	x21, x22, [sp, #32]
     2e8:	a8c57bfd 	ldp	x29, x30, [sp], #80
     2ec:	d65f03c0 	ret
     2f0:	2a0003f3 	mov	w19, w0
     2f4:	17fffffa 	b	2dc <create_digest+0x64>

00000000000002f8 <read_ecc_public_key>:
read_ecc_public_key():
/home/thesis/Desktop/secure_nfc/ta/snfc_ta_utils.c:127
     2f8:	a9b77bfd 	stp	x29, x30, [sp, #-144]!
     2fc:	910003fd 	mov	x29, sp
     300:	a90153f3 	stp	x19, x20, [sp, #16]
     304:	aa0203f4 	mov	x20, x2
/home/thesis/Desktop/secure_nfc/ta/snfc_ta_utils.c:130
     308:	aa0403e2 	mov	x2, x4
/home/thesis/Desktop/secure_nfc/ta/snfc_ta_utils.c:127
     30c:	a9025bf5 	stp	x21, x22, [sp, #32]
     310:	aa0003f6 	mov	x22, x0
     314:	aa0403f5 	mov	x21, x4
     318:	2a0103e0 	mov	w0, w1
/home/thesis/Desktop/secure_nfc/ta/snfc_ta_utils.c:130
     31c:	2a1403e1 	mov	w1, w20
/home/thesis/Desktop/secure_nfc/ta/snfc_ta_utils.c:127
     320:	f9001bf7 	str	x23, [sp, #48]
     324:	2a0303f7 	mov	w23, w3
/home/thesis/Desktop/secure_nfc/ta/snfc_ta_utils.c:130
     328:	940009fd 	bl	2b1c <TEE_AllocateTransientObject>
     32c:	35000320 	cbnz	w0, 390 <read_ecc_public_key+0x98>
/home/thesis/Desktop/secure_nfc/ta/snfc_ta_utils.c:134
     330:	910123f3 	add	x19, sp, #0x48
/home/thesis/Desktop/secure_nfc/ta/snfc_ta_utils.c:133
     334:	d343fe94 	lsr	x20, x20, #3
/home/thesis/Desktop/secure_nfc/ta/snfc_ta_utils.c:134
     338:	52802821 	mov	w1, #0x141                 	// #321
     33c:	2a1403e3 	mov	w3, w20
     340:	aa1603e2 	mov	x2, x22
     344:	72ba0001 	movk	w1, #0xd000, lsl #16
     348:	aa1303e0 	mov	x0, x19
     34c:	94000a67 	bl	2ce8 <TEE_InitRefAttribute>
/home/thesis/Desktop/secure_nfc/ta/snfc_ta_utils.c:135
     350:	52804821 	mov	w1, #0x241                 	// #577
     354:	2a1403e3 	mov	w3, w20
     358:	8b1402c2 	add	x2, x22, x20
     35c:	72ba0001 	movk	w1, #0xd000, lsl #16
     360:	91006260 	add	x0, x19, #0x18
     364:	94000a61 	bl	2ce8 <TEE_InitRefAttribute>
/home/thesis/Desktop/secure_nfc/ta/snfc_ta_utils.c:136
     368:	52808821 	mov	w1, #0x441                 	// #1089
     36c:	2a1703e2 	mov	w2, w23
     370:	72be0001 	movk	w1, #0xf000, lsl #16
     374:	9100c260 	add	x0, x19, #0x30
     378:	52800003 	mov	w3, #0x0                   	// #0
     37c:	94000a70 	bl	2d3c <TEE_InitValueAttribute>
/home/thesis/Desktop/secure_nfc/ta/snfc_ta_utils.c:137
     380:	f94002a0 	ldr	x0, [x21]
     384:	52800062 	mov	w2, #0x3                   	// #3
     388:	aa1303e1 	mov	x1, x19
     38c:	94000a27 	bl	2c28 <TEE_PopulateTransientObject>
/home/thesis/Desktop/secure_nfc/ta/snfc_ta_utils.c:141
     390:	a94153f3 	ldp	x19, x20, [sp, #16]
     394:	a9425bf5 	ldp	x21, x22, [sp, #32]
     398:	f9401bf7 	ldr	x23, [sp, #48]
     39c:	a8c97bfd 	ldp	x29, x30, [sp], #144
     3a0:	d65f03c0 	ret

00000000000003a4 <get_certificate_keypair>:
get_certificate_keypair():
/home/thesis/Desktop/secure_nfc/ta/snfc_ta_utils.c:144
     3a4:	a9b67bfd 	stp	x29, x30, [sp, #-160]!
     3a8:	910003fd 	mov	x29, sp
     3ac:	a90153f3 	stp	x19, x20, [sp, #16]
     3b0:	aa0203f4 	mov	x20, x2
/home/thesis/Desktop/secure_nfc/ta/snfc_ta_utils.c:147
     3b4:	aa0003e2 	mov	x2, x0
/home/thesis/Desktop/secure_nfc/ta/snfc_ta_utils.c:144
     3b8:	a9025bf5 	stp	x21, x22, [sp, #32]
     3bc:	aa0003f5 	mov	x21, x0
/home/thesis/Desktop/secure_nfc/ta/snfc_ta_utils.c:147
     3c0:	52800820 	mov	w0, #0x41                  	// #65
/home/thesis/Desktop/secure_nfc/ta/snfc_ta_utils.c:144
     3c4:	aa0103f6 	mov	x22, x1
/home/thesis/Desktop/secure_nfc/ta/snfc_ta_utils.c:147
     3c8:	72b42000 	movk	w0, #0xa100, lsl #16
     3cc:	2a1403e1 	mov	w1, w20
/home/thesis/Desktop/secure_nfc/ta/snfc_ta_utils.c:144
     3d0:	a90363f7 	stp	x23, x24, [sp, #48]
     3d4:	aa0303f8 	mov	x24, x3
     3d8:	2a0403f7 	mov	w23, w4
/home/thesis/Desktop/secure_nfc/ta/snfc_ta_utils.c:147
     3dc:	940009d0 	bl	2b1c <TEE_AllocateTransientObject>
     3e0:	350003e0 	cbnz	w0, 45c <get_certificate_keypair+0xb8>
/home/thesis/Desktop/secure_nfc/ta/snfc_ta_utils.c:151
     3e4:	910103f3 	add	x19, sp, #0x40
/home/thesis/Desktop/secure_nfc/ta/snfc_ta_utils.c:150
     3e8:	d343fe94 	lsr	x20, x20, #3
/home/thesis/Desktop/secure_nfc/ta/snfc_ta_utils.c:151
     3ec:	52802821 	mov	w1, #0x141                 	// #321
     3f0:	2a1403e3 	mov	w3, w20
     3f4:	aa1603e2 	mov	x2, x22
     3f8:	72ba0001 	movk	w1, #0xd000, lsl #16
     3fc:	aa1303e0 	mov	x0, x19
     400:	94000a3a 	bl	2ce8 <TEE_InitRefAttribute>
/home/thesis/Desktop/secure_nfc/ta/snfc_ta_utils.c:152
     404:	52804821 	mov	w1, #0x241                 	// #577
     408:	2a1403e3 	mov	w3, w20
     40c:	8b1402c2 	add	x2, x22, x20
     410:	72ba0001 	movk	w1, #0xd000, lsl #16
     414:	91006260 	add	x0, x19, #0x18
     418:	94000a34 	bl	2ce8 <TEE_InitRefAttribute>
/home/thesis/Desktop/secure_nfc/ta/snfc_ta_utils.c:153
     41c:	52806821 	mov	w1, #0x341                 	// #833
     420:	2a1403e3 	mov	w3, w20
     424:	aa1803e2 	mov	x2, x24
     428:	72b80001 	movk	w1, #0xc000, lsl #16
     42c:	9100c260 	add	x0, x19, #0x30
     430:	94000a2e 	bl	2ce8 <TEE_InitRefAttribute>
/home/thesis/Desktop/secure_nfc/ta/snfc_ta_utils.c:154
     434:	52808821 	mov	w1, #0x441                 	// #1089
     438:	2a1703e2 	mov	w2, w23
     43c:	72be0001 	movk	w1, #0xf000, lsl #16
     440:	91012260 	add	x0, x19, #0x48
     444:	52800003 	mov	w3, #0x0                   	// #0
     448:	94000a3d 	bl	2d3c <TEE_InitValueAttribute>
/home/thesis/Desktop/secure_nfc/ta/snfc_ta_utils.c:155
     44c:	f94002a0 	ldr	x0, [x21]
     450:	52800082 	mov	w2, #0x4                   	// #4
     454:	aa1303e1 	mov	x1, x19
     458:	940009f4 	bl	2c28 <TEE_PopulateTransientObject>
/home/thesis/Desktop/secure_nfc/ta/snfc_ta_utils.c:159
     45c:	a94153f3 	ldp	x19, x20, [sp, #16]
     460:	a9425bf5 	ldp	x21, x22, [sp, #32]
     464:	a94363f7 	ldp	x23, x24, [sp, #48]
     468:	a8ca7bfd 	ldp	x29, x30, [sp], #160
     46c:	d65f03c0 	ret

0000000000000470 <create_authentication_id>:
create_authentication_id():
/home/thesis/Desktop/secure_nfc/ta/snfc_ta_authentication.c:32
     470:	a9bd7bfd 	stp	x29, x30, [sp, #-48]!
write_authentication_id():
/home/thesis/Desktop/secure_nfc/ta/snfc_ta_authentication.c:15
     474:	d2800702 	mov	x2, #0x38                  	// #56
create_authentication_id():
/home/thesis/Desktop/secure_nfc/ta/snfc_ta_authentication.c:32
     478:	910003fd 	mov	x29, sp
     47c:	a90153f3 	stp	x19, x20, [sp, #16]
write_authentication_id():
/home/thesis/Desktop/secure_nfc/ta/snfc_ta_authentication.c:15
     480:	f0000094 	adrp	x20, 13000 <.got>
create_authentication_id():
/home/thesis/Desktop/secure_nfc/ta/snfc_ta_authentication.c:32
     484:	aa0003f3 	mov	x19, x0
write_authentication_id():
/home/thesis/Desktop/secure_nfc/ta/snfc_ta_authentication.c:15
     488:	f9405280 	ldr	x0, [x20, #160]
create_authentication_id():
/home/thesis/Desktop/secure_nfc/ta/snfc_ta_authentication.c:32
     48c:	f90013f5 	str	x21, [sp, #32]
     490:	aa0103f5 	mov	x21, x1
write_authentication_id():
/home/thesis/Desktop/secure_nfc/ta/snfc_ta_authentication.c:15
     494:	aa1303e1 	mov	x1, x19
     498:	97ffff0b 	bl	c4 <write_buffer>
/home/thesis/Desktop/secure_nfc/ta/snfc_ta_authentication.c:16
     49c:	aa0003e1 	mov	x1, x0
     4a0:	f9404a80 	ldr	x0, [x20, #144]
     4a4:	d2800702 	mov	x2, #0x38                  	// #56
     4a8:	97ffff07 	bl	c4 <write_buffer>
/home/thesis/Desktop/secure_nfc/ta/snfc_ta_authentication.c:18
     4ac:	cb130000 	sub	x0, x0, x19
create_authentication_id():
/home/thesis/Desktop/secure_nfc/ta/snfc_ta_authentication.c:37
     4b0:	a94153f3 	ldp	x19, x20, [sp, #16]
/home/thesis/Desktop/secure_nfc/ta/snfc_ta_authentication.c:34
     4b4:	f90002a0 	str	x0, [x21]
/home/thesis/Desktop/secure_nfc/ta/snfc_ta_authentication.c:37
     4b8:	52800000 	mov	w0, #0x0                   	// #0
     4bc:	f94013f5 	ldr	x21, [sp, #32]
     4c0:	a8c37bfd 	ldp	x29, x30, [sp], #48
     4c4:	d65f03c0 	ret

00000000000004c8 <process_authentication_id>:
process_authentication_id():
/home/thesis/Desktop/secure_nfc/ta/snfc_ta_authentication.c:71
     4c8:	a9bb7bfd 	stp	x29, x30, [sp, #-80]!
     4cc:	910003fd 	mov	x29, sp
     4d0:	a90153f3 	stp	x19, x20, [sp, #16]
verify_public_key():
/home/thesis/Desktop/secure_nfc/ta/snfc_ta_authentication.c:53
     4d4:	d2800714 	mov	x20, #0x38                  	// #56
process_authentication_id():
/home/thesis/Desktop/secure_nfc/ta/snfc_ta_authentication.c:71
     4d8:	a9025bf5 	stp	x21, x22, [sp, #32]
     4dc:	aa0103f6 	mov	x22, x1
verify_public_key():
/home/thesis/Desktop/secure_nfc/ta/snfc_ta_authentication.c:54
     4e0:	d2800021 	mov	x1, #0x1                   	// #1
process_authentication_id():
/home/thesis/Desktop/secure_nfc/ta/snfc_ta_authentication.c:71
     4e4:	a90363f7 	stp	x23, x24, [sp, #48]
     4e8:	aa0003f8 	mov	x24, x0
verify_public_key():
/home/thesis/Desktop/secure_nfc/ta/snfc_ta_authentication.c:54
     4ec:	aa1403e0 	mov	x0, x20
/home/thesis/Desktop/secure_nfc/ta/snfc_ta_authentication.c:53
     4f0:	f90023f4 	str	x20, [sp, #64]
/home/thesis/Desktop/secure_nfc/ta/snfc_ta_authentication.c:54
     4f4:	9400066d 	bl	1ea8 <calloc>
/home/thesis/Desktop/secure_nfc/ta/snfc_ta_authentication.c:56
     4f8:	aa0003e3 	mov	x3, x0
/home/thesis/Desktop/secure_nfc/ta/snfc_ta_authentication.c:54
     4fc:	aa0003f5 	mov	x21, x0
/home/thesis/Desktop/secure_nfc/ta/snfc_ta_authentication.c:56
     500:	52800060 	mov	w0, #0x3                   	// #3
     504:	910103e4 	add	x4, sp, #0x40
     508:	aa1403e2 	mov	x2, x20
     50c:	aa1603e1 	mov	x1, x22
     510:	72aa0000 	movk	w0, #0x5000, lsl #16
     514:	97ffff59 	bl	278 <create_digest>
     518:	2a0003f3 	mov	w19, w0
     51c:	35000280 	cbnz	w0, 56c <process_authentication_id+0xa4>
/home/thesis/Desktop/secure_nfc/ta/snfc_ta_authentication.c:59
     520:	f0000097 	adrp	x23, 13000 <.got>
     524:	52800821 	mov	w1, #0x41                  	// #65
     528:	910123e4 	add	x4, sp, #0x48
     52c:	52800043 	mov	w3, #0x2                   	// #2
     530:	f9403ee0 	ldr	x0, [x23, #120]
     534:	d2801c02 	mov	x2, #0xe0                  	// #224
     538:	72b40001 	movk	w1, #0xa000, lsl #16
     53c:	97ffff6f 	bl	2f8 <read_ecc_public_key>
     540:	2a0003f3 	mov	w19, w0
     544:	35000140 	cbnz	w0, 56c <process_authentication_id+0xa4>
/home/thesis/Desktop/secure_nfc/ta/snfc_ta_authentication.c:61
     548:	a94407e4 	ldp	x4, x1, [sp, #64]
     54c:	52840820 	mov	w0, #0x2041                	// #8257
     550:	f9404ae5 	ldr	x5, [x23, #144]
     554:	aa1403e6 	mov	x6, x20
     558:	aa1503e3 	mov	x3, x21
     55c:	d2801c02 	mov	x2, #0xe0                  	// #224
     560:	72ae0000 	movk	w0, #0x7000, lsl #16
     564:	97ffff1d 	bl	1d8 <verify_digest_signature>
     568:	2a0003f3 	mov	w19, w0
/home/thesis/Desktop/secure_nfc/ta/snfc_ta_authentication.c:65
     56c:	aa1503e0 	mov	x0, x21
     570:	9400067b 	bl	1f5c <free>
process_authentication_id():
/home/thesis/Desktop/secure_nfc/ta/snfc_ta_authentication.c:76
     574:	35000133 	cbnz	w19, 598 <process_authentication_id+0xd0>
/home/thesis/Desktop/secure_nfc/ta/snfc_ta_authentication.c:78
     578:	52800821 	mov	w1, #0x41                  	// #65
     57c:	91016304 	add	x4, x24, #0x58
     580:	52800043 	mov	w3, #0x2                   	// #2
     584:	d2801c02 	mov	x2, #0xe0                  	// #224
     588:	72b40001 	movk	w1, #0xa000, lsl #16
     58c:	aa1603e0 	mov	x0, x22
     590:	97ffff5a 	bl	2f8 <read_ecc_public_key>
     594:	2a0003f3 	mov	w19, w0
/home/thesis/Desktop/secure_nfc/ta/snfc_ta_authentication.c:82
     598:	2a1303e0 	mov	w0, w19
     59c:	a94153f3 	ldp	x19, x20, [sp, #16]
     5a0:	a9425bf5 	ldp	x21, x22, [sp, #32]
     5a4:	a94363f7 	ldp	x23, x24, [sp, #48]
     5a8:	a8c57bfd 	ldp	x29, x30, [sp], #80
     5ac:	d65f03c0 	ret

00000000000005b0 <create_authentication_proof>:
create_authentication_proof():
/home/thesis/Desktop/secure_nfc/ta/snfc_ta_authentication.c:105
     5b0:	a9ba7bfd 	stp	x29, x30, [sp, #-96]!
     5b4:	910003fd 	mov	x29, sp
     5b8:	a90153f3 	stp	x19, x20, [sp, #16]
     5bc:	aa0103f3 	mov	x19, x1
/home/thesis/Desktop/secure_nfc/ta/snfc_ta_authentication.c:109
     5c0:	d2800021 	mov	x1, #0x1                   	// #1
/home/thesis/Desktop/secure_nfc/ta/snfc_ta_authentication.c:105
     5c4:	a9025bf5 	stp	x21, x22, [sp, #32]
     5c8:	aa0003f5 	mov	x21, x0
/home/thesis/Desktop/secure_nfc/ta/snfc_ta_authentication.c:108
     5cc:	d2800380 	mov	x0, #0x1c                  	// #28
/home/thesis/Desktop/secure_nfc/ta/snfc_ta_authentication.c:105
     5d0:	a90363f7 	stp	x23, x24, [sp, #48]
     5d4:	aa0203f8 	mov	x24, x2
     5d8:	aa0303f7 	mov	x23, x3
/home/thesis/Desktop/secure_nfc/ta/snfc_ta_authentication.c:108
     5dc:	f90027e0 	str	x0, [sp, #72]
/home/thesis/Desktop/secure_nfc/ta/snfc_ta_authentication.c:109
     5e0:	94000632 	bl	1ea8 <calloc>
/home/thesis/Desktop/secure_nfc/ta/snfc_ta_authentication.c:111
     5e4:	b4000700 	cbz	x0, 6c4 <create_authentication_proof+0x114>
/home/thesis/Desktop/secure_nfc/ta/snfc_ta_authentication.c:114
     5e8:	b94022a2 	ldr	w2, [x21, #32]
     5ec:	aa0003e3 	mov	x3, x0
     5f0:	aa0003f4 	mov	x20, x0
     5f4:	52800060 	mov	w0, #0x3                   	// #3
     5f8:	aa1303e1 	mov	x1, x19
     5fc:	910123e4 	add	x4, sp, #0x48
     600:	53037c42 	lsr	w2, w2, #3
     604:	72aa0000 	movk	w0, #0x5000, lsl #16
     608:	d37f7042 	ubfiz	x2, x2, #1, #29
     60c:	97ffff1b 	bl	278 <create_digest>
     610:	2a0003f3 	mov	w19, w0
     614:	35000480 	cbnz	w0, 6a4 <create_authentication_proof+0xf4>
/home/thesis/Desktop/secure_nfc/ta/snfc_ta_authentication.c:117
     618:	f0000081 	adrp	x1, 13000 <.got>
     61c:	52800044 	mov	w4, #0x2                   	// #2
     620:	d2801c02 	mov	x2, #0xe0                  	// #224
     624:	910143e0 	add	x0, sp, #0x50
     628:	f9403023 	ldr	x3, [x1, #96]
     62c:	f9405021 	ldr	x1, [x1, #160]
     630:	97ffff5d 	bl	3a4 <get_certificate_keypair>
     634:	2a0003f3 	mov	w19, w0
     638:	35000360 	cbnz	w0, 6a4 <create_authentication_proof+0xf4>
/home/thesis/Desktop/secure_nfc/ta/snfc_ta_authentication.c:119
     63c:	d2800700 	mov	x0, #0x38                  	// #56
/home/thesis/Desktop/secure_nfc/ta/snfc_ta_authentication.c:120
     640:	d2800021 	mov	x1, #0x1                   	// #1
/home/thesis/Desktop/secure_nfc/ta/snfc_ta_authentication.c:119
     644:	f9002fe0 	str	x0, [sp, #88]
/home/thesis/Desktop/secure_nfc/ta/snfc_ta_authentication.c:120
     648:	94000618 	bl	1ea8 <calloc>
     64c:	aa0003f5 	mov	x21, x0
/home/thesis/Desktop/secure_nfc/ta/snfc_ta_authentication.c:122
     650:	b4000260 	cbz	x0, 69c <create_authentication_proof+0xec>
/home/thesis/Desktop/secure_nfc/ta/snfc_ta_authentication.c:124
     654:	a94487e4 	ldp	x4, x1, [sp, #72]
     658:	aa0003e5 	mov	x5, x0
     65c:	52840820 	mov	w0, #0x2041                	// #8257
     660:	910163e6 	add	x6, sp, #0x58
     664:	aa1403e3 	mov	x3, x20
     668:	d2801c02 	mov	x2, #0xe0                  	// #224
     66c:	72ae0000 	movk	w0, #0x7000, lsl #16
     670:	97fffeb4 	bl	140 <create_digest_signature>
     674:	2a0003f3 	mov	w19, w0
     678:	350000e0 	cbnz	w0, 694 <create_authentication_proof+0xe4>
/home/thesis/Desktop/secure_nfc/ta/snfc_ta_authentication.c:126
     67c:	f9402ff6 	ldr	x22, [sp, #88]
     680:	aa1503e1 	mov	x1, x21
     684:	aa1803e0 	mov	x0, x24
     688:	aa1603e2 	mov	x2, x22
     68c:	94000702 	bl	2294 <memcpy>
/home/thesis/Desktop/secure_nfc/ta/snfc_ta_authentication.c:127
     690:	f90002f6 	str	x22, [x23]
/home/thesis/Desktop/secure_nfc/ta/snfc_ta_authentication.c:131
     694:	aa1503e0 	mov	x0, x21
     698:	94000855 	bl	27ec <TEE_Free>
/home/thesis/Desktop/secure_nfc/ta/snfc_ta_authentication.c:134
     69c:	f9402be0 	ldr	x0, [sp, #80]
     6a0:	94000938 	bl	2b80 <TEE_FreeTransientObject>
/home/thesis/Desktop/secure_nfc/ta/snfc_ta_authentication.c:138
     6a4:	aa1403e0 	mov	x0, x20
     6a8:	94000851 	bl	27ec <TEE_Free>
/home/thesis/Desktop/secure_nfc/ta/snfc_ta_authentication.c:142
     6ac:	2a1303e0 	mov	w0, w19
     6b0:	a94153f3 	ldp	x19, x20, [sp, #16]
     6b4:	a9425bf5 	ldp	x21, x22, [sp, #32]
     6b8:	a94363f7 	ldp	x23, x24, [sp, #48]
     6bc:	a8c67bfd 	ldp	x29, x30, [sp], #96
     6c0:	d65f03c0 	ret
/home/thesis/Desktop/secure_nfc/ta/snfc_ta_authentication.c:106
     6c4:	52bffff3 	mov	w19, #0xffff0000            	// #-65536
/home/thesis/Desktop/secure_nfc/ta/snfc_ta_authentication.c:141
     6c8:	17fffff9 	b	6ac <create_authentication_proof+0xfc>

00000000000006cc <process_authentication_proof>:
process_authentication_proof():
/home/thesis/Desktop/secure_nfc/ta/snfc_ta_authentication.c:145
     6cc:	a9bb7bfd 	stp	x29, x30, [sp, #-80]!
     6d0:	910003fd 	mov	x29, sp
     6d4:	a90153f3 	stp	x19, x20, [sp, #16]
     6d8:	aa0003f4 	mov	x20, x0
/home/thesis/Desktop/secure_nfc/ta/snfc_ta_authentication.c:148
     6dc:	d2800380 	mov	x0, #0x1c                  	// #28
/home/thesis/Desktop/secure_nfc/ta/snfc_ta_authentication.c:145
     6e0:	a9025bf5 	stp	x21, x22, [sp, #32]
     6e4:	a90363f7 	stp	x23, x24, [sp, #48]
     6e8:	aa0103f8 	mov	x24, x1
/home/thesis/Desktop/secure_nfc/ta/snfc_ta_authentication.c:149
     6ec:	d2800021 	mov	x1, #0x1                   	// #1
/home/thesis/Desktop/secure_nfc/ta/snfc_ta_authentication.c:148
     6f0:	f90023e0 	str	x0, [sp, #64]
/home/thesis/Desktop/secure_nfc/ta/snfc_ta_authentication.c:149
     6f4:	940005ed 	bl	1ea8 <calloc>
/home/thesis/Desktop/secure_nfc/ta/snfc_ta_authentication.c:151
     6f8:	b4000740 	cbz	x0, 7e0 <process_authentication_proof+0x114>
     6fc:	aa0003f5 	mov	x21, x0
create_kep_digest():
/home/thesis/Desktop/secure_nfc/ta/snfc_ta_authentication.c:88
     700:	b9402280 	ldr	w0, [x20, #32]
/home/thesis/Desktop/secure_nfc/ta/snfc_ta_authentication.c:89
     704:	d2800021 	mov	x1, #0x1                   	// #1
/home/thesis/Desktop/secure_nfc/ta/snfc_ta_authentication.c:91
     708:	910123f7 	add	x23, sp, #0x48
/home/thesis/Desktop/secure_nfc/ta/snfc_ta_authentication.c:88
     70c:	53037c00 	lsr	w0, w0, #3
     710:	d37f7000 	ubfiz	x0, x0, #1, #29
     714:	f90027e0 	str	x0, [sp, #72]
/home/thesis/Desktop/secure_nfc/ta/snfc_ta_authentication.c:89
     718:	940005e4 	bl	1ea8 <calloc>
/home/thesis/Desktop/secure_nfc/ta/snfc_ta_authentication.c:91
     71c:	aa0003e2 	mov	x2, x0
/home/thesis/Desktop/secure_nfc/ta/snfc_ta_authentication.c:89
     720:	aa0003f6 	mov	x22, x0
/home/thesis/Desktop/secure_nfc/ta/snfc_ta_authentication.c:91
     724:	52802821 	mov	w1, #0x141                 	// #321
     728:	f9401680 	ldr	x0, [x20, #40]
     72c:	aa1703e3 	mov	x3, x23
     730:	72ba0001 	movk	w1, #0xd000, lsl #16
     734:	94000890 	bl	2974 <TEE_GetObjectBufferAttribute>
     738:	2a0003f3 	mov	w19, w0
     73c:	35000420 	cbnz	w0, 7c0 <process_authentication_proof+0xf4>
/home/thesis/Desktop/secure_nfc/ta/snfc_ta_authentication.c:93
     740:	b9402282 	ldr	w2, [x20, #32]
     744:	52804821 	mov	w1, #0x241                 	// #577
     748:	f9401680 	ldr	x0, [x20, #40]
     74c:	aa1703e3 	mov	x3, x23
     750:	53037c42 	lsr	w2, w2, #3
     754:	72ba0001 	movk	w1, #0xd000, lsl #16
     758:	8b0202c2 	add	x2, x22, x2
     75c:	94000886 	bl	2974 <TEE_GetObjectBufferAttribute>
     760:	2a0003f3 	mov	w19, w0
     764:	350002e0 	cbnz	w0, 7c0 <process_authentication_proof+0xf4>
/home/thesis/Desktop/secure_nfc/ta/snfc_ta_authentication.c:95
     768:	f94027e2 	ldr	x2, [sp, #72]
     76c:	910103e4 	add	x4, sp, #0x40
     770:	aa1503e3 	mov	x3, x21
     774:	aa1603e1 	mov	x1, x22
     778:	52800060 	mov	w0, #0x3                   	// #3
     77c:	d37ff842 	lsl	x2, x2, #1
     780:	72aa0000 	movk	w0, #0x5000, lsl #16
     784:	97fffebd 	bl	278 <create_digest>
     788:	2a0003f3 	mov	w19, w0
/home/thesis/Desktop/secure_nfc/ta/snfc_ta_authentication.c:97
     78c:	aa1603e0 	mov	x0, x22
     790:	940005f3 	bl	1f5c <free>
process_authentication_proof():
/home/thesis/Desktop/secure_nfc/ta/snfc_ta_authentication.c:153
     794:	35000173 	cbnz	w19, 7c0 <process_authentication_proof+0xf4>
/home/thesis/Desktop/secure_nfc/ta/snfc_ta_authentication.c:155
     798:	f94023e4 	ldr	x4, [sp, #64]
     79c:	52840820 	mov	w0, #0x2041                	// #8257
     7a0:	f9402e81 	ldr	x1, [x20, #88]
     7a4:	d2800706 	mov	x6, #0x38                  	// #56
     7a8:	aa1803e5 	mov	x5, x24
     7ac:	aa1503e3 	mov	x3, x21
     7b0:	d2801c02 	mov	x2, #0xe0                  	// #224
     7b4:	72ae0000 	movk	w0, #0x7000, lsl #16
     7b8:	97fffe88 	bl	1d8 <verify_digest_signature>
     7bc:	2a0003f3 	mov	w19, w0
/home/thesis/Desktop/secure_nfc/ta/snfc_ta_authentication.c:160
     7c0:	aa1503e0 	mov	x0, x21
     7c4:	9400080a 	bl	27ec <TEE_Free>
/home/thesis/Desktop/secure_nfc/ta/snfc_ta_authentication.c:164
     7c8:	2a1303e0 	mov	w0, w19
     7cc:	a94153f3 	ldp	x19, x20, [sp, #16]
     7d0:	a9425bf5 	ldp	x21, x22, [sp, #32]
     7d4:	a94363f7 	ldp	x23, x24, [sp, #48]
     7d8:	a8c57bfd 	ldp	x29, x30, [sp], #80
     7dc:	d65f03c0 	ret
/home/thesis/Desktop/secure_nfc/ta/snfc_ta_authentication.c:146
     7e0:	52bffff3 	mov	w19, #0xffff0000            	// #-65536
/home/thesis/Desktop/secure_nfc/ta/snfc_ta_authentication.c:163
     7e4:	17fffff9 	b	7c8 <process_authentication_proof+0xfc>

00000000000007e8 <write_ecc_public_values>:
write_ecc_public_values():
/home/thesis/Desktop/secure_nfc/ta/snfc_ta_handshake.c:137
     7e8:	a9bc7bfd 	stp	x29, x30, [sp, #-64]!
     7ec:	910003fd 	mov	x29, sp
     7f0:	a90153f3 	stp	x19, x20, [sp, #16]
     7f4:	aa0103f4 	mov	x20, x1
     7f8:	aa0303f3 	mov	x19, x3
     7fc:	a9025bf5 	stp	x21, x22, [sp, #32]
/home/thesis/Desktop/secure_nfc/ta/snfc_ta_handshake.c:141
     800:	9100f3f5 	add	x21, sp, #0x3c
/home/thesis/Desktop/secure_nfc/ta/snfc_ta_handshake.c:137
     804:	aa0003f6 	mov	x22, x0
/home/thesis/Desktop/secure_nfc/ta/snfc_ta_handshake.c:140
     808:	b9003fe2 	str	w2, [sp, #60]
/home/thesis/Desktop/secure_nfc/ta/snfc_ta_handshake.c:141
     80c:	aa0103e2 	mov	x2, x1
     810:	52802821 	mov	w1, #0x141                 	// #321
     814:	aa1503e3 	mov	x3, x21
     818:	72ba0001 	movk	w1, #0xd000, lsl #16
     81c:	94000856 	bl	2974 <TEE_GetObjectBufferAttribute>
     820:	350001a0 	cbnz	w0, 854 <write_ecc_public_values+0x6c>
/home/thesis/Desktop/secure_nfc/ta/snfc_ta_handshake.c:143
     824:	b9403fe2 	ldr	w2, [sp, #60]
/home/thesis/Desktop/secure_nfc/ta/snfc_ta_handshake.c:144
     828:	52804821 	mov	w1, #0x241                 	// #577
/home/thesis/Desktop/secure_nfc/ta/snfc_ta_handshake.c:143
     82c:	b9000262 	str	w2, [x19]
/home/thesis/Desktop/secure_nfc/ta/snfc_ta_handshake.c:144
     830:	72ba0001 	movk	w1, #0xd000, lsl #16
     834:	aa1503e3 	mov	x3, x21
     838:	aa1603e0 	mov	x0, x22
     83c:	8b224282 	add	x2, x20, w2, uxtw
     840:	9400084d 	bl	2974 <TEE_GetObjectBufferAttribute>
/home/thesis/Desktop/secure_nfc/ta/snfc_ta_handshake.c:146
     844:	b9400261 	ldr	w1, [x19]
     848:	b9403fe2 	ldr	w2, [sp, #60]
     84c:	0b020021 	add	w1, w1, w2
     850:	b9000261 	str	w1, [x19]
/home/thesis/Desktop/secure_nfc/ta/snfc_ta_handshake.c:151
     854:	a94153f3 	ldp	x19, x20, [sp, #16]
     858:	a9425bf5 	ldp	x21, x22, [sp, #32]
     85c:	a8c47bfd 	ldp	x29, x30, [sp], #64
     860:	d65f03c0 	ret

0000000000000864 <iv_init>:
iv_init():
/home/thesis/Desktop/secure_nfc/ta/snfc_ta_handshake.c:161
     864:	a9bd7bfd 	stp	x29, x30, [sp, #-48]!
     868:	910003fd 	mov	x29, sp
     86c:	a90153f3 	stp	x19, x20, [sp, #16]
     870:	aa0003f3 	mov	x19, x0
/home/thesis/Desktop/secure_nfc/ta/snfc_ta_handshake.c:164
     874:	b9400800 	ldr	w0, [x0, #8]
/home/thesis/Desktop/secure_nfc/ta/snfc_ta_handshake.c:161
     878:	aa0103f4 	mov	x20, x1
/home/thesis/Desktop/secure_nfc/ta/snfc_ta_handshake.c:165
     87c:	f9402261 	ldr	x1, [x19, #64]
/home/thesis/Desktop/secure_nfc/ta/snfc_ta_handshake.c:164
     880:	53037c00 	lsr	w0, w0, #3
     884:	f90017e0 	str	x0, [sp, #40]
/home/thesis/Desktop/secure_nfc/ta/snfc_ta_handshake.c:165
     888:	b5000081 	cbnz	x1, 898 <iv_init+0x34>
/home/thesis/Desktop/secure_nfc/ta/snfc_ta_handshake.c:165 (discriminator 1)
     88c:	d2800021 	mov	x1, #0x1                   	// #1
     890:	94000586 	bl	1ea8 <calloc>
     894:	f9002260 	str	x0, [x19, #64]
/home/thesis/Desktop/secure_nfc/ta/snfc_ta_handshake.c:167
     898:	f9402263 	ldr	x3, [x19, #64]
     89c:	b4000183 	cbz	x3, 8cc <iv_init+0x68>
/home/thesis/Desktop/secure_nfc/ta/snfc_ta_handshake.c:169
     8a0:	b9402262 	ldr	w2, [x19, #32]
     8a4:	52800020 	mov	w0, #0x1                   	// #1
     8a8:	9100a3e4 	add	x4, sp, #0x28
     8ac:	aa1403e1 	mov	x1, x20
     8b0:	72aa0000 	movk	w0, #0x5000, lsl #16
     8b4:	53037c42 	lsr	w2, w2, #3
     8b8:	d37f7042 	ubfiz	x2, x2, #1, #29
     8bc:	97fffe6f 	bl	278 <create_digest>
/home/thesis/Desktop/secure_nfc/ta/snfc_ta_handshake.c:174
     8c0:	a94153f3 	ldp	x19, x20, [sp, #16]
     8c4:	a8c37bfd 	ldp	x29, x30, [sp], #48
     8c8:	d65f03c0 	ret
/home/thesis/Desktop/secure_nfc/ta/snfc_ta_handshake.c:162
     8cc:	52bfffe0 	mov	w0, #0xffff0000            	// #-65536
/home/thesis/Desktop/secure_nfc/ta/snfc_ta_handshake.c:173
     8d0:	17fffffc 	b	8c0 <iv_init+0x5c>

00000000000008d4 <create_key>:
create_key():
/home/thesis/Desktop/secure_nfc/ta/snfc_ta_handshake.c:79
     8d4:	a9ba7bfd 	stp	x29, x30, [sp, #-96]!
     8d8:	910003fd 	mov	x29, sp
     8dc:	a90153f3 	stp	x19, x20, [sp, #16]
     8e0:	aa0003f4 	mov	x20, x0
/home/thesis/Desktop/secure_nfc/ta/snfc_ta_handshake.c:82
     8e4:	2a0203e0 	mov	w0, w2
/home/thesis/Desktop/secure_nfc/ta/snfc_ta_handshake.c:79
     8e8:	a9025bf5 	stp	x21, x22, [sp, #32]
     8ec:	aa0103f6 	mov	x22, x1
     8f0:	f9001bf7 	str	x23, [sp, #48]
     8f4:	aa0303f7 	mov	x23, x3
/home/thesis/Desktop/secure_nfc/ta/snfc_ta_handshake.c:82
     8f8:	97fffdca 	bl	20 <alg_to_type>
     8fc:	aa1403e2 	mov	x2, x20
     900:	2a1603e1 	mov	w1, w22
     904:	94000886 	bl	2b1c <TEE_AllocateTransientObject>
     908:	2a0003f5 	mov	w21, w0
     90c:	350001a0 	cbnz	w0, 940 <create_key+0x6c>
/home/thesis/Desktop/secure_nfc/ta/snfc_ta_handshake.c:84
     910:	f9400280 	ldr	x0, [x20]
/home/thesis/Desktop/secure_nfc/ta/snfc_ta_handshake.c:87
     914:	910123f3 	add	x19, sp, #0x48
/home/thesis/Desktop/secure_nfc/ta/snfc_ta_handshake.c:84
     918:	940008af 	bl	2bd4 <TEE_ResetTransientObject>
/home/thesis/Desktop/secure_nfc/ta/snfc_ta_handshake.c:87
     91c:	aa1703e2 	mov	x2, x23
     920:	52b80001 	mov	w1, #0xc0000000            	// #-1073741824
     924:	aa1303e0 	mov	x0, x19
     928:	d3438ac3 	ubfx	x3, x22, #3, #32
     92c:	940008ef 	bl	2ce8 <TEE_InitRefAttribute>
/home/thesis/Desktop/secure_nfc/ta/snfc_ta_handshake.c:88
     930:	f9400280 	ldr	x0, [x20]
     934:	52800022 	mov	w2, #0x1                   	// #1
     938:	aa1303e1 	mov	x1, x19
     93c:	940008bb 	bl	2c28 <TEE_PopulateTransientObject>
/home/thesis/Desktop/secure_nfc/ta/snfc_ta_handshake.c:95
     940:	2a1503e0 	mov	w0, w21
     944:	a94153f3 	ldp	x19, x20, [sp, #16]
     948:	a9425bf5 	ldp	x21, x22, [sp, #32]
     94c:	f9401bf7 	ldr	x23, [sp, #48]
     950:	a8c67bfd 	ldp	x29, x30, [sp], #96
     954:	d65f03c0 	ret

0000000000000958 <process_key_exchange>:
process_key_exchange():
/home/thesis/Desktop/secure_nfc/ta/snfc_ta_handshake.c:239
     958:	a9b67bfd 	stp	x29, x30, [sp, #-160]!
     95c:	910003fd 	mov	x29, sp
     960:	a9025bf5 	stp	x21, x22, [sp, #32]
derive_shared_secret():
/home/thesis/Desktop/secure_nfc/ta/snfc_ta_handshake.c:49
     964:	910143e2 	add	x2, sp, #0x50
process_key_exchange():
/home/thesis/Desktop/secure_nfc/ta/snfc_ta_handshake.c:245
     968:	b9402015 	ldr	w21, [x0, #32]
/home/thesis/Desktop/secure_nfc/ta/snfc_ta_handshake.c:239
     96c:	a90153f3 	stp	x19, x20, [sp, #16]
     970:	aa0003f4 	mov	x20, x0
     974:	a90363f7 	stp	x23, x24, [sp, #48]
     978:	aa0103f7 	mov	x23, x1
derive_shared_secret():
/home/thesis/Desktop/secure_nfc/ta/snfc_ta_handshake.c:49
     97c:	2a1503e1 	mov	w1, w21
process_key_exchange():
/home/thesis/Desktop/secure_nfc/ta/snfc_ta_handshake.c:239
     980:	a9046bf9 	stp	x25, x26, [sp, #64]
/home/thesis/Desktop/secure_nfc/ta/snfc_ta_handshake.c:245
     984:	b940181a 	ldr	w26, [x0, #24]
     988:	f9401419 	ldr	x25, [x0, #40]
derive_shared_secret():
/home/thesis/Desktop/secure_nfc/ta/snfc_ta_handshake.c:49
     98c:	52b40000 	mov	w0, #0xa0000000            	// #-1610612736
     990:	94000863 	bl	2b1c <TEE_AllocateTransientObject>
     994:	2a0003f3 	mov	w19, w0
     998:	35000f00 	cbnz	w0, b78 <process_key_exchange+0x220>
process_key_exchange():
/home/thesis/Desktop/secure_nfc/ta/snfc_ta_handshake.c:245
     99c:	53037eb3 	lsr	w19, w21, #3
derive_shared_secret():
/home/thesis/Desktop/secure_nfc/ta/snfc_ta_handshake.c:52
     9a0:	9101c3f6 	add	x22, sp, #0x70
     9a4:	52802821 	mov	w1, #0x141                 	// #321
     9a8:	2a1303e3 	mov	w3, w19
     9ac:	aa1703e2 	mov	x2, x23
     9b0:	72ba0001 	movk	w1, #0xd000, lsl #16
     9b4:	aa1603e0 	mov	x0, x22
     9b8:	940008cc 	bl	2ce8 <TEE_InitRefAttribute>
process_key_exchange():
/home/thesis/Desktop/secure_nfc/ta/snfc_ta_handshake.c:245
     9bc:	2a1303e2 	mov	w2, w19
derive_shared_secret():
/home/thesis/Desktop/secure_nfc/ta/snfc_ta_handshake.c:53
     9c0:	52804821 	mov	w1, #0x241                 	// #577
     9c4:	2a1303e3 	mov	w3, w19
     9c8:	8b0202e2 	add	x2, x23, x2
     9cc:	72ba0001 	movk	w1, #0xd000, lsl #16
     9d0:	910062c0 	add	x0, x22, #0x18
/home/thesis/Desktop/secure_nfc/ta/snfc_ta_handshake.c:57
     9d4:	9101a3f8 	add	x24, sp, #0x68
/home/thesis/Desktop/secure_nfc/ta/snfc_ta_handshake.c:53
     9d8:	940008c4 	bl	2ce8 <TEE_InitRefAttribute>
/home/thesis/Desktop/secure_nfc/ta/snfc_ta_handshake.c:57
     9dc:	2a1503e3 	mov	w3, w21
     9e0:	528000c2 	mov	w2, #0x6                   	// #6
     9e4:	2a1a03e1 	mov	w1, w26
     9e8:	aa1803e0 	mov	x0, x24
     9ec:	94000b61 	bl	3770 <TEE_AllocateOperation>
     9f0:	2a0003f3 	mov	w19, w0
     9f4:	35000be0 	cbnz	w0, b70 <process_key_exchange+0x218>
/home/thesis/Desktop/secure_nfc/ta/snfc_ta_handshake.c:59
     9f8:	f94037e0 	ldr	x0, [sp, #104]
     9fc:	aa1903e1 	mov	x1, x25
     a00:	94000de9 	bl	41a4 <TEE_SetOperationKey>
/home/thesis/Desktop/secure_nfc/ta/snfc_ta_handshake.c:61
     a04:	f9402be3 	ldr	x3, [sp, #80]
     a08:	52800042 	mov	w2, #0x2                   	// #2
     a0c:	f94037e0 	ldr	x0, [sp, #104]
     a10:	aa1603e1 	mov	x1, x22
     a14:	94001370 	bl	57d4 <TEE_DeriveKey>
/home/thesis/Desktop/secure_nfc/ta/snfc_ta_handshake.c:63
     a18:	f94037e0 	ldr	x0, [sp, #104]
     a1c:	94000b44 	bl	372c <TEE_FreeOperation>
derive_session_keys():
/home/thesis/Desktop/secure_nfc/ta/snfc_ta_handshake.c:102
     a20:	b9402280 	ldr	w0, [x20, #32]
/home/thesis/Desktop/secure_nfc/ta/snfc_ta_handshake.c:103
     a24:	d2800021 	mov	x1, #0x1                   	// #1
/home/thesis/Desktop/secure_nfc/ta/snfc_ta_handshake.c:102
     a28:	53037c00 	lsr	w0, w0, #3
     a2c:	f90037e0 	str	x0, [sp, #104]
/home/thesis/Desktop/secure_nfc/ta/snfc_ta_handshake.c:103
     a30:	9400051e 	bl	1ea8 <calloc>
/home/thesis/Desktop/secure_nfc/ta/snfc_ta_handshake.c:105
     a34:	aa0003e2 	mov	x2, x0
/home/thesis/Desktop/secure_nfc/ta/snfc_ta_handshake.c:103
     a38:	aa0003f7 	mov	x23, x0
/home/thesis/Desktop/secure_nfc/ta/snfc_ta_handshake.c:105
     a3c:	aa1803e3 	mov	x3, x24
     a40:	f9402be0 	ldr	x0, [sp, #80]
     a44:	52b80001 	mov	w1, #0xc0000000            	// #-1073741824
     a48:	940007cb 	bl	2974 <TEE_GetObjectBufferAttribute>
     a4c:	2a0003f3 	mov	w19, w0
     a50:	350003e0 	cbnz	w0, acc <process_key_exchange+0x174>
/home/thesis/Desktop/secure_nfc/ta/snfc_ta_handshake.c:107
     a54:	d2800800 	mov	x0, #0x40                  	// #64
/home/thesis/Desktop/secure_nfc/ta/snfc_ta_handshake.c:108
     a58:	d2800101 	mov	x1, #0x8                   	// #8
/home/thesis/Desktop/secure_nfc/ta/snfc_ta_handshake.c:107
     a5c:	f9003be0 	str	x0, [sp, #112]
/home/thesis/Desktop/secure_nfc/ta/snfc_ta_handshake.c:108
     a60:	94000512 	bl	1ea8 <calloc>
     a64:	aa0003f5 	mov	x21, x0
/home/thesis/Desktop/secure_nfc/ta/snfc_ta_handshake.c:110
     a68:	b4000320 	cbz	x0, acc <process_key_exchange+0x174>
/home/thesis/Desktop/secure_nfc/ta/snfc_ta_handshake.c:112
     a6c:	f94037e2 	ldr	x2, [sp, #104]
     a70:	aa0003e3 	mov	x3, x0
     a74:	528000c0 	mov	w0, #0x6                   	// #6
     a78:	aa1603e4 	mov	x4, x22
     a7c:	aa1703e1 	mov	x1, x23
     a80:	72aa0000 	movk	w0, #0x5000, lsl #16
     a84:	97fffdfd 	bl	278 <create_digest>
     a88:	2a0003f3 	mov	w19, w0
     a8c:	350001c0 	cbnz	w0, ac4 <process_key_exchange+0x16c>
/home/thesis/Desktop/secure_nfc/ta/snfc_ta_handshake.c:114
     a90:	29400682 	ldp	w2, w1, [x20]
     a94:	aa1503e3 	mov	x3, x21
     a98:	910163e0 	add	x0, sp, #0x58
     a9c:	97ffff8e 	bl	8d4 <create_key>
     aa0:	2a0003f3 	mov	w19, w0
     aa4:	35000100 	cbnz	w0, ac4 <process_key_exchange+0x16c>
/home/thesis/Desktop/secure_nfc/ta/snfc_ta_handshake.c:116
     aa8:	b9400683 	ldr	w3, [x20, #4]
     aac:	910183e0 	add	x0, sp, #0x60
     ab0:	29418682 	ldp	w2, w1, [x20, #12]
     ab4:	53037c63 	lsr	w3, w3, #3
     ab8:	8b0302a3 	add	x3, x21, x3
     abc:	97ffff86 	bl	8d4 <create_key>
     ac0:	2a0003f3 	mov	w19, w0
/home/thesis/Desktop/secure_nfc/ta/snfc_ta_handshake.c:126
     ac4:	aa1503e0 	mov	x0, x21
     ac8:	94000749 	bl	27ec <TEE_Free>
/home/thesis/Desktop/secure_nfc/ta/snfc_ta_handshake.c:131
     acc:	aa1703e0 	mov	x0, x23
     ad0:	94000523 	bl	1f5c <free>
process_key_exchange():
/home/thesis/Desktop/secure_nfc/ta/snfc_ta_handshake.c:248
     ad4:	350004f3 	cbnz	w19, b70 <process_key_exchange+0x218>
security_context_init():
/home/thesis/Desktop/secure_nfc/ta/snfc_ta_handshake.c:181
     ad8:	29400e81 	ldp	w1, w3, [x20]
     adc:	52800002 	mov	w2, #0x0                   	// #0
     ae0:	9100c280 	add	x0, x20, #0x30
     ae4:	94000b23 	bl	3770 <TEE_AllocateOperation>
     ae8:	2a0003f3 	mov	w19, w0
     aec:	350003a0 	cbnz	w0, b60 <process_key_exchange+0x208>
/home/thesis/Desktop/secure_nfc/ta/snfc_ta_handshake.c:184
     af0:	29400e81 	ldp	w1, w3, [x20]
     af4:	52800022 	mov	w2, #0x1                   	// #1
     af8:	9100e280 	add	x0, x20, #0x38
     afc:	94000b1d 	bl	3770 <TEE_AllocateOperation>
     b00:	2a0003f3 	mov	w19, w0
     b04:	350004c0 	cbnz	w0, b9c <process_key_exchange+0x244>
/home/thesis/Desktop/secure_nfc/ta/snfc_ta_handshake.c:186
     b08:	29418e81 	ldp	w1, w3, [x20, #12]
     b0c:	52800082 	mov	w2, #0x4                   	// #4
     b10:	91012280 	add	x0, x20, #0x48
     b14:	94000b17 	bl	3770 <TEE_AllocateOperation>
     b18:	2a0003f3 	mov	w19, w0
     b1c:	350003c0 	cbnz	w0, b94 <process_key_exchange+0x23c>
/home/thesis/Desktop/secure_nfc/ta/snfc_ta_handshake.c:189
     b20:	f9401a80 	ldr	x0, [x20, #48]
     b24:	f9402fe1 	ldr	x1, [sp, #88]
     b28:	94000d9f 	bl	41a4 <TEE_SetOperationKey>
     b2c:	2a0003f3 	mov	w19, w0
     b30:	35000320 	cbnz	w0, b94 <process_key_exchange+0x23c>
/home/thesis/Desktop/secure_nfc/ta/snfc_ta_handshake.c:190
     b34:	f9401e80 	ldr	x0, [x20, #56]
     b38:	f9402fe1 	ldr	x1, [sp, #88]
     b3c:	94000d9a 	bl	41a4 <TEE_SetOperationKey>
     b40:	2a0003f3 	mov	w19, w0
/home/thesis/Desktop/secure_nfc/ta/snfc_ta_handshake.c:189
     b44:	35000280 	cbnz	w0, b94 <process_key_exchange+0x23c>
/home/thesis/Desktop/secure_nfc/ta/snfc_ta_handshake.c:191
     b48:	f9402680 	ldr	x0, [x20, #72]
     b4c:	f94033e1 	ldr	x1, [sp, #96]
     b50:	94000d95 	bl	41a4 <TEE_SetOperationKey>
     b54:	2a0003f3 	mov	w19, w0
/home/thesis/Desktop/secure_nfc/ta/snfc_ta_handshake.c:190
     b58:	350001e0 	cbnz	w0, b94 <process_key_exchange+0x23c>
/home/thesis/Desktop/secure_nfc/ta/snfc_ta_handshake.c:194
     b5c:	f9002a9f 	str	xzr, [x20, #80]
process_key_exchange():
/home/thesis/Desktop/secure_nfc/ta/snfc_ta_handshake.c:251
     b60:	f9402fe0 	ldr	x0, [sp, #88]
     b64:	94000807 	bl	2b80 <TEE_FreeTransientObject>
/home/thesis/Desktop/secure_nfc/ta/snfc_ta_handshake.c:252
     b68:	f94033e0 	ldr	x0, [sp, #96]
     b6c:	94000805 	bl	2b80 <TEE_FreeTransientObject>
/home/thesis/Desktop/secure_nfc/ta/snfc_ta_handshake.c:256
     b70:	f9402be0 	ldr	x0, [sp, #80]
     b74:	94000803 	bl	2b80 <TEE_FreeTransientObject>
/home/thesis/Desktop/secure_nfc/ta/snfc_ta_handshake.c:261
     b78:	2a1303e0 	mov	w0, w19
     b7c:	a94153f3 	ldp	x19, x20, [sp, #16]
     b80:	a9425bf5 	ldp	x21, x22, [sp, #32]
     b84:	a94363f7 	ldp	x23, x24, [sp, #48]
     b88:	a9446bf9 	ldp	x25, x26, [sp, #64]
     b8c:	a8ca7bfd 	ldp	x29, x30, [sp], #160
     b90:	d65f03c0 	ret
security_context_init():
/home/thesis/Desktop/secure_nfc/ta/snfc_ta_handshake.c:203
     b94:	f9401e80 	ldr	x0, [x20, #56]
     b98:	94000ae5 	bl	372c <TEE_FreeOperation>
/home/thesis/Desktop/secure_nfc/ta/snfc_ta_handshake.c:208
     b9c:	f9401a80 	ldr	x0, [x20, #48]
     ba0:	94000ae3 	bl	372c <TEE_FreeOperation>
     ba4:	17ffffef 	b	b60 <process_key_exchange+0x208>

0000000000000ba8 <get_evaluation_time>:
get_evaluation_time():
/home/thesis/Desktop/secure_nfc/ta/snfc_ta_handshake.c:18
     ba8:	f0000080 	adrp	x0, 13000 <.got>
/home/thesis/Desktop/secure_nfc/ta/snfc_ta_handshake.c:19
     bac:	f9405800 	ldr	x0, [x0, #176]
     bb0:	f9400000 	ldr	x0, [x0]
     bb4:	d65f03c0 	ret

0000000000000bb8 <security_context_close>:
security_context_close():
/home/thesis/Desktop/secure_nfc/ta/snfc_ta_handshake.c:217
     bb8:	a9be7bfd 	stp	x29, x30, [sp, #-32]!
     bbc:	910003fd 	mov	x29, sp
     bc0:	f9000bf3 	str	x19, [sp, #16]
     bc4:	aa0003f3 	mov	x19, x0
/home/thesis/Desktop/secure_nfc/ta/snfc_ta_handshake.c:218
     bc8:	f9401800 	ldr	x0, [x0, #48]
     bcc:	b4000040 	cbz	x0, bd4 <security_context_close+0x1c>
/home/thesis/Desktop/secure_nfc/ta/snfc_ta_handshake.c:218 (discriminator 1)
     bd0:	94000ad7 	bl	372c <TEE_FreeOperation>
/home/thesis/Desktop/secure_nfc/ta/snfc_ta_handshake.c:219
     bd4:	f9401e60 	ldr	x0, [x19, #56]
     bd8:	b4000040 	cbz	x0, be0 <security_context_close+0x28>
/home/thesis/Desktop/secure_nfc/ta/snfc_ta_handshake.c:219 (discriminator 1)
     bdc:	94000ad4 	bl	372c <TEE_FreeOperation>
/home/thesis/Desktop/secure_nfc/ta/snfc_ta_handshake.c:220
     be0:	f9402660 	ldr	x0, [x19, #72]
     be4:	b4000040 	cbz	x0, bec <security_context_close+0x34>
/home/thesis/Desktop/secure_nfc/ta/snfc_ta_handshake.c:220 (discriminator 1)
     be8:	94000ad1 	bl	372c <TEE_FreeOperation>
/home/thesis/Desktop/secure_nfc/ta/snfc_ta_handshake.c:222
     bec:	f9401660 	ldr	x0, [x19, #40]
     bf0:	b4000040 	cbz	x0, bf8 <security_context_close+0x40>
/home/thesis/Desktop/secure_nfc/ta/snfc_ta_handshake.c:222 (discriminator 1)
     bf4:	940007e3 	bl	2b80 <TEE_FreeTransientObject>
/home/thesis/Desktop/secure_nfc/ta/snfc_ta_handshake.c:223
     bf8:	f9402260 	ldr	x0, [x19, #64]
     bfc:	b4000040 	cbz	x0, c04 <security_context_close+0x4c>
/home/thesis/Desktop/secure_nfc/ta/snfc_ta_handshake.c:223 (discriminator 1)
     c00:	940006fb 	bl	27ec <TEE_Free>
/home/thesis/Desktop/secure_nfc/ta/snfc_ta_handshake.c:224
     c04:	f9402e60 	ldr	x0, [x19, #88]
     c08:	b4000040 	cbz	x0, c10 <security_context_close+0x58>
/home/thesis/Desktop/secure_nfc/ta/snfc_ta_handshake.c:224 (discriminator 1)
     c0c:	940007dd 	bl	2b80 <TEE_FreeTransientObject>
/home/thesis/Desktop/secure_nfc/ta/snfc_ta_handshake.c:225
     c10:	f9002a7f 	str	xzr, [x19, #80]
/home/thesis/Desktop/secure_nfc/ta/snfc_ta_handshake.c:226
     c14:	f9400bf3 	ldr	x19, [sp, #16]
     c18:	a8c27bfd 	ldp	x29, x30, [sp], #32
     c1c:	d65f03c0 	ret

0000000000000c20 <set_security_parameters>:
set_security_parameters():
/home/thesis/Desktop/secure_nfc/ta/snfc_ta_handshake.c:229
     c20:	a9bb7bfd 	stp	x29, x30, [sp, #-80]!
/home/thesis/Desktop/secure_nfc/ta/snfc_ta_handshake.c:230
     c24:	92401c21 	and	x1, x1, #0xff
     c28:	f0000063 	adrp	x3, f000 <__text_end+0x27a0>
/home/thesis/Desktop/secure_nfc/ta/snfc_ta_handshake.c:229
     c2c:	910003fd 	mov	x29, sp
/home/thesis/Desktop/secure_nfc/ta/snfc_ta_handshake.c:230
     c30:	913a1063 	add	x3, x3, #0xe84
/home/thesis/Desktop/secure_nfc/ta/snfc_ta_handshake.c:229
     c34:	a90153f3 	stp	x19, x20, [sp, #16]
     c38:	12001c53 	and	w19, w2, #0xff
/home/thesis/Desktop/secure_nfc/ta/snfc_ta_handshake.c:230
     c3c:	d2800302 	mov	x2, #0x18                  	// #24
/home/thesis/Desktop/secure_nfc/ta/snfc_ta_handshake.c:229
     c40:	aa0003f4 	mov	x20, x0
     c44:	a9025bf5 	stp	x21, x22, [sp, #32]
/home/thesis/Desktop/secure_nfc/ta/snfc_ta_handshake.c:230
     c48:	9b020c21 	madd	x1, x1, x2, x3
     c4c:	94000592 	bl	2294 <memcpy>
/home/thesis/Desktop/secure_nfc/ta/snfc_ta_handshake.c:231
     c50:	93407e60 	sxtw	x0, w19
     c54:	d2800182 	mov	x2, #0xc                   	// #12
     c58:	f0000061 	adrp	x1, f000 <__text_end+0x27a0>
     c5c:	910a1021 	add	x1, x1, #0x284
     c60:	9b027c00 	mul	x0, x0, x2
     c64:	8b000024 	add	x4, x1, x0
     c68:	b8606820 	ldr	w0, [x1, x0]
     c6c:	2940cc82 	ldp	w2, w19, [x4, #4]
     c70:	29030a80 	stp	w0, w2, [x20, #24]
     c74:	b9002293 	str	w19, [x20, #32]
create_ecdh_key():
/home/thesis/Desktop/secure_nfc/ta/snfc_ta_handshake.c:32
     c78:	52800840 	mov	w0, #0x42                  	// #66
set_security_parameters():
/home/thesis/Desktop/secure_nfc/ta/snfc_ta_handshake.c:233
     c7c:	2a0203f6 	mov	w22, w2
create_ecdh_key():
/home/thesis/Desktop/secure_nfc/ta/snfc_ta_handshake.c:32
     c80:	2a1303e1 	mov	w1, w19
     c84:	9100a282 	add	x2, x20, #0x28
     c88:	72b42000 	movk	w0, #0xa100, lsl #16
     c8c:	940007a4 	bl	2b1c <TEE_AllocateTransientObject>
     c90:	350001a0 	cbnz	w0, cc4 <set_security_parameters+0xa4>
/home/thesis/Desktop/secure_nfc/ta/snfc_ta_handshake.c:35
     c94:	9100e3f5 	add	x21, sp, #0x38
     c98:	52808821 	mov	w1, #0x441                 	// #1089
     c9c:	52800003 	mov	w3, #0x0                   	// #0
     ca0:	2a1603e2 	mov	w2, w22
     ca4:	72be0001 	movk	w1, #0xf000, lsl #16
     ca8:	aa1503e0 	mov	x0, x21
     cac:	94000824 	bl	2d3c <TEE_InitValueAttribute>
/home/thesis/Desktop/secure_nfc/ta/snfc_ta_handshake.c:36
     cb0:	f9401680 	ldr	x0, [x20, #40]
     cb4:	52800023 	mov	w3, #0x1                   	// #1
     cb8:	aa1503e2 	mov	x2, x21
     cbc:	2a1303e1 	mov	w1, w19
     cc0:	94000873 	bl	2e8c <TEE_GenerateKey>
set_security_parameters():
/home/thesis/Desktop/secure_nfc/ta/snfc_ta_handshake.c:234
     cc4:	a94153f3 	ldp	x19, x20, [sp, #16]
     cc8:	a9425bf5 	ldp	x21, x22, [sp, #32]
     ccc:	a8c57bfd 	ldp	x29, x30, [sp], #80
     cd0:	d65f03c0 	ret

0000000000000cd4 <create_handshake_request>:
create_handshake_request():
/home/thesis/Desktop/secure_nfc/ta/snfc_ta_handshake.c:302
     cd4:	a9ba7bfd 	stp	x29, x30, [sp, #-96]!
     cd8:	910003fd 	mov	x29, sp
     cdc:	f90023f9 	str	x25, [sp, #64]
     ce0:	aa0003f9 	mov	x25, x0
     ce4:	a9025bf5 	stp	x21, x22, [sp, #32]
     ce8:	aa0503f6 	mov	x22, x5
write_handshake_request():
/home/thesis/Desktop/secure_nfc/ta/snfc_ta_handshake.c:296
     cec:	910143e0 	add	x0, sp, #0x50
create_handshake_request():
/home/thesis/Desktop/secure_nfc/ta/snfc_ta_handshake.c:302
     cf0:	a90153f3 	stp	x19, x20, [sp, #16]
     cf4:	aa0403f4 	mov	x20, x4
     cf8:	a90363f7 	stp	x23, x24, [sp, #48]
     cfc:	12001c78 	and	w24, w3, #0xff
write_key_exchange_parameters():
/home/thesis/Desktop/secure_nfc/ta/snfc_ta_handshake.c:155
     d00:	910163f7 	add	x23, sp, #0x58
     d04:	390143e1 	strb	w1, [sp, #80]
write_handshake_request():
/home/thesis/Desktop/secure_nfc/ta/snfc_ta_handshake.c:296
     d08:	aa0403e1 	mov	x1, x4
     d0c:	390147e2 	strb	w2, [sp, #81]
     d10:	d2800062 	mov	x2, #0x3                   	// #3
     d14:	39014bf8 	strb	w24, [sp, #82]
create_handshake_request():
/home/thesis/Desktop/secure_nfc/ta/snfc_ta_handshake.c:305
     d18:	f9002fff 	str	xzr, [sp, #88]
write_handshake_request():
/home/thesis/Desktop/secure_nfc/ta/snfc_ta_handshake.c:296
     d1c:	97fffcea 	bl	c4 <write_buffer>
/home/thesis/Desktop/secure_nfc/ta/snfc_ta_handshake.c:298
     d20:	cb140013 	sub	x19, x0, x20
/home/thesis/Desktop/secure_nfc/ta/snfc_ta_handshake.c:296
     d24:	aa0003f5 	mov	x21, x0
write_key_exchange_parameters():
/home/thesis/Desktop/secure_nfc/ta/snfc_ta_handshake.c:155
     d28:	aa0003e1 	mov	x1, x0
     d2c:	aa1703e3 	mov	x3, x23
     d30:	f9401720 	ldr	x0, [x25, #40]
create_handshake_request():
/home/thesis/Desktop/secure_nfc/ta/snfc_ta_handshake.c:310
     d34:	f9002ff3 	str	x19, [sp, #88]
/home/thesis/Desktop/secure_nfc/ta/snfc_ta_handshake.c:314
     d38:	f94002c2 	ldr	x2, [x22]
write_key_exchange_parameters():
/home/thesis/Desktop/secure_nfc/ta/snfc_ta_handshake.c:155
     d3c:	cb130042 	sub	x2, x2, x19
     d40:	97fffeaa 	bl	7e8 <write_ecc_public_values>
create_handshake_request():
/home/thesis/Desktop/secure_nfc/ta/snfc_ta_handshake.c:314
     d44:	350001c0 	cbnz	w0, d7c <create_handshake_request+0xa8>
/home/thesis/Desktop/secure_nfc/ta/snfc_ta_handshake.c:316
     d48:	aa1503e1 	mov	x1, x21
     d4c:	aa1903e0 	mov	x0, x25
     d50:	97fffec5 	bl	864 <iv_init>
     d54:	35000140 	cbnz	w0, d7c <create_handshake_request+0xa8>
/home/thesis/Desktop/secure_nfc/ta/snfc_ta_handshake.c:318
     d58:	f9402fe1 	ldr	x1, [sp, #88]
     d5c:	8b010273 	add	x19, x19, x1
/home/thesis/Desktop/secure_nfc/ta/snfc_ta_handshake.c:321
     d60:	340000d8 	cbz	w24, d78 <create_handshake_request+0xa4>
/home/thesis/Desktop/secure_nfc/ta/snfc_ta_handshake.c:323
     d64:	aa1703e1 	mov	x1, x23
     d68:	8b130280 	add	x0, x20, x19
     d6c:	97fffdc1 	bl	470 <create_authentication_id>
/home/thesis/Desktop/secure_nfc/ta/snfc_ta_handshake.c:324
     d70:	f9402fe1 	ldr	x1, [sp, #88]
     d74:	8b010273 	add	x19, x19, x1
/home/thesis/Desktop/secure_nfc/ta/snfc_ta_handshake.c:327
     d78:	f90002d3 	str	x19, [x22]
/home/thesis/Desktop/secure_nfc/ta/snfc_ta_handshake.c:332
     d7c:	a94153f3 	ldp	x19, x20, [sp, #16]
     d80:	a9425bf5 	ldp	x21, x22, [sp, #32]
     d84:	a94363f7 	ldp	x23, x24, [sp, #48]
     d88:	f94023f9 	ldr	x25, [sp, #64]
     d8c:	a8c67bfd 	ldp	x29, x30, [sp], #96
     d90:	d65f03c0 	ret

0000000000000d94 <process_handshake_request>:
process_handshake_request():
/home/thesis/Desktop/secure_nfc/ta/snfc_ta_handshake.c:337
     d94:	a9ba7bfd 	stp	x29, x30, [sp, #-96]!
     d98:	910003fd 	mov	x29, sp
     d9c:	a90153f3 	stp	x19, x20, [sp, #16]
     da0:	aa0103f3 	mov	x19, x1
     da4:	a9025bf5 	stp	x21, x22, [sp, #32]
     da8:	aa0003f5 	mov	x21, x0
     dac:	aa0303f6 	mov	x22, x3
     db0:	a90363f7 	stp	x23, x24, [sp, #48]
     db4:	aa0403f8 	mov	x24, x4
     db8:	f90023f9 	str	x25, [sp, #64]
read_handshake_request():
/home/thesis/Desktop/secure_nfc/ta/snfc_ta_handshake.c:286
     dbc:	39400839 	ldrb	w25, [x1, #2]
process_handshake_request():
/home/thesis/Desktop/secure_nfc/ta/snfc_ta_handshake.c:345
     dc0:	39400422 	ldrb	w2, [x1, #1]
     dc4:	39400021 	ldrb	w1, [x1]
     dc8:	97ffff96 	bl	c20 <set_security_parameters>
     dcc:	35000520 	cbnz	w0, e70 <process_handshake_request+0xdc>
/home/thesis/Desktop/secure_nfc/ta/snfc_ta_handshake.c:341
     dd0:	91000e73 	add	x19, x19, #0x3
/home/thesis/Desktop/secure_nfc/ta/snfc_ta_handshake.c:347
     dd4:	aa1503e0 	mov	x0, x21
     dd8:	aa1303e1 	mov	x1, x19
     ddc:	97fffedf 	bl	958 <process_key_exchange>
     de0:	35000480 	cbnz	w0, e70 <process_handshake_request+0xdc>
/home/thesis/Desktop/secure_nfc/ta/snfc_ta_handshake.c:349
     de4:	aa1303e1 	mov	x1, x19
     de8:	aa1503e0 	mov	x0, x21
     dec:	97fffe9e 	bl	864 <iv_init>
     df0:	35000400 	cbnz	w0, e70 <process_handshake_request+0xdc>
write_key_exchange_parameters():
/home/thesis/Desktop/secure_nfc/ta/snfc_ta_handshake.c:155
     df4:	f94016a0 	ldr	x0, [x21, #40]
     df8:	910163f7 	add	x23, sp, #0x58
     dfc:	aa1703e3 	mov	x3, x23
     e00:	aa1803e2 	mov	x2, x24
     e04:	aa1603e1 	mov	x1, x22
process_handshake_request():
/home/thesis/Desktop/secure_nfc/ta/snfc_ta_handshake.c:352
     e08:	f9002fff 	str	xzr, [sp, #88]
write_key_exchange_parameters():
/home/thesis/Desktop/secure_nfc/ta/snfc_ta_handshake.c:155
     e0c:	97fffe77 	bl	7e8 <write_ecc_public_values>
process_handshake_request():
/home/thesis/Desktop/secure_nfc/ta/snfc_ta_handshake.c:355
     e10:	35000300 	cbnz	w0, e70 <process_handshake_request+0xdc>
/home/thesis/Desktop/secure_nfc/ta/snfc_ta_handshake.c:357
     e14:	f9402ff4 	ldr	x20, [sp, #88]
/home/thesis/Desktop/secure_nfc/ta/snfc_ta_handshake.c:360
     e18:	340002b9 	cbz	w25, e6c <process_handshake_request+0xd8>
/home/thesis/Desktop/secure_nfc/ta/snfc_ta_handshake.c:362
     e1c:	b94022a1 	ldr	w1, [x21, #32]
/home/thesis/Desktop/secure_nfc/ta/snfc_ta_handshake.c:363
     e20:	aa1503e0 	mov	x0, x21
/home/thesis/Desktop/secure_nfc/ta/snfc_ta_handshake.c:362
     e24:	53037c21 	lsr	w1, w1, #3
     e28:	d37f7021 	ubfiz	x1, x1, #1, #29
/home/thesis/Desktop/secure_nfc/ta/snfc_ta_handshake.c:363
     e2c:	8b010261 	add	x1, x19, x1
     e30:	97fffda6 	bl	4c8 <process_authentication_id>
     e34:	350001c0 	cbnz	w0, e6c <process_handshake_request+0xd8>
/home/thesis/Desktop/secure_nfc/ta/snfc_ta_handshake.c:365
     e38:	aa1703e1 	mov	x1, x23
     e3c:	8b1402c0 	add	x0, x22, x20
     e40:	97fffd8c 	bl	470 <create_authentication_id>
     e44:	35000140 	cbnz	w0, e6c <process_handshake_request+0xd8>
/home/thesis/Desktop/secure_nfc/ta/snfc_ta_handshake.c:367
     e48:	f9402fe0 	ldr	x0, [sp, #88]
/home/thesis/Desktop/secure_nfc/ta/snfc_ta_handshake.c:368
     e4c:	aa1303e1 	mov	x1, x19
     e50:	aa1703e3 	mov	x3, x23
/home/thesis/Desktop/secure_nfc/ta/snfc_ta_handshake.c:367
     e54:	8b000294 	add	x20, x20, x0
/home/thesis/Desktop/secure_nfc/ta/snfc_ta_handshake.c:368
     e58:	aa1503e0 	mov	x0, x21
     e5c:	8b1402c2 	add	x2, x22, x20
     e60:	97fffdd4 	bl	5b0 <create_authentication_proof>
/home/thesis/Desktop/secure_nfc/ta/snfc_ta_handshake.c:369
     e64:	f9402fe1 	ldr	x1, [sp, #88]
     e68:	8b010294 	add	x20, x20, x1
/home/thesis/Desktop/secure_nfc/ta/snfc_ta_handshake.c:376
     e6c:	f9000314 	str	x20, [x24]
/home/thesis/Desktop/secure_nfc/ta/snfc_ta_handshake.c:386
     e70:	a94153f3 	ldp	x19, x20, [sp, #16]
     e74:	a9425bf5 	ldp	x21, x22, [sp, #32]
     e78:	a94363f7 	ldp	x23, x24, [sp, #48]
     e7c:	f94023f9 	ldr	x25, [sp, #64]
     e80:	a8c67bfd 	ldp	x29, x30, [sp], #96
     e84:	d65f03c0 	ret

0000000000000e88 <process_handshake_reply>:
process_handshake_reply():
/home/thesis/Desktop/secure_nfc/ta/snfc_ta_handshake.c:389
     e88:	a9bc7bfd 	stp	x29, x30, [sp, #-64]!
     e8c:	910003fd 	mov	x29, sp
     e90:	a90153f3 	stp	x19, x20, [sp, #16]
     e94:	12001c33 	and	w19, w1, #0xff
     e98:	aa0003f4 	mov	x20, x0
/home/thesis/Desktop/secure_nfc/ta/snfc_ta_handshake.c:394
     e9c:	aa0203e1 	mov	x1, x2
/home/thesis/Desktop/secure_nfc/ta/snfc_ta_handshake.c:389
     ea0:	a9025bf5 	stp	x21, x22, [sp, #32]
     ea4:	aa0203f5 	mov	x21, x2
     ea8:	aa0403f6 	mov	x22, x4
     eac:	f9001bf7 	str	x23, [sp, #48]
     eb0:	aa0503f7 	mov	x23, x5
/home/thesis/Desktop/secure_nfc/ta/snfc_ta_handshake.c:394
     eb4:	97fffea9 	bl	958 <process_key_exchange>
     eb8:	350002e0 	cbnz	w0, f14 <process_handshake_reply+0x8c>
/home/thesis/Desktop/secure_nfc/ta/snfc_ta_handshake.c:399
     ebc:	340002d3 	cbz	w19, f14 <process_handshake_reply+0x8c>
/home/thesis/Desktop/secure_nfc/ta/snfc_ta_handshake.c:396
     ec0:	b9402293 	ldr	w19, [x20, #32]
/home/thesis/Desktop/secure_nfc/ta/snfc_ta_handshake.c:401
     ec4:	aa1403e0 	mov	x0, x20
/home/thesis/Desktop/secure_nfc/ta/snfc_ta_handshake.c:396
     ec8:	53037e73 	lsr	w19, w19, #3
     ecc:	d37f7273 	ubfiz	x19, x19, #1, #29
     ed0:	8b1302b3 	add	x19, x21, x19
/home/thesis/Desktop/secure_nfc/ta/snfc_ta_handshake.c:401
     ed4:	aa1303e1 	mov	x1, x19
     ed8:	97fffd7c 	bl	4c8 <process_authentication_id>
     edc:	350001c0 	cbnz	w0, f14 <process_handshake_reply+0x8c>
/home/thesis/Desktop/secure_nfc/ta/snfc_ta_handshake.c:408
     ee0:	9101c261 	add	x1, x19, #0x70
     ee4:	aa1403e0 	mov	x0, x20
     ee8:	97fffdf9 	bl	6cc <process_authentication_proof>
     eec:	35000140 	cbnz	w0, f14 <process_handshake_reply+0x8c>
/home/thesis/Desktop/secure_nfc/ta/snfc_ta_handshake.c:412
     ef0:	aa1703e3 	mov	x3, x23
     ef4:	aa1603e2 	mov	x2, x22
     ef8:	aa1503e1 	mov	x1, x21
     efc:	aa1403e0 	mov	x0, x20
/home/thesis/Desktop/secure_nfc/ta/snfc_ta_handshake.c:421
     f00:	a94153f3 	ldp	x19, x20, [sp, #16]
     f04:	a9425bf5 	ldp	x21, x22, [sp, #32]
     f08:	f9401bf7 	ldr	x23, [sp, #48]
     f0c:	a8c47bfd 	ldp	x29, x30, [sp], #64
/home/thesis/Desktop/secure_nfc/ta/snfc_ta_handshake.c:412
     f10:	17fffda8 	b	5b0 <create_authentication_proof>
/home/thesis/Desktop/secure_nfc/ta/snfc_ta_handshake.c:421
     f14:	a94153f3 	ldp	x19, x20, [sp, #16]
     f18:	a9425bf5 	ldp	x21, x22, [sp, #32]
     f1c:	f9401bf7 	ldr	x23, [sp, #48]
     f20:	a8c47bfd 	ldp	x29, x30, [sp], #64
     f24:	d65f03c0 	ret

0000000000000f28 <create_next_iv>:
create_next_iv():
/home/thesis/Desktop/secure_nfc/ta/snfc_ta_communication.c:12
     f28:	a9bb7bfd 	stp	x29, x30, [sp, #-80]!
     f2c:	910003fd 	mov	x29, sp
     f30:	a90153f3 	stp	x19, x20, [sp, #16]
/home/thesis/Desktop/secure_nfc/ta/snfc_ta_communication.c:15
     f34:	d37df033 	lsl	x19, x1, #3
     f38:	91007e73 	add	x19, x19, #0x1f
/home/thesis/Desktop/secure_nfc/ta/snfc_ta_communication.c:12
     f3c:	aa0003f4 	mov	x20, x0
     f40:	a9025bf5 	stp	x21, x22, [sp, #32]
/home/thesis/Desktop/secure_nfc/ta/snfc_ta_communication.c:15
     f44:	d345fe73 	lsr	x19, x19, #5
     f48:	91000a73 	add	x19, x19, #0x2
/home/thesis/Desktop/secure_nfc/ta/snfc_ta_communication.c:12
     f4c:	a90363f7 	stp	x23, x24, [sp, #48]
/home/thesis/Desktop/secure_nfc/ta/snfc_ta_communication.c:16
     f50:	aa1303e0 	mov	x0, x19
/home/thesis/Desktop/secure_nfc/ta/snfc_ta_communication.c:12
     f54:	aa0203f8 	mov	x24, x2
     f58:	f90027e1 	str	x1, [sp, #72]
/home/thesis/Desktop/secure_nfc/ta/snfc_ta_communication.c:16
     f5c:	d2800081 	mov	x1, #0x4                   	// #4
     f60:	940003d2 	bl	1ea8 <calloc>
/home/thesis/Desktop/secure_nfc/ta/snfc_ta_communication.c:18
     f64:	b4000620 	cbz	x0, 1028 <create_next_iv+0x100>
     f68:	aa0003f5 	mov	x21, x0
/home/thesis/Desktop/secure_nfc/ta/snfc_ta_communication.c:20
     f6c:	2a1303e1 	mov	w1, w19
     f70:	94001494 	bl	61c0 <TEE_BigIntInit>
/home/thesis/Desktop/secure_nfc/ta/snfc_ta_communication.c:22
     f74:	b9404be2 	ldr	w2, [sp, #72]
     f78:	aa1403e1 	mov	x1, x20
     f7c:	52800003 	mov	w3, #0x0                   	// #0
     f80:	aa1503e0 	mov	x0, x21
     f84:	940014ab 	bl	6230 <TEE_BigIntConvertFromOctetString>
     f88:	2a0003f4 	mov	w20, w0
     f8c:	350003e0 	cbnz	w0, 1008 <create_next_iv+0xe0>
/home/thesis/Desktop/secure_nfc/ta/snfc_ta_communication.c:24
     f90:	d2800081 	mov	x1, #0x4                   	// #4
     f94:	d2800020 	mov	x0, #0x1                   	// #1
     f98:	940003c4 	bl	1ea8 <calloc>
     f9c:	aa0003f6 	mov	x22, x0
/home/thesis/Desktop/secure_nfc/ta/snfc_ta_communication.c:25
     fa0:	b4000340 	cbz	x0, 1008 <create_next_iv+0xe0>
/home/thesis/Desktop/secure_nfc/ta/snfc_ta_communication.c:27
     fa4:	52800081 	mov	w1, #0x4                   	// #4
     fa8:	94001486 	bl	61c0 <TEE_BigIntInit>
/home/thesis/Desktop/secure_nfc/ta/snfc_ta_communication.c:28
     fac:	52800021 	mov	w1, #0x1                   	// #1
     fb0:	aa1603e0 	mov	x0, x22
     fb4:	940014e7 	bl	6350 <TEE_BigIntConvertFromS32>
/home/thesis/Desktop/secure_nfc/ta/snfc_ta_communication.c:30
     fb8:	d2800081 	mov	x1, #0x4                   	// #4
     fbc:	aa1303e0 	mov	x0, x19
     fc0:	940003ba 	bl	1ea8 <calloc>
     fc4:	aa0003f7 	mov	x23, x0
/home/thesis/Desktop/secure_nfc/ta/snfc_ta_communication.c:31
     fc8:	b40001c0 	cbz	x0, 1000 <create_next_iv+0xd8>
/home/thesis/Desktop/secure_nfc/ta/snfc_ta_communication.c:33
     fcc:	2a1303e1 	mov	w1, w19
     fd0:	9400147c 	bl	61c0 <TEE_BigIntInit>
/home/thesis/Desktop/secure_nfc/ta/snfc_ta_communication.c:35
     fd4:	aa1603e2 	mov	x2, x22
     fd8:	aa1503e1 	mov	x1, x21
     fdc:	aa1703e0 	mov	x0, x23
     fe0:	9400162e 	bl	6898 <TEE_BigIntAdd>
/home/thesis/Desktop/secure_nfc/ta/snfc_ta_communication.c:37
     fe4:	aa1703e2 	mov	x2, x23
     fe8:	910123e1 	add	x1, sp, #0x48
     fec:	aa1803e0 	mov	x0, x24
     ff0:	940014b3 	bl	62bc <TEE_BigIntConvertToOctetString>
     ff4:	2a0003f4 	mov	w20, w0
/home/thesis/Desktop/secure_nfc/ta/snfc_ta_communication.c:39
     ff8:	aa1703e0 	mov	x0, x23
     ffc:	940005fc 	bl	27ec <TEE_Free>
/home/thesis/Desktop/secure_nfc/ta/snfc_ta_communication.c:42
    1000:	aa1603e0 	mov	x0, x22
    1004:	940003d6 	bl	1f5c <free>
/home/thesis/Desktop/secure_nfc/ta/snfc_ta_communication.c:46
    1008:	aa1503e0 	mov	x0, x21
    100c:	940003d4 	bl	1f5c <free>
/home/thesis/Desktop/secure_nfc/ta/snfc_ta_communication.c:50
    1010:	2a1403e0 	mov	w0, w20
    1014:	a94153f3 	ldp	x19, x20, [sp, #16]
    1018:	a9425bf5 	ldp	x21, x22, [sp, #32]
    101c:	a94363f7 	ldp	x23, x24, [sp, #48]
    1020:	a8c57bfd 	ldp	x29, x30, [sp], #80
    1024:	d65f03c0 	ret
/home/thesis/Desktop/secure_nfc/ta/snfc_ta_communication.c:13
    1028:	52bffff4 	mov	w20, #0xffff0000            	// #-65536
/home/thesis/Desktop/secure_nfc/ta/snfc_ta_communication.c:49
    102c:	17fffff9 	b	1010 <create_next_iv+0xe8>

0000000000001030 <create_integrity_check_value>:
create_integrity_check_value():
/home/thesis/Desktop/secure_nfc/ta/snfc_ta_communication.c:131
    1030:	a9bc7bfd 	stp	x29, x30, [sp, #-64]!
    1034:	910003fd 	mov	x29, sp
    1038:	a90153f3 	stp	x19, x20, [sp, #16]
    103c:	aa0003f3 	mov	x19, x0
    1040:	aa0103f4 	mov	x20, x1
/home/thesis/Desktop/secure_nfc/ta/snfc_ta_communication.c:133
    1044:	f9402400 	ldr	x0, [x0, #72]
    1048:	d2800001 	mov	x1, #0x0                   	// #0
/home/thesis/Desktop/secure_nfc/ta/snfc_ta_communication.c:131
    104c:	f90013f5 	str	x21, [sp, #32]
    1050:	aa0203f5 	mov	x21, x2
/home/thesis/Desktop/secure_nfc/ta/snfc_ta_communication.c:133
    1054:	52800002 	mov	w2, #0x0                   	// #0
/home/thesis/Desktop/secure_nfc/ta/snfc_ta_communication.c:131
    1058:	a9030fe4 	stp	x4, x3, [sp, #48]
/home/thesis/Desktop/secure_nfc/ta/snfc_ta_communication.c:133
    105c:	94000e6d 	bl	4a10 <TEE_MACInit>
/home/thesis/Desktop/secure_nfc/ta/snfc_ta_communication.c:134
    1060:	f9402660 	ldr	x0, [x19, #72]
    1064:	aa1403e1 	mov	x1, x20
    1068:	52800022 	mov	w2, #0x1                   	// #1
    106c:	94000e92 	bl	4ab4 <TEE_MACUpdate>
/home/thesis/Desktop/secure_nfc/ta/snfc_ta_communication.c:135
    1070:	f9402660 	ldr	x0, [x19, #72]
    1074:	91000681 	add	x1, x20, #0x1
    1078:	52800022 	mov	w2, #0x1                   	// #1
    107c:	94000e8e 	bl	4ab4 <TEE_MACUpdate>
/home/thesis/Desktop/secure_nfc/ta/snfc_ta_communication.c:136
    1080:	a9430fe4 	ldp	x4, x3, [sp, #48]
    1084:	2a1503e2 	mov	w2, w21
    1088:	f9400681 	ldr	x1, [x20, #8]
    108c:	f9402660 	ldr	x0, [x19, #72]
    1090:	94000eb1 	bl	4b54 <TEE_MACComputeFinal>
/home/thesis/Desktop/secure_nfc/ta/snfc_ta_communication.c:140
    1094:	a94153f3 	ldp	x19, x20, [sp, #16]
    1098:	f94013f5 	ldr	x21, [sp, #32]
    109c:	a8c47bfd 	ldp	x29, x30, [sp], #64
    10a0:	d65f03c0 	ret

00000000000010a4 <create_snfc_packet>:
create_snfc_packet():
/home/thesis/Desktop/secure_nfc/ta/snfc_ta_communication.c:143
    10a4:	a9b47bfd 	stp	x29, x30, [sp, #-192]!
    10a8:	910003fd 	mov	x29, sp
    10ac:	a90573fb 	stp	x27, x28, [sp, #80]
/home/thesis/Desktop/secure_nfc/ta/snfc_ta_communication.c:148
    10b0:	b940081c 	ldr	w28, [x0, #8]
/home/thesis/Desktop/secure_nfc/ta/snfc_ta_communication.c:143
    10b4:	a90153f3 	stp	x19, x20, [sp, #16]
/home/thesis/Desktop/secure_nfc/ta/snfc_ta_communication.c:148
    10b8:	2a1c03e5 	mov	w5, w28
/home/thesis/Desktop/secure_nfc/ta/snfc_ta_communication.c:143
    10bc:	a9025bf5 	stp	x21, x22, [sp, #32]
    10c0:	a90363f7 	stp	x23, x24, [sp, #48]
/home/thesis/Desktop/secure_nfc/ta/snfc_ta_communication.c:148
    10c4:	9ac50846 	udiv	x6, x2, x5
/home/thesis/Desktop/secure_nfc/ta/snfc_ta_communication.c:143
    10c8:	a9046bf9 	stp	x25, x26, [sp, #64]
/home/thesis/Desktop/secure_nfc/ta/snfc_ta_communication.c:148
    10cc:	9b0514c6 	madd	x6, x6, x5, x5
/home/thesis/Desktop/secure_nfc/ta/snfc_ta_communication.c:149
    10d0:	b9401405 	ldr	w5, [x0, #20]
    10d4:	53037ca5 	lsr	w5, w5, #3
    10d8:	a90817e6 	stp	x6, x5, [sp, #128]
/home/thesis/Desktop/secure_nfc/ta/snfc_ta_communication.c:152
    10dc:	910008a5 	add	x5, x5, #0x2
    10e0:	8b0600a5 	add	x5, x5, x6
/home/thesis/Desktop/secure_nfc/ta/snfc_ta_communication.c:154
    10e4:	f9400086 	ldr	x6, [x4]
    10e8:	eb0500df 	cmp	x6, x5
    10ec:	54000ee3 	b.cc	12c8 <create_snfc_packet+0x224>  // b.lo, b.ul, b.last
    10f0:	aa0003f3 	mov	x19, x0
    10f4:	aa0303f5 	mov	x21, x3
    10f8:	aa0403f8 	mov	x24, x4
    10fc:	aa0203f6 	mov	x22, x2
    1100:	aa0103fb 	mov	x27, x1
/home/thesis/Desktop/secure_nfc/ta/snfc_ta_communication.c:161
    1104:	2a0503e2 	mov	w2, w5
    1108:	52800001 	mov	w1, #0x0                   	// #0
    110c:	aa0303e0 	mov	x0, x3
    1110:	9400054b 	bl	263c <TEE_MemFill>
/home/thesis/Desktop/secure_nfc/ta/snfc_ta_communication.c:150
    1114:	53037f99 	lsr	w25, w28, #3
/home/thesis/Desktop/secure_nfc/ta/snfc_ta_communication.c:165
    1118:	b9400261 	ldr	w1, [x19]
    111c:	52810200 	mov	w0, #0x810                 	// #2064
    1120:	72a80000 	movk	w0, #0x4000, lsl #16
/home/thesis/Desktop/secure_nfc/ta/snfc_ta_communication.c:163
    1124:	91000ab7 	add	x23, x21, #0x2
/home/thesis/Desktop/secure_nfc/ta/snfc_ta_communication.c:165
    1128:	6b00003f 	cmp	w1, w0
    112c:	f9401a7a 	ldr	x26, [x19, #48]
    1130:	54000b41 	b.ne	1298 <create_snfc_packet+0x1f4>  // b.any
perform_authenticated_cipher_operation():
/home/thesis/Desktop/secure_nfc/ta/snfc_ta_communication.c:78
    1134:	f9402261 	ldr	x1, [x19, #64]
    1138:	2a1603e5 	mov	w5, w22
    113c:	52800004 	mov	w4, #0x0                   	// #0
    1140:	121d7383 	and	w3, w28, #0xfffffff8
    1144:	2a1903e2 	mov	w2, w25
    1148:	aa1a03e0 	mov	x0, x26
/home/thesis/Desktop/secure_nfc/ta/snfc_ta_communication.c:77
    114c:	f90057f9 	str	x25, [sp, #168]
/home/thesis/Desktop/secure_nfc/ta/snfc_ta_communication.c:78
    1150:	94000ee2 	bl	4cd8 <TEE_AEInit>
    1154:	2a0003f4 	mov	w20, w0
    1158:	35000900 	cbnz	w0, 1278 <create_snfc_packet+0x1d4>
/home/thesis/Desktop/secure_nfc/ta/snfc_ta_communication.c:82
    115c:	f94057e3 	ldr	x3, [sp, #168]
    1160:	aa1b03e1 	mov	x1, x27
    1164:	9102a3e6 	add	x6, sp, #0xa8
    1168:	aa1703e5 	mov	x5, x23
    116c:	910203e4 	add	x4, sp, #0x80
    1170:	2a1603e2 	mov	w2, w22
    1174:	aa1a03e0 	mov	x0, x26
    1178:	8b0302e3 	add	x3, x23, x3
    117c:	94000f80 	bl	4f7c <TEE_AEEncryptFinal>
    1180:	2a0003f4 	mov	w20, w0
/home/thesis/Desktop/secure_nfc/ta/snfc_ta_communication.c:83
    1184:	f94043e0 	ldr	x0, [sp, #128]
    1188:	f94057e1 	ldr	x1, [sp, #168]
    118c:	8b010000 	add	x0, x0, x1
    1190:	f90043e0 	str	x0, [sp, #128]
create_snfc_packet():
/home/thesis/Desktop/secure_nfc/ta/snfc_ta_communication.c:171
    1194:	35000734 	cbnz	w20, 1278 <create_snfc_packet+0x1d4>
/home/thesis/Desktop/secure_nfc/ta/snfc_ta_communication.c:173
    1198:	f9402260 	ldr	x0, [x19, #64]
/home/thesis/Desktop/secure_nfc/ta/snfc_ta_communication.c:174
    119c:	d2800021 	mov	x1, #0x1                   	// #1
/home/thesis/Desktop/secure_nfc/ta/snfc_ta_communication.c:173
    11a0:	f9402a7a 	ldr	x26, [x19, #80]
    11a4:	8b190000 	add	x0, x0, x25
    11a8:	385ff01b 	ldurb	w27, [x0, #-1]
/home/thesis/Desktop/secure_nfc/ta/snfc_ta_communication.c:174
    11ac:	f94047e0 	ldr	x0, [sp, #136]
    11b0:	9400033e 	bl	1ea8 <calloc>
    11b4:	aa0003f6 	mov	x22, x0
/home/thesis/Desktop/secure_nfc/ta/snfc_ta_communication.c:176
    11b8:	b4000600 	cbz	x0, 1278 <create_snfc_packet+0x1d4>
new_snfc_packet():
/home/thesis/Desktop/secure_nfc/ta/snfc_ta_communication.c:122 (discriminator 1)
    11bc:	12001f5a 	and	w26, w26, #0xff
create_snfc_packet():
/home/thesis/Desktop/secure_nfc/ta/snfc_ta_communication.c:176 (discriminator 1)
    11c0:	390243fa 	strb	w26, [sp, #144]
    11c4:	390247fb 	strb	w27, [sp, #145]
    11c8:	aa0003e3 	mov	x3, x0
    11cc:	f9004ff7 	str	x23, [sp, #152]
    11d0:	910223e4 	add	x4, sp, #0x88
    11d4:	f94043e2 	ldr	x2, [sp, #128]
    11d8:	f9003be0 	str	x0, [sp, #112]
    11dc:	a94907e0 	ldp	x0, x1, [sp, #144]
    11e0:	a90607e0 	stp	x0, x1, [sp, #96]
    11e4:	910183e1 	add	x1, sp, #0x60
    11e8:	aa1303e0 	mov	x0, x19
    11ec:	97ffff91 	bl	1030 <create_integrity_check_value>
    11f0:	2a0003f4 	mov	w20, w0
    11f4:	35000420 	cbnz	w0, 1278 <create_snfc_packet+0x1d4>
write_snfc_packet():
/home/thesis/Desktop/secure_nfc/ta/snfc_ta_communication.c:110
    11f8:	9102a3f4 	add	x20, sp, #0xa8
    11fc:	d2800022 	mov	x2, #0x1                   	// #1
    1200:	aa1503e1 	mov	x1, x21
    1204:	aa1403e0 	mov	x0, x20
    1208:	3902a3fa 	strb	w26, [sp, #168]
    120c:	3902a7fb 	strb	w27, [sp, #169]
    1210:	a90b5bf7 	stp	x23, x22, [sp, #176]
create_snfc_packet():
/home/thesis/Desktop/secure_nfc/ta/snfc_ta_communication.c:178
    1214:	f94043fc 	ldr	x28, [sp, #128]
write_snfc_packet():
/home/thesis/Desktop/secure_nfc/ta/snfc_ta_communication.c:110
    1218:	97fffbab 	bl	c4 <write_buffer>
/home/thesis/Desktop/secure_nfc/ta/snfc_ta_communication.c:111
    121c:	d2800022 	mov	x2, #0x1                   	// #1
    1220:	aa0003e1 	mov	x1, x0
    1224:	8b020280 	add	x0, x20, x2
    1228:	97fffba7 	bl	c4 <write_buffer>
/home/thesis/Desktop/secure_nfc/ta/snfc_ta_communication.c:112
    122c:	aa0003e1 	mov	x1, x0
    1230:	aa1c03e2 	mov	x2, x28
    1234:	f9405be0 	ldr	x0, [sp, #176]
    1238:	97fffba3 	bl	c4 <write_buffer>
/home/thesis/Desktop/secure_nfc/ta/snfc_ta_communication.c:113
    123c:	aa0003e1 	mov	x1, x0
    1240:	f9405fe0 	ldr	x0, [sp, #184]
    1244:	b9401662 	ldr	w2, [x19, #20]
    1248:	53037c42 	lsr	w2, w2, #3
    124c:	97fffb9e 	bl	c4 <write_buffer>
/home/thesis/Desktop/secure_nfc/ta/snfc_ta_communication.c:115
    1250:	cb150000 	sub	x0, x0, x21
create_snfc_packet():
/home/thesis/Desktop/secure_nfc/ta/snfc_ta_communication.c:182
    1254:	aa1903e1 	mov	x1, x25
    1258:	f9402262 	ldr	x2, [x19, #64]
/home/thesis/Desktop/secure_nfc/ta/snfc_ta_communication.c:178
    125c:	f9000300 	str	x0, [x24]
/home/thesis/Desktop/secure_nfc/ta/snfc_ta_communication.c:180
    1260:	f9402a60 	ldr	x0, [x19, #80]
    1264:	91000400 	add	x0, x0, #0x1
    1268:	f9002a60 	str	x0, [x19, #80]
/home/thesis/Desktop/secure_nfc/ta/snfc_ta_communication.c:182
    126c:	aa0203e0 	mov	x0, x2
    1270:	97ffff2e 	bl	f28 <create_next_iv>
    1274:	2a0003f4 	mov	w20, w0
/home/thesis/Desktop/secure_nfc/ta/snfc_ta_communication.c:189
    1278:	2a1403e0 	mov	w0, w20
    127c:	a94153f3 	ldp	x19, x20, [sp, #16]
    1280:	a9425bf5 	ldp	x21, x22, [sp, #32]
    1284:	a94363f7 	ldp	x23, x24, [sp, #48]
    1288:	a9446bf9 	ldp	x25, x26, [sp, #64]
    128c:	a94573fb 	ldp	x27, x28, [sp, #80]
    1290:	a8cc7bfd 	ldp	x29, x30, [sp], #192
    1294:	d65f03c0 	ret
perform_cipher_operation():
/home/thesis/Desktop/secure_nfc/ta/snfc_ta_communication.c:100
    1298:	f9402261 	ldr	x1, [x19, #64]
    129c:	2a1903e2 	mov	w2, w25
    12a0:	aa1a03e0 	mov	x0, x26
    12a4:	94000cf3 	bl	4670 <TEE_CipherInit>
/home/thesis/Desktop/secure_nfc/ta/snfc_ta_communication.c:101
    12a8:	910203e4 	add	x4, sp, #0x80
    12ac:	aa1703e3 	mov	x3, x23
    12b0:	2a1603e2 	mov	w2, w22
    12b4:	aa1b03e1 	mov	x1, x27
    12b8:	aa1a03e0 	mov	x0, x26
    12bc:	94000d69 	bl	4860 <TEE_CipherDoFinal>
    12c0:	2a0003f4 	mov	w20, w0
/home/thesis/Desktop/secure_nfc/ta/snfc_ta_communication.c:103
    12c4:	17ffffb4 	b	1194 <create_snfc_packet+0xf0>
create_snfc_packet():
/home/thesis/Desktop/secure_nfc/ta/snfc_ta_communication.c:158
    12c8:	129ffdf4 	mov	w20, #0xffff0010            	// #-65520
    12cc:	17ffffeb 	b	1278 <create_snfc_packet+0x1d4>

00000000000012d0 <process_snfc_packet>:
process_snfc_packet():
/home/thesis/Desktop/secure_nfc/ta/snfc_ta_communication.c:265
    12d0:	a9b87bfd 	stp	x29, x30, [sp, #-128]!
    12d4:	910003fd 	mov	x29, sp
    12d8:	a90153f3 	stp	x19, x20, [sp, #16]
    12dc:	aa0003f3 	mov	x19, x0
read_snfc_packet():
/home/thesis/Desktop/secure_nfc/ta/snfc_ta_communication.c:240
    12e0:	b9401400 	ldr	w0, [x0, #20]
process_snfc_packet():
/home/thesis/Desktop/secure_nfc/ta/snfc_ta_communication.c:265
    12e4:	a9025bf5 	stp	x21, x22, [sp, #32]
read_snfc_packet():
/home/thesis/Desktop/secure_nfc/ta/snfc_ta_communication.c:246
    12e8:	91000834 	add	x20, x1, #0x2
verify_integrity_check_value():
/home/thesis/Desktop/secure_nfc/ta/snfc_ta_communication.c:257
    12ec:	9101a3f5 	add	x21, sp, #0x68
read_snfc_packet():
/home/thesis/Desktop/secure_nfc/ta/snfc_ta_communication.c:240
    12f0:	53037c00 	lsr	w0, w0, #3
process_snfc_packet():
/home/thesis/Desktop/secure_nfc/ta/snfc_ta_communication.c:265
    12f4:	a90363f7 	stp	x23, x24, [sp, #48]
read_snfc_packet():
/home/thesis/Desktop/secure_nfc/ta/snfc_ta_communication.c:240
    12f8:	cb000042 	sub	x2, x2, x0
process_snfc_packet():
/home/thesis/Desktop/secure_nfc/ta/snfc_ta_communication.c:278
    12fc:	f9402a60 	ldr	x0, [x19, #80]
/home/thesis/Desktop/secure_nfc/ta/snfc_ta_communication.c:265
    1300:	a9046bf9 	stp	x25, x26, [sp, #64]
    1304:	aa0303f9 	mov	x25, x3
    1308:	f9002bfb 	str	x27, [sp, #80]
/home/thesis/Desktop/secure_nfc/ta/snfc_ta_communication.c:278
    130c:	91000400 	add	x0, x0, #0x1
read_snfc_packet():
/home/thesis/Desktop/secure_nfc/ta/snfc_ta_communication.c:240
    1310:	8b020022 	add	x2, x1, x2
process_snfc_packet():
/home/thesis/Desktop/secure_nfc/ta/snfc_ta_communication.c:265
    1314:	aa0403fa 	mov	x26, x4
read_snfc_packet():
/home/thesis/Desktop/secure_nfc/ta/snfc_ta_communication.c:242
    1318:	39400023 	ldrb	w3, [x1]
process_snfc_packet():
/home/thesis/Desktop/secure_nfc/ta/snfc_ta_communication.c:269
    131c:	cb140056 	sub	x22, x2, x20
read_snfc_packet():
/home/thesis/Desktop/secure_nfc/ta/snfc_ta_communication.c:245
    1320:	39400437 	ldrb	w23, [x1, #1]
verify_integrity_check_value():
/home/thesis/Desktop/secure_nfc/ta/snfc_ta_communication.c:256
    1324:	d2800001 	mov	x1, #0x0                   	// #0
process_snfc_packet():
/home/thesis/Desktop/secure_nfc/ta/snfc_ta_communication.c:278
    1328:	f9002a60 	str	x0, [x19, #80]
verify_integrity_check_value():
/home/thesis/Desktop/secure_nfc/ta/snfc_ta_communication.c:256
    132c:	f9402660 	ldr	x0, [x19, #72]
    1330:	3901a3e3 	strb	w3, [sp, #104]
    1334:	3901a7f7 	strb	w23, [sp, #105]
    1338:	a9070bf4 	stp	x20, x2, [sp, #112]
    133c:	52800002 	mov	w2, #0x0                   	// #0
    1340:	94000db4 	bl	4a10 <TEE_MACInit>
/home/thesis/Desktop/secure_nfc/ta/snfc_ta_communication.c:257
    1344:	f9402660 	ldr	x0, [x19, #72]
    1348:	52800022 	mov	w2, #0x1                   	// #1
    134c:	aa1503e1 	mov	x1, x21
    1350:	94000dd9 	bl	4ab4 <TEE_MACUpdate>
/home/thesis/Desktop/secure_nfc/ta/snfc_ta_communication.c:258
    1354:	f9402660 	ldr	x0, [x19, #72]
    1358:	52800022 	mov	w2, #0x1                   	// #1
    135c:	910006a1 	add	x1, x21, #0x1
    1360:	94000dd5 	bl	4ab4 <TEE_MACUpdate>
/home/thesis/Desktop/secure_nfc/ta/snfc_ta_communication.c:259
    1364:	a9470fe1 	ldp	x1, x3, [sp, #112]
    1368:	2a1603e2 	mov	w2, w22
    136c:	f9402660 	ldr	x0, [x19, #72]
    1370:	b9401664 	ldr	w4, [x19, #20]
    1374:	53037c84 	lsr	w4, w4, #3
    1378:	94000e27 	bl	4c14 <TEE_MACCompareFinal>
process_snfc_packet():
/home/thesis/Desktop/secure_nfc/ta/snfc_ta_communication.c:281
    137c:	35000640 	cbnz	w0, 1444 <process_snfc_packet+0x174>
sync_iv():
/home/thesis/Desktop/secure_nfc/ta/snfc_ta_communication.c:56
    1380:	b9400a75 	ldr	w21, [x19, #8]
    1384:	52800158 	mov	w24, #0xa                   	// #10
/home/thesis/Desktop/secure_nfc/ta/snfc_ta_communication.c:54
    1388:	129fff00 	mov	w0, #0xffff0007            	// #-65529
/home/thesis/Desktop/secure_nfc/ta/snfc_ta_communication.c:56
    138c:	53037eb5 	lsr	w21, w21, #3
/home/thesis/Desktop/secure_nfc/ta/snfc_ta_communication.c:58
    1390:	d10006bb 	sub	x27, x21, #0x1
    1394:	f9402262 	ldr	x2, [x19, #64]
    1398:	387b6841 	ldrb	w1, [x2, x27]
    139c:	6b17003f 	cmp	w1, w23
    13a0:	540000c0 	b.eq	13b8 <process_snfc_packet+0xe8>  // b.none
/home/thesis/Desktop/secure_nfc/ta/snfc_ta_communication.c:61
    13a4:	aa1503e1 	mov	x1, x21
    13a8:	aa0203e0 	mov	x0, x2
    13ac:	97fffedf 	bl	f28 <create_next_iv>
/home/thesis/Desktop/secure_nfc/ta/snfc_ta_communication.c:58
    13b0:	71000718 	subs	w24, w24, #0x1
    13b4:	54ffff01 	b.ne	1394 <process_snfc_packet+0xc4>  // b.any
/home/thesis/Desktop/secure_nfc/ta/snfc_ta_communication.c:64
    13b8:	f9402261 	ldr	x1, [x19, #64]
    13bc:	387b6822 	ldrb	w2, [x1, x27]
    13c0:	6b17005f 	cmp	w2, w23
    13c4:	54000040 	b.eq	13cc <process_snfc_packet+0xfc>  // b.none
process_snfc_packet():
/home/thesis/Desktop/secure_nfc/ta/snfc_ta_communication.c:283
    13c8:	350003e0 	cbnz	w0, 1444 <process_snfc_packet+0x174>
/home/thesis/Desktop/secure_nfc/ta/snfc_ta_communication.c:286
    13cc:	b9400a63 	ldr	w3, [x19, #8]
    13d0:	52810200 	mov	w0, #0x810                 	// #2064
    13d4:	b9400262 	ldr	w2, [x19]
    13d8:	72a80000 	movk	w0, #0x4000, lsl #16
    13dc:	f9401e75 	ldr	x21, [x19, #56]
    13e0:	53037c77 	lsr	w23, w3, #3
    13e4:	6b00005f 	cmp	w2, w0
    13e8:	540003c1 	b.ne	1460 <process_snfc_packet+0x190>  // b.any
perform_authenticated_cipher_operation():
/home/thesis/Desktop/secure_nfc/ta/snfc_ta_communication.c:78
    13ec:	2a1603e5 	mov	w5, w22
    13f0:	52800004 	mov	w4, #0x0                   	// #0
    13f4:	121d7063 	and	w3, w3, #0xfffffff8
    13f8:	2a1703e2 	mov	w2, w23
    13fc:	aa1503e0 	mov	x0, x21
    1400:	94000e36 	bl	4cd8 <TEE_AEInit>
    1404:	35000200 	cbnz	w0, 1444 <process_snfc_packet+0x174>
process_snfc_packet():
/home/thesis/Desktop/secure_nfc/ta/snfc_ta_communication.c:288
    1408:	2a1703e1 	mov	w1, w23
perform_authenticated_cipher_operation():
/home/thesis/Desktop/secure_nfc/ta/snfc_ta_communication.c:88
    140c:	2a1703e6 	mov	w6, w23
    1410:	aa1403e5 	mov	x5, x20
    1414:	aa1a03e4 	mov	x4, x26
    1418:	aa1903e3 	mov	x3, x25
    141c:	4b1702c2 	sub	w2, w22, w23
    1420:	8b010281 	add	x1, x20, x1
    1424:	aa1503e0 	mov	x0, x21
    1428:	94000f45 	bl	513c <TEE_AEDecryptFinal>
process_snfc_packet():
/home/thesis/Desktop/secure_nfc/ta/snfc_ta_communication.c:291
    142c:	350000c0 	cbnz	w0, 1444 <process_snfc_packet+0x174>
/home/thesis/Desktop/secure_nfc/ta/snfc_ta_communication.c:291 (discriminator 1)
    1430:	f9402262 	ldr	x2, [x19, #64]
    1434:	b9400a61 	ldr	w1, [x19, #8]
    1438:	aa0203e0 	mov	x0, x2
    143c:	53037c21 	lsr	w1, w1, #3
    1440:	97fffeba 	bl	f28 <create_next_iv>
/home/thesis/Desktop/secure_nfc/ta/snfc_ta_communication.c:299
    1444:	a94153f3 	ldp	x19, x20, [sp, #16]
    1448:	a9425bf5 	ldp	x21, x22, [sp, #32]
    144c:	a94363f7 	ldp	x23, x24, [sp, #48]
    1450:	a9446bf9 	ldp	x25, x26, [sp, #64]
    1454:	f9402bfb 	ldr	x27, [sp, #80]
    1458:	a8c87bfd 	ldp	x29, x30, [sp], #128
    145c:	d65f03c0 	ret
perform_cipher_operation():
/home/thesis/Desktop/secure_nfc/ta/snfc_ta_communication.c:100
    1460:	2a1703e2 	mov	w2, w23
    1464:	aa1503e0 	mov	x0, x21
    1468:	94000c82 	bl	4670 <TEE_CipherInit>
/home/thesis/Desktop/secure_nfc/ta/snfc_ta_communication.c:101
    146c:	aa1a03e4 	mov	x4, x26
    1470:	aa1903e3 	mov	x3, x25
    1474:	2a1603e2 	mov	w2, w22
    1478:	aa1403e1 	mov	x1, x20
    147c:	aa1503e0 	mov	x0, x21
    1480:	94000cf8 	bl	4860 <TEE_CipherDoFinal>
/home/thesis/Desktop/secure_nfc/ta/snfc_ta_communication.c:103
    1484:	17ffffea 	b	142c <process_snfc_packet+0x15c>

0000000000001488 <TA_CreateEntryPoint>:
TA_CreateEntryPoint():
/home/thesis/Desktop/secure_nfc/ta/snfc_ta.c:13
    1488:	52800000 	mov	w0, #0x0                   	// #0
    148c:	d65f03c0 	ret

0000000000001490 <TA_DestroyEntryPoint>:
TA_DestroyEntryPoint():
/home/thesis/Desktop/secure_nfc/ta/snfc_ta.c:17
    1490:	d0000080 	adrp	x0, 13000 <.got>
    1494:	f9403400 	ldr	x0, [x0, #104]
    1498:	17fffdc8 	b	bb8 <security_context_close>

000000000000149c <TA_OpenSessionEntryPoint>:
TA_OpenSessionEntryPoint():
/home/thesis/Desktop/secure_nfc/ta/snfc_ta.c:27
    149c:	7100001f 	cmp	w0, #0x0
/home/thesis/Desktop/secure_nfc/ta/snfc_ta.c:30
    14a0:	129fff21 	mov	w1, #0xffff0006            	// #-65530
    14a4:	1a810000 	csel	w0, w0, w1, eq  // eq = none
    14a8:	d65f03c0 	ret

00000000000014ac <TA_CloseSessionEntryPoint>:
TA_CloseSessionEntryPoint():
/home/thesis/Desktop/secure_nfc/ta/snfc_ta.c:35
    14ac:	d65f03c0 	ret

00000000000014b0 <TA_InvokeCommandEntryPoint>:
TA_InvokeCommandEntryPoint():
/home/thesis/Desktop/secure_nfc/ta/snfc_ta.c:128
    14b0:	a9be7bfd 	stp	x29, x30, [sp, #-32]!
    14b4:	aa0303e6 	mov	x6, x3
/home/thesis/Desktop/secure_nfc/ta/snfc_ta.c:131
    14b8:	7100103f 	cmp	w1, #0x4
/home/thesis/Desktop/secure_nfc/ta/snfc_ta.c:128
    14bc:	910003fd 	mov	x29, sp
    14c0:	f9000bf3 	str	x19, [sp, #16]
    14c4:	2a0203f3 	mov	w19, w2
/home/thesis/Desktop/secure_nfc/ta/snfc_ta.c:131
    14c8:	54000840 	b.eq	15d0 <TA_InvokeCommandEntryPoint+0x120>  // b.none
    14cc:	54000148 	b.hi	14f4 <TA_InvokeCommandEntryPoint+0x44>  // b.pmore
    14d0:	7100043f 	cmp	w1, #0x1
    14d4:	54000360 	b.eq	1540 <TA_InvokeCommandEntryPoint+0x90>  // b.none
    14d8:	34000221 	cbz	w1, 151c <TA_InvokeCommandEntryPoint+0x6c>
    14dc:	7100083f 	cmp	w1, #0x2
    14e0:	540004a0 	b.eq	1574 <TA_InvokeCommandEntryPoint+0xc4>  // b.none
    14e4:	71000c3f 	cmp	w1, #0x3
    14e8:	540005c0 	b.eq	15a0 <TA_InvokeCommandEntryPoint+0xf0>  // b.none
entry_set_security_parameters():
/home/thesis/Desktop/secure_nfc/ta/snfc_ta.c:43
    14ec:	129fff33 	mov	w19, #0xffff0006            	// #-65530
    14f0:	1400005a 	b	1658 <TA_InvokeCommandEntryPoint+0x1a8>
TA_InvokeCommandEntryPoint():
/home/thesis/Desktop/secure_nfc/ta/snfc_ta.c:131
    14f4:	7100183f 	cmp	w1, #0x6
    14f8:	54000920 	b.eq	161c <TA_InvokeCommandEntryPoint+0x16c>  // b.none
    14fc:	540007a3 	b.cc	15f0 <TA_InvokeCommandEntryPoint+0x140>  // b.lo, b.ul, b.last
    1500:	71001c3f 	cmp	w1, #0x7
    1504:	54000a20 	b.eq	1648 <TA_InvokeCommandEntryPoint+0x198>  // b.none
    1508:	7101903f 	cmp	w1, #0x64
    150c:	54ffff01 	b.ne	14ec <TA_InvokeCommandEntryPoint+0x3c>  // b.any
/home/thesis/Desktop/secure_nfc/ta/snfc_ta.c:158
    1510:	97fffda6 	bl	ba8 <get_evaluation_time>
    1514:	2a0003f3 	mov	w19, w0
    1518:	14000050 	b	1658 <TA_InvokeCommandEntryPoint+0x1a8>
entry_set_security_parameters():
/home/thesis/Desktop/secure_nfc/ta/snfc_ta.c:43
    151c:	7100445f 	cmp	w2, #0x11
    1520:	54fffe61 	b.ne	14ec <TA_InvokeCommandEntryPoint+0x3c>  // b.any
/home/thesis/Desktop/secure_nfc/ta/snfc_ta.c:45
    1524:	d0000080 	adrp	x0, 13000 <.got>
    1528:	39404062 	ldrb	w2, [x3, #16]
TA_InvokeCommandEntryPoint():
/home/thesis/Desktop/secure_nfc/ta/snfc_ta.c:163
    152c:	f9400bf3 	ldr	x19, [sp, #16]
    1530:	a8c27bfd 	ldp	x29, x30, [sp], #32
entry_set_security_parameters():
/home/thesis/Desktop/secure_nfc/ta/snfc_ta.c:45
    1534:	39400061 	ldrb	w1, [x3]
    1538:	f9403400 	ldr	x0, [x0, #104]
    153c:	17fffdb9 	b	c20 <set_security_parameters>
entry_create_handshake_request():
/home/thesis/Desktop/secure_nfc/ta/snfc_ta.c:54
    1540:	528e2220 	mov	w0, #0x7111                	// #28945
    1544:	6b00005f 	cmp	w2, w0
    1548:	54fffd21 	b.ne	14ec <TA_InvokeCommandEntryPoint+0x3c>  // b.any
/home/thesis/Desktop/secure_nfc/ta/snfc_ta.c:56
    154c:	d0000080 	adrp	x0, 13000 <.got>
    1550:	9100e065 	add	x5, x3, #0x38
TA_InvokeCommandEntryPoint():
/home/thesis/Desktop/secure_nfc/ta/snfc_ta.c:163
    1554:	f9400bf3 	ldr	x19, [sp, #16]
    1558:	a8c27bfd 	ldp	x29, x30, [sp], #32
entry_create_handshake_request():
/home/thesis/Desktop/secure_nfc/ta/snfc_ta.c:56
    155c:	39408063 	ldrb	w3, [x3, #32]
    1560:	394040c2 	ldrb	w2, [x6, #16]
    1564:	394000c1 	ldrb	w1, [x6]
    1568:	f9403400 	ldr	x0, [x0, #104]
    156c:	f94018c4 	ldr	x4, [x6, #48]
    1570:	17fffdd9 	b	cd4 <create_handshake_request>
entry_process_handshake_request():
/home/thesis/Desktop/secure_nfc/ta/snfc_ta.c:65
    1574:	7101945f 	cmp	w2, #0x65
    1578:	54fffba1 	b.ne	14ec <TA_InvokeCommandEntryPoint+0x3c>  // b.any
/home/thesis/Desktop/secure_nfc/ta/snfc_ta.c:67
    157c:	d0000080 	adrp	x0, 13000 <.got>
    1580:	91006064 	add	x4, x3, #0x18
TA_InvokeCommandEntryPoint():
/home/thesis/Desktop/secure_nfc/ta/snfc_ta.c:163
    1584:	f9400bf3 	ldr	x19, [sp, #16]
    1588:	a8c27bfd 	ldp	x29, x30, [sp], #32
entry_process_handshake_request():
/home/thesis/Desktop/secure_nfc/ta/snfc_ta.c:67
    158c:	b9400862 	ldr	w2, [x3, #8]
    1590:	f9403400 	ldr	x0, [x0, #104]
    1594:	f9400061 	ldr	x1, [x3]
    1598:	f9400863 	ldr	x3, [x3, #16]
    159c:	17fffdfe 	b	d94 <process_handshake_request>
entry_process_handshake_reply():
/home/thesis/Desktop/secure_nfc/ta/snfc_ta.c:76
    15a0:	7119445f 	cmp	w2, #0x651
    15a4:	54fffa41 	b.ne	14ec <TA_InvokeCommandEntryPoint+0x3c>  // b.any
/home/thesis/Desktop/secure_nfc/ta/snfc_ta.c:78
    15a8:	d0000080 	adrp	x0, 13000 <.got>
    15ac:	9100a065 	add	x5, x3, #0x28
TA_InvokeCommandEntryPoint():
/home/thesis/Desktop/secure_nfc/ta/snfc_ta.c:163
    15b0:	f9400bf3 	ldr	x19, [sp, #16]
    15b4:	a8c27bfd 	ldp	x29, x30, [sp], #32
entry_process_handshake_reply():
/home/thesis/Desktop/secure_nfc/ta/snfc_ta.c:78
    15b8:	39400061 	ldrb	w1, [x3]
    15bc:	f9403400 	ldr	x0, [x0, #104]
    15c0:	b9401863 	ldr	w3, [x3, #24]
    15c4:	f94008c2 	ldr	x2, [x6, #16]
    15c8:	f94010c4 	ldr	x4, [x6, #32]
    15cc:	17fffe2f 	b	e88 <process_handshake_reply>
entry_process_authentication_proof():
/home/thesis/Desktop/secure_nfc/ta/snfc_ta.c:87
    15d0:	7100145f 	cmp	w2, #0x5
    15d4:	54fff8c1 	b.ne	14ec <TA_InvokeCommandEntryPoint+0x3c>  // b.any
/home/thesis/Desktop/secure_nfc/ta/snfc_ta.c:89
    15d8:	d0000080 	adrp	x0, 13000 <.got>
TA_InvokeCommandEntryPoint():
/home/thesis/Desktop/secure_nfc/ta/snfc_ta.c:163
    15dc:	f9400bf3 	ldr	x19, [sp, #16]
    15e0:	a8c27bfd 	ldp	x29, x30, [sp], #32
entry_process_authentication_proof():
/home/thesis/Desktop/secure_nfc/ta/snfc_ta.c:89
    15e4:	f9403400 	ldr	x0, [x0, #104]
    15e8:	f9400061 	ldr	x1, [x3]
    15ec:	17fffc38 	b	6cc <process_authentication_proof>
entry_create_snfc_packet():
/home/thesis/Desktop/secure_nfc/ta/snfc_ta.c:98
    15f0:	7101945f 	cmp	w2, #0x65
    15f4:	54fff7c1 	b.ne	14ec <TA_InvokeCommandEntryPoint+0x3c>  // b.any
/home/thesis/Desktop/secure_nfc/ta/snfc_ta.c:100
    15f8:	d0000080 	adrp	x0, 13000 <.got>
    15fc:	91006064 	add	x4, x3, #0x18
TA_InvokeCommandEntryPoint():
/home/thesis/Desktop/secure_nfc/ta/snfc_ta.c:163
    1600:	f9400bf3 	ldr	x19, [sp, #16]
    1604:	a8c27bfd 	ldp	x29, x30, [sp], #32
entry_create_snfc_packet():
/home/thesis/Desktop/secure_nfc/ta/snfc_ta.c:100
    1608:	b9400862 	ldr	w2, [x3, #8]
    160c:	f9403400 	ldr	x0, [x0, #104]
    1610:	f9400061 	ldr	x1, [x3]
    1614:	f9400863 	ldr	x3, [x3, #16]
    1618:	17fffea3 	b	10a4 <create_snfc_packet>
entry_process_snfc_packet():
/home/thesis/Desktop/secure_nfc/ta/snfc_ta.c:109
    161c:	7101945f 	cmp	w2, #0x65
    1620:	54fff661 	b.ne	14ec <TA_InvokeCommandEntryPoint+0x3c>  // b.any
/home/thesis/Desktop/secure_nfc/ta/snfc_ta.c:111
    1624:	d0000080 	adrp	x0, 13000 <.got>
    1628:	91006064 	add	x4, x3, #0x18
TA_InvokeCommandEntryPoint():
/home/thesis/Desktop/secure_nfc/ta/snfc_ta.c:163
    162c:	f9400bf3 	ldr	x19, [sp, #16]
    1630:	a8c27bfd 	ldp	x29, x30, [sp], #32
entry_process_snfc_packet():
/home/thesis/Desktop/secure_nfc/ta/snfc_ta.c:111
    1634:	b9400862 	ldr	w2, [x3, #8]
    1638:	f9403400 	ldr	x0, [x0, #104]
    163c:	f9400061 	ldr	x1, [x3]
    1640:	f9400863 	ldr	x3, [x3, #16]
    1644:	17ffff23 	b	12d0 <process_snfc_packet>
entry_security_context_close():
/home/thesis/Desktop/secure_nfc/ta/snfc_ta.c:120
    1648:	35fff522 	cbnz	w2, 14ec <TA_InvokeCommandEntryPoint+0x3c>
/home/thesis/Desktop/secure_nfc/ta/snfc_ta.c:122
    164c:	d0000080 	adrp	x0, 13000 <.got>
    1650:	f9403400 	ldr	x0, [x0, #104]
    1654:	97fffd59 	bl	bb8 <security_context_close>
TA_InvokeCommandEntryPoint():
/home/thesis/Desktop/secure_nfc/ta/snfc_ta.c:163
    1658:	2a1303e0 	mov	w0, w19
    165c:	f9400bf3 	ldr	x19, [sp, #16]
    1660:	a8c27bfd 	ldp	x29, x30, [sp], #32
    1664:	d65f03c0 	ret

0000000000001668 <__ta_entry>:
__ta_entry():
/home/thesis/Desktop/optee_rpi3bplus/optee_os/out/arm/export-ta_arm64/src/user_ta_header.c:36
    1668:	a9bf7bfd 	stp	x29, x30, [sp, #-16]!
    166c:	910003fd 	mov	x29, sp
/home/thesis/Desktop/optee_rpi3bplus/optee_os/out/arm/export-ta_arm64/src/user_ta_header.c:39
    1670:	94001743 	bl	737c <__utee_entry>
/home/thesis/Desktop/optee_rpi3bplus/optee_os/out/arm/export-ta_arm64/src/user_ta_header.c:41
    1674:	2a0003e0 	mov	w0, w0
    1678:	940017c3 	bl	7584 <utee_return>

000000000000167c <tahead_get_trace_level>:
tahead_get_trace_level():
/home/thesis/Desktop/optee_rpi3bplus/optee_os/out/arm/export-ta_arm64/src/user_ta_header.c:117
    167c:	52800020 	mov	w0, #0x1                   	// #1
    1680:	d65f03c0 	ret

0000000000001684 <raw_malloc_return_hook.constprop.21>:
raw_malloc_return_hook():
/home/thesis/Desktop/optee_rpi3bplus/optee_os/lib/libutils/isoc/bget_malloc.c:198
    1684:	d0000082 	adrp	x2, 13000 <.got>
    1688:	91116044 	add	x4, x2, #0x458
    168c:	f9401083 	ldr	x3, [x4, #32]
    1690:	b9406c85 	ldr	w5, [x4, #108]
    1694:	eb05007f 	cmp	x3, x5
    1698:	5400004d 	b.le	16a0 <raw_malloc_return_hook.constprop.21+0x1c>
/home/thesis/Desktop/optee_rpi3bplus/optee_os/lib/libutils/isoc/bget_malloc.c:199
    169c:	b9006c83 	str	w3, [x4, #108]
/home/thesis/Desktop/optee_rpi3bplus/optee_os/lib/libutils/isoc/bget_malloc.c:201
    16a0:	b5000120 	cbnz	x0, 16c4 <raw_malloc_return_hook.constprop.21+0x40>
/home/thesis/Desktop/optee_rpi3bplus/optee_os/lib/libutils/isoc/bget_malloc.c:202
    16a4:	91116040 	add	x0, x2, #0x458
    16a8:	b9407402 	ldr	w2, [x0, #116]
    16ac:	11000442 	add	w2, w2, #0x1
    16b0:	b9007402 	str	w2, [x0, #116]
/home/thesis/Desktop/optee_rpi3bplus/optee_os/lib/libutils/isoc/bget_malloc.c:204
    16b4:	b9407802 	ldr	w2, [x0, #120]
    16b8:	eb01005f 	cmp	x2, x1
    16bc:	54000042 	b.cs	16c4 <raw_malloc_return_hook.constprop.21+0x40>  // b.hs, b.nlast
/home/thesis/Desktop/optee_rpi3bplus/optee_os/lib/libutils/isoc/bget_malloc.c:206
    16c0:	290f0c01 	stp	w1, w3, [x0, #120]
/home/thesis/Desktop/optee_rpi3bplus/optee_os/lib/libutils/isoc/bget_malloc.c:210
    16c4:	d65f03c0 	ret

00000000000016c8 <bget>:
bget():
/home/thesis/Desktop/optee_rpi3bplus/optee_os/lib/libutils/isoc/bget.c:583
    16c8:	a9bf7bfd 	stp	x29, x30, [sp, #-16]!
/home/thesis/Desktop/optee_rpi3bplus/optee_os/lib/libutils/isoc/bget.c:594
    16cc:	f100001f 	cmp	x0, #0x0
/home/thesis/Desktop/optee_rpi3bplus/optee_os/lib/libutils/isoc/bget.c:583
    16d0:	910003fd 	mov	x29, sp
/home/thesis/Desktop/optee_rpi3bplus/optee_os/lib/libutils/isoc/bget.c:594
    16d4:	5400014c 	b.gt	16fc <bget+0x34>
/home/thesis/Desktop/optee_rpi3bplus/optee_os/lib/libutils/isoc/bget.c:594 (discriminator 1)
    16d8:	90000083 	adrp	x3, 11000 <SECURITY_ASSOCIATIONS+0x117c>
    16dc:	90000081 	adrp	x1, 11000 <SECURITY_ASSOCIATIONS+0x117c>
    16e0:	90000080 	adrp	x0, 11000 <SECURITY_ASSOCIATIONS+0x117c>
    16e4:	9127e463 	add	x3, x3, #0x9f9
    16e8:	91294421 	add	x1, x1, #0xa51
    16ec:	9132f800 	add	x0, x0, #0xcbe
    16f0:	52804a42 	mov	w2, #0x252                 	// #594
/home/thesis/Desktop/optee_rpi3bplus/optee_os/lib/libutils/isoc/bget.c:658 (discriminator 1)
    16f4:	940002f7 	bl	22d0 <_assert_log>
    16f8:	94000307 	bl	2314 <_assert_break>
/home/thesis/Desktop/optee_rpi3bplus/optee_os/lib/libutils/isoc/bget.c:601
    16fc:	f100401f 	cmp	x0, #0x10
    1700:	d2800202 	mov	x2, #0x10                  	// #16
    1704:	9a82a000 	csel	x0, x0, x2, ge  // ge = tcont
    1708:	b1003c02 	adds	x2, x0, #0xf
    170c:	54000144 	b.mi	1734 <bget+0x6c>  // b.first
    1710:	eb00005f 	cmp	x2, x0
    1714:	54000103 	b.cc	1734 <bget+0x6c>  // b.lo, b.ul, b.last
/home/thesis/Desktop/optee_rpi3bplus/optee_os/lib/libutils/isoc/bget.c:604
    1718:	927cec40 	and	x0, x2, #0xfffffffffffffff0
/home/thesis/Desktop/optee_rpi3bplus/optee_os/lib/libutils/isoc/bget.c:609
    171c:	91004003 	add	x3, x0, #0x10
    1720:	eb00007f 	cmp	x3, x0
    1724:	5400008b 	b.lt	1734 <bget+0x6c>  // b.tstop
/home/thesis/Desktop/optee_rpi3bplus/optee_os/lib/libutils/isoc/bget.c:619
    1728:	f9400820 	ldr	x0, [x1, #16]
/home/thesis/Desktop/optee_rpi3bplus/optee_os/lib/libutils/isoc/bget.c:641
    172c:	eb00003f 	cmp	x1, x0
    1730:	54000061 	b.ne	173c <bget+0x74>  // b.any
/home/thesis/Desktop/optee_rpi3bplus/optee_os/lib/libutils/isoc/bget.c:602
    1734:	d2800000 	mov	x0, #0x0                   	// #0
    1738:	1400001e 	b	17b0 <bget+0xe8>
/home/thesis/Desktop/optee_rpi3bplus/optee_os/lib/libutils/isoc/bget.c:642
    173c:	f9400402 	ldr	x2, [x0, #8]
    1740:	eb02007f 	cmp	x3, x2
    1744:	540009ec 	b.gt	1880 <bget+0x1b8>
/home/thesis/Desktop/optee_rpi3bplus/optee_os/lib/libutils/isoc/bget.c:653
    1748:	cb030044 	sub	x4, x2, x3
    174c:	f100809f 	cmp	x4, #0x20
    1750:	5400034d 	b.le	17b8 <bget+0xf0>
/home/thesis/Desktop/optee_rpi3bplus/optee_os/lib/libutils/isoc/bget.c:656
    1754:	8b040005 	add	x5, x0, x4
/home/thesis/Desktop/optee_rpi3bplus/optee_os/lib/libutils/isoc/bget.c:658
    1758:	f86368a6 	ldr	x6, [x5, x3]
    175c:	eb06005f 	cmp	x2, x6
    1760:	54000120 	b.eq	1784 <bget+0xbc>  // b.none
/home/thesis/Desktop/optee_rpi3bplus/optee_os/lib/libutils/isoc/bget.c:658 (discriminator 1)
    1764:	90000083 	adrp	x3, 11000 <SECURITY_ASSOCIATIONS+0x117c>
    1768:	90000081 	adrp	x1, 11000 <SECURITY_ASSOCIATIONS+0x117c>
    176c:	90000080 	adrp	x0, 11000 <SECURITY_ASSOCIATIONS+0x117c>
    1770:	9127e463 	add	x3, x3, #0x9f9
    1774:	52805242 	mov	w2, #0x292                 	// #658
    1778:	91294421 	add	x1, x1, #0xa51
    177c:	9129a800 	add	x0, x0, #0xa6a
    1780:	17ffffdd 	b	16f4 <bget+0x2c>
/home/thesis/Desktop/optee_rpi3bplus/optee_os/lib/libutils/isoc/bget.c:660
    1784:	f9000404 	str	x4, [x0, #8]
/home/thesis/Desktop/optee_rpi3bplus/optee_os/lib/libutils/isoc/bget.c:662
    1788:	f8246804 	str	x4, [x0, x4]
/home/thesis/Desktop/optee_rpi3bplus/optee_os/lib/libutils/isoc/bget.c:664
    178c:	cb0303e0 	neg	x0, x3
    1790:	f90004a0 	str	x0, [x5, #8]
/home/thesis/Desktop/optee_rpi3bplus/optee_os/lib/libutils/isoc/bget.c:669
    1794:	f9401020 	ldr	x0, [x1, #32]
/home/thesis/Desktop/optee_rpi3bplus/optee_os/lib/libutils/isoc/bget.c:666
    1798:	f82368bf 	str	xzr, [x5, x3]
/home/thesis/Desktop/optee_rpi3bplus/optee_os/lib/libutils/isoc/bget.c:669
    179c:	8b030003 	add	x3, x0, x3
/home/thesis/Desktop/optee_rpi3bplus/optee_os/lib/libutils/isoc/bget.c:670
    17a0:	f9401420 	ldr	x0, [x1, #40]
    17a4:	91000400 	add	x0, x0, #0x1
    17a8:	a9020023 	stp	x3, x0, [x1, #32]
/home/thesis/Desktop/optee_rpi3bplus/optee_os/lib/libutils/isoc/bget.c:672
    17ac:	910040a0 	add	x0, x5, #0x10
/home/thesis/Desktop/optee_rpi3bplus/optee_os/lib/libutils/isoc/bget.c:770
    17b0:	a8c17bfd 	ldp	x29, x30, [sp], #16
    17b4:	d65f03c0 	ret
/home/thesis/Desktop/optee_rpi3bplus/optee_os/lib/libutils/isoc/bget.c:679
    17b8:	f8626803 	ldr	x3, [x0, x2]
/home/thesis/Desktop/optee_rpi3bplus/optee_os/lib/libutils/isoc/bget.c:678
    17bc:	8b020005 	add	x5, x0, x2
/home/thesis/Desktop/optee_rpi3bplus/optee_os/lib/libutils/isoc/bget.c:679
    17c0:	eb03005f 	cmp	x2, x3
    17c4:	54000120 	b.eq	17e8 <bget+0x120>  // b.none
/home/thesis/Desktop/optee_rpi3bplus/optee_os/lib/libutils/isoc/bget.c:679 (discriminator 1)
    17c8:	90000083 	adrp	x3, 11000 <SECURITY_ASSOCIATIONS+0x117c>
    17cc:	90000081 	adrp	x1, 11000 <SECURITY_ASSOCIATIONS+0x117c>
    17d0:	90000080 	adrp	x0, 11000 <SECURITY_ASSOCIATIONS+0x117c>
    17d4:	9127e463 	add	x3, x3, #0x9f9
    17d8:	528054e2 	mov	w2, #0x2a7                 	// #679
    17dc:	91294421 	add	x1, x1, #0xa51
    17e0:	912a1800 	add	x0, x0, #0xa86
    17e4:	17ffffc4 	b	16f4 <bget+0x2c>
/home/thesis/Desktop/optee_rpi3bplus/optee_os/lib/libutils/isoc/bget.c:684
    17e8:	f9400c03 	ldr	x3, [x0, #24]
    17ec:	f9400864 	ldr	x4, [x3, #16]
    17f0:	eb00009f 	cmp	x4, x0
    17f4:	54000120 	b.eq	1818 <bget+0x150>  // b.none
/home/thesis/Desktop/optee_rpi3bplus/optee_os/lib/libutils/isoc/bget.c:684 (discriminator 1)
    17f8:	90000083 	adrp	x3, 11000 <SECURITY_ASSOCIATIONS+0x117c>
    17fc:	90000081 	adrp	x1, 11000 <SECURITY_ASSOCIATIONS+0x117c>
    1800:	90000080 	adrp	x0, 11000 <SECURITY_ASSOCIATIONS+0x117c>
    1804:	9127e463 	add	x3, x3, #0x9f9
    1808:	52805582 	mov	w2, #0x2ac                 	// #684
    180c:	91294421 	add	x1, x1, #0xa51
    1810:	912a8800 	add	x0, x0, #0xaa2
    1814:	17ffffb8 	b	16f4 <bget+0x2c>
/home/thesis/Desktop/optee_rpi3bplus/optee_os/lib/libutils/isoc/bget.c:685
    1818:	f9400804 	ldr	x4, [x0, #16]
    181c:	f9400c86 	ldr	x6, [x4, #24]
    1820:	eb0000df 	cmp	x6, x0
    1824:	54000120 	b.eq	1848 <bget+0x180>  // b.none
/home/thesis/Desktop/optee_rpi3bplus/optee_os/lib/libutils/isoc/bget.c:685 (discriminator 1)
    1828:	90000083 	adrp	x3, 11000 <SECURITY_ASSOCIATIONS+0x117c>
    182c:	90000081 	adrp	x1, 11000 <SECURITY_ASSOCIATIONS+0x117c>
    1830:	90000080 	adrp	x0, 11000 <SECURITY_ASSOCIATIONS+0x117c>
    1834:	9127e463 	add	x3, x3, #0x9f9
    1838:	528055a2 	mov	w2, #0x2ad                 	// #685
    183c:	91294421 	add	x1, x1, #0xa51
    1840:	912af400 	add	x0, x0, #0xabd
    1844:	17ffffac 	b	16f4 <bget+0x2c>
/home/thesis/Desktop/optee_rpi3bplus/optee_os/lib/libutils/isoc/bget.c:686
    1848:	f9000864 	str	x4, [x3, #16]
/home/thesis/Desktop/optee_rpi3bplus/optee_os/lib/libutils/isoc/bget.c:701
    184c:	91004000 	add	x0, x0, #0x10
/home/thesis/Desktop/optee_rpi3bplus/optee_os/lib/libutils/isoc/bget.c:687
    1850:	f9400004 	ldr	x4, [x0]
    1854:	f9000c83 	str	x3, [x4, #24]
/home/thesis/Desktop/optee_rpi3bplus/optee_os/lib/libutils/isoc/bget.c:690
    1858:	f9401023 	ldr	x3, [x1, #32]
    185c:	8b020063 	add	x3, x3, x2
    1860:	f9001023 	str	x3, [x1, #32]
/home/thesis/Desktop/optee_rpi3bplus/optee_os/lib/libutils/isoc/bget.c:691
    1864:	f9401423 	ldr	x3, [x1, #40]
/home/thesis/Desktop/optee_rpi3bplus/optee_os/lib/libutils/isoc/bget.c:694
    1868:	cb0203e2 	neg	x2, x2
/home/thesis/Desktop/optee_rpi3bplus/optee_os/lib/libutils/isoc/bget.c:691
    186c:	91000463 	add	x3, x3, #0x1
    1870:	f9001423 	str	x3, [x1, #40]
/home/thesis/Desktop/optee_rpi3bplus/optee_os/lib/libutils/isoc/bget.c:694
    1874:	f81f8002 	stur	x2, [x0, #-8]
/home/thesis/Desktop/optee_rpi3bplus/optee_os/lib/libutils/isoc/bget.c:698
    1878:	f90000bf 	str	xzr, [x5]
/home/thesis/Desktop/optee_rpi3bplus/optee_os/lib/libutils/isoc/bget.c:703
    187c:	17ffffcd 	b	17b0 <bget+0xe8>
/home/thesis/Desktop/optee_rpi3bplus/optee_os/lib/libutils/isoc/bget.c:706
    1880:	f9400800 	ldr	x0, [x0, #16]
    1884:	17ffffaa 	b	172c <bget+0x64>

0000000000001888 <bgetz>:
bgetz():
/home/thesis/Desktop/optee_rpi3bplus/optee_os/lib/libutils/isoc/bget.c:779
    1888:	a9be7bfd 	stp	x29, x30, [sp, #-32]!
    188c:	910003fd 	mov	x29, sp
    1890:	f9000bf3 	str	x19, [sp, #16]
    1894:	aa0003f3 	mov	x19, x0
/home/thesis/Desktop/optee_rpi3bplus/optee_os/lib/libutils/isoc/bget.c:780
    1898:	97ffff8c 	bl	16c8 <bget>
    189c:	aa0003e3 	mov	x3, x0
/home/thesis/Desktop/optee_rpi3bplus/optee_os/lib/libutils/isoc/bget.c:782
    18a0:	b4000320 	cbz	x0, 1904 <bgetz+0x7c>
/home/thesis/Desktop/optee_rpi3bplus/optee_os/lib/libutils/isoc/bget.c:787
    18a4:	f85f8000 	ldur	x0, [x0, #-8]
/home/thesis/Desktop/optee_rpi3bplus/optee_os/lib/libutils/isoc/bget.c:788
    18a8:	b50001e0 	cbnz	x0, 18e4 <bgetz+0x5c>
/home/thesis/Desktop/optee_rpi3bplus/optee_os/lib/libutils/isoc/bget.c:792
    18ac:	f85e8062 	ldur	x2, [x3, #-24]
    18b0:	d1006042 	sub	x2, x2, #0x18
/home/thesis/Desktop/optee_rpi3bplus/optee_os/lib/libutils/isoc/bget.c:796
    18b4:	eb13005f 	cmp	x2, x19
    18b8:	540001ca 	b.ge	18f0 <bgetz+0x68>  // b.tcont
    18bc:	90000083 	adrp	x3, 11000 <SECURITY_ASSOCIATIONS+0x117c>
    18c0:	9127e463 	add	x3, x3, #0x9f9
    18c4:	91001463 	add	x3, x3, #0x5
    18c8:	90000081 	adrp	x1, 11000 <SECURITY_ASSOCIATIONS+0x117c>
    18cc:	90000080 	adrp	x0, 11000 <SECURITY_ASSOCIATIONS+0x117c>
    18d0:	91294421 	add	x1, x1, #0xa51
    18d4:	912b6000 	add	x0, x0, #0xad8
    18d8:	52806382 	mov	w2, #0x31c                 	// #796
    18dc:	9400027d 	bl	22d0 <_assert_log>
    18e0:	9400028d 	bl	2314 <_assert_break>
/home/thesis/Desktop/optee_rpi3bplus/optee_os/lib/libutils/isoc/bget.c:794
    18e4:	928001e2 	mov	x2, #0xfffffffffffffff0    	// #-16
    18e8:	cb000042 	sub	x2, x2, x0
    18ec:	17fffff2 	b	18b4 <bgetz+0x2c>
memset_unchecked():
/home/thesis/Desktop/optee_rpi3bplus/optee_os/lib/libutils/isoc/bget_malloc.c:124
    18f0:	aa0303e0 	mov	x0, x3
    18f4:	93407c42 	sxtw	x2, w2
    18f8:	52800001 	mov	w1, #0x0                   	// #0
    18fc:	9400026e 	bl	22b4 <memset>
    1900:	aa0003e3 	mov	x3, x0
bgetz():
/home/thesis/Desktop/optee_rpi3bplus/optee_os/lib/libutils/isoc/bget.c:800
    1904:	aa0303e0 	mov	x0, x3
    1908:	f9400bf3 	ldr	x19, [sp, #16]
    190c:	a8c27bfd 	ldp	x29, x30, [sp], #32
    1910:	d65f03c0 	ret

0000000000001914 <brel>:
brel():
/home/thesis/Desktop/optee_rpi3bplus/optee_os/lib/libutils/isoc/bget.c:852
    1914:	a9be7bfd 	stp	x29, x30, [sp, #-32]!
    1918:	910003fd 	mov	x29, sp
/home/thesis/Desktop/optee_rpi3bplus/optee_os/lib/libutils/isoc/bget.c:858
    191c:	f9401823 	ldr	x3, [x1, #48]
/home/thesis/Desktop/optee_rpi3bplus/optee_os/lib/libutils/isoc/bget.c:852
    1920:	a90153f3 	stp	x19, x20, [sp, #16]
/home/thesis/Desktop/optee_rpi3bplus/optee_os/lib/libutils/isoc/bget.c:858
    1924:	91000463 	add	x3, x3, #0x1
    1928:	f9001823 	str	x3, [x1, #48]
/home/thesis/Desktop/optee_rpi3bplus/optee_os/lib/libutils/isoc/bget.c:860
    192c:	b5000160 	cbnz	x0, 1958 <brel+0x44>
/home/thesis/Desktop/optee_rpi3bplus/optee_os/lib/libutils/isoc/bget.c:860 (discriminator 1)
    1930:	90000083 	adrp	x3, 11000 <SECURITY_ASSOCIATIONS+0x117c>
    1934:	9127e463 	add	x3, x3, #0x9f9
    1938:	90000081 	adrp	x1, 11000 <SECURITY_ASSOCIATIONS+0x117c>
    193c:	90000080 	adrp	x0, 11000 <SECURITY_ASSOCIATIONS+0x117c>
    1940:	91002c63 	add	x3, x3, #0xb
    1944:	91294421 	add	x1, x1, #0xa51
    1948:	912b9800 	add	x0, x0, #0xae6
    194c:	52806b82 	mov	w2, #0x35c                 	// #860
/home/thesis/Desktop/optee_rpi3bplus/optee_os/lib/libutils/isoc/bget.c:895 (discriminator 1)
    1950:	94000260 	bl	22d0 <_assert_log>
    1954:	94000270 	bl	2314 <_assert_break>
/home/thesis/Desktop/optee_rpi3bplus/optee_os/lib/libutils/isoc/bget.c:892
    1958:	f85f8003 	ldur	x3, [x0, #-8]
/home/thesis/Desktop/optee_rpi3bplus/optee_os/lib/libutils/isoc/bget.c:895
    195c:	b7f80143 	tbnz	x3, #63, 1984 <brel+0x70>
/home/thesis/Desktop/optee_rpi3bplus/optee_os/lib/libutils/isoc/bget.c:895 (discriminator 1)
    1960:	90000083 	adrp	x3, 11000 <SECURITY_ASSOCIATIONS+0x117c>
    1964:	9127e463 	add	x3, x3, #0x9f9
    1968:	90000081 	adrp	x1, 11000 <SECURITY_ASSOCIATIONS+0x117c>
    196c:	90000080 	adrp	x0, 11000 <SECURITY_ASSOCIATIONS+0x117c>
    1970:	91002c63 	add	x3, x3, #0xb
    1974:	52806fe2 	mov	w2, #0x37f                 	// #895
    1978:	91294421 	add	x1, x1, #0xa51
    197c:	912bc800 	add	x0, x0, #0xaf2
    1980:	17fffff4 	b	1950 <brel+0x3c>
    1984:	d1004013 	sub	x19, x0, #0x10
/home/thesis/Desktop/optee_rpi3bplus/optee_os/lib/libutils/isoc/bget.c:901
    1988:	cb030264 	sub	x4, x19, x3
    198c:	f9400084 	ldr	x4, [x4]
    1990:	b4000144 	cbz	x4, 19b8 <brel+0xa4>
/home/thesis/Desktop/optee_rpi3bplus/optee_os/lib/libutils/isoc/bget.c:901 (discriminator 1)
    1994:	90000083 	adrp	x3, 11000 <SECURITY_ASSOCIATIONS+0x117c>
    1998:	9127e463 	add	x3, x3, #0x9f9
    199c:	90000081 	adrp	x1, 11000 <SECURITY_ASSOCIATIONS+0x117c>
    19a0:	90000080 	adrp	x0, 11000 <SECURITY_ASSOCIATIONS+0x117c>
    19a4:	91002c63 	add	x3, x3, #0xb
    19a8:	528070a2 	mov	w2, #0x385                 	// #901
    19ac:	91294421 	add	x1, x1, #0xa51
    19b0:	912c0800 	add	x0, x0, #0xb02
    19b4:	17ffffe7 	b	1950 <brel+0x3c>
/home/thesis/Desktop/optee_rpi3bplus/optee_os/lib/libutils/isoc/bget.c:904
    19b8:	f9401024 	ldr	x4, [x1, #32]
    19bc:	8b040064 	add	x4, x3, x4
    19c0:	f9001024 	str	x4, [x1, #32]
/home/thesis/Desktop/optee_rpi3bplus/optee_os/lib/libutils/isoc/bget.c:905
    19c4:	b6f80144 	tbz	x4, #63, 19ec <brel+0xd8>
/home/thesis/Desktop/optee_rpi3bplus/optee_os/lib/libutils/isoc/bget.c:905 (discriminator 1)
    19c8:	90000083 	adrp	x3, 11000 <SECURITY_ASSOCIATIONS+0x117c>
    19cc:	9127e463 	add	x3, x3, #0x9f9
    19d0:	90000081 	adrp	x1, 11000 <SECURITY_ASSOCIATIONS+0x117c>
    19d4:	90000080 	adrp	x0, 11000 <SECURITY_ASSOCIATIONS+0x117c>
    19d8:	91002c63 	add	x3, x3, #0xb
    19dc:	52807122 	mov	w2, #0x389                 	// #905
    19e0:	91294421 	add	x1, x1, #0xa51
    19e4:	912cb800 	add	x0, x0, #0xb2e
    19e8:	17ffffda 	b	1950 <brel+0x3c>
/home/thesis/Desktop/optee_rpi3bplus/optee_os/lib/libutils/isoc/bget.c:910
    19ec:	f85f0004 	ldur	x4, [x0, #-16]
    19f0:	b4000424 	cbz	x4, 1a74 <brel+0x160>
/home/thesis/Desktop/optee_rpi3bplus/optee_os/lib/libutils/isoc/bget.c:921
    19f4:	cb040273 	sub	x19, x19, x4
    19f8:	f9400660 	ldr	x0, [x19, #8]
    19fc:	eb00009f 	cmp	x4, x0
    1a00:	54000140 	b.eq	1a28 <brel+0x114>  // b.none
/home/thesis/Desktop/optee_rpi3bplus/optee_os/lib/libutils/isoc/bget.c:921 (discriminator 1)
    1a04:	90000083 	adrp	x3, 11000 <SECURITY_ASSOCIATIONS+0x117c>
    1a08:	9127e463 	add	x3, x3, #0x9f9
    1a0c:	90000081 	adrp	x1, 11000 <SECURITY_ASSOCIATIONS+0x117c>
    1a10:	90000080 	adrp	x0, 11000 <SECURITY_ASSOCIATIONS+0x117c>
    1a14:	91002c63 	add	x3, x3, #0xb
    1a18:	52807322 	mov	w2, #0x399                 	// #921
    1a1c:	91294421 	add	x1, x1, #0xa51
    1a20:	912d1400 	add	x0, x0, #0xb45
    1a24:	17ffffcb 	b	1950 <brel+0x3c>
/home/thesis/Desktop/optee_rpi3bplus/optee_os/lib/libutils/isoc/bget.c:923
    1a28:	cb030083 	sub	x3, x4, x3
    1a2c:	f9000663 	str	x3, [x19, #8]
/home/thesis/Desktop/optee_rpi3bplus/optee_os/lib/libutils/isoc/bget.c:943
    1a30:	f9400660 	ldr	x0, [x19, #8]
    1a34:	8b000274 	add	x20, x19, x0
/home/thesis/Desktop/optee_rpi3bplus/optee_os/lib/libutils/isoc/bget.c:944
    1a38:	f9400681 	ldr	x1, [x20, #8]
    1a3c:	f100003f 	cmp	x1, #0x0
    1a40:	540009ad 	b.le	1b74 <brel+0x260>
/home/thesis/Desktop/optee_rpi3bplus/optee_os/lib/libutils/isoc/bget.c:949
    1a44:	f8616a83 	ldr	x3, [x20, x1]
    1a48:	eb03003f 	cmp	x1, x3
    1a4c:	54000560 	b.eq	1af8 <brel+0x1e4>  // b.none
/home/thesis/Desktop/optee_rpi3bplus/optee_os/lib/libutils/isoc/bget.c:949 (discriminator 1)
    1a50:	90000083 	adrp	x3, 11000 <SECURITY_ASSOCIATIONS+0x117c>
    1a54:	9127e463 	add	x3, x3, #0x9f9
    1a58:	90000081 	adrp	x1, 11000 <SECURITY_ASSOCIATIONS+0x117c>
    1a5c:	90000080 	adrp	x0, 11000 <SECURITY_ASSOCIATIONS+0x117c>
    1a60:	91002c63 	add	x3, x3, #0xb
    1a64:	528076a2 	mov	w2, #0x3b5                 	// #949
    1a68:	91294421 	add	x1, x1, #0xa51
    1a6c:	912fd000 	add	x0, x0, #0xbf4
    1a70:	17ffffb8 	b	1950 <brel+0x3c>
/home/thesis/Desktop/optee_rpi3bplus/optee_os/lib/libutils/isoc/bget.c:929
    1a74:	f9400c25 	ldr	x5, [x1, #24]
    1a78:	f94008a4 	ldr	x4, [x5, #16]
    1a7c:	eb01009f 	cmp	x4, x1
    1a80:	54000140 	b.eq	1aa8 <brel+0x194>  // b.none
/home/thesis/Desktop/optee_rpi3bplus/optee_os/lib/libutils/isoc/bget.c:929 (discriminator 1)
    1a84:	90000083 	adrp	x3, 11000 <SECURITY_ASSOCIATIONS+0x117c>
    1a88:	9127e463 	add	x3, x3, #0x9f9
    1a8c:	90000081 	adrp	x1, 11000 <SECURITY_ASSOCIATIONS+0x117c>
    1a90:	90000080 	adrp	x0, 11000 <SECURITY_ASSOCIATIONS+0x117c>
    1a94:	91002c63 	add	x3, x3, #0xb
    1a98:	52807422 	mov	w2, #0x3a1                 	// #929
    1a9c:	91294421 	add	x1, x1, #0xa51
    1aa0:	912df800 	add	x0, x0, #0xb7e
    1aa4:	17ffffab 	b	1950 <brel+0x3c>
/home/thesis/Desktop/optee_rpi3bplus/optee_os/lib/libutils/isoc/bget.c:930
    1aa8:	f9400881 	ldr	x1, [x4, #16]
    1aac:	f9400c21 	ldr	x1, [x1, #24]
    1ab0:	eb01009f 	cmp	x4, x1
    1ab4:	54000140 	b.eq	1adc <brel+0x1c8>  // b.none
/home/thesis/Desktop/optee_rpi3bplus/optee_os/lib/libutils/isoc/bget.c:930 (discriminator 1)
    1ab8:	90000083 	adrp	x3, 11000 <SECURITY_ASSOCIATIONS+0x117c>
    1abc:	9127e463 	add	x3, x3, #0x9f9
    1ac0:	90000081 	adrp	x1, 11000 <SECURITY_ASSOCIATIONS+0x117c>
    1ac4:	90000080 	adrp	x0, 11000 <SECURITY_ASSOCIATIONS+0x117c>
    1ac8:	91002c63 	add	x3, x3, #0xb
    1acc:	52807442 	mov	w2, #0x3a2                 	// #930
    1ad0:	91294421 	add	x1, x1, #0xa51
    1ad4:	912ee400 	add	x0, x0, #0xbb9
    1ad8:	17ffff9e 	b	1950 <brel+0x3c>
/home/thesis/Desktop/optee_rpi3bplus/optee_os/lib/libutils/isoc/bget.c:932
    1adc:	a9011664 	stp	x4, x5, [x19, #16]
/home/thesis/Desktop/optee_rpi3bplus/optee_os/lib/libutils/isoc/bget.c:896
    1ae0:	cb0303e3 	neg	x3, x3
/home/thesis/Desktop/optee_rpi3bplus/optee_os/lib/libutils/isoc/bget.c:933
    1ae4:	f9000c93 	str	x19, [x4, #24]
/home/thesis/Desktop/optee_rpi3bplus/optee_os/lib/libutils/isoc/bget.c:934
    1ae8:	f9400e61 	ldr	x1, [x19, #24]
    1aec:	f9000833 	str	x19, [x1, #16]
/home/thesis/Desktop/optee_rpi3bplus/optee_os/lib/libutils/isoc/bget.c:935
    1af0:	f81f8003 	stur	x3, [x0, #-8]
    1af4:	17ffffcf 	b	1a30 <brel+0x11c>
/home/thesis/Desktop/optee_rpi3bplus/optee_os/lib/libutils/isoc/bget.c:950
    1af8:	f9400e84 	ldr	x4, [x20, #24]
    1afc:	f9400885 	ldr	x5, [x4, #16]
    1b00:	eb1400bf 	cmp	x5, x20
    1b04:	54000140 	b.eq	1b2c <brel+0x218>  // b.none
/home/thesis/Desktop/optee_rpi3bplus/optee_os/lib/libutils/isoc/bget.c:950 (discriminator 1)
    1b08:	90000083 	adrp	x3, 11000 <SECURITY_ASSOCIATIONS+0x117c>
    1b0c:	9127e463 	add	x3, x3, #0x9f9
    1b10:	90000081 	adrp	x1, 11000 <SECURITY_ASSOCIATIONS+0x117c>
    1b14:	90000080 	adrp	x0, 11000 <SECURITY_ASSOCIATIONS+0x117c>
    1b18:	91002c63 	add	x3, x3, #0xb
    1b1c:	528076c2 	mov	w2, #0x3b6                 	// #950
    1b20:	91294421 	add	x1, x1, #0xa51
    1b24:	9130b400 	add	x0, x0, #0xc2d
    1b28:	17ffff8a 	b	1950 <brel+0x3c>
/home/thesis/Desktop/optee_rpi3bplus/optee_os/lib/libutils/isoc/bget.c:951
    1b2c:	f94008a3 	ldr	x3, [x5, #16]
    1b30:	f9400c66 	ldr	x6, [x3, #24]
    1b34:	eb0500df 	cmp	x6, x5
    1b38:	54000140 	b.eq	1b60 <brel+0x24c>  // b.none
/home/thesis/Desktop/optee_rpi3bplus/optee_os/lib/libutils/isoc/bget.c:951 (discriminator 1)
    1b3c:	90000083 	adrp	x3, 11000 <SECURITY_ASSOCIATIONS+0x117c>
    1b40:	9127e463 	add	x3, x3, #0x9f9
    1b44:	90000081 	adrp	x1, 11000 <SECURITY_ASSOCIATIONS+0x117c>
    1b48:	90000080 	adrp	x0, 11000 <SECURITY_ASSOCIATIONS+0x117c>
    1b4c:	91002c63 	add	x3, x3, #0xb
    1b50:	528076e2 	mov	w2, #0x3b7                 	// #951
    1b54:	91294421 	add	x1, x1, #0xa51
    1b58:	91312800 	add	x0, x0, #0xc4a
    1b5c:	17ffff7d 	b	1950 <brel+0x3c>
/home/thesis/Desktop/optee_rpi3bplus/optee_os/lib/libutils/isoc/bget.c:952
    1b60:	f9000883 	str	x3, [x4, #16]
/home/thesis/Desktop/optee_rpi3bplus/optee_os/lib/libutils/isoc/bget.c:954
    1b64:	8b010014 	add	x20, x0, x1
/home/thesis/Desktop/optee_rpi3bplus/optee_os/lib/libutils/isoc/bget.c:953
    1b68:	f9000c64 	str	x4, [x3, #24]
/home/thesis/Desktop/optee_rpi3bplus/optee_os/lib/libutils/isoc/bget.c:954
    1b6c:	f9000674 	str	x20, [x19, #8]
/home/thesis/Desktop/optee_rpi3bplus/optee_os/lib/libutils/isoc/bget.c:963
    1b70:	8b140274 	add	x20, x19, x20
/home/thesis/Desktop/optee_rpi3bplus/optee_os/lib/libutils/isoc/bget.c:965
    1b74:	340000e2 	cbz	w2, 1b90 <brel+0x27c>
/home/thesis/Desktop/optee_rpi3bplus/optee_os/lib/libutils/isoc/bget.c:967
    1b78:	f9400662 	ldr	x2, [x19, #8]
memset_unchecked():
/home/thesis/Desktop/optee_rpi3bplus/optee_os/lib/libutils/isoc/bget_malloc.c:124
    1b7c:	52800aa1 	mov	w1, #0x55                  	// #85
    1b80:	91008260 	add	x0, x19, #0x20
brel():
/home/thesis/Desktop/optee_rpi3bplus/optee_os/lib/libutils/isoc/bget.c:967
    1b84:	51008042 	sub	w2, w2, #0x20
memset_unchecked():
/home/thesis/Desktop/optee_rpi3bplus/optee_os/lib/libutils/isoc/bget_malloc.c:124
    1b88:	93407c42 	sxtw	x2, w2
    1b8c:	940001ca 	bl	22b4 <memset>
brel():
/home/thesis/Desktop/optee_rpi3bplus/optee_os/lib/libutils/isoc/bget.c:969
    1b90:	f9400680 	ldr	x0, [x20, #8]
    1b94:	b7f80140 	tbnz	x0, #63, 1bbc <brel+0x2a8>
/home/thesis/Desktop/optee_rpi3bplus/optee_os/lib/libutils/isoc/bget.c:969 (discriminator 1)
    1b98:	90000083 	adrp	x3, 11000 <SECURITY_ASSOCIATIONS+0x117c>
    1b9c:	9127e463 	add	x3, x3, #0x9f9
    1ba0:	90000081 	adrp	x1, 11000 <SECURITY_ASSOCIATIONS+0x117c>
    1ba4:	90000080 	adrp	x0, 11000 <SECURITY_ASSOCIATIONS+0x117c>
    1ba8:	91002c63 	add	x3, x3, #0xb
    1bac:	52807922 	mov	w2, #0x3c9                 	// #969
    1bb0:	91294421 	add	x1, x1, #0xa51
    1bb4:	91319c00 	add	x0, x0, #0xc67
    1bb8:	17ffff66 	b	1950 <brel+0x3c>
/home/thesis/Desktop/optee_rpi3bplus/optee_os/lib/libutils/isoc/bget.c:974
    1bbc:	f9400660 	ldr	x0, [x19, #8]
    1bc0:	f9000280 	str	x0, [x20]
/home/thesis/Desktop/optee_rpi3bplus/optee_os/lib/libutils/isoc/bget.c:1002
    1bc4:	a94153f3 	ldp	x19, x20, [sp, #16]
    1bc8:	a8c27bfd 	ldp	x29, x30, [sp], #32
    1bcc:	d65f03c0 	ret

0000000000001bd0 <bgetr>:
bgetr():
/home/thesis/Desktop/optee_rpi3bplus/optee_os/lib/libutils/isoc/bget.c:811
    1bd0:	a9bc7bfd 	stp	x29, x30, [sp, #-64]!
    1bd4:	910003fd 	mov	x29, sp
    1bd8:	a90153f3 	stp	x19, x20, [sp, #16]
    1bdc:	aa0103f4 	mov	x20, x1
/home/thesis/Desktop/optee_rpi3bplus/optee_os/lib/libutils/isoc/bget.c:816
    1be0:	aa0203e1 	mov	x1, x2
/home/thesis/Desktop/optee_rpi3bplus/optee_os/lib/libutils/isoc/bget.c:811
    1be4:	a9025bf5 	stp	x21, x22, [sp, #32]
    1be8:	aa0003f5 	mov	x21, x0
/home/thesis/Desktop/optee_rpi3bplus/optee_os/lib/libutils/isoc/bget.c:816
    1bec:	aa1403e0 	mov	x0, x20
/home/thesis/Desktop/optee_rpi3bplus/optee_os/lib/libutils/isoc/bget.c:811
    1bf0:	f9001bf7 	str	x23, [sp, #48]
    1bf4:	aa0203f7 	mov	x23, x2
/home/thesis/Desktop/optee_rpi3bplus/optee_os/lib/libutils/isoc/bget.c:816
    1bf8:	97fffeb4 	bl	16c8 <bget>
    1bfc:	aa0003f6 	mov	x22, x0
    1c00:	b4000420 	cbz	x0, 1c84 <bgetr+0xb4>
/home/thesis/Desktop/optee_rpi3bplus/optee_os/lib/libutils/isoc/bget.c:819
    1c04:	b4000415 	cbz	x21, 1c84 <bgetr+0xb4>
/home/thesis/Desktop/optee_rpi3bplus/optee_os/lib/libutils/isoc/bget.c:833
    1c08:	f85f82a1 	ldur	x1, [x21, #-8]
    1c0c:	928001f3 	mov	x19, #0xfffffffffffffff0    	// #-16
    1c10:	cb010273 	sub	x19, x19, x1
/home/thesis/Desktop/optee_rpi3bplus/optee_os/lib/libutils/isoc/bget.c:834
    1c14:	f100027f 	cmp	x19, #0x0
    1c18:	5400016c 	b.gt	1c44 <bgetr+0x74>
    1c1c:	90000083 	adrp	x3, 11000 <SECURITY_ASSOCIATIONS+0x117c>
    1c20:	9127e463 	add	x3, x3, #0x9f9
    1c24:	91004063 	add	x3, x3, #0x10
    1c28:	90000081 	adrp	x1, 11000 <SECURITY_ASSOCIATIONS+0x117c>
    1c2c:	90000080 	adrp	x0, 11000 <SECURITY_ASSOCIATIONS+0x117c>
    1c30:	91294421 	add	x1, x1, #0xa51
    1c34:	9131e000 	add	x0, x0, #0xc78
    1c38:	52806842 	mov	w2, #0x342                 	// #834
    1c3c:	940001a5 	bl	22d0 <_assert_log>
    1c40:	940001b5 	bl	2314 <_assert_break>
/home/thesis/Desktop/optee_rpi3bplus/optee_os/lib/libutils/isoc/bget.c:835
    1c44:	eb13029f 	cmp	x20, x19
    1c48:	93407e81 	sxtw	x1, w20
    1c4c:	93407e62 	sxtw	x2, w19
    1c50:	9a81a042 	csel	x2, x2, x1, ge  // ge = tcont
    1c54:	aa1503e1 	mov	x1, x21
    1c58:	9400018f 	bl	2294 <memcpy>
/home/thesis/Desktop/optee_rpi3bplus/optee_os/lib/libutils/isoc/bget.c:839
    1c5c:	eb13029f 	cmp	x20, x19
    1c60:	540000ad 	b.le	1c74 <bgetr+0xa4>
/home/thesis/Desktop/optee_rpi3bplus/optee_os/lib/libutils/isoc/bget.c:840
    1c64:	cb130282 	sub	x2, x20, x19
    1c68:	52800001 	mov	w1, #0x0                   	// #0
    1c6c:	8b1302c0 	add	x0, x22, x19
    1c70:	94000191 	bl	22b4 <memset>
/home/thesis/Desktop/optee_rpi3bplus/optee_os/lib/libutils/isoc/bget.c:842
    1c74:	52800002 	mov	w2, #0x0                   	// #0
    1c78:	aa1703e1 	mov	x1, x23
    1c7c:	aa1503e0 	mov	x0, x21
    1c80:	97ffff25 	bl	1914 <brel>
/home/thesis/Desktop/optee_rpi3bplus/optee_os/lib/libutils/isoc/bget.c:844
    1c84:	aa1603e0 	mov	x0, x22
    1c88:	a94153f3 	ldp	x19, x20, [sp, #16]
    1c8c:	a9425bf5 	ldp	x21, x22, [sp, #32]
    1c90:	f9401bf7 	ldr	x23, [sp, #48]
    1c94:	a8c47bfd 	ldp	x29, x30, [sp], #64
    1c98:	d65f03c0 	ret

0000000000001c9c <bpool>:
bpool():
/home/thesis/Desktop/optee_rpi3bplus/optee_os/lib/libutils/isoc/bget.c:1028
    1c9c:	a9bf7bfd 	stp	x29, x30, [sp, #-16]!
/home/thesis/Desktop/optee_rpi3bplus/optee_os/lib/libutils/isoc/bget.c:1033
    1ca0:	927cec21 	and	x1, x1, #0xfffffffffffffff0
/home/thesis/Desktop/optee_rpi3bplus/optee_os/lib/libutils/isoc/bget.c:1052
    1ca4:	f1004021 	subs	x1, x1, #0x10
/home/thesis/Desktop/optee_rpi3bplus/optee_os/lib/libutils/isoc/bget.c:1028
    1ca8:	910003fd 	mov	x29, sp
/home/thesis/Desktop/optee_rpi3bplus/optee_os/lib/libutils/isoc/bget.c:1052
    1cac:	54000165 	b.pl	1cd8 <bpool+0x3c>  // b.nfrst
/home/thesis/Desktop/optee_rpi3bplus/optee_os/lib/libutils/isoc/bget.c:1052 (discriminator 1)
    1cb0:	90000083 	adrp	x3, 11000 <SECURITY_ASSOCIATIONS+0x117c>
    1cb4:	9127e463 	add	x3, x3, #0x9f9
    1cb8:	90000081 	adrp	x1, 11000 <SECURITY_ASSOCIATIONS+0x117c>
    1cbc:	90000080 	adrp	x0, 11000 <SECURITY_ASSOCIATIONS+0x117c>
    1cc0:	91005863 	add	x3, x3, #0x16
    1cc4:	91294421 	add	x1, x1, #0xa51
    1cc8:	91320800 	add	x0, x0, #0xc82
    1ccc:	52808382 	mov	w2, #0x41c                 	// #1052
/home/thesis/Desktop/optee_rpi3bplus/optee_os/lib/libutils/isoc/bget.c:1062 (discriminator 1)
    1cd0:	94000180 	bl	22d0 <_assert_log>
    1cd4:	94000190 	bl	2314 <_assert_break>
/home/thesis/Desktop/optee_rpi3bplus/optee_os/lib/libutils/isoc/bget.c:1062
    1cd8:	f9400c44 	ldr	x4, [x2, #24]
    1cdc:	f9400883 	ldr	x3, [x4, #16]
/home/thesis/Desktop/optee_rpi3bplus/optee_os/lib/libutils/isoc/bget.c:1058
    1ce0:	f900001f 	str	xzr, [x0]
/home/thesis/Desktop/optee_rpi3bplus/optee_os/lib/libutils/isoc/bget.c:1062
    1ce4:	eb02007f 	cmp	x3, x2
    1ce8:	54000140 	b.eq	1d10 <bpool+0x74>  // b.none
/home/thesis/Desktop/optee_rpi3bplus/optee_os/lib/libutils/isoc/bget.c:1062 (discriminator 1)
    1cec:	90000083 	adrp	x3, 11000 <SECURITY_ASSOCIATIONS+0x117c>
    1cf0:	9127e463 	add	x3, x3, #0x9f9
    1cf4:	90000081 	adrp	x1, 11000 <SECURITY_ASSOCIATIONS+0x117c>
    1cf8:	90000080 	adrp	x0, 11000 <SECURITY_ASSOCIATIONS+0x117c>
    1cfc:	91005863 	add	x3, x3, #0x16
    1d00:	528084c2 	mov	w2, #0x426                 	// #1062
    1d04:	91294421 	add	x1, x1, #0xa51
    1d08:	912df800 	add	x0, x0, #0xb7e
    1d0c:	17fffff1 	b	1cd0 <bpool+0x34>
/home/thesis/Desktop/optee_rpi3bplus/optee_os/lib/libutils/isoc/bget.c:1063
    1d10:	f9400862 	ldr	x2, [x3, #16]
    1d14:	f9400c42 	ldr	x2, [x2, #24]
    1d18:	eb02007f 	cmp	x3, x2
    1d1c:	54000140 	b.eq	1d44 <bpool+0xa8>  // b.none
    1d20:	90000083 	adrp	x3, 11000 <SECURITY_ASSOCIATIONS+0x117c>
    1d24:	9127e463 	add	x3, x3, #0x9f9
    1d28:	90000081 	adrp	x1, 11000 <SECURITY_ASSOCIATIONS+0x117c>
    1d2c:	90000080 	adrp	x0, 11000 <SECURITY_ASSOCIATIONS+0x117c>
    1d30:	91005863 	add	x3, x3, #0x16
    1d34:	528084e2 	mov	w2, #0x427                 	// #1063
    1d38:	91294421 	add	x1, x1, #0xa51
    1d3c:	912ee400 	add	x0, x0, #0xbb9
    1d40:	17ffffe4 	b	1cd0 <bpool+0x34>
/home/thesis/Desktop/optee_rpi3bplus/optee_os/lib/libutils/isoc/bget.c:1065
    1d44:	a9011003 	stp	x3, x4, [x0, #16]
/home/thesis/Desktop/optee_rpi3bplus/optee_os/lib/libutils/isoc/bget.c:1066
    1d48:	f9000c60 	str	x0, [x3, #24]
/home/thesis/Desktop/optee_rpi3bplus/optee_os/lib/libutils/isoc/bget.c:1067
    1d4c:	f9400c02 	ldr	x2, [x0, #24]
    1d50:	f9000840 	str	x0, [x2, #16]
/home/thesis/Desktop/optee_rpi3bplus/optee_os/lib/libutils/isoc/bget.c:1083
    1d54:	8b010002 	add	x2, x0, x1
/home/thesis/Desktop/optee_rpi3bplus/optee_os/lib/libutils/isoc/bget.c:1078
    1d58:	f9000401 	str	x1, [x0, #8]
/home/thesis/Desktop/optee_rpi3bplus/optee_os/lib/libutils/isoc/bget.c:1084
    1d5c:	f8216801 	str	x1, [x0, x1]
/home/thesis/Desktop/optee_rpi3bplus/optee_os/lib/libutils/isoc/bget.c:1087
    1d60:	d2f00000 	mov	x0, #0x8000000000000000    	// #-9223372036854775808
    1d64:	f9000440 	str	x0, [x2, #8]
/home/thesis/Desktop/optee_rpi3bplus/optee_os/lib/libutils/isoc/bget.c:1088
    1d68:	a8c17bfd 	ldp	x29, x30, [sp], #16
    1d6c:	d65f03c0 	ret

0000000000001d70 <bstats>:
bstats():
/home/thesis/Desktop/optee_rpi3bplus/optee_os/lib/libutils/isoc/bget.c:1101
    1d70:	f94014a7 	ldr	x7, [x5, #40]
/home/thesis/Desktop/optee_rpi3bplus/optee_os/lib/libutils/isoc/bget.c:1099
    1d74:	f94008a6 	ldr	x6, [x5, #16]
/home/thesis/Desktop/optee_rpi3bplus/optee_os/lib/libutils/isoc/bget.c:1101
    1d78:	f9000067 	str	x7, [x3]
/home/thesis/Desktop/optee_rpi3bplus/optee_os/lib/libutils/isoc/bget.c:1102
    1d7c:	f94018a3 	ldr	x3, [x5, #48]
    1d80:	f9000083 	str	x3, [x4]
/home/thesis/Desktop/optee_rpi3bplus/optee_os/lib/libutils/isoc/bget.c:1103
    1d84:	f94010a3 	ldr	x3, [x5, #32]
    1d88:	f9000003 	str	x3, [x0]
/home/thesis/Desktop/optee_rpi3bplus/optee_os/lib/libutils/isoc/bget.c:1104
    1d8c:	f900003f 	str	xzr, [x1]
/home/thesis/Desktop/optee_rpi3bplus/optee_os/lib/libutils/isoc/bget.c:1105
    1d90:	92800000 	mov	x0, #0xffffffffffffffff    	// #-1
    1d94:	f9000040 	str	x0, [x2]
/home/thesis/Desktop/optee_rpi3bplus/optee_os/lib/libutils/isoc/bget.c:1106
    1d98:	eb0600bf 	cmp	x5, x6
    1d9c:	54000041 	b.ne	1da4 <bstats+0x34>  // b.any
    1da0:	d65f03c0 	ret
/home/thesis/Desktop/optee_rpi3bplus/optee_os/lib/libutils/isoc/bget.c:1107
    1da4:	f94004c3 	ldr	x3, [x6, #8]
    1da8:	f100007f 	cmp	x3, #0x0
    1dac:	540001ac 	b.gt	1de0 <bstats+0x70>
/home/thesis/Desktop/optee_rpi3bplus/optee_os/lib/libutils/isoc/bget.c:1107 (discriminator 1)
    1db0:	90000083 	adrp	x3, 11000 <SECURITY_ASSOCIATIONS+0x117c>
    1db4:	9127e463 	add	x3, x3, #0x9f9
    1db8:	91007063 	add	x3, x3, #0x1c
    1dbc:	90000081 	adrp	x1, 11000 <SECURITY_ASSOCIATIONS+0x117c>
    1dc0:	90000080 	adrp	x0, 11000 <SECURITY_ASSOCIATIONS+0x117c>
    1dc4:	91294421 	add	x1, x1, #0xa51
    1dc8:	9132dc00 	add	x0, x0, #0xcb7
/home/thesis/Desktop/optee_rpi3bplus/optee_os/lib/libutils/isoc/bget.c:1098 (discriminator 1)
    1dcc:	a9bf7bfd 	stp	x29, x30, [sp, #-16]!
/home/thesis/Desktop/optee_rpi3bplus/optee_os/lib/libutils/isoc/bget.c:1107 (discriminator 1)
    1dd0:	52808a62 	mov	w2, #0x453                 	// #1107
/home/thesis/Desktop/optee_rpi3bplus/optee_os/lib/libutils/isoc/bget.c:1098 (discriminator 1)
    1dd4:	910003fd 	mov	x29, sp
/home/thesis/Desktop/optee_rpi3bplus/optee_os/lib/libutils/isoc/bget.c:1107 (discriminator 1)
    1dd8:	9400013e 	bl	22d0 <_assert_log>
    1ddc:	9400014e 	bl	2314 <_assert_break>
/home/thesis/Desktop/optee_rpi3bplus/optee_os/lib/libutils/isoc/bget.c:1108
    1de0:	f9400020 	ldr	x0, [x1]
    1de4:	8b030000 	add	x0, x0, x3
    1de8:	f9000020 	str	x0, [x1]
/home/thesis/Desktop/optee_rpi3bplus/optee_os/lib/libutils/isoc/bget.c:1109
    1dec:	f9400043 	ldr	x3, [x2]
    1df0:	f94004c0 	ldr	x0, [x6, #8]
    1df4:	eb03001f 	cmp	x0, x3
    1df8:	5400004d 	b.le	1e00 <bstats+0x90>
/home/thesis/Desktop/optee_rpi3bplus/optee_os/lib/libutils/isoc/bget.c:1110
    1dfc:	f9000040 	str	x0, [x2]
/home/thesis/Desktop/optee_rpi3bplus/optee_os/lib/libutils/isoc/bget.c:1112
    1e00:	f94008c6 	ldr	x6, [x6, #16]
    1e04:	17ffffe5 	b	1d98 <bstats+0x28>

0000000000001e08 <malloc_reset_stats>:
gen_malloc_reset_stats():
/home/thesis/Desktop/optee_rpi3bplus/optee_os/lib/libutils/isoc/bget_malloc.c:216
    1e08:	d0000080 	adrp	x0, 13000 <.got>
    1e0c:	91116000 	add	x0, x0, #0x458
    1e10:	b9006c1f 	str	wzr, [x0, #108]
/home/thesis/Desktop/optee_rpi3bplus/optee_os/lib/libutils/isoc/bget_malloc.c:217
    1e14:	b900741f 	str	wzr, [x0, #116]
/home/thesis/Desktop/optee_rpi3bplus/optee_os/lib/libutils/isoc/bget_malloc.c:218
    1e18:	f9003c1f 	str	xzr, [x0, #120]
malloc_reset_stats():
/home/thesis/Desktop/optee_rpi3bplus/optee_os/lib/libutils/isoc/bget_malloc.c:226
    1e1c:	d65f03c0 	ret

0000000000001e20 <malloc_get_stats>:
malloc_get_stats():
/home/thesis/Desktop/optee_rpi3bplus/optee_os/lib/libutils/isoc/bget_malloc.c:239
    1e20:	a9be7bfd 	stp	x29, x30, [sp, #-32]!
gen_malloc_get_stats():
/home/thesis/Desktop/optee_rpi3bplus/optee_os/lib/libutils/isoc/bget_malloc.c:233
    1e24:	d2800702 	mov	x2, #0x38                  	// #56
malloc_get_stats():
/home/thesis/Desktop/optee_rpi3bplus/optee_os/lib/libutils/isoc/bget_malloc.c:239
    1e28:	910003fd 	mov	x29, sp
    1e2c:	f9000bf3 	str	x19, [sp, #16]
gen_malloc_get_stats():
/home/thesis/Desktop/optee_rpi3bplus/optee_os/lib/libutils/isoc/bget_malloc.c:233
    1e30:	d0000093 	adrp	x19, 13000 <.got>
    1e34:	91116273 	add	x19, x19, #0x458
    1e38:	91012261 	add	x1, x19, #0x48
    1e3c:	94000116 	bl	2294 <memcpy>
    1e40:	aa0003e3 	mov	x3, x0
/home/thesis/Desktop/optee_rpi3bplus/optee_os/lib/libutils/isoc/bget_malloc.c:234
    1e44:	f9401260 	ldr	x0, [x19, #32]
malloc_get_stats():
/home/thesis/Desktop/optee_rpi3bplus/optee_os/lib/libutils/isoc/bget_malloc.c:241
    1e48:	f9400bf3 	ldr	x19, [sp, #16]
gen_malloc_get_stats():
/home/thesis/Desktop/optee_rpi3bplus/optee_os/lib/libutils/isoc/bget_malloc.c:234
    1e4c:	b9002060 	str	w0, [x3, #32]
malloc_get_stats():
/home/thesis/Desktop/optee_rpi3bplus/optee_os/lib/libutils/isoc/bget_malloc.c:241
    1e50:	a8c27bfd 	ldp	x29, x30, [sp], #32
    1e54:	d65f03c0 	ret

0000000000001e58 <malloc>:
malloc():
/home/thesis/Desktop/optee_rpi3bplus/optee_os/lib/libutils/isoc/bget_malloc.c:656
    1e58:	a9be7bfd 	stp	x29, x30, [sp, #-32]!
    1e5c:	910003fd 	mov	x29, sp
    1e60:	f9000bf3 	str	x19, [sp, #16]
    1e64:	aa0003f3 	mov	x19, x0
raw_malloc():
/home/thesis/Desktop/optee_rpi3bplus/optee_os/lib/libutils/isoc/bget_malloc.c:352
    1e68:	b7f801c0 	tbnz	x0, #63, 1ea0 <malloc+0x48>
/home/thesis/Desktop/optee_rpi3bplus/optee_os/lib/libutils/isoc/bget_malloc.c:359
    1e6c:	f100001f 	cmp	x0, #0x0
/home/thesis/Desktop/optee_rpi3bplus/optee_os/lib/libutils/isoc/bget_malloc.c:361
    1e70:	d0000081 	adrp	x1, 13000 <.got>
    1e74:	9a9f1400 	csinc	x0, x0, xzr, ne  // ne = any
    1e78:	91116021 	add	x1, x1, #0x458
    1e7c:	97fffe13 	bl	16c8 <bget>
    1e80:	aa0003e6 	mov	x6, x0
/home/thesis/Desktop/optee_rpi3bplus/optee_os/lib/libutils/isoc/bget_malloc.c:363
    1e84:	aa1303e1 	mov	x1, x19
    1e88:	aa0603e0 	mov	x0, x6
    1e8c:	97fffdfe 	bl	1684 <raw_malloc_return_hook.constprop.21>
malloc():
/home/thesis/Desktop/optee_rpi3bplus/optee_os/lib/libutils/isoc/bget_malloc.c:663
    1e90:	aa0603e0 	mov	x0, x6
    1e94:	f9400bf3 	ldr	x19, [sp, #16]
    1e98:	a8c27bfd 	ldp	x29, x30, [sp], #32
    1e9c:	d65f03c0 	ret
raw_malloc():
/home/thesis/Desktop/optee_rpi3bplus/optee_os/lib/libutils/isoc/bget_malloc.c:339
    1ea0:	d2800006 	mov	x6, #0x0                   	// #0
    1ea4:	17fffff8 	b	1e84 <malloc+0x2c>

0000000000001ea8 <calloc>:
calloc():
/home/thesis/Desktop/optee_rpi3bplus/optee_os/lib/libutils/isoc/bget_malloc.c:674
    1ea8:	a9be7bfd 	stp	x29, x30, [sp, #-32]!
    1eac:	910003fd 	mov	x29, sp
    1eb0:	f9000bf3 	str	x19, [sp, #16]
raw_calloc():
/home/thesis/Desktop/optee_rpi3bplus/optee_os/lib/libutils/isoc/bget_malloc.c:385
    1eb4:	9b017c13 	mul	x19, x0, x1
    1eb8:	9bc17c00 	umulh	x0, x0, x1
    1ebc:	f100001f 	cmp	x0, #0x0
    1ec0:	d2800020 	mov	x0, #0x1                   	// #1
    1ec4:	9a9f07e1 	cset	x1, ne  // ne = any
    1ec8:	f100027f 	cmp	x19, #0x0
    1ecc:	9a80a021 	csel	x1, x1, x0, ge  // ge = tcont
    1ed0:	b50001a1 	cbnz	x1, 1f04 <calloc+0x5c>
/home/thesis/Desktop/optee_rpi3bplus/optee_os/lib/libutils/isoc/bget_malloc.c:396
    1ed4:	d0000081 	adrp	x1, 13000 <.got>
    1ed8:	9a801260 	csel	x0, x19, x0, ne  // ne = any
    1edc:	91116021 	add	x1, x1, #0x458
    1ee0:	97fffe6a 	bl	1888 <bgetz>
    1ee4:	aa0003e6 	mov	x6, x0
/home/thesis/Desktop/optee_rpi3bplus/optee_os/lib/libutils/isoc/bget_malloc.c:398
    1ee8:	aa1303e1 	mov	x1, x19
    1eec:	aa0603e0 	mov	x0, x6
    1ef0:	97fffde5 	bl	1684 <raw_malloc_return_hook.constprop.21>
calloc():
/home/thesis/Desktop/optee_rpi3bplus/optee_os/lib/libutils/isoc/bget_malloc.c:681
    1ef4:	aa0603e0 	mov	x0, x6
    1ef8:	f9400bf3 	ldr	x19, [sp, #16]
    1efc:	a8c27bfd 	ldp	x29, x30, [sp], #32
    1f00:	d65f03c0 	ret
raw_calloc():
/home/thesis/Desktop/optee_rpi3bplus/optee_os/lib/libutils/isoc/bget_malloc.c:379
    1f04:	d2800006 	mov	x6, #0x0                   	// #0
    1f08:	17fffff8 	b	1ee8 <calloc+0x40>

0000000000001f0c <realloc>:
realloc():
/home/thesis/Desktop/optee_rpi3bplus/optee_os/lib/libutils/isoc/bget_malloc.c:690
    1f0c:	a9be7bfd 	stp	x29, x30, [sp, #-32]!
    1f10:	910003fd 	mov	x29, sp
    1f14:	f9000bf3 	str	x19, [sp, #16]
    1f18:	aa0103f3 	mov	x19, x1
raw_realloc():
/home/thesis/Desktop/optee_rpi3bplus/optee_os/lib/libutils/isoc/bget_malloc.c:410
    1f1c:	b7f801c1 	tbnz	x1, #63, 1f54 <realloc+0x48>
/home/thesis/Desktop/optee_rpi3bplus/optee_os/lib/libutils/isoc/bget_malloc.c:419
    1f20:	f100003f 	cmp	x1, #0x0
/home/thesis/Desktop/optee_rpi3bplus/optee_os/lib/libutils/isoc/bget_malloc.c:421
    1f24:	d0000082 	adrp	x2, 13000 <.got>
    1f28:	9a9f1421 	csinc	x1, x1, xzr, ne  // ne = any
    1f2c:	91116042 	add	x2, x2, #0x458
    1f30:	97ffff28 	bl	1bd0 <bgetr>
    1f34:	aa0003e6 	mov	x6, x0
/home/thesis/Desktop/optee_rpi3bplus/optee_os/lib/libutils/isoc/bget_malloc.c:423
    1f38:	aa1303e1 	mov	x1, x19
    1f3c:	aa0603e0 	mov	x0, x6
    1f40:	97fffdd1 	bl	1684 <raw_malloc_return_hook.constprop.21>
realloc():
/home/thesis/Desktop/optee_rpi3bplus/optee_os/lib/libutils/isoc/bget_malloc.c:697
    1f44:	aa0603e0 	mov	x0, x6
    1f48:	f9400bf3 	ldr	x19, [sp, #16]
    1f4c:	a8c27bfd 	ldp	x29, x30, [sp], #32
    1f50:	d65f03c0 	ret
raw_realloc():
/home/thesis/Desktop/optee_rpi3bplus/optee_os/lib/libutils/isoc/bget_malloc.c:406
    1f54:	d2800006 	mov	x6, #0x0                   	// #0
    1f58:	17fffff8 	b	1f38 <realloc+0x2c>

0000000000001f5c <free>:
raw_free():
/home/thesis/Desktop/optee_rpi3bplus/optee_os/lib/libutils/isoc/bget_malloc.c:372
    1f5c:	b40000a0 	cbz	x0, 1f70 <free+0x14>
/home/thesis/Desktop/optee_rpi3bplus/optee_os/lib/libutils/isoc/bget_malloc.c:373
    1f60:	52800002 	mov	w2, #0x0                   	// #0
    1f64:	d0000081 	adrp	x1, 13000 <.got>
    1f68:	91116021 	add	x1, x1, #0x458
    1f6c:	17fffe6a 	b	1914 <brel>
free():
/home/thesis/Desktop/optee_rpi3bplus/optee_os/lib/libutils/isoc/bget_malloc.c:710
    1f70:	d65f03c0 	ret

0000000000001f74 <free_wipe>:
raw_free():
/home/thesis/Desktop/optee_rpi3bplus/optee_os/lib/libutils/isoc/bget_malloc.c:372
    1f74:	b40000a0 	cbz	x0, 1f88 <free_wipe+0x14>
/home/thesis/Desktop/optee_rpi3bplus/optee_os/lib/libutils/isoc/bget_malloc.c:373
    1f78:	52800022 	mov	w2, #0x1                   	// #1
    1f7c:	d0000081 	adrp	x1, 13000 <.got>
    1f80:	91116021 	add	x1, x1, #0x458
    1f84:	17fffe64 	b	1914 <brel>
free_wipe():
/home/thesis/Desktop/optee_rpi3bplus/optee_os/lib/libutils/isoc/bget_malloc.c:715
    1f88:	d65f03c0 	ret

0000000000001f8c <malloc_add_pool>:
malloc_add_pool():
/home/thesis/Desktop/optee_rpi3bplus/optee_os/lib/libutils/isoc/bget_malloc.c:823
    1f8c:	a9bc7bfd 	stp	x29, x30, [sp, #-64]!
    1f90:	910003fd 	mov	x29, sp
    1f94:	a90153f3 	stp	x19, x20, [sp, #16]
gen_malloc_add_pool():
/home/thesis/Desktop/optee_rpi3bplus/optee_os/lib/libutils/isoc/bget_malloc.c:723
    1f98:	8b010014 	add	x20, x0, x1
/home/thesis/Desktop/optee_rpi3bplus/optee_os/lib/libutils/isoc/bget_malloc.c:729
    1f9c:	91003c00 	add	x0, x0, #0xf
malloc_add_pool():
/home/thesis/Desktop/optee_rpi3bplus/optee_os/lib/libutils/isoc/bget_malloc.c:823
    1fa0:	a9025bf5 	stp	x21, x22, [sp, #32]
gen_malloc_add_pool():
/home/thesis/Desktop/optee_rpi3bplus/optee_os/lib/libutils/isoc/bget_malloc.c:730
    1fa4:	927cee94 	and	x20, x20, #0xfffffffffffffff0
/home/thesis/Desktop/optee_rpi3bplus/optee_os/lib/libutils/isoc/bget_malloc.c:729
    1fa8:	927cec16 	and	x22, x0, #0xfffffffffffffff0
malloc_add_pool():
/home/thesis/Desktop/optee_rpi3bplus/optee_os/lib/libutils/isoc/bget_malloc.c:823
    1fac:	a90363f7 	stp	x23, x24, [sp, #48]
gen_malloc_add_pool():
/home/thesis/Desktop/optee_rpi3bplus/optee_os/lib/libutils/isoc/bget_malloc.c:731
    1fb0:	eb1402df 	cmp	x22, x20
    1fb4:	54000163 	b.cc	1fe0 <malloc_add_pool+0x54>  // b.lo, b.ul, b.last
    1fb8:	90000083 	adrp	x3, 11000 <SECURITY_ASSOCIATIONS+0x117c>
    1fbc:	9127e463 	add	x3, x3, #0x9f9
    1fc0:	90000081 	adrp	x1, 11000 <SECURITY_ASSOCIATIONS+0x117c>
    1fc4:	90000080 	adrp	x0, 11000 <SECURITY_ASSOCIATIONS+0x117c>
    1fc8:	91008c63 	add	x3, x3, #0x23
    1fcc:	91331c21 	add	x1, x1, #0xcc7
    1fd0:	91339c00 	add	x0, x0, #0xce7
    1fd4:	52805b62 	mov	w2, #0x2db                 	// #731
/home/thesis/Desktop/optee_rpi3bplus/optee_os/lib/libutils/isoc/bget_malloc.c:744
    1fd8:	940000be 	bl	22d0 <_assert_log>
    1fdc:	940000ce 	bl	2314 <_assert_break>
/home/thesis/Desktop/optee_rpi3bplus/optee_os/lib/libutils/isoc/bget_malloc.c:733
    1fe0:	cb160294 	sub	x20, x20, x22
    1fe4:	f100be9f 	cmp	x20, #0x2f
    1fe8:	54000569 	b.ls	2094 <malloc_add_pool+0x108>  // b.plast
/home/thesis/Desktop/optee_rpi3bplus/optee_os/lib/libutils/isoc/bget_malloc.c:741
    1fec:	d0000093 	adrp	x19, 13000 <.got>
    1ff0:	91116278 	add	x24, x19, #0x458
    1ff4:	aa1803e2 	mov	x2, x24
    1ff8:	aa1403e1 	mov	x1, x20
    1ffc:	aa1603e0 	mov	x0, x22
    2000:	97ffff27 	bl	1c9c <bpool>
/home/thesis/Desktop/optee_rpi3bplus/optee_os/lib/libutils/isoc/bget_malloc.c:742
    2004:	f9402317 	ldr	x23, [x24, #64]
    2008:	910006f7 	add	x23, x23, #0x1
/home/thesis/Desktop/optee_rpi3bplus/optee_os/lib/libutils/isoc/bget_malloc.c:743
    200c:	d37ceef5 	lsl	x21, x23, #4
raw_realloc():
/home/thesis/Desktop/optee_rpi3bplus/optee_os/lib/libutils/isoc/bget_malloc.c:410
    2010:	b7f80295 	tbnz	x21, #63, 2060 <malloc_add_pool+0xd4>
/home/thesis/Desktop/optee_rpi3bplus/optee_os/lib/libutils/isoc/bget_malloc.c:421
    2014:	f9401f00 	ldr	x0, [x24, #56]
/home/thesis/Desktop/optee_rpi3bplus/optee_os/lib/libutils/isoc/bget_malloc.c:419
    2018:	f10002bf 	cmp	x21, #0x0
/home/thesis/Desktop/optee_rpi3bplus/optee_os/lib/libutils/isoc/bget_malloc.c:421
    201c:	aa1803e2 	mov	x2, x24
    2020:	9a9f16a1 	csinc	x1, x21, xzr, ne  // ne = any
    2024:	97fffeeb 	bl	1bd0 <bgetr>
    2028:	aa0003e6 	mov	x6, x0
/home/thesis/Desktop/optee_rpi3bplus/optee_os/lib/libutils/isoc/bget_malloc.c:423
    202c:	aa1503e1 	mov	x1, x21
    2030:	aa0603e0 	mov	x0, x6
    2034:	97fffd94 	bl	1684 <raw_malloc_return_hook.constprop.21>
gen_malloc_add_pool():
/home/thesis/Desktop/optee_rpi3bplus/optee_os/lib/libutils/isoc/bget_malloc.c:744
    2038:	b5000186 	cbnz	x6, 2068 <malloc_add_pool+0xdc>
    203c:	f0000063 	adrp	x3, 11000 <SECURITY_ASSOCIATIONS+0x117c>
    2040:	9127e463 	add	x3, x3, #0x9f9
    2044:	f0000061 	adrp	x1, 11000 <SECURITY_ASSOCIATIONS+0x117c>
    2048:	f0000060 	adrp	x0, 11000 <SECURITY_ASSOCIATIONS+0x117c>
    204c:	91008c63 	add	x3, x3, #0x23
    2050:	52805d02 	mov	w2, #0x2e8                 	// #744
    2054:	91331c21 	add	x1, x1, #0xcc7
    2058:	9133cc00 	add	x0, x0, #0xcf3
    205c:	17ffffdf 	b	1fd8 <malloc_add_pool+0x4c>
raw_realloc():
/home/thesis/Desktop/optee_rpi3bplus/optee_os/lib/libutils/isoc/bget_malloc.c:406
    2060:	d2800006 	mov	x6, #0x0                   	// #0
    2064:	17fffff2 	b	202c <malloc_add_pool+0xa0>
gen_malloc_add_pool():
/home/thesis/Desktop/optee_rpi3bplus/optee_os/lib/libutils/isoc/bget_malloc.c:745
    2068:	91116260 	add	x0, x19, #0x458
/home/thesis/Desktop/optee_rpi3bplus/optee_os/lib/libutils/isoc/bget_malloc.c:746
    206c:	f9402001 	ldr	x1, [x0, #64]
/home/thesis/Desktop/optee_rpi3bplus/optee_os/lib/libutils/isoc/bget_malloc.c:745
    2070:	f9001c06 	str	x6, [x0, #56]
/home/thesis/Desktop/optee_rpi3bplus/optee_os/lib/libutils/isoc/bget_malloc.c:746
    2074:	d37cec21 	lsl	x1, x1, #4
    2078:	8b0100c2 	add	x2, x6, x1
    207c:	f82168d6 	str	x22, [x6, x1]
/home/thesis/Desktop/optee_rpi3bplus/optee_os/lib/libutils/isoc/bget_malloc.c:749
    2080:	b9407001 	ldr	w1, [x0, #112]
/home/thesis/Desktop/optee_rpi3bplus/optee_os/lib/libutils/isoc/bget_malloc.c:747
    2084:	f9000454 	str	x20, [x2, #8]
/home/thesis/Desktop/optee_rpi3bplus/optee_os/lib/libutils/isoc/bget_malloc.c:749
    2088:	0b140034 	add	w20, w1, w20
/home/thesis/Desktop/optee_rpi3bplus/optee_os/lib/libutils/isoc/bget_malloc.c:751
    208c:	f9002017 	str	x23, [x0, #64]
/home/thesis/Desktop/optee_rpi3bplus/optee_os/lib/libutils/isoc/bget_malloc.c:749
    2090:	b9007014 	str	w20, [x0, #112]
malloc_add_pool():
/home/thesis/Desktop/optee_rpi3bplus/optee_os/lib/libutils/isoc/bget_malloc.c:825
    2094:	a94153f3 	ldp	x19, x20, [sp, #16]
    2098:	a9425bf5 	ldp	x21, x22, [sp, #32]
    209c:	a94363f7 	ldp	x23, x24, [sp, #48]
    20a0:	a8c47bfd 	ldp	x29, x30, [sp], #64
    20a4:	d65f03c0 	ret

00000000000020a8 <malloc_buffer_is_within_alloced>:
gen_malloc_buffer_is_within_alloced():
/home/thesis/Desktop/optee_rpi3bplus/optee_os/lib/libutils/isoc/bget_malloc.c:761
    20a8:	8b010001 	add	x1, x0, x1
/home/thesis/Desktop/optee_rpi3bplus/optee_os/lib/libutils/isoc/bget_malloc.c:768
    20ac:	eb01001f 	cmp	x0, x1
    20b0:	54000b88 	b.hi	2220 <malloc_buffer_is_within_alloced+0x178>  // b.pmore
    20b4:	aa0003e4 	mov	x4, x0
/home/thesis/Desktop/optee_rpi3bplus/optee_os/lib/libutils/isoc/bget_malloc.c:771
    20b8:	b0000080 	adrp	x0, 13000 <.got>
    20bc:	91116000 	add	x0, x0, #0x458
bpool_foreach_iterator_init():
/home/thesis/Desktop/optee_rpi3bplus/optee_os/lib/libutils/isoc/bget_malloc.c:276
    20c0:	d2800005 	mov	x5, #0x0                   	// #0
bpool_foreach_pool():
/home/thesis/Desktop/optee_rpi3bplus/optee_os/lib/libutils/isoc/bget_malloc.c:286
    20c4:	d2f0000a 	mov	x10, #0x8000000000000000    	// #-9223372036854775808
    20c8:	928001eb 	mov	x11, #0xfffffffffffffff0    	// #-16
bpool_foreach():
/home/thesis/Desktop/optee_rpi3bplus/optee_os/lib/libutils/isoc/bget_malloc.c:323
    20cc:	a943a406 	ldp	x6, x9, [x0, #56]
bpool_foreach_iterator_init():
/home/thesis/Desktop/optee_rpi3bplus/optee_os/lib/libutils/isoc/bget_malloc.c:277
    20d0:	f94000c3 	ldr	x3, [x6]
/home/thesis/Desktop/optee_rpi3bplus/optee_os/lib/libutils/isoc/bget_malloc.c:276
    20d4:	aa0303e0 	mov	x0, x3
bpool_foreach_pool():
/home/thesis/Desktop/optee_rpi3bplus/optee_os/lib/libutils/isoc/bget_malloc.c:284
    20d8:	f9400462 	ldr	x2, [x3, #8]
/home/thesis/Desktop/optee_rpi3bplus/optee_os/lib/libutils/isoc/bget_malloc.c:286
    20dc:	eb0a005f 	cmp	x2, x10
    20e0:	540009a0 	b.eq	2214 <malloc_buffer_is_within_alloced+0x16c>  // b.none
malloc_buffer_is_within_alloced():
/home/thesis/Desktop/optee_rpi3bplus/optee_os/lib/libutils/isoc/bget_malloc.c:828
    20e4:	a9bf7bfd 	stp	x29, x30, [sp, #-16]!
    20e8:	910003fd 	mov	x29, sp
    20ec:	1400000d 	b	2120 <malloc_buffer_is_within_alloced+0x78>
bpool_foreach_pool():
/home/thesis/Desktop/optee_rpi3bplus/optee_os/lib/libutils/isoc/bget_malloc.c:303
    20f0:	91004000 	add	x0, x0, #0x10
gen_malloc_buffer_is_within_alloced():
/home/thesis/Desktop/optee_rpi3bplus/optee_os/lib/libutils/isoc/bget_malloc.c:777
    20f4:	8b020002 	add	x2, x0, x2
/home/thesis/Desktop/optee_rpi3bplus/optee_os/lib/libutils/isoc/bget_malloc.c:779
    20f8:	eb02003f 	cmp	x1, x2
    20fc:	1a9f87e2 	cset	w2, ls  // ls = plast
    2100:	eb00009f 	cmp	x4, x0
    2104:	1a9f37e0 	cset	w0, cs  // cs = hs, nlast
    2108:	6a000040 	ands	w0, w2, w0
    210c:	540007a1 	b.ne	2200 <malloc_buffer_is_within_alloced+0x158>  // b.any
bpool_foreach_pool():
/home/thesis/Desktop/optee_rpi3bplus/optee_os/lib/libutils/isoc/bget_malloc.c:284
    2110:	f9400462 	ldr	x2, [x3, #8]
bpool_foreach_iterator_init():
/home/thesis/Desktop/optee_rpi3bplus/optee_os/lib/libutils/isoc/bget_malloc.c:276
    2114:	aa0303e0 	mov	x0, x3
bpool_foreach_pool():
/home/thesis/Desktop/optee_rpi3bplus/optee_os/lib/libutils/isoc/bget_malloc.c:286
    2118:	eb0a005f 	cmp	x2, x10
    211c:	540006a0 	b.eq	21f0 <malloc_buffer_is_within_alloced+0x148>  // b.none
/home/thesis/Desktop/optee_rpi3bplus/optee_os/lib/libutils/isoc/bget_malloc.c:289
    2120:	b6f80242 	tbz	x2, #63, 2168 <malloc_buffer_is_within_alloced+0xc0>
/home/thesis/Desktop/optee_rpi3bplus/optee_os/lib/libutils/isoc/bget_malloc.c:291
    2124:	cb0203e8 	neg	x8, x2
/home/thesis/Desktop/optee_rpi3bplus/optee_os/lib/libutils/isoc/bget_malloc.c:293
    2128:	52800007 	mov	w7, #0x0                   	// #0
/home/thesis/Desktop/optee_rpi3bplus/optee_os/lib/libutils/isoc/bget_malloc.c:306
    212c:	8b080063 	add	x3, x3, x8
bpool_foreach():
/home/thesis/Desktop/optee_rpi3bplus/optee_os/lib/libutils/isoc/bget_malloc.c:318
    2130:	35ffff07 	cbnz	w7, 2110 <malloc_buffer_is_within_alloced+0x68>
bget_buf_size():
/home/thesis/Desktop/optee_rpi3bplus/optee_os/lib/libutils/isoc/bget_malloc.c:445
    2134:	cb020162 	sub	x2, x11, x2
/home/thesis/Desktop/optee_rpi3bplus/optee_os/lib/libutils/isoc/bget_malloc.c:446
    2138:	f100005f 	cmp	x2, #0x0
    213c:	54fffdac 	b.gt	20f0 <malloc_buffer_is_within_alloced+0x48>
    2140:	f0000063 	adrp	x3, 11000 <SECURITY_ASSOCIATIONS+0x117c>
    2144:	9127e463 	add	x3, x3, #0x9f9
    2148:	9100dc63 	add	x3, x3, #0x37
    214c:	f0000061 	adrp	x1, 11000 <SECURITY_ASSOCIATIONS+0x117c>
    2150:	f0000060 	adrp	x0, 11000 <SECURITY_ASSOCIATIONS+0x117c>
    2154:	91331c21 	add	x1, x1, #0xcc7
    2158:	9131e000 	add	x0, x0, #0xc78
    215c:	528037c2 	mov	w2, #0x1be                 	// #446
    2160:	9400005c 	bl	22d0 <_assert_log>
    2164:	9400006c 	bl	2314 <_assert_break>
bpool_foreach_pool():
/home/thesis/Desktop/optee_rpi3bplus/optee_os/lib/libutils/isoc/bget_malloc.c:299
    2168:	f9400c67 	ldr	x7, [x3, #24]
    216c:	f94008e7 	ldr	x7, [x7, #16]
    2170:	eb0300ff 	cmp	x7, x3
    2174:	54000160 	b.eq	21a0 <malloc_buffer_is_within_alloced+0xf8>  // b.none
    2178:	f0000063 	adrp	x3, 11000 <SECURITY_ASSOCIATIONS+0x117c>
    217c:	9127e463 	add	x3, x3, #0x9f9
    2180:	91011463 	add	x3, x3, #0x45
    2184:	f0000061 	adrp	x1, 11000 <SECURITY_ASSOCIATIONS+0x117c>
    2188:	f0000060 	adrp	x0, 11000 <SECURITY_ASSOCIATIONS+0x117c>
    218c:	91331c21 	add	x1, x1, #0xcc7
    2190:	912a8800 	add	x0, x0, #0xaa2
    2194:	52802562 	mov	w2, #0x12b                 	// #299
    2198:	9400004e 	bl	22d0 <_assert_log>
    219c:	9400005e 	bl	2314 <_assert_break>
/home/thesis/Desktop/optee_rpi3bplus/optee_os/lib/libutils/isoc/bget_malloc.c:300
    21a0:	f9400867 	ldr	x7, [x3, #16]
    21a4:	f9400ce7 	ldr	x7, [x7, #24]
    21a8:	eb0300ff 	cmp	x7, x3
    21ac:	54000160 	b.eq	21d8 <malloc_buffer_is_within_alloced+0x130>  // b.none
    21b0:	f0000063 	adrp	x3, 11000 <SECURITY_ASSOCIATIONS+0x117c>
    21b4:	9127e463 	add	x3, x3, #0x9f9
    21b8:	91011463 	add	x3, x3, #0x45
    21bc:	f0000061 	adrp	x1, 11000 <SECURITY_ASSOCIATIONS+0x117c>
    21c0:	f0000060 	adrp	x0, 11000 <SECURITY_ASSOCIATIONS+0x117c>
    21c4:	91331c21 	add	x1, x1, #0xcc7
    21c8:	912af400 	add	x0, x0, #0xabd
    21cc:	52802582 	mov	w2, #0x12c                 	// #300
    21d0:	94000040 	bl	22d0 <_assert_log>
    21d4:	94000050 	bl	2314 <_assert_break>
    21d8:	aa0203e8 	mov	x8, x2
/home/thesis/Desktop/optee_rpi3bplus/optee_os/lib/libutils/isoc/bget_malloc.c:296
    21dc:	52800027 	mov	w7, #0x1                   	// #1
    21e0:	17ffffd3 	b	212c <malloc_buffer_is_within_alloced+0x84>
bpool_foreach():
/home/thesis/Desktop/optee_rpi3bplus/optee_os/lib/libutils/isoc/bget_malloc.c:327
    21e4:	d37ceca0 	lsl	x0, x5, #4
    21e8:	f86068c3 	ldr	x3, [x6, x0]
    21ec:	17ffffc9 	b	2110 <malloc_buffer_is_within_alloced+0x68>
/home/thesis/Desktop/optee_rpi3bplus/optee_os/lib/libutils/isoc/bget_malloc.c:323
    21f0:	910004a5 	add	x5, x5, #0x1
    21f4:	eb0900bf 	cmp	x5, x9
    21f8:	54ffff63 	b.cc	21e4 <malloc_buffer_is_within_alloced+0x13c>  // b.lo, b.ul, b.last
gen_malloc_buffer_is_within_alloced():
/home/thesis/Desktop/optee_rpi3bplus/optee_os/lib/libutils/isoc/bget_malloc.c:762
    21fc:	52800000 	mov	w0, #0x0                   	// #0
malloc_buffer_is_within_alloced():
/home/thesis/Desktop/optee_rpi3bplus/optee_os/lib/libutils/isoc/bget_malloc.c:830
    2200:	a8c17bfd 	ldp	x29, x30, [sp], #16
    2204:	d65f03c0 	ret
bpool_foreach():
/home/thesis/Desktop/optee_rpi3bplus/optee_os/lib/libutils/isoc/bget_malloc.c:327
    2208:	d37ceca0 	lsl	x0, x5, #4
    220c:	f86068c3 	ldr	x3, [x6, x0]
    2210:	17ffffb1 	b	20d4 <malloc_buffer_is_within_alloced+0x2c>
/home/thesis/Desktop/optee_rpi3bplus/optee_os/lib/libutils/isoc/bget_malloc.c:323
    2214:	910004a5 	add	x5, x5, #0x1
    2218:	eb0900bf 	cmp	x5, x9
    221c:	54ffff63 	b.cc	2208 <malloc_buffer_is_within_alloced+0x160>  // b.lo, b.ul, b.last
gen_malloc_buffer_is_within_alloced():
/home/thesis/Desktop/optee_rpi3bplus/optee_os/lib/libutils/isoc/bget_malloc.c:762
    2220:	52800000 	mov	w0, #0x0                   	// #0
malloc_buffer_is_within_alloced():
/home/thesis/Desktop/optee_rpi3bplus/optee_os/lib/libutils/isoc/bget_malloc.c:830
    2224:	d65f03c0 	ret

0000000000002228 <malloc_buffer_overlaps_heap>:
gen_malloc_buffer_overlaps_heap():
/home/thesis/Desktop/optee_rpi3bplus/optee_os/lib/libutils/isoc/bget_malloc.c:802
    2228:	b0000082 	adrp	x2, 13000 <.got>
    222c:	91116042 	add	x2, x2, #0x458
/home/thesis/Desktop/optee_rpi3bplus/optee_os/lib/libutils/isoc/bget_malloc.c:795
    2230:	8b010001 	add	x1, x0, x1
/home/thesis/Desktop/optee_rpi3bplus/optee_os/lib/libutils/isoc/bget_malloc.c:802
    2234:	d2800005 	mov	x5, #0x0                   	// #0
    2238:	a9439c43 	ldp	x3, x7, [x2, #56]
    223c:	eb0700bf 	cmp	x5, x7
    2240:	54000081 	b.ne	2250 <malloc_buffer_overlaps_heap+0x28>  // b.any
/home/thesis/Desktop/optee_rpi3bplus/optee_os/lib/libutils/isoc/bget_malloc.c:797
    2244:	52800002 	mov	w2, #0x0                   	// #0
malloc_buffer_overlaps_heap():
/home/thesis/Desktop/optee_rpi3bplus/optee_os/lib/libutils/isoc/bget_malloc.c:835
    2248:	2a0203e0 	mov	w0, w2
    224c:	d65f03c0 	ret
gen_malloc_buffer_overlaps_heap():
/home/thesis/Desktop/optee_rpi3bplus/optee_os/lib/libutils/isoc/bget_malloc.c:804
    2250:	a9401066 	ldp	x6, x4, [x3]
/home/thesis/Desktop/optee_rpi3bplus/optee_os/lib/libutils/isoc/bget_malloc.c:806
    2254:	eb01001f 	cmp	x0, x1
    2258:	1a9f97e2 	cset	w2, hi  // hi = pmore
/home/thesis/Desktop/optee_rpi3bplus/optee_os/lib/libutils/isoc/bget_malloc.c:804
    225c:	8b0400c4 	add	x4, x6, x4
/home/thesis/Desktop/optee_rpi3bplus/optee_os/lib/libutils/isoc/bget_malloc.c:806
    2260:	eb0400df 	cmp	x6, x4
    2264:	1a9f97e8 	cset	w8, hi  // hi = pmore
    2268:	2a080042 	orr	w2, w2, w8
    226c:	35fffee2 	cbnz	w2, 2248 <malloc_buffer_overlaps_heap+0x20>
/home/thesis/Desktop/optee_rpi3bplus/optee_os/lib/libutils/isoc/bget_malloc.c:811
    2270:	eb06003f 	cmp	x1, x6
    2274:	91004063 	add	x3, x3, #0x10
    2278:	1a9f97e2 	cset	w2, hi  // hi = pmore
    227c:	eb04001f 	cmp	x0, x4
    2280:	1a9f27e4 	cset	w4, cc  // cc = lo, ul, last
    2284:	2a040042 	orr	w2, w2, w4
    2288:	35fffe02 	cbnz	w2, 2248 <malloc_buffer_overlaps_heap+0x20>
/home/thesis/Desktop/optee_rpi3bplus/optee_os/lib/libutils/isoc/bget_malloc.c:802
    228c:	910004a5 	add	x5, x5, #0x1
    2290:	17ffffeb 	b	223c <malloc_buffer_overlaps_heap+0x14>

0000000000002294 <memcpy>:
memcpy():
/home/thesis/Desktop/optee_rpi3bplus/optee_os/lib/libutils/isoc/newlib/memcpy.c:94
    2294:	d2800003 	mov	x3, #0x0                   	// #0
    2298:	eb03005f 	cmp	x2, x3
    229c:	54000041 	b.ne	22a4 <memcpy+0x10>  // b.any
/home/thesis/Desktop/optee_rpi3bplus/optee_os/lib/libutils/isoc/newlib/memcpy.c:135
    22a0:	d65f03c0 	ret
/home/thesis/Desktop/optee_rpi3bplus/optee_os/lib/libutils/isoc/newlib/memcpy.c:95
    22a4:	38636824 	ldrb	w4, [x1, x3]
    22a8:	38236804 	strb	w4, [x0, x3]
    22ac:	91000463 	add	x3, x3, #0x1
    22b0:	17fffffa 	b	2298 <memcpy+0x4>

00000000000022b4 <memset>:
memset():
/home/thesis/Desktop/optee_rpi3bplus/optee_os/lib/libutils/isoc/newlib/memset.c:125
    22b4:	d2800003 	mov	x3, #0x0                   	// #0
    22b8:	eb03005f 	cmp	x2, x3
    22bc:	54000041 	b.ne	22c4 <memset+0x10>  // b.any
/home/thesis/Desktop/optee_rpi3bplus/optee_os/lib/libutils/isoc/newlib/memset.c:129
    22c0:	d65f03c0 	ret
/home/thesis/Desktop/optee_rpi3bplus/optee_os/lib/libutils/isoc/newlib/memset.c:126
    22c4:	38236801 	strb	w1, [x0, x3]
    22c8:	91000463 	add	x3, x3, #0x1
    22cc:	17fffffb 	b	22b8 <memset+0x4>

00000000000022d0 <_assert_log>:
_assert_log():
/home/thesis/Desktop/optee_rpi3bplus/optee_os/lib/libutee/assert.c:17
    22d0:	d10083ff 	sub	sp, sp, #0x20
/home/thesis/Desktop/optee_rpi3bplus/optee_os/lib/libutee/assert.c:18
    22d4:	2a0203e7 	mov	w7, w2
    22d8:	aa0103e6 	mov	x6, x1
    22dc:	aa0003e5 	mov	x5, x0
    22e0:	52800022 	mov	w2, #0x1                   	// #1
    22e4:	52800001 	mov	w1, #0x0                   	// #0
/home/thesis/Desktop/optee_rpi3bplus/optee_os/lib/libutee/assert.c:17
    22e8:	a9017bfd 	stp	x29, x30, [sp, #16]
    22ec:	910043fd 	add	x29, sp, #0x10
/home/thesis/Desktop/optee_rpi3bplus/optee_os/lib/libutee/assert.c:18
    22f0:	d2800000 	mov	x0, #0x0                   	// #0
    22f4:	f0000064 	adrp	x4, 11000 <SECURITY_ASSOCIATIONS+0x117c>
    22f8:	f90003e3 	str	x3, [sp]
    22fc:	9133d484 	add	x4, x4, #0xcf5
    2300:	52800023 	mov	w3, #0x1                   	// #1
    2304:	94002837 	bl	c3e0 <trace_printf>
/home/thesis/Desktop/optee_rpi3bplus/optee_os/lib/libutee/assert.c:20
    2308:	a9417bfd 	ldp	x29, x30, [sp, #16]
    230c:	910083ff 	add	sp, sp, #0x20
    2310:	d65f03c0 	ret

0000000000002314 <_assert_break>:
_assert_break():
/home/thesis/Desktop/optee_rpi3bplus/optee_os/lib/libutee/assert.c:23
    2314:	a9bf7bfd 	stp	x29, x30, [sp, #-16]!
/home/thesis/Desktop/optee_rpi3bplus/optee_os/lib/libutee/assert.c:24
    2318:	d2bfffe0 	mov	x0, #0xffff0000            	// #4294901760
/home/thesis/Desktop/optee_rpi3bplus/optee_os/lib/libutee/assert.c:23
    231c:	910003fd 	mov	x29, sp
/home/thesis/Desktop/optee_rpi3bplus/optee_os/lib/libutee/assert.c:24
    2320:	94001496 	bl	7578 <utee_panic>
/home/thesis/Desktop/optee_rpi3bplus/optee_os/lib/libutee/assert.c:27 (discriminator 1)
    2324:	14000000 	b	2324 <_assert_break+0x10>

0000000000002328 <__utee_from_param>:
__utee_from_param():
/home/thesis/Desktop/optee_rpi3bplus/optee_os/lib/libutee/tee_api.c:26
    2328:	f0000065 	adrp	x5, 11000 <SECURITY_ASSOCIATIONS+0x117c>
    232c:	911a10a5 	add	x5, x5, #0x684
/home/thesis/Desktop/optee_rpi3bplus/optee_os/lib/libutee/tee_api.c:24
    2330:	2a0103e3 	mov	w3, w1
    2334:	52800004 	mov	w4, #0x0                   	// #0
    2338:	f8008403 	str	x3, [x0], #8
/home/thesis/Desktop/optee_rpi3bplus/optee_os/lib/libutee/tee_api.c:26
    233c:	1ac42423 	lsr	w3, w1, w4
    2340:	12000c63 	and	w3, w3, #0xf
    2344:	51000463 	sub	w3, w3, #0x1
    2348:	7100187f 	cmp	w3, #0x6
    234c:	54000268 	b.hi	2398 <__utee_from_param+0x70>  // b.pmore
    2350:	386348a3 	ldrb	w3, [x5, w3, uxtw]
    2354:	10000066 	adr	x6, 2360 <__utee_from_param+0x38>
    2358:	8b2388c3 	add	x3, x6, w3, sxtb #2
    235c:	d61f0060 	br	x3
/home/thesis/Desktop/optee_rpi3bplus/optee_os/lib/libutee/tee_api.c:30
    2360:	b9400043 	ldr	w3, [x2]
    2364:	f9000003 	str	x3, [x0]
/home/thesis/Desktop/optee_rpi3bplus/optee_os/lib/libutee/tee_api.c:31
    2368:	b9400443 	ldr	w3, [x2, #4]
/home/thesis/Desktop/optee_rpi3bplus/optee_os/lib/libutee/tee_api.c:37
    236c:	f9000403 	str	x3, [x0, #8]
/home/thesis/Desktop/optee_rpi3bplus/optee_os/lib/libutee/tee_api.c:38
    2370:	11001084 	add	w4, w4, #0x4
    2374:	91004042 	add	x2, x2, #0x10
    2378:	91004000 	add	x0, x0, #0x10
/home/thesis/Desktop/optee_rpi3bplus/optee_os/lib/libutee/tee_api.c:25 (discriminator 2)
    237c:	7100409f 	cmp	w4, #0x10
    2380:	54fffde1 	b.ne	233c <__utee_from_param+0x14>  // b.any
/home/thesis/Desktop/optee_rpi3bplus/optee_os/lib/libutee/tee_api.c:45
    2384:	d65f03c0 	ret
/home/thesis/Desktop/optee_rpi3bplus/optee_os/lib/libutee/tee_api.c:36
    2388:	f9400043 	ldr	x3, [x2]
    238c:	f9000003 	str	x3, [x0]
/home/thesis/Desktop/optee_rpi3bplus/optee_os/lib/libutee/tee_api.c:37
    2390:	b9400843 	ldr	w3, [x2, #8]
    2394:	17fffff6 	b	236c <__utee_from_param+0x44>
/home/thesis/Desktop/optee_rpi3bplus/optee_os/lib/libutee/tee_api.c:41
    2398:	a9007c1f 	stp	xzr, xzr, [x0]
/home/thesis/Desktop/optee_rpi3bplus/optee_os/lib/libutee/tee_api.c:42
    239c:	17fffff5 	b	2370 <__utee_from_param+0x48>

00000000000023a0 <__utee_to_param>:
__utee_to_param():
/home/thesis/Desktop/optee_rpi3bplus/optee_os/lib/libutee/tee_api.c:51
    23a0:	f8408446 	ldr	x6, [x2], #8
/home/thesis/Desktop/optee_rpi3bplus/optee_os/lib/libutee/tee_api.c:57
    23a4:	f0000065 	adrp	x5, 11000 <SECURITY_ASSOCIATIONS+0x117c>
    23a8:	911a30a5 	add	x5, x5, #0x68c
/home/thesis/Desktop/optee_rpi3bplus/optee_os/lib/libutee/tee_api.c:51
    23ac:	52800004 	mov	w4, #0x0                   	// #0
    23b0:	2a0603e9 	mov	w9, w6
/home/thesis/Desktop/optee_rpi3bplus/optee_os/lib/libutee/tee_api.c:57
    23b4:	1ac42523 	lsr	w3, w9, w4
    23b8:	12000c63 	and	w3, w3, #0xf
    23bc:	51000463 	sub	w3, w3, #0x1
    23c0:	7100187f 	cmp	w3, #0x6
/home/thesis/Desktop/optee_rpi3bplus/optee_os/lib/libutee/tee_api.c:55
    23c4:	a9401c48 	ldp	x8, x7, [x2]
/home/thesis/Desktop/optee_rpi3bplus/optee_os/lib/libutee/tee_api.c:57
    23c8:	540000c8 	b.hi	23e0 <__utee_to_param+0x40>  // b.pmore
    23cc:	386348a3 	ldrb	w3, [x5, w3, uxtw]
    23d0:	1000006a 	adr	x10, 23dc <__utee_to_param+0x3c>
    23d4:	8b238943 	add	x3, x10, w3, sxtb #2
    23d8:	d61f0060 	br	x3
/home/thesis/Desktop/optee_rpi3bplus/optee_os/lib/libutee/tee_api.c:62
    23dc:	29001c08 	stp	w8, w7, [x0]
/home/thesis/Desktop/optee_rpi3bplus/optee_os/lib/libutee/tee_api.c:63
    23e0:	11001084 	add	w4, w4, #0x4
    23e4:	91004042 	add	x2, x2, #0x10
    23e8:	91004000 	add	x0, x0, #0x10
/home/thesis/Desktop/optee_rpi3bplus/optee_os/lib/libutee/tee_api.c:53 (discriminator 2)
    23ec:	7100409f 	cmp	w4, #0x10
    23f0:	54fffe21 	b.ne	23b4 <__utee_to_param+0x14>  // b.any
/home/thesis/Desktop/optee_rpi3bplus/optee_os/lib/libutee/tee_api.c:75
    23f4:	b4000041 	cbz	x1, 23fc <__utee_to_param+0x5c>
/home/thesis/Desktop/optee_rpi3bplus/optee_os/lib/libutee/tee_api.c:76
    23f8:	b9000026 	str	w6, [x1]
/home/thesis/Desktop/optee_rpi3bplus/optee_os/lib/libutee/tee_api.c:77
    23fc:	d65f03c0 	ret
/home/thesis/Desktop/optee_rpi3bplus/optee_os/lib/libutee/tee_api.c:67
    2400:	f9000008 	str	x8, [x0]
/home/thesis/Desktop/optee_rpi3bplus/optee_os/lib/libutee/tee_api.c:68
    2404:	b9000807 	str	w7, [x0, #8]
/home/thesis/Desktop/optee_rpi3bplus/optee_os/lib/libutee/tee_api.c:69
    2408:	17fffff6 	b	23e0 <__utee_to_param+0x40>

000000000000240c <TEE_OpenTASession>:
TEE_OpenTASession():
/home/thesis/Desktop/optee_rpi3bplus/optee_os/lib/libutee/tee_api.c:85
    240c:	a9b67bfd 	stp	x29, x30, [sp, #-160]!
    2410:	910003fd 	mov	x29, sp
    2414:	a90153f3 	stp	x19, x20, [sp, #16]
/home/thesis/Desktop/optee_rpi3bplus/optee_os/lib/libutee/tee_api.c:90
    2418:	910163f3 	add	x19, sp, #0x58
/home/thesis/Desktop/optee_rpi3bplus/optee_os/lib/libutee/tee_api.c:85
    241c:	aa0003f4 	mov	x20, x0
/home/thesis/Desktop/optee_rpi3bplus/optee_os/lib/libutee/tee_api.c:90
    2420:	aa1303e0 	mov	x0, x19
/home/thesis/Desktop/optee_rpi3bplus/optee_os/lib/libutee/tee_api.c:85
    2424:	a9025bf5 	stp	x21, x22, [sp, #32]
    2428:	aa0303f5 	mov	x21, x3
    242c:	aa0403f6 	mov	x22, x4
    2430:	f9001bf7 	str	x23, [sp, #48]
    2434:	2a0103f7 	mov	w23, w1
    2438:	2a0203e1 	mov	w1, w2
/home/thesis/Desktop/optee_rpi3bplus/optee_os/lib/libutee/tee_api.c:90
    243c:	aa0303e2 	mov	x2, x3
/home/thesis/Desktop/optee_rpi3bplus/optee_os/lib/libutee/tee_api.c:85
    2440:	f90027e5 	str	x5, [sp, #72]
/home/thesis/Desktop/optee_rpi3bplus/optee_os/lib/libutee/tee_api.c:90
    2444:	97ffffb9 	bl	2328 <__utee_from_param>
/home/thesis/Desktop/optee_rpi3bplus/optee_os/lib/libutee/tee_api.c:91
    2448:	f94027e4 	ldr	x4, [sp, #72]
    244c:	910153e3 	add	x3, sp, #0x54
    2450:	aa1303e2 	mov	x2, x19
    2454:	2a1703e1 	mov	w1, w23
    2458:	aa1403e0 	mov	x0, x20
    245c:	94001459 	bl	75c0 <utee_open_ta_session>
    2460:	2a0003f4 	mov	w20, w0
/home/thesis/Desktop/optee_rpi3bplus/optee_os/lib/libutee/tee_api.c:93
    2464:	aa1303e2 	mov	x2, x19
    2468:	d2800001 	mov	x1, #0x0                   	// #0
    246c:	aa1503e0 	mov	x0, x21
    2470:	97ffffcc 	bl	23a0 <__utee_to_param>
/home/thesis/Desktop/optee_rpi3bplus/optee_os/lib/libutee/tee_api.c:99
    2474:	34000054 	cbz	w20, 247c <TEE_OpenTASession+0x70>
/home/thesis/Desktop/optee_rpi3bplus/optee_os/lib/libutee/tee_api.c:100
    2478:	b90057ff 	str	wzr, [sp, #84]
/home/thesis/Desktop/optee_rpi3bplus/optee_os/lib/libutee/tee_api.c:102
    247c:	b94057e0 	ldr	w0, [sp, #84]
/home/thesis/Desktop/optee_rpi3bplus/optee_os/lib/libutee/tee_api.c:104
    2480:	f9401bf7 	ldr	x23, [sp, #48]
/home/thesis/Desktop/optee_rpi3bplus/optee_os/lib/libutee/tee_api.c:102
    2484:	f90002c0 	str	x0, [x22]
/home/thesis/Desktop/optee_rpi3bplus/optee_os/lib/libutee/tee_api.c:104
    2488:	2a1403e0 	mov	w0, w20
    248c:	a94153f3 	ldp	x19, x20, [sp, #16]
    2490:	a9425bf5 	ldp	x21, x22, [sp, #32]
    2494:	a8ca7bfd 	ldp	x29, x30, [sp], #160
    2498:	d65f03c0 	ret

000000000000249c <TEE_CloseTASession>:
TEE_CloseTASession():
/home/thesis/Desktop/optee_rpi3bplus/optee_os/lib/libutee/tee_api.c:108
    249c:	b4000120 	cbz	x0, 24c0 <TEE_CloseTASession+0x24>
/home/thesis/Desktop/optee_rpi3bplus/optee_os/lib/libutee/tee_api.c:107
    24a0:	a9bf7bfd 	stp	x29, x30, [sp, #-16]!
    24a4:	910003fd 	mov	x29, sp
/home/thesis/Desktop/optee_rpi3bplus/optee_os/lib/libutee/tee_api.c:109
    24a8:	94001449 	bl	75cc <utee_close_ta_session>
/home/thesis/Desktop/optee_rpi3bplus/optee_os/lib/libutee/tee_api.c:111
    24ac:	34000060 	cbz	w0, 24b8 <TEE_CloseTASession+0x1c>
/home/thesis/Desktop/optee_rpi3bplus/optee_os/lib/libutee/tee_api.c:114
    24b0:	a8c17bfd 	ldp	x29, x30, [sp], #16
/home/thesis/Desktop/optee_rpi3bplus/optee_os/lib/libutee/tee_api.c:112
    24b4:	14000d2b 	b	5960 <TEE_Panic>
/home/thesis/Desktop/optee_rpi3bplus/optee_os/lib/libutee/tee_api.c:114
    24b8:	a8c17bfd 	ldp	x29, x30, [sp], #16
    24bc:	d65f03c0 	ret
    24c0:	d65f03c0 	ret

00000000000024c4 <TEE_InvokeTACommand>:
TEE_InvokeTACommand():
/home/thesis/Desktop/optee_rpi3bplus/optee_os/lib/libutee/tee_api.c:121
    24c4:	a9b77bfd 	stp	x29, x30, [sp, #-144]!
    24c8:	910003fd 	mov	x29, sp
    24cc:	a90153f3 	stp	x19, x20, [sp, #16]
/home/thesis/Desktop/optee_rpi3bplus/optee_os/lib/libutee/tee_api.c:126
    24d0:	910123f4 	add	x20, sp, #0x48
/home/thesis/Desktop/optee_rpi3bplus/optee_os/lib/libutee/tee_api.c:121
    24d4:	aa0003f3 	mov	x19, x0
/home/thesis/Desktop/optee_rpi3bplus/optee_os/lib/libutee/tee_api.c:126
    24d8:	aa1403e0 	mov	x0, x20
/home/thesis/Desktop/optee_rpi3bplus/optee_os/lib/libutee/tee_api.c:121
    24dc:	a9025bf5 	stp	x21, x22, [sp, #32]
    24e0:	aa0403f6 	mov	x22, x4
    24e4:	aa0503f5 	mov	x21, x5
    24e8:	a90363f7 	stp	x23, x24, [sp, #48]
    24ec:	2a0103f7 	mov	w23, w1
    24f0:	2a0203f8 	mov	w24, w2
/home/thesis/Desktop/optee_rpi3bplus/optee_os/lib/libutee/tee_api.c:126
    24f4:	2a0303e1 	mov	w1, w3
    24f8:	aa0403e2 	mov	x2, x4
    24fc:	97ffff8b 	bl	2328 <__utee_from_param>
/home/thesis/Desktop/optee_rpi3bplus/optee_os/lib/libutee/tee_api.c:127
    2500:	910113e4 	add	x4, sp, #0x44
    2504:	aa1403e3 	mov	x3, x20
    2508:	2a1803e2 	mov	w2, w24
    250c:	2a1703e1 	mov	w1, w23
    2510:	aa1303e0 	mov	x0, x19
    2514:	94001431 	bl	75d8 <utee_invoke_ta_command>
/home/thesis/Desktop/optee_rpi3bplus/optee_os/lib/libutee/tee_api.c:130
    2518:	aa1403e2 	mov	x2, x20
/home/thesis/Desktop/optee_rpi3bplus/optee_os/lib/libutee/tee_api.c:127
    251c:	2a0003f3 	mov	w19, w0
/home/thesis/Desktop/optee_rpi3bplus/optee_os/lib/libutee/tee_api.c:130
    2520:	d2800001 	mov	x1, #0x0                   	// #0
    2524:	aa1603e0 	mov	x0, x22
    2528:	97ffff9e 	bl	23a0 <__utee_to_param>
/home/thesis/Desktop/optee_rpi3bplus/optee_os/lib/libutee/tee_api.c:132
    252c:	b94047e0 	ldr	w0, [sp, #68]
    2530:	b4000055 	cbz	x21, 2538 <TEE_InvokeTACommand+0x74>
/home/thesis/Desktop/optee_rpi3bplus/optee_os/lib/libutee/tee_api.c:133
    2534:	b90002a0 	str	w0, [x21]
/home/thesis/Desktop/optee_rpi3bplus/optee_os/lib/libutee/tee_api.c:135
    2538:	7100101f 	cmp	w0, #0x4
    253c:	54000140 	b.eq	2564 <TEE_InvokeTACommand+0xa0>  // b.none
/home/thesis/Desktop/optee_rpi3bplus/optee_os/lib/libutee/tee_api.c:138
    2540:	7100027f 	cmp	w19, #0x0
    2544:	129ffe60 	mov	w0, #0xffff000c            	// #-65524
    2548:	7a401264 	ccmp	w19, w0, #0x4, ne  // ne = any
    254c:	540000c0 	b.eq	2564 <TEE_InvokeTACommand+0xa0>  // b.none
/home/thesis/Desktop/optee_rpi3bplus/optee_os/lib/libutee/tee_api.c:139
    2550:	1299fb60 	mov	w0, #0xffff3024            	// #-53212
    2554:	6b00027f 	cmp	w19, w0
    2558:	54000060 	b.eq	2564 <TEE_InvokeTACommand+0xa0>  // b.none
/home/thesis/Desktop/optee_rpi3bplus/optee_os/lib/libutee/tee_api.c:141
    255c:	2a1303e0 	mov	w0, w19
    2560:	94000d00 	bl	5960 <TEE_Panic>
/home/thesis/Desktop/optee_rpi3bplus/optee_os/lib/libutee/tee_api.c:144
    2564:	2a1303e0 	mov	w0, w19
    2568:	a94153f3 	ldp	x19, x20, [sp, #16]
    256c:	a9425bf5 	ldp	x21, x22, [sp, #32]
    2570:	a94363f7 	ldp	x23, x24, [sp, #48]
    2574:	a8c97bfd 	ldp	x29, x30, [sp], #144
    2578:	d65f03c0 	ret

000000000000257c <TEE_GetCancellationFlag>:
TEE_GetCancellationFlag():
/home/thesis/Desktop/optee_rpi3bplus/optee_os/lib/libutee/tee_api.c:149
    257c:	a9be7bfd 	stp	x29, x30, [sp, #-32]!
    2580:	910003fd 	mov	x29, sp
/home/thesis/Desktop/optee_rpi3bplus/optee_os/lib/libutee/tee_api.c:151
    2584:	910073e0 	add	x0, sp, #0x1c
    2588:	94001417 	bl	75e4 <utee_get_cancellation_flag>
/home/thesis/Desktop/optee_rpi3bplus/optee_os/lib/libutee/tee_api.c:153
    258c:	34000040 	cbz	w0, 2594 <TEE_GetCancellationFlag+0x18>
/home/thesis/Desktop/optee_rpi3bplus/optee_os/lib/libutee/tee_api.c:154
    2590:	b9001fff 	str	wzr, [sp, #28]
/home/thesis/Desktop/optee_rpi3bplus/optee_os/lib/libutee/tee_api.c:155
    2594:	b9401fe0 	ldr	w0, [sp, #28]
/home/thesis/Desktop/optee_rpi3bplus/optee_os/lib/libutee/tee_api.c:156
    2598:	a8c27bfd 	ldp	x29, x30, [sp], #32
/home/thesis/Desktop/optee_rpi3bplus/optee_os/lib/libutee/tee_api.c:155
    259c:	7100001f 	cmp	w0, #0x0
/home/thesis/Desktop/optee_rpi3bplus/optee_os/lib/libutee/tee_api.c:156
    25a0:	1a9f07e0 	cset	w0, ne  // ne = any
    25a4:	d65f03c0 	ret

00000000000025a8 <TEE_UnmaskCancellation>:
TEE_UnmaskCancellation():
/home/thesis/Desktop/optee_rpi3bplus/optee_os/lib/libutee/tee_api.c:159
    25a8:	a9be7bfd 	stp	x29, x30, [sp, #-32]!
    25ac:	910003fd 	mov	x29, sp
/home/thesis/Desktop/optee_rpi3bplus/optee_os/lib/libutee/tee_api.c:161
    25b0:	910073e0 	add	x0, sp, #0x1c
    25b4:	94001412 	bl	75fc <utee_unmask_cancellation>
/home/thesis/Desktop/optee_rpi3bplus/optee_os/lib/libutee/tee_api.c:163
    25b8:	34000040 	cbz	w0, 25c0 <TEE_UnmaskCancellation+0x18>
/home/thesis/Desktop/optee_rpi3bplus/optee_os/lib/libutee/tee_api.c:164
    25bc:	94000ce9 	bl	5960 <TEE_Panic>
/home/thesis/Desktop/optee_rpi3bplus/optee_os/lib/libutee/tee_api.c:165
    25c0:	b9401fe0 	ldr	w0, [sp, #28]
/home/thesis/Desktop/optee_rpi3bplus/optee_os/lib/libutee/tee_api.c:166
    25c4:	a8c27bfd 	ldp	x29, x30, [sp], #32
/home/thesis/Desktop/optee_rpi3bplus/optee_os/lib/libutee/tee_api.c:165
    25c8:	7100001f 	cmp	w0, #0x0
/home/thesis/Desktop/optee_rpi3bplus/optee_os/lib/libutee/tee_api.c:166
    25cc:	1a9f07e0 	cset	w0, ne  // ne = any
    25d0:	d65f03c0 	ret

00000000000025d4 <TEE_MaskCancellation>:
TEE_MaskCancellation():
/home/thesis/Desktop/optee_rpi3bplus/optee_os/lib/libutee/tee_api.c:169
    25d4:	a9be7bfd 	stp	x29, x30, [sp, #-32]!
    25d8:	910003fd 	mov	x29, sp
/home/thesis/Desktop/optee_rpi3bplus/optee_os/lib/libutee/tee_api.c:171
    25dc:	910073e0 	add	x0, sp, #0x1c
    25e0:	9400140a 	bl	7608 <utee_mask_cancellation>
/home/thesis/Desktop/optee_rpi3bplus/optee_os/lib/libutee/tee_api.c:173
    25e4:	34000040 	cbz	w0, 25ec <TEE_MaskCancellation+0x18>
/home/thesis/Desktop/optee_rpi3bplus/optee_os/lib/libutee/tee_api.c:174
    25e8:	94000cde 	bl	5960 <TEE_Panic>
/home/thesis/Desktop/optee_rpi3bplus/optee_os/lib/libutee/tee_api.c:175
    25ec:	b9401fe0 	ldr	w0, [sp, #28]
/home/thesis/Desktop/optee_rpi3bplus/optee_os/lib/libutee/tee_api.c:176
    25f0:	a8c27bfd 	ldp	x29, x30, [sp], #32
/home/thesis/Desktop/optee_rpi3bplus/optee_os/lib/libutee/tee_api.c:175
    25f4:	7100001f 	cmp	w0, #0x0
/home/thesis/Desktop/optee_rpi3bplus/optee_os/lib/libutee/tee_api.c:176
    25f8:	1a9f07e0 	cset	w0, ne  // ne = any
    25fc:	d65f03c0 	ret

0000000000002600 <TEE_CheckMemoryAccessRights>:
TEE_CheckMemoryAccessRights():
/home/thesis/Desktop/optee_rpi3bplus/optee_os/lib/libutee/tee_api.c:185
    2600:	34000062 	cbz	w2, 260c <TEE_CheckMemoryAccessRights+0xc>
/home/thesis/Desktop/optee_rpi3bplus/optee_os/lib/libutee/tee_api.c:189
    2604:	2a0203e2 	mov	w2, w2
    2608:	140013fa 	b	75f0 <utee_check_access_rights>
/home/thesis/Desktop/optee_rpi3bplus/optee_os/lib/libutee/tee_api.c:201
    260c:	52800000 	mov	w0, #0x0                   	// #0
    2610:	d65f03c0 	ret

0000000000002614 <TEE_SetInstanceData>:
TEE_SetInstanceData():
/home/thesis/Desktop/optee_rpi3bplus/optee_os/lib/libutee/tee_api.c:205
    2614:	b0000081 	adrp	x1, 13000 <.got>
    2618:	f902b020 	str	x0, [x1, #1376]
/home/thesis/Desktop/optee_rpi3bplus/optee_os/lib/libutee/tee_api.c:206
    261c:	d65f03c0 	ret

0000000000002620 <TEE_GetInstanceData>:
TEE_GetInstanceData():
/home/thesis/Desktop/optee_rpi3bplus/optee_os/lib/libutee/tee_api.c:211
    2620:	b0000080 	adrp	x0, 13000 <.got>
    2624:	f942b000 	ldr	x0, [x0, #1376]
    2628:	d65f03c0 	ret

000000000000262c <TEE_MemMove>:
TEE_MemMove():
/home/thesis/Desktop/optee_rpi3bplus/optee_os/lib/libutee/tee_api.c:215
    262c:	2a0203e2 	mov	w2, w2
    2630:	14002404 	b	b640 <memmove>

0000000000002634 <TEE_MemCompare>:
TEE_MemCompare():
/home/thesis/Desktop/optee_rpi3bplus/optee_os/lib/libutee/tee_api.c:220
    2634:	2a0203e2 	mov	w2, w2
    2638:	14002863 	b	c7c4 <consttime_memcmp>

000000000000263c <TEE_MemFill>:
TEE_MemFill():
/home/thesis/Desktop/optee_rpi3bplus/optee_os/lib/libutee/tee_api.c:225
    263c:	2a0203e2 	mov	w2, w2
    2640:	17ffff1d 	b	22b4 <memset>

0000000000002644 <TEE_GetSystemTime>:
TEE_GetSystemTime():
/home/thesis/Desktop/optee_rpi3bplus/optee_os/lib/libutee/tee_api.c:231
    2644:	a9bf7bfd 	stp	x29, x30, [sp, #-16]!
/home/thesis/Desktop/optee_rpi3bplus/optee_os/lib/libutee/tee_api.c:232
    2648:	aa0003e1 	mov	x1, x0
    264c:	d2800000 	mov	x0, #0x0                   	// #0
/home/thesis/Desktop/optee_rpi3bplus/optee_os/lib/libutee/tee_api.c:231
    2650:	910003fd 	mov	x29, sp
/home/thesis/Desktop/optee_rpi3bplus/optee_os/lib/libutee/tee_api.c:232
    2654:	940013f3 	bl	7620 <utee_get_time>
/home/thesis/Desktop/optee_rpi3bplus/optee_os/lib/libutee/tee_api.c:234
    2658:	34000060 	cbz	w0, 2664 <TEE_GetSystemTime+0x20>
/home/thesis/Desktop/optee_rpi3bplus/optee_os/lib/libutee/tee_api.c:236
    265c:	a8c17bfd 	ldp	x29, x30, [sp], #16
/home/thesis/Desktop/optee_rpi3bplus/optee_os/lib/libutee/tee_api.c:235
    2660:	14000cc0 	b	5960 <TEE_Panic>
/home/thesis/Desktop/optee_rpi3bplus/optee_os/lib/libutee/tee_api.c:236
    2664:	a8c17bfd 	ldp	x29, x30, [sp], #16
    2668:	d65f03c0 	ret

000000000000266c <TEE_Wait>:
TEE_Wait():
/home/thesis/Desktop/optee_rpi3bplus/optee_os/lib/libutee/tee_api.c:239
    266c:	a9be7bfd 	stp	x29, x30, [sp, #-32]!
/home/thesis/Desktop/optee_rpi3bplus/optee_os/lib/libutee/tee_api.c:240
    2670:	2a0003e0 	mov	w0, w0
/home/thesis/Desktop/optee_rpi3bplus/optee_os/lib/libutee/tee_api.c:239
    2674:	910003fd 	mov	x29, sp
    2678:	f9000bf3 	str	x19, [sp, #16]
/home/thesis/Desktop/optee_rpi3bplus/optee_os/lib/libutee/tee_api.c:240
    267c:	940013e6 	bl	7614 <utee_wait>
/home/thesis/Desktop/optee_rpi3bplus/optee_os/lib/libutee/tee_api.c:242
    2680:	7100001f 	cmp	w0, #0x0
    2684:	129fffa1 	mov	w1, #0xffff0002            	// #-65534
/home/thesis/Desktop/optee_rpi3bplus/optee_os/lib/libutee/tee_api.c:240
    2688:	2a0003f3 	mov	w19, w0
/home/thesis/Desktop/optee_rpi3bplus/optee_os/lib/libutee/tee_api.c:242
    268c:	7a411004 	ccmp	w0, w1, #0x4, ne  // ne = any
    2690:	54000040 	b.eq	2698 <TEE_Wait+0x2c>  // b.none
/home/thesis/Desktop/optee_rpi3bplus/optee_os/lib/libutee/tee_api.c:243
    2694:	94000cb3 	bl	5960 <TEE_Panic>
/home/thesis/Desktop/optee_rpi3bplus/optee_os/lib/libutee/tee_api.c:246
    2698:	2a1303e0 	mov	w0, w19
    269c:	f9400bf3 	ldr	x19, [sp, #16]
    26a0:	a8c27bfd 	ldp	x29, x30, [sp], #32
    26a4:	d65f03c0 	ret

00000000000026a8 <TEE_GetTAPersistentTime>:
TEE_GetTAPersistentTime():
/home/thesis/Desktop/optee_rpi3bplus/optee_os/lib/libutee/tee_api.c:249
    26a8:	a9be7bfd 	stp	x29, x30, [sp, #-32]!
/home/thesis/Desktop/optee_rpi3bplus/optee_os/lib/libutee/tee_api.c:252
    26ac:	aa0003e1 	mov	x1, x0
/home/thesis/Desktop/optee_rpi3bplus/optee_os/lib/libutee/tee_api.c:249
    26b0:	910003fd 	mov	x29, sp
    26b4:	a90153f3 	stp	x19, x20, [sp, #16]
    26b8:	aa0003f4 	mov	x20, x0
/home/thesis/Desktop/optee_rpi3bplus/optee_os/lib/libutee/tee_api.c:252
    26bc:	d2800020 	mov	x0, #0x1                   	// #1
    26c0:	940013d8 	bl	7620 <utee_get_time>
/home/thesis/Desktop/optee_rpi3bplus/optee_os/lib/libutee/tee_api.c:254
    26c4:	7100001f 	cmp	w0, #0x0
/home/thesis/Desktop/optee_rpi3bplus/optee_os/lib/libutee/tee_api.c:252
    26c8:	2a0003f3 	mov	w19, w0
/home/thesis/Desktop/optee_rpi3bplus/optee_os/lib/libutee/tee_api.c:254
    26cc:	1a9f07e2 	cset	w2, ne  // ne = any
    26d0:	1299fe00 	mov	w0, #0xffff300f            	// #-53233
    26d4:	6b00027f 	cmp	w19, w0
    26d8:	1a9f1041 	csel	w1, w2, wzr, ne  // ne = any
    26dc:	34000041 	cbz	w1, 26e4 <TEE_GetTAPersistentTime+0x3c>
/home/thesis/Desktop/optee_rpi3bplus/optee_os/lib/libutee/tee_api.c:256
    26e0:	29007e9f 	stp	wzr, wzr, [x20]
/home/thesis/Desktop/optee_rpi3bplus/optee_os/lib/libutee/tee_api.c:260
    26e4:	11402e60 	add	w0, w19, #0xb, lsl #12
/home/thesis/Desktop/optee_rpi3bplus/optee_os/lib/libutee/tee_api.c:259
    26e8:	7100005f 	cmp	w2, #0x0
    26ec:	7a411800 	ccmp	w0, #0x1, #0x0, ne  // ne = any
    26f0:	540000e9 	b.ls	270c <TEE_GetTAPersistentTime+0x64>  // b.plast
/home/thesis/Desktop/optee_rpi3bplus/optee_os/lib/libutee/tee_api.c:261
    26f4:	340000c1 	cbz	w1, 270c <TEE_GetTAPersistentTime+0x64>
/home/thesis/Desktop/optee_rpi3bplus/optee_os/lib/libutee/tee_api.c:262
    26f8:	129ffe60 	mov	w0, #0xffff000c            	// #-65524
    26fc:	6b00027f 	cmp	w19, w0
    2700:	54000060 	b.eq	270c <TEE_GetTAPersistentTime+0x64>  // b.none
/home/thesis/Desktop/optee_rpi3bplus/optee_os/lib/libutee/tee_api.c:264
    2704:	2a1303e0 	mov	w0, w19
    2708:	94000c96 	bl	5960 <TEE_Panic>
/home/thesis/Desktop/optee_rpi3bplus/optee_os/lib/libutee/tee_api.c:267
    270c:	2a1303e0 	mov	w0, w19
    2710:	a94153f3 	ldp	x19, x20, [sp, #16]
    2714:	a8c27bfd 	ldp	x29, x30, [sp], #32
    2718:	d65f03c0 	ret

000000000000271c <TEE_SetTAPersistentTime>:
TEE_SetTAPersistentTime():
/home/thesis/Desktop/optee_rpi3bplus/optee_os/lib/libutee/tee_api.c:270
    271c:	a9be7bfd 	stp	x29, x30, [sp, #-32]!
    2720:	910003fd 	mov	x29, sp
    2724:	f9000bf3 	str	x19, [sp, #16]
/home/thesis/Desktop/optee_rpi3bplus/optee_os/lib/libutee/tee_api.c:273
    2728:	940013c1 	bl	762c <utee_set_ta_time>
/home/thesis/Desktop/optee_rpi3bplus/optee_os/lib/libutee/tee_api.c:275
    272c:	7100001f 	cmp	w0, #0x0
    2730:	129ffe61 	mov	w1, #0xffff000c            	// #-65524
/home/thesis/Desktop/optee_rpi3bplus/optee_os/lib/libutee/tee_api.c:273
    2734:	2a0003f3 	mov	w19, w0
/home/thesis/Desktop/optee_rpi3bplus/optee_os/lib/libutee/tee_api.c:275
    2738:	7a411004 	ccmp	w0, w1, #0x4, ne  // ne = any
    273c:	540000a0 	b.eq	2750 <TEE_SetTAPersistentTime+0x34>  // b.none
/home/thesis/Desktop/optee_rpi3bplus/optee_os/lib/libutee/tee_api.c:276
    2740:	1299f7c1 	mov	w1, #0xffff3041            	// #-53183
    2744:	6b01001f 	cmp	w0, w1
    2748:	54000040 	b.eq	2750 <TEE_SetTAPersistentTime+0x34>  // b.none
/home/thesis/Desktop/optee_rpi3bplus/optee_os/lib/libutee/tee_api.c:278
    274c:	94000c85 	bl	5960 <TEE_Panic>
/home/thesis/Desktop/optee_rpi3bplus/optee_os/lib/libutee/tee_api.c:281
    2750:	2a1303e0 	mov	w0, w19
    2754:	f9400bf3 	ldr	x19, [sp, #16]
    2758:	a8c27bfd 	ldp	x29, x30, [sp], #32
    275c:	d65f03c0 	ret

0000000000002760 <TEE_GetREETime>:
TEE_GetREETime():
/home/thesis/Desktop/optee_rpi3bplus/optee_os/lib/libutee/tee_api.c:284
    2760:	a9bf7bfd 	stp	x29, x30, [sp, #-16]!
/home/thesis/Desktop/optee_rpi3bplus/optee_os/lib/libutee/tee_api.c:285
    2764:	aa0003e1 	mov	x1, x0
    2768:	d2800040 	mov	x0, #0x2                   	// #2
/home/thesis/Desktop/optee_rpi3bplus/optee_os/lib/libutee/tee_api.c:284
    276c:	910003fd 	mov	x29, sp
/home/thesis/Desktop/optee_rpi3bplus/optee_os/lib/libutee/tee_api.c:285
    2770:	940013ac 	bl	7620 <utee_get_time>
/home/thesis/Desktop/optee_rpi3bplus/optee_os/lib/libutee/tee_api.c:287
    2774:	34000060 	cbz	w0, 2780 <TEE_GetREETime+0x20>
/home/thesis/Desktop/optee_rpi3bplus/optee_os/lib/libutee/tee_api.c:289
    2778:	a8c17bfd 	ldp	x29, x30, [sp], #16
/home/thesis/Desktop/optee_rpi3bplus/optee_os/lib/libutee/tee_api.c:288
    277c:	14000c79 	b	5960 <TEE_Panic>
/home/thesis/Desktop/optee_rpi3bplus/optee_os/lib/libutee/tee_api.c:289
    2780:	a8c17bfd 	ldp	x29, x30, [sp], #16
    2784:	d65f03c0 	ret

0000000000002788 <TEE_Malloc>:
TEE_Malloc():
/home/thesis/Desktop/optee_rpi3bplus/optee_os/lib/libutee/tee_api.c:293
    2788:	35000081 	cbnz	w1, 2798 <TEE_Malloc+0x10>
/home/thesis/Desktop/optee_rpi3bplus/optee_os/lib/libutee/tee_api.c:294
    278c:	2a0003e1 	mov	w1, w0
    2790:	d2800020 	mov	x0, #0x1                   	// #1
    2794:	17fffdc5 	b	1ea8 <calloc>
/home/thesis/Desktop/optee_rpi3bplus/optee_os/lib/libutee/tee_api.c:295
    2798:	52b00002 	mov	w2, #0x80000000            	// #-2147483648
    279c:	6b02003f 	cmp	w1, w2
    27a0:	54000061 	b.ne	27ac <TEE_Malloc+0x24>  // b.any
/home/thesis/Desktop/optee_rpi3bplus/optee_os/lib/libutee/tee_api.c:296
    27a4:	2a0003e0 	mov	w0, w0
    27a8:	17fffdac 	b	1e58 <malloc>
/home/thesis/Desktop/optee_rpi3bplus/optee_os/lib/libutee/tee_api.c:292
    27ac:	a9bf7bfd 	stp	x29, x30, [sp, #-16]!
    27b0:	2a0103e5 	mov	w5, w1
/home/thesis/Desktop/optee_rpi3bplus/optee_os/lib/libutee/tee_api.c:298
    27b4:	52800023 	mov	w3, #0x1                   	// #1
/home/thesis/Desktop/optee_rpi3bplus/optee_os/lib/libutee/tee_api.c:292
    27b8:	910003fd 	mov	x29, sp
/home/thesis/Desktop/optee_rpi3bplus/optee_os/lib/libutee/tee_api.c:298
    27bc:	52800022 	mov	w2, #0x1                   	// #1
    27c0:	52802541 	mov	w1, #0x12a                 	// #298
    27c4:	f0000064 	adrp	x4, 11000 <SECURITY_ASSOCIATIONS+0x117c>
    27c8:	f0000060 	adrp	x0, 11000 <SECURITY_ASSOCIATIONS+0x117c>
    27cc:	91347084 	add	x4, x4, #0xd1c
    27d0:	911a4c00 	add	x0, x0, #0x693
    27d4:	94002703 	bl	c3e0 <trace_printf>
/home/thesis/Desktop/optee_rpi3bplus/optee_os/lib/libutee/tee_api.c:301
    27d8:	d2800000 	mov	x0, #0x0                   	// #0
    27dc:	a8c17bfd 	ldp	x29, x30, [sp], #16
    27e0:	d65f03c0 	ret

00000000000027e4 <TEE_Realloc>:
TEE_Realloc():
/home/thesis/Desktop/optee_rpi3bplus/optee_os/lib/libutee/tee_api.c:305
    27e4:	2a0103e1 	mov	w1, w1
    27e8:	17fffdc9 	b	1f0c <realloc>

00000000000027ec <TEE_Free>:
TEE_Free():
/home/thesis/Desktop/optee_rpi3bplus/optee_os/lib/libutee/tee_api.c:310
    27ec:	17fffddc 	b	1f5c <free>

00000000000027f0 <TEE_CacheClean>:
TEE_CacheClean():
/home/thesis/Desktop/optee_rpi3bplus/optee_os/lib/libutee/tee_api.c:316
    27f0:	d2800002 	mov	x2, #0x0                   	// #0
    27f4:	14001409 	b	7818 <utee_cache_operation>

00000000000027f8 <TEE_CacheFlush>:
TEE_CacheFlush():
/home/thesis/Desktop/optee_rpi3bplus/optee_os/lib/libutee/tee_api.c:320
    27f8:	d2800022 	mov	x2, #0x1                   	// #1
    27fc:	14001407 	b	7818 <utee_cache_operation>

0000000000002800 <TEE_CacheInvalidate>:
TEE_CacheInvalidate():
/home/thesis/Desktop/optee_rpi3bplus/optee_os/lib/libutee/tee_api.c:325
    2800:	d2800042 	mov	x2, #0x2                   	// #2
    2804:	14001405 	b	7818 <utee_cache_operation>

0000000000002808 <__utee_from_attr>:
__utee_from_attr():
/home/thesis/Desktop/optee_rpi3bplus/optee_os/lib/libutee/tee_api_objects.c:22
    2808:	2a0203e2 	mov	w2, w2
    280c:	d2800003 	mov	x3, #0x0                   	// #0
/home/thesis/Desktop/optee_rpi3bplus/optee_os/lib/libutee/tee_api_objects.c:22 (discriminator 1)
    2810:	eb03005f 	cmp	x2, x3
    2814:	54000048 	b.hi	281c <__utee_from_attr+0x14>  // b.pmore
/home/thesis/Desktop/optee_rpi3bplus/optee_os/lib/libutee/tee_api_objects.c:32
    2818:	d65f03c0 	ret
/home/thesis/Desktop/optee_rpi3bplus/optee_os/lib/libutee/tee_api_objects.c:23
    281c:	b9400024 	ldr	w4, [x1]
    2820:	b9001004 	str	w4, [x0, #16]
/home/thesis/Desktop/optee_rpi3bplus/optee_os/lib/libutee/tee_api_objects.c:24
    2824:	36e80124 	tbz	w4, #29, 2848 <__utee_from_attr+0x40>
/home/thesis/Desktop/optee_rpi3bplus/optee_os/lib/libutee/tee_api_objects.c:25
    2828:	b9400824 	ldr	w4, [x1, #8]
    282c:	f9000004 	str	x4, [x0]
/home/thesis/Desktop/optee_rpi3bplus/optee_os/lib/libutee/tee_api_objects.c:26
    2830:	b9400c24 	ldr	w4, [x1, #12]
/home/thesis/Desktop/optee_rpi3bplus/optee_os/lib/libutee/tee_api_objects.c:22
    2834:	91000463 	add	x3, x3, #0x1
    2838:	91006021 	add	x1, x1, #0x18
    283c:	91006000 	add	x0, x0, #0x18
/home/thesis/Desktop/optee_rpi3bplus/optee_os/lib/libutee/tee_api_objects.c:29
    2840:	f81f0004 	stur	x4, [x0, #-16]
    2844:	17fffff3 	b	2810 <__utee_from_attr+0x8>
/home/thesis/Desktop/optee_rpi3bplus/optee_os/lib/libutee/tee_api_objects.c:28
    2848:	f9400424 	ldr	x4, [x1, #8]
    284c:	f9000004 	str	x4, [x0]
/home/thesis/Desktop/optee_rpi3bplus/optee_os/lib/libutee/tee_api_objects.c:29
    2850:	b9401024 	ldr	w4, [x1, #16]
    2854:	17fffff8 	b	2834 <__utee_from_attr+0x2c>

0000000000002858 <TEE_GetObjectInfo>:
TEE_GetObjectInfo():
/home/thesis/Desktop/optee_rpi3bplus/optee_os/lib/libutee/tee_api_objects.c:42
    2858:	a9be7bfd 	stp	x29, x30, [sp, #-32]!
    285c:	910003fd 	mov	x29, sp
    2860:	f9000bf3 	str	x19, [sp, #16]
    2864:	aa0103f3 	mov	x19, x1
/home/thesis/Desktop/optee_rpi3bplus/optee_os/lib/libutee/tee_api_objects.c:45
    2868:	9400138f 	bl	76a4 <utee_cryp_obj_get_info>
/home/thesis/Desktop/optee_rpi3bplus/optee_os/lib/libutee/tee_api_objects.c:47
    286c:	34000040 	cbz	w0, 2874 <TEE_GetObjectInfo+0x1c>
/home/thesis/Desktop/optee_rpi3bplus/optee_os/lib/libutee/tee_api_objects.c:48
    2870:	94000c3c 	bl	5960 <TEE_Panic>
/home/thesis/Desktop/optee_rpi3bplus/optee_os/lib/libutee/tee_api_objects.c:50
    2874:	b9400261 	ldr	w1, [x19]
    2878:	528017c0 	mov	w0, #0xbe                  	// #190
    287c:	72b40000 	movk	w0, #0xa000, lsl #16
    2880:	6b00003f 	cmp	w1, w0
    2884:	54000081 	b.ne	2894 <TEE_GetObjectInfo+0x3c>  // b.any
/home/thesis/Desktop/optee_rpi3bplus/optee_os/lib/libutee/tee_api_objects.c:52
    2888:	2900fe7f 	stp	wzr, wzr, [x19, #4]
/home/thesis/Desktop/optee_rpi3bplus/optee_os/lib/libutee/tee_api_objects.c:54
    288c:	2901fe7f 	stp	wzr, wzr, [x19, #12]
/home/thesis/Desktop/optee_rpi3bplus/optee_os/lib/libutee/tee_api_objects.c:56
    2890:	2902fe7f 	stp	wzr, wzr, [x19, #20]
/home/thesis/Desktop/optee_rpi3bplus/optee_os/lib/libutee/tee_api_objects.c:58
    2894:	f9400bf3 	ldr	x19, [sp, #16]
    2898:	a8c27bfd 	ldp	x29, x30, [sp], #32
    289c:	d65f03c0 	ret

00000000000028a0 <TEE_GetObjectInfo1>:
TEE_GetObjectInfo1():
/home/thesis/Desktop/optee_rpi3bplus/optee_os/lib/libutee/tee_api_objects.c:61
    28a0:	a9be7bfd 	stp	x29, x30, [sp, #-32]!
    28a4:	910003fd 	mov	x29, sp
    28a8:	f9000bf3 	str	x19, [sp, #16]
/home/thesis/Desktop/optee_rpi3bplus/optee_os/lib/libutee/tee_api_objects.c:64
    28ac:	9400137e 	bl	76a4 <utee_cryp_obj_get_info>
/home/thesis/Desktop/optee_rpi3bplus/optee_os/lib/libutee/tee_api_objects.c:66
    28b0:	52800021 	mov	w1, #0x1                   	// #1
/home/thesis/Desktop/optee_rpi3bplus/optee_os/lib/libutee/tee_api_objects.c:67
    28b4:	121e7802 	and	w2, w0, #0xfffffffd
/home/thesis/Desktop/optee_rpi3bplus/optee_os/lib/libutee/tee_api_objects.c:66
    28b8:	7100001f 	cmp	w0, #0x0
    28bc:	72be0201 	movk	w1, #0xf010, lsl #16
/home/thesis/Desktop/optee_rpi3bplus/optee_os/lib/libutee/tee_api_objects.c:64
    28c0:	2a0003f3 	mov	w19, w0
/home/thesis/Desktop/optee_rpi3bplus/optee_os/lib/libutee/tee_api_objects.c:66
    28c4:	7a411044 	ccmp	w2, w1, #0x4, ne  // ne = any
    28c8:	54000040 	b.eq	28d0 <TEE_GetObjectInfo1+0x30>  // b.none
/home/thesis/Desktop/optee_rpi3bplus/optee_os/lib/libutee/tee_api_objects.c:69
    28cc:	94000c25 	bl	5960 <TEE_Panic>
/home/thesis/Desktop/optee_rpi3bplus/optee_os/lib/libutee/tee_api_objects.c:72
    28d0:	2a1303e0 	mov	w0, w19
    28d4:	f9400bf3 	ldr	x19, [sp, #16]
    28d8:	a8c27bfd 	ldp	x29, x30, [sp], #32
    28dc:	d65f03c0 	ret

00000000000028e0 <TEE_RestrictObjectUsage1>:
TEE_RestrictObjectUsage1():
/home/thesis/Desktop/optee_rpi3bplus/optee_os/lib/libutee/tee_api_objects.c:96
    28e0:	a9be7bfd 	stp	x29, x30, [sp, #-32]!
/home/thesis/Desktop/optee_rpi3bplus/optee_os/lib/libutee/tee_api_objects.c:99
    28e4:	2a0103e1 	mov	w1, w1
/home/thesis/Desktop/optee_rpi3bplus/optee_os/lib/libutee/tee_api_objects.c:96
    28e8:	910003fd 	mov	x29, sp
    28ec:	f9000bf3 	str	x19, [sp, #16]
/home/thesis/Desktop/optee_rpi3bplus/optee_os/lib/libutee/tee_api_objects.c:99
    28f0:	94001370 	bl	76b0 <utee_cryp_obj_restrict_usage>
/home/thesis/Desktop/optee_rpi3bplus/optee_os/lib/libutee/tee_api_objects.c:101
    28f4:	52800021 	mov	w1, #0x1                   	// #1
/home/thesis/Desktop/optee_rpi3bplus/optee_os/lib/libutee/tee_api_objects.c:102
    28f8:	121e7802 	and	w2, w0, #0xfffffffd
/home/thesis/Desktop/optee_rpi3bplus/optee_os/lib/libutee/tee_api_objects.c:101
    28fc:	7100001f 	cmp	w0, #0x0
    2900:	72be0201 	movk	w1, #0xf010, lsl #16
/home/thesis/Desktop/optee_rpi3bplus/optee_os/lib/libutee/tee_api_objects.c:99
    2904:	2a0003f3 	mov	w19, w0
/home/thesis/Desktop/optee_rpi3bplus/optee_os/lib/libutee/tee_api_objects.c:101
    2908:	7a411044 	ccmp	w2, w1, #0x4, ne  // ne = any
    290c:	54000040 	b.eq	2914 <TEE_RestrictObjectUsage1+0x34>  // b.none
/home/thesis/Desktop/optee_rpi3bplus/optee_os/lib/libutee/tee_api_objects.c:104
    2910:	94000c14 	bl	5960 <TEE_Panic>
/home/thesis/Desktop/optee_rpi3bplus/optee_os/lib/libutee/tee_api_objects.c:107
    2914:	2a1303e0 	mov	w0, w19
    2918:	f9400bf3 	ldr	x19, [sp, #16]
    291c:	a8c27bfd 	ldp	x29, x30, [sp], #32
    2920:	d65f03c0 	ret

0000000000002924 <TEE_RestrictObjectUsage>:
TEE_RestrictObjectUsage():
/home/thesis/Desktop/optee_rpi3bplus/optee_os/lib/libutee/tee_api_objects.c:81
    2924:	a9bc7bfd 	stp	x29, x30, [sp, #-64]!
    2928:	910003fd 	mov	x29, sp
    292c:	a90153f3 	stp	x19, x20, [sp, #16]
    2930:	aa0003f3 	mov	x19, x0
    2934:	2a0103f4 	mov	w20, w1
/home/thesis/Desktop/optee_rpi3bplus/optee_os/lib/libutee/tee_api_objects.c:85
    2938:	910083e1 	add	x1, sp, #0x20
    293c:	9400135a 	bl	76a4 <utee_cryp_obj_get_info>
/home/thesis/Desktop/optee_rpi3bplus/optee_os/lib/libutee/tee_api_objects.c:86
    2940:	b94023e1 	ldr	w1, [sp, #32]
    2944:	528017c0 	mov	w0, #0xbe                  	// #190
    2948:	72b40000 	movk	w0, #0xa000, lsl #16
    294c:	6b00003f 	cmp	w1, w0
    2950:	540000c0 	b.eq	2968 <TEE_RestrictObjectUsage+0x44>  // b.none
/home/thesis/Desktop/optee_rpi3bplus/optee_os/lib/libutee/tee_api_objects.c:89
    2954:	2a1403e1 	mov	w1, w20
    2958:	aa1303e0 	mov	x0, x19
    295c:	97ffffe1 	bl	28e0 <TEE_RestrictObjectUsage1>
/home/thesis/Desktop/optee_rpi3bplus/optee_os/lib/libutee/tee_api_objects.c:91
    2960:	34000040 	cbz	w0, 2968 <TEE_RestrictObjectUsage+0x44>
/home/thesis/Desktop/optee_rpi3bplus/optee_os/lib/libutee/tee_api_objects.c:92
    2964:	94000bff 	bl	5960 <TEE_Panic>
/home/thesis/Desktop/optee_rpi3bplus/optee_os/lib/libutee/tee_api_objects.c:93
    2968:	a94153f3 	ldp	x19, x20, [sp, #16]
    296c:	a8c47bfd 	ldp	x29, x30, [sp], #64
    2970:	d65f03c0 	ret

0000000000002974 <TEE_GetObjectBufferAttribute>:
TEE_GetObjectBufferAttribute():
/home/thesis/Desktop/optee_rpi3bplus/optee_os/lib/libutee/tee_api_objects.c:112
    2974:	a9b97bfd 	stp	x29, x30, [sp, #-112]!
    2978:	910003fd 	mov	x29, sp
    297c:	a90153f3 	stp	x19, x20, [sp, #16]
    2980:	aa0303f4 	mov	x20, x3
    2984:	a9025bf5 	stp	x21, x22, [sp, #32]
    2988:	aa0003f6 	mov	x22, x0
    298c:	2a0103f5 	mov	w21, w1
/home/thesis/Desktop/optee_rpi3bplus/optee_os/lib/libutee/tee_api_objects.c:117
    2990:	910143e1 	add	x1, sp, #0x50
/home/thesis/Desktop/optee_rpi3bplus/optee_os/lib/libutee/tee_api_objects.c:112
    2994:	f9001fe2 	str	x2, [sp, #56]
/home/thesis/Desktop/optee_rpi3bplus/optee_os/lib/libutee/tee_api_objects.c:117
    2998:	94001343 	bl	76a4 <utee_cryp_obj_get_info>
    299c:	2a0003f3 	mov	w19, w0
/home/thesis/Desktop/optee_rpi3bplus/optee_os/lib/libutee/tee_api_objects.c:118
    29a0:	35000180 	cbnz	w0, 29d0 <TEE_GetObjectBufferAttribute+0x5c>
/home/thesis/Desktop/optee_rpi3bplus/optee_os/lib/libutee/tee_api_objects.c:122
    29a4:	37e803b5 	tbnz	w21, #29, 2a18 <TEE_GetObjectBufferAttribute+0xa4>
/home/thesis/Desktop/optee_rpi3bplus/optee_os/lib/libutee/tee_api_objects.c:128
    29a8:	f9401fe2 	ldr	x2, [sp, #56]
    29ac:	910123e3 	add	x3, sp, #0x48
/home/thesis/Desktop/optee_rpi3bplus/optee_os/lib/libutee/tee_api_objects.c:127
    29b0:	b9400280 	ldr	w0, [x20]
/home/thesis/Desktop/optee_rpi3bplus/optee_os/lib/libutee/tee_api_objects.c:128
    29b4:	2a1503e1 	mov	w1, w21
/home/thesis/Desktop/optee_rpi3bplus/optee_os/lib/libutee/tee_api_objects.c:127
    29b8:	f90027e0 	str	x0, [sp, #72]
/home/thesis/Desktop/optee_rpi3bplus/optee_os/lib/libutee/tee_api_objects.c:128
    29bc:	aa1603e0 	mov	x0, x22
    29c0:	9400133f 	bl	76bc <utee_cryp_obj_get_attr>
    29c4:	2a0003f3 	mov	w19, w0
/home/thesis/Desktop/optee_rpi3bplus/optee_os/lib/libutee/tee_api_objects.c:130
    29c8:	f94027e0 	ldr	x0, [sp, #72]
    29cc:	b9000280 	str	w0, [x20]
/home/thesis/Desktop/optee_rpi3bplus/optee_os/lib/libutee/tee_api_objects.c:133
    29d0:	7100027f 	cmp	w19, #0x0
    29d4:	129ffee0 	mov	w0, #0xffff0008            	// #-65528
    29d8:	7a401264 	ccmp	w19, w0, #0x4, ne  // ne = any
    29dc:	54000140 	b.eq	2a04 <TEE_GetObjectBufferAttribute+0x90>  // b.none
/home/thesis/Desktop/optee_rpi3bplus/optee_os/lib/libutee/tee_api_objects.c:136
    29e0:	121e7a61 	and	w1, w19, #0xfffffffd
/home/thesis/Desktop/optee_rpi3bplus/optee_os/lib/libutee/tee_api_objects.c:135
    29e4:	52800020 	mov	w0, #0x1                   	// #1
    29e8:	72be0200 	movk	w0, #0xf010, lsl #16
    29ec:	6b00003f 	cmp	w1, w0
    29f0:	129ffde0 	mov	w0, #0xffff0010            	// #-65520
    29f4:	7a401264 	ccmp	w19, w0, #0x4, ne  // ne = any
    29f8:	54000060 	b.eq	2a04 <TEE_GetObjectBufferAttribute+0x90>  // b.none
/home/thesis/Desktop/optee_rpi3bplus/optee_os/lib/libutee/tee_api_objects.c:138
    29fc:	2a1303e0 	mov	w0, w19
    2a00:	94000bd8 	bl	5960 <TEE_Panic>
/home/thesis/Desktop/optee_rpi3bplus/optee_os/lib/libutee/tee_api_objects.c:141
    2a04:	2a1303e0 	mov	w0, w19
    2a08:	a94153f3 	ldp	x19, x20, [sp, #16]
    2a0c:	a9425bf5 	ldp	x21, x22, [sp, #32]
    2a10:	a8c77bfd 	ldp	x29, x30, [sp], #112
    2a14:	d65f03c0 	ret
/home/thesis/Desktop/optee_rpi3bplus/optee_os/lib/libutee/tee_api_objects.c:123
    2a18:	129fff33 	mov	w19, #0xffff0006            	// #-65530
    2a1c:	17ffffed 	b	29d0 <TEE_GetObjectBufferAttribute+0x5c>

0000000000002a20 <TEE_GetObjectValueAttribute>:
TEE_GetObjectValueAttribute():
/home/thesis/Desktop/optee_rpi3bplus/optee_os/lib/libutee/tee_api_objects.c:146
    2a20:	a9b97bfd 	stp	x29, x30, [sp, #-112]!
    2a24:	910003fd 	mov	x29, sp
    2a28:	a9025bf5 	stp	x21, x22, [sp, #32]
    2a2c:	2a0103f6 	mov	w22, w1
/home/thesis/Desktop/optee_rpi3bplus/optee_os/lib/libutee/tee_api_objects.c:150
    2a30:	d2800101 	mov	x1, #0x8                   	// #8
/home/thesis/Desktop/optee_rpi3bplus/optee_os/lib/libutee/tee_api_objects.c:146
    2a34:	aa0203f5 	mov	x21, x2
    2a38:	a90153f3 	stp	x19, x20, [sp, #16]
    2a3c:	aa0303f4 	mov	x20, x3
    2a40:	f9001bf7 	str	x23, [sp, #48]
    2a44:	aa0003f7 	mov	x23, x0
/home/thesis/Desktop/optee_rpi3bplus/optee_os/lib/libutee/tee_api_objects.c:150
    2a48:	f90027e1 	str	x1, [sp, #72]
/home/thesis/Desktop/optee_rpi3bplus/optee_os/lib/libutee/tee_api_objects.c:152
    2a4c:	910143e1 	add	x1, sp, #0x50
    2a50:	94001315 	bl	76a4 <utee_cryp_obj_get_info>
    2a54:	2a0003f3 	mov	w19, w0
/home/thesis/Desktop/optee_rpi3bplus/optee_os/lib/libutee/tee_api_objects.c:153
    2a58:	35000100 	cbnz	w0, 2a78 <TEE_GetObjectValueAttribute+0x58>
/home/thesis/Desktop/optee_rpi3bplus/optee_os/lib/libutee/tee_api_objects.c:157
    2a5c:	36e80496 	tbz	w22, #29, 2aec <TEE_GetObjectValueAttribute+0xcc>
/home/thesis/Desktop/optee_rpi3bplus/optee_os/lib/libutee/tee_api_objects.c:162
    2a60:	910123e3 	add	x3, sp, #0x48
    2a64:	910103e2 	add	x2, sp, #0x40
    2a68:	2a1603e1 	mov	w1, w22
    2a6c:	aa1703e0 	mov	x0, x23
    2a70:	94001313 	bl	76bc <utee_cryp_obj_get_attr>
    2a74:	2a0003f3 	mov	w19, w0
/home/thesis/Desktop/optee_rpi3bplus/optee_os/lib/libutee/tee_api_objects.c:166
    2a78:	7100027f 	cmp	w19, #0x0
    2a7c:	129ffee0 	mov	w0, #0xffff0008            	// #-65528
    2a80:	7a401264 	ccmp	w19, w0, #0x4, ne  // ne = any
    2a84:	54000100 	b.eq	2aa4 <TEE_GetObjectValueAttribute+0x84>  // b.none
/home/thesis/Desktop/optee_rpi3bplus/optee_os/lib/libutee/tee_api_objects.c:168
    2a88:	121e7a61 	and	w1, w19, #0xfffffffd
    2a8c:	52800020 	mov	w0, #0x1                   	// #1
    2a90:	72be0200 	movk	w0, #0xf010, lsl #16
    2a94:	6b00003f 	cmp	w1, w0
    2a98:	54000060 	b.eq	2aa4 <TEE_GetObjectValueAttribute+0x84>  // b.none
/home/thesis/Desktop/optee_rpi3bplus/optee_os/lib/libutee/tee_api_objects.c:170
    2a9c:	2a1303e0 	mov	w0, w19
    2aa0:	94000bb0 	bl	5960 <TEE_Panic>
/home/thesis/Desktop/optee_rpi3bplus/optee_os/lib/libutee/tee_api_objects.c:172
    2aa4:	f94027e0 	ldr	x0, [sp, #72]
    2aa8:	f100201f 	cmp	x0, #0x8
    2aac:	54000060 	b.eq	2ab8 <TEE_GetObjectValueAttribute+0x98>  // b.none
/home/thesis/Desktop/optee_rpi3bplus/optee_os/lib/libutee/tee_api_objects.c:173
    2ab0:	52800000 	mov	w0, #0x0                   	// #0
    2ab4:	94000bab 	bl	5960 <TEE_Panic>
/home/thesis/Desktop/optee_rpi3bplus/optee_os/lib/libutee/tee_api_objects.c:175
    2ab8:	350000f3 	cbnz	w19, 2ad4 <TEE_GetObjectValueAttribute+0xb4>
/home/thesis/Desktop/optee_rpi3bplus/optee_os/lib/libutee/tee_api_objects.c:176
    2abc:	b4000075 	cbz	x21, 2ac8 <TEE_GetObjectValueAttribute+0xa8>
/home/thesis/Desktop/optee_rpi3bplus/optee_os/lib/libutee/tee_api_objects.c:177
    2ac0:	b94043e0 	ldr	w0, [sp, #64]
    2ac4:	b90002a0 	str	w0, [x21]
/home/thesis/Desktop/optee_rpi3bplus/optee_os/lib/libutee/tee_api_objects.c:178
    2ac8:	b4000074 	cbz	x20, 2ad4 <TEE_GetObjectValueAttribute+0xb4>
/home/thesis/Desktop/optee_rpi3bplus/optee_os/lib/libutee/tee_api_objects.c:179
    2acc:	b94047e0 	ldr	w0, [sp, #68]
    2ad0:	b9000280 	str	w0, [x20]
/home/thesis/Desktop/optee_rpi3bplus/optee_os/lib/libutee/tee_api_objects.c:183
    2ad4:	2a1303e0 	mov	w0, w19
    2ad8:	a94153f3 	ldp	x19, x20, [sp, #16]
    2adc:	a9425bf5 	ldp	x21, x22, [sp, #32]
    2ae0:	f9401bf7 	ldr	x23, [sp, #48]
    2ae4:	a8c77bfd 	ldp	x29, x30, [sp], #112
    2ae8:	d65f03c0 	ret
/home/thesis/Desktop/optee_rpi3bplus/optee_os/lib/libutee/tee_api_objects.c:158
    2aec:	129fff33 	mov	w19, #0xffff0006            	// #-65530
    2af0:	17ffffe2 	b	2a78 <TEE_GetObjectValueAttribute+0x58>

0000000000002af4 <TEE_CloseObject>:
TEE_CloseObject():
/home/thesis/Desktop/optee_rpi3bplus/optee_os/lib/libutee/tee_api_objects.c:189
    2af4:	b4000120 	cbz	x0, 2b18 <TEE_CloseObject+0x24>
/home/thesis/Desktop/optee_rpi3bplus/optee_os/lib/libutee/tee_api_objects.c:186
    2af8:	a9bf7bfd 	stp	x29, x30, [sp, #-16]!
    2afc:	910003fd 	mov	x29, sp
/home/thesis/Desktop/optee_rpi3bplus/optee_os/lib/libutee/tee_api_objects.c:192
    2b00:	940012f5 	bl	76d4 <utee_cryp_obj_close>
/home/thesis/Desktop/optee_rpi3bplus/optee_os/lib/libutee/tee_api_objects.c:193
    2b04:	34000060 	cbz	w0, 2b10 <TEE_CloseObject+0x1c>
/home/thesis/Desktop/optee_rpi3bplus/optee_os/lib/libutee/tee_api_objects.c:195
    2b08:	a8c17bfd 	ldp	x29, x30, [sp], #16
/home/thesis/Desktop/optee_rpi3bplus/optee_os/lib/libutee/tee_api_objects.c:194
    2b0c:	14000b95 	b	5960 <TEE_Panic>
/home/thesis/Desktop/optee_rpi3bplus/optee_os/lib/libutee/tee_api_objects.c:195
    2b10:	a8c17bfd 	ldp	x29, x30, [sp], #16
    2b14:	d65f03c0 	ret
    2b18:	d65f03c0 	ret

0000000000002b1c <TEE_AllocateTransientObject>:
TEE_AllocateTransientObject():
/home/thesis/Desktop/optee_rpi3bplus/optee_os/lib/libutee/tee_api_objects.c:202
    2b1c:	a9bd7bfd 	stp	x29, x30, [sp, #-48]!
/home/thesis/Desktop/optee_rpi3bplus/optee_os/lib/libutee/tee_api_objects.c:206
    2b20:	2a0103e1 	mov	w1, w1
    2b24:	2a0003e0 	mov	w0, w0
/home/thesis/Desktop/optee_rpi3bplus/optee_os/lib/libutee/tee_api_objects.c:202
    2b28:	910003fd 	mov	x29, sp
    2b2c:	a90153f3 	stp	x19, x20, [sp, #16]
    2b30:	aa0203f4 	mov	x20, x2
/home/thesis/Desktop/optee_rpi3bplus/optee_os/lib/libutee/tee_api_objects.c:206
    2b34:	9100b3e2 	add	x2, sp, #0x2c
    2b38:	940012e4 	bl	76c8 <utee_cryp_obj_alloc>
/home/thesis/Desktop/optee_rpi3bplus/optee_os/lib/libutee/tee_api_objects.c:208
    2b3c:	7100001f 	cmp	w0, #0x0
    2b40:	129ffe61 	mov	w1, #0xffff000c            	// #-65524
/home/thesis/Desktop/optee_rpi3bplus/optee_os/lib/libutee/tee_api_objects.c:206
    2b44:	2a0003f3 	mov	w19, w0
/home/thesis/Desktop/optee_rpi3bplus/optee_os/lib/libutee/tee_api_objects.c:208
    2b48:	7a411004 	ccmp	w0, w1, #0x4, ne  // ne = any
    2b4c:	54000120 	b.eq	2b70 <TEE_AllocateTransientObject+0x54>  // b.none
/home/thesis/Desktop/optee_rpi3bplus/optee_os/lib/libutee/tee_api_objects.c:209
    2b50:	129ffea1 	mov	w1, #0xffff000a            	// #-65526
    2b54:	6b01001f 	cmp	w0, w1
    2b58:	54000040 	b.eq	2b60 <TEE_AllocateTransientObject+0x44>  // b.none
/home/thesis/Desktop/optee_rpi3bplus/optee_os/lib/libutee/tee_api_objects.c:211
    2b5c:	94000b81 	bl	5960 <TEE_Panic>
/home/thesis/Desktop/optee_rpi3bplus/optee_os/lib/libutee/tee_api_objects.c:217
    2b60:	2a1303e0 	mov	w0, w19
    2b64:	a94153f3 	ldp	x19, x20, [sp, #16]
    2b68:	a8c37bfd 	ldp	x29, x30, [sp], #48
    2b6c:	d65f03c0 	ret
/home/thesis/Desktop/optee_rpi3bplus/optee_os/lib/libutee/tee_api_objects.c:213
    2b70:	35ffff80 	cbnz	w0, 2b60 <TEE_AllocateTransientObject+0x44>
/home/thesis/Desktop/optee_rpi3bplus/optee_os/lib/libutee/tee_api_objects.c:214
    2b74:	b9402fe0 	ldr	w0, [sp, #44]
    2b78:	f9000280 	str	x0, [x20]
/home/thesis/Desktop/optee_rpi3bplus/optee_os/lib/libutee/tee_api_objects.c:216
    2b7c:	17fffff9 	b	2b60 <TEE_AllocateTransientObject+0x44>

0000000000002b80 <TEE_FreeTransientObject>:
TEE_FreeTransientObject():
/home/thesis/Desktop/optee_rpi3bplus/optee_os/lib/libutee/tee_api_objects.c:224
    2b80:	b4000280 	cbz	x0, 2bd0 <TEE_FreeTransientObject+0x50>
/home/thesis/Desktop/optee_rpi3bplus/optee_os/lib/libutee/tee_api_objects.c:220
    2b84:	a9bc7bfd 	stp	x29, x30, [sp, #-64]!
    2b88:	910003fd 	mov	x29, sp
/home/thesis/Desktop/optee_rpi3bplus/optee_os/lib/libutee/tee_api_objects.c:227
    2b8c:	910083e1 	add	x1, sp, #0x20
/home/thesis/Desktop/optee_rpi3bplus/optee_os/lib/libutee/tee_api_objects.c:220
    2b90:	f9000bf3 	str	x19, [sp, #16]
    2b94:	aa0003f3 	mov	x19, x0
/home/thesis/Desktop/optee_rpi3bplus/optee_os/lib/libutee/tee_api_objects.c:227
    2b98:	940012c3 	bl	76a4 <utee_cryp_obj_get_info>
/home/thesis/Desktop/optee_rpi3bplus/optee_os/lib/libutee/tee_api_objects.c:228
    2b9c:	34000040 	cbz	w0, 2ba4 <TEE_FreeTransientObject+0x24>
/home/thesis/Desktop/optee_rpi3bplus/optee_os/lib/libutee/tee_api_objects.c:229
    2ba0:	94000b70 	bl	5960 <TEE_Panic>
/home/thesis/Desktop/optee_rpi3bplus/optee_os/lib/libutee/tee_api_objects.c:231
    2ba4:	b9403be0 	ldr	w0, [sp, #56]
    2ba8:	36800060 	tbz	w0, #16, 2bb4 <TEE_FreeTransientObject+0x34>
/home/thesis/Desktop/optee_rpi3bplus/optee_os/lib/libutee/tee_api_objects.c:232
    2bac:	52800000 	mov	w0, #0x0                   	// #0
    2bb0:	94000b6c 	bl	5960 <TEE_Panic>
/home/thesis/Desktop/optee_rpi3bplus/optee_os/lib/libutee/tee_api_objects.c:234
    2bb4:	aa1303e0 	mov	x0, x19
    2bb8:	940012c7 	bl	76d4 <utee_cryp_obj_close>
/home/thesis/Desktop/optee_rpi3bplus/optee_os/lib/libutee/tee_api_objects.c:235
    2bbc:	34000040 	cbz	w0, 2bc4 <TEE_FreeTransientObject+0x44>
/home/thesis/Desktop/optee_rpi3bplus/optee_os/lib/libutee/tee_api_objects.c:236
    2bc0:	94000b68 	bl	5960 <TEE_Panic>
/home/thesis/Desktop/optee_rpi3bplus/optee_os/lib/libutee/tee_api_objects.c:237
    2bc4:	f9400bf3 	ldr	x19, [sp, #16]
    2bc8:	a8c47bfd 	ldp	x29, x30, [sp], #64
    2bcc:	d65f03c0 	ret
    2bd0:	d65f03c0 	ret

0000000000002bd4 <TEE_ResetTransientObject>:
TEE_ResetTransientObject():
/home/thesis/Desktop/optee_rpi3bplus/optee_os/lib/libutee/tee_api_objects.c:244
    2bd4:	b4000280 	cbz	x0, 2c24 <TEE_ResetTransientObject+0x50>
/home/thesis/Desktop/optee_rpi3bplus/optee_os/lib/libutee/tee_api_objects.c:240
    2bd8:	a9bc7bfd 	stp	x29, x30, [sp, #-64]!
    2bdc:	910003fd 	mov	x29, sp
/home/thesis/Desktop/optee_rpi3bplus/optee_os/lib/libutee/tee_api_objects.c:247
    2be0:	910083e1 	add	x1, sp, #0x20
/home/thesis/Desktop/optee_rpi3bplus/optee_os/lib/libutee/tee_api_objects.c:240
    2be4:	f9000bf3 	str	x19, [sp, #16]
    2be8:	aa0003f3 	mov	x19, x0
/home/thesis/Desktop/optee_rpi3bplus/optee_os/lib/libutee/tee_api_objects.c:247
    2bec:	940012ae 	bl	76a4 <utee_cryp_obj_get_info>
/home/thesis/Desktop/optee_rpi3bplus/optee_os/lib/libutee/tee_api_objects.c:248
    2bf0:	34000040 	cbz	w0, 2bf8 <TEE_ResetTransientObject+0x24>
/home/thesis/Desktop/optee_rpi3bplus/optee_os/lib/libutee/tee_api_objects.c:249
    2bf4:	94000b5b 	bl	5960 <TEE_Panic>
/home/thesis/Desktop/optee_rpi3bplus/optee_os/lib/libutee/tee_api_objects.c:251
    2bf8:	b9403be0 	ldr	w0, [sp, #56]
    2bfc:	36800060 	tbz	w0, #16, 2c08 <TEE_ResetTransientObject+0x34>
/home/thesis/Desktop/optee_rpi3bplus/optee_os/lib/libutee/tee_api_objects.c:252
    2c00:	52800000 	mov	w0, #0x0                   	// #0
    2c04:	94000b57 	bl	5960 <TEE_Panic>
/home/thesis/Desktop/optee_rpi3bplus/optee_os/lib/libutee/tee_api_objects.c:254
    2c08:	aa1303e0 	mov	x0, x19
    2c0c:	940012b5 	bl	76e0 <utee_cryp_obj_reset>
/home/thesis/Desktop/optee_rpi3bplus/optee_os/lib/libutee/tee_api_objects.c:255
    2c10:	34000040 	cbz	w0, 2c18 <TEE_ResetTransientObject+0x44>
/home/thesis/Desktop/optee_rpi3bplus/optee_os/lib/libutee/tee_api_objects.c:256
    2c14:	94000b53 	bl	5960 <TEE_Panic>
/home/thesis/Desktop/optee_rpi3bplus/optee_os/lib/libutee/tee_api_objects.c:257
    2c18:	f9400bf3 	ldr	x19, [sp, #16]
    2c1c:	a8c47bfd 	ldp	x29, x30, [sp], #64
    2c20:	d65f03c0 	ret
    2c24:	d65f03c0 	ret

0000000000002c28 <TEE_PopulateTransientObject>:
TEE_PopulateTransientObject():
/home/thesis/Desktop/optee_rpi3bplus/optee_os/lib/libutee/tee_api_objects.c:262
    2c28:	a9ba7bfd 	stp	x29, x30, [sp, #-96]!
    2c2c:	910003fd 	mov	x29, sp
    2c30:	a9025bf5 	stp	x21, x22, [sp, #32]
    2c34:	2a0203f6 	mov	w22, w2
    2c38:	aa0003f5 	mov	x21, x0
    2c3c:	f9001bf7 	str	x23, [sp, #48]
    2c40:	aa0103f7 	mov	x23, x1
/home/thesis/Desktop/optee_rpi3bplus/optee_os/lib/libutee/tee_api_objects.c:265
    2c44:	52800301 	mov	w1, #0x18                  	// #24
/home/thesis/Desktop/optee_rpi3bplus/optee_os/lib/libutee/tee_api_objects.c:262
    2c48:	a90153f3 	stp	x19, x20, [sp, #16]
    2c4c:	aa1603f3 	mov	x19, x22
/home/thesis/Desktop/optee_rpi3bplus/optee_os/lib/libutee/tee_api_objects.c:265
    2c50:	9ba17ec1 	umull	x1, w22, w1
    2c54:	91003c21 	add	x1, x1, #0xf
    2c58:	927c8421 	and	x1, x1, #0x3ffffffff0
    2c5c:	cb2163ff 	sub	sp, sp, x1
/home/thesis/Desktop/optee_rpi3bplus/optee_os/lib/libutee/tee_api_objects.c:267
    2c60:	910103a1 	add	x1, x29, #0x40
/home/thesis/Desktop/optee_rpi3bplus/optee_os/lib/libutee/tee_api_objects.c:265
    2c64:	910003f4 	mov	x20, sp
/home/thesis/Desktop/optee_rpi3bplus/optee_os/lib/libutee/tee_api_objects.c:267
    2c68:	9400128f 	bl	76a4 <utee_cryp_obj_get_info>
/home/thesis/Desktop/optee_rpi3bplus/optee_os/lib/libutee/tee_api_objects.c:268
    2c6c:	34000040 	cbz	w0, 2c74 <TEE_PopulateTransientObject+0x4c>
/home/thesis/Desktop/optee_rpi3bplus/optee_os/lib/libutee/tee_api_objects.c:269
    2c70:	94000b3c 	bl	5960 <TEE_Panic>
/home/thesis/Desktop/optee_rpi3bplus/optee_os/lib/libutee/tee_api_objects.c:272
    2c74:	b9405ba0 	ldr	w0, [x29, #88]
    2c78:	36800060 	tbz	w0, #16, 2c84 <TEE_PopulateTransientObject+0x5c>
/home/thesis/Desktop/optee_rpi3bplus/optee_os/lib/libutee/tee_api_objects.c:273
    2c7c:	52800000 	mov	w0, #0x0                   	// #0
    2c80:	94000b38 	bl	5960 <TEE_Panic>
/home/thesis/Desktop/optee_rpi3bplus/optee_os/lib/libutee/tee_api_objects.c:276
    2c84:	b9405ba0 	ldr	w0, [x29, #88]
    2c88:	36880060 	tbz	w0, #17, 2c94 <TEE_PopulateTransientObject+0x6c>
/home/thesis/Desktop/optee_rpi3bplus/optee_os/lib/libutee/tee_api_objects.c:277
    2c8c:	52800000 	mov	w0, #0x0                   	// #0
    2c90:	94000b34 	bl	5960 <TEE_Panic>
/home/thesis/Desktop/optee_rpi3bplus/optee_os/lib/libutee/tee_api_objects.c:279
    2c94:	2a1303e2 	mov	w2, w19
    2c98:	aa1703e1 	mov	x1, x23
    2c9c:	aa1403e0 	mov	x0, x20
    2ca0:	97fffeda 	bl	2808 <__utee_from_attr>
/home/thesis/Desktop/optee_rpi3bplus/optee_os/lib/libutee/tee_api_objects.c:280
    2ca4:	aa1403e1 	mov	x1, x20
    2ca8:	aa1603e2 	mov	x2, x22
    2cac:	aa1503e0 	mov	x0, x21
    2cb0:	9400128f 	bl	76ec <utee_cryp_obj_populate>
/home/thesis/Desktop/optee_rpi3bplus/optee_os/lib/libutee/tee_api_objects.c:281
    2cb4:	7100001f 	cmp	w0, #0x0
    2cb8:	129fff21 	mov	w1, #0xffff0006            	// #-65530
/home/thesis/Desktop/optee_rpi3bplus/optee_os/lib/libutee/tee_api_objects.c:280
    2cbc:	2a0003f3 	mov	w19, w0
/home/thesis/Desktop/optee_rpi3bplus/optee_os/lib/libutee/tee_api_objects.c:281
    2cc0:	7a411004 	ccmp	w0, w1, #0x4, ne  // ne = any
    2cc4:	54000040 	b.eq	2ccc <TEE_PopulateTransientObject+0xa4>  // b.none
/home/thesis/Desktop/optee_rpi3bplus/optee_os/lib/libutee/tee_api_objects.c:282
    2cc8:	94000b26 	bl	5960 <TEE_Panic>
/home/thesis/Desktop/optee_rpi3bplus/optee_os/lib/libutee/tee_api_objects.c:284
    2ccc:	910003bf 	mov	sp, x29
    2cd0:	2a1303e0 	mov	w0, w19
    2cd4:	a94153f3 	ldp	x19, x20, [sp, #16]
    2cd8:	a9425bf5 	ldp	x21, x22, [sp, #32]
    2cdc:	f9401bf7 	ldr	x23, [sp, #48]
    2ce0:	a8c67bfd 	ldp	x29, x30, [sp], #96
    2ce4:	d65f03c0 	ret

0000000000002ce8 <TEE_InitRefAttribute>:
TEE_InitRefAttribute():
/home/thesis/Desktop/optee_rpi3bplus/optee_os/lib/libutee/tee_api_objects.c:288
    2ce8:	a9bd7bfd 	stp	x29, x30, [sp, #-48]!
    2cec:	910003fd 	mov	x29, sp
    2cf0:	a90153f3 	stp	x19, x20, [sp, #16]
    2cf4:	aa0003f3 	mov	x19, x0
    2cf8:	2a0103f4 	mov	w20, w1
    2cfc:	a9025bf5 	stp	x21, x22, [sp, #32]
    2d00:	aa0203f6 	mov	x22, x2
    2d04:	2a0303f5 	mov	w21, w3
/home/thesis/Desktop/optee_rpi3bplus/optee_os/lib/libutee/tee_api_objects.c:289
    2d08:	b5000060 	cbnz	x0, 2d14 <TEE_InitRefAttribute+0x2c>
/home/thesis/Desktop/optee_rpi3bplus/optee_os/lib/libutee/tee_api_objects.c:290
    2d0c:	52800000 	mov	w0, #0x0                   	// #0
    2d10:	94000b14 	bl	5960 <TEE_Panic>
/home/thesis/Desktop/optee_rpi3bplus/optee_os/lib/libutee/tee_api_objects.c:291
    2d14:	36e80074 	tbz	w20, #29, 2d20 <TEE_InitRefAttribute+0x38>
/home/thesis/Desktop/optee_rpi3bplus/optee_os/lib/libutee/tee_api_objects.c:292
    2d18:	52800000 	mov	w0, #0x0                   	// #0
    2d1c:	94000b11 	bl	5960 <TEE_Panic>
/home/thesis/Desktop/optee_rpi3bplus/optee_os/lib/libutee/tee_api_objects.c:293
    2d20:	b9000274 	str	w20, [x19]
/home/thesis/Desktop/optee_rpi3bplus/optee_os/lib/libutee/tee_api_objects.c:294
    2d24:	f9000676 	str	x22, [x19, #8]
/home/thesis/Desktop/optee_rpi3bplus/optee_os/lib/libutee/tee_api_objects.c:295
    2d28:	b9001275 	str	w21, [x19, #16]
/home/thesis/Desktop/optee_rpi3bplus/optee_os/lib/libutee/tee_api_objects.c:296
    2d2c:	a94153f3 	ldp	x19, x20, [sp, #16]
    2d30:	a9425bf5 	ldp	x21, x22, [sp, #32]
    2d34:	a8c37bfd 	ldp	x29, x30, [sp], #48
    2d38:	d65f03c0 	ret

0000000000002d3c <TEE_InitValueAttribute>:
TEE_InitValueAttribute():
/home/thesis/Desktop/optee_rpi3bplus/optee_os/lib/libutee/tee_api_objects.c:300
    2d3c:	a9bd7bfd 	stp	x29, x30, [sp, #-48]!
    2d40:	910003fd 	mov	x29, sp
    2d44:	a90153f3 	stp	x19, x20, [sp, #16]
    2d48:	aa0003f3 	mov	x19, x0
    2d4c:	2a0103f4 	mov	w20, w1
    2d50:	a9025bf5 	stp	x21, x22, [sp, #32]
    2d54:	2a0203f6 	mov	w22, w2
    2d58:	2a0303f5 	mov	w21, w3
/home/thesis/Desktop/optee_rpi3bplus/optee_os/lib/libutee/tee_api_objects.c:301
    2d5c:	b5000060 	cbnz	x0, 2d68 <TEE_InitValueAttribute+0x2c>
/home/thesis/Desktop/optee_rpi3bplus/optee_os/lib/libutee/tee_api_objects.c:302
    2d60:	52800000 	mov	w0, #0x0                   	// #0
    2d64:	94000aff 	bl	5960 <TEE_Panic>
/home/thesis/Desktop/optee_rpi3bplus/optee_os/lib/libutee/tee_api_objects.c:303
    2d68:	37e80074 	tbnz	w20, #29, 2d74 <TEE_InitValueAttribute+0x38>
/home/thesis/Desktop/optee_rpi3bplus/optee_os/lib/libutee/tee_api_objects.c:304
    2d6c:	52800000 	mov	w0, #0x0                   	// #0
    2d70:	94000afc 	bl	5960 <TEE_Panic>
/home/thesis/Desktop/optee_rpi3bplus/optee_os/lib/libutee/tee_api_objects.c:305
    2d74:	b9000274 	str	w20, [x19]
/home/thesis/Desktop/optee_rpi3bplus/optee_os/lib/libutee/tee_api_objects.c:307
    2d78:	29015676 	stp	w22, w21, [x19, #8]
/home/thesis/Desktop/optee_rpi3bplus/optee_os/lib/libutee/tee_api_objects.c:308
    2d7c:	a94153f3 	ldp	x19, x20, [sp, #16]
    2d80:	a9425bf5 	ldp	x21, x22, [sp, #32]
    2d84:	a8c37bfd 	ldp	x29, x30, [sp], #48
    2d88:	d65f03c0 	ret

0000000000002d8c <TEE_CopyObjectAttributes1>:
TEE_CopyObjectAttributes1():
/home/thesis/Desktop/optee_rpi3bplus/optee_os/lib/libutee/tee_api_objects.c:333
    2d8c:	a9b97bfd 	stp	x29, x30, [sp, #-112]!
    2d90:	910003fd 	mov	x29, sp
    2d94:	a90153f3 	stp	x19, x20, [sp, #16]
    2d98:	aa0103f4 	mov	x20, x1
/home/thesis/Desktop/optee_rpi3bplus/optee_os/lib/libutee/tee_api_objects.c:338
    2d9c:	9100c3e1 	add	x1, sp, #0x30
/home/thesis/Desktop/optee_rpi3bplus/optee_os/lib/libutee/tee_api_objects.c:333
    2da0:	f90013f5 	str	x21, [sp, #32]
    2da4:	aa0003f5 	mov	x21, x0
/home/thesis/Desktop/optee_rpi3bplus/optee_os/lib/libutee/tee_api_objects.c:338
    2da8:	9400123f 	bl	76a4 <utee_cryp_obj_get_info>
    2dac:	2a0003f3 	mov	w19, w0
/home/thesis/Desktop/optee_rpi3bplus/optee_os/lib/libutee/tee_api_objects.c:339
    2db0:	350002a0 	cbnz	w0, 2e04 <TEE_CopyObjectAttributes1+0x78>
/home/thesis/Desktop/optee_rpi3bplus/optee_os/lib/libutee/tee_api_objects.c:342
    2db4:	910143e1 	add	x1, sp, #0x50
    2db8:	aa1403e0 	mov	x0, x20
    2dbc:	9400123a 	bl	76a4 <utee_cryp_obj_get_info>
    2dc0:	2a0003f3 	mov	w19, w0
/home/thesis/Desktop/optee_rpi3bplus/optee_os/lib/libutee/tee_api_objects.c:343
    2dc4:	35000200 	cbnz	w0, 2e04 <TEE_CopyObjectAttributes1+0x78>
/home/thesis/Desktop/optee_rpi3bplus/optee_os/lib/libutee/tee_api_objects.c:346
    2dc8:	b9406be1 	ldr	w1, [sp, #104]
    2dcc:	37880041 	tbnz	w1, #17, 2dd4 <TEE_CopyObjectAttributes1+0x48>
/home/thesis/Desktop/optee_rpi3bplus/optee_os/lib/libutee/tee_api_objects.c:347
    2dd0:	94000ae4 	bl	5960 <TEE_Panic>
/home/thesis/Desktop/optee_rpi3bplus/optee_os/lib/libutee/tee_api_objects.c:349
    2dd4:	b9404be0 	ldr	w0, [sp, #72]
    2dd8:	36800060 	tbz	w0, #16, 2de4 <TEE_CopyObjectAttributes1+0x58>
/home/thesis/Desktop/optee_rpi3bplus/optee_os/lib/libutee/tee_api_objects.c:350
    2ddc:	52800000 	mov	w0, #0x0                   	// #0
    2de0:	94000ae0 	bl	5960 <TEE_Panic>
