
a404e568-54cc-4c6f-a6f0-60299611e30d.elf:     file format elf64-littleaarch64
a404e568-54cc-4c6f-a6f0-60299611e30d.elf
architecture: aarch64, flags 0x00000150:
HAS_SYMS, DYNAMIC, D_PAGED
start address 0x000000000000064c

Program Header:
    LOAD off    0x0000000000001000 vaddr 0x0000000000000000 paddr 0x0000000000000000 align 2**12
         filesz 0x000000000000e268 memsz 0x000000000000e268 flags r-x
    LOAD off    0x0000000000010000 vaddr 0x000000000000f000 paddr 0x000000000000f000 align 2**12
         filesz 0x0000000000000414 memsz 0x000000000000b4a0 flags rw-
 DYNAMIC off    0x00000000000101c0 vaddr 0x000000000000f1c0 paddr 0x000000000000f1c0 align 2**3
         filesz 0x0000000000000110 memsz 0x0000000000000110 flags rw-
   STACK off    0x0000000000000000 vaddr 0x0000000000000000 paddr 0x0000000000000000 align 2**4
         filesz 0x0000000000000000 memsz 0x0000000000000000 flags rw-

Dynamic Section:
  HASH                 0x000000000000e0a0
  GNU_HASH             0x000000000000e030
  STRTAB               0x000000000000e098
  SYMTAB               0x000000000000e050
  STRSZ                0x0000000000000001
  SYMENT               0x0000000000000018
  DEBUG                0x0000000000000000
  RELA                 0x000000000000e0b8
  RELASZ               0x00000000000002e8
  RELAENT              0x0000000000000018
  FLAGS_1              0x0000000008000000
  RELACOUNT            0x0000000000000012
private flags = 0:

Sections:
Idx Name          Size      VMA               LMA               File off  Algn
  0 .ta_head      00000020  0000000000000000  0000000000000000  00001000  2**3
                  CONTENTS, ALLOC, LOAD, READONLY, DATA
  1 .text         0000a3ec  0000000000000020  0000000000000020  00001020  2**2
                  CONTENTS, ALLOC, LOAD, READONLY, CODE
  2 .eh_frame     00002304  000000000000a410  000000000000a410  0000b410  2**3
                  CONTENTS, ALLOC, LOAD, READONLY, DATA
  3 .rodata       00001911  000000000000c718  000000000000c718  0000d718  2**3
                  CONTENTS, ALLOC, LOAD, READONLY, DATA
  4 .gnu.hash     0000001c  000000000000e030  000000000000e030  0000f030  2**3
                  CONTENTS, ALLOC, LOAD, READONLY, DATA
  5 .dynsym       00000048  000000000000e050  000000000000e050  0000f050  2**3
                  CONTENTS, ALLOC, LOAD, READONLY, DATA
  6 .dynstr       00000001  000000000000e098  000000000000e098  0000f098  2**0
                  CONTENTS, ALLOC, LOAD, READONLY, DATA
  7 .hash         00000018  000000000000e0a0  000000000000e0a0  0000f0a0  2**3
                  CONTENTS, ALLOC, LOAD, READONLY, DATA
  8 .rela.dyn     000001b0  000000000000e0b8  000000000000e0b8  0000f0b8  2**3
                  CONTENTS, ALLOC, LOAD, READONLY, DATA
  9 .got          00000088  000000000000f000  000000000000f000  00010000  2**3
                  CONTENTS, ALLOC, LOAD, DATA
 10 .rela.got     00000138  000000000000f088  000000000000f088  00010088  2**3
                  CONTENTS, ALLOC, LOAD, READONLY, DATA
 11 .dynamic      00000110  000000000000f1c0  000000000000f1c0  000101c0  2**3
                  CONTENTS, ALLOC, LOAD, DATA
 12 .data         00000144  000000000000f2d0  000000000000f2d0  000102d0  2**3
                  CONTENTS, ALLOC, LOAD, DATA
 13 .bss          0000b088  000000000000f418  000000000000f418  00010414  2**3
                  ALLOC
 14 .debug_info   00013574  0000000000000000  0000000000000000  00010414  2**0
                  CONTENTS, READONLY, DEBUGGING
 15 .debug_abbrev 00002ff1  0000000000000000  0000000000000000  00023988  2**0
                  CONTENTS, READONLY, DEBUGGING
 16 .debug_loc    0001b174  0000000000000000  0000000000000000  00026979  2**0
                  CONTENTS, READONLY, DEBUGGING
 17 .debug_aranges 00000860  0000000000000000  0000000000000000  00041af0  2**4
                  CONTENTS, READONLY, DEBUGGING
 18 .debug_ranges 00001970  0000000000000000  0000000000000000  00042350  2**4
                  CONTENTS, READONLY, DEBUGGING
 19 .debug_macro  00011e9f  0000000000000000  0000000000000000  00043cc0  2**0
                  CONTENTS, READONLY, DEBUGGING
 20 .debug_line   0000a90e  0000000000000000  0000000000000000  00055b5f  2**0
                  CONTENTS, READONLY, DEBUGGING
 21 .debug_str    00011e54  0000000000000000  0000000000000000  0006046d  2**0
                  CONTENTS, READONLY, DEBUGGING
 22 .comment      00000055  0000000000000000  0000000000000000  000722c1  2**0
                  CONTENTS, READONLY
SYMBOL TABLE:
0000000000000000 l    d  .ta_head	0000000000000000 .ta_head
0000000000000020 l    d  .text	0000000000000000 .text
000000000000a410 l    d  .eh_frame	0000000000000000 .eh_frame
000000000000c718 l    d  .rodata	0000000000000000 .rodata
000000000000e030 l    d  .gnu.hash	0000000000000000 .gnu.hash
000000000000e050 l    d  .dynsym	0000000000000000 .dynsym
000000000000e098 l    d  .dynstr	0000000000000000 .dynstr
000000000000e0a0 l    d  .hash	0000000000000000 .hash
000000000000e0b8 l    d  .rela.dyn	0000000000000000 .rela.dyn
000000000000f000 l    d  .got	0000000000000000 .got
000000000000f088 l    d  .rela.got	0000000000000000 .rela.got
000000000000f1c0 l    d  .dynamic	0000000000000000 .dynamic
000000000000f2d0 l    d  .data	0000000000000000 .data
000000000000f418 l    d  .bss	0000000000000000 .bss
0000000000000000 l    d  .debug_info	0000000000000000 .debug_info
0000000000000000 l    d  .debug_abbrev	0000000000000000 .debug_abbrev
0000000000000000 l    d  .debug_loc	0000000000000000 .debug_loc
0000000000000000 l    d  .debug_aranges	0000000000000000 .debug_aranges
0000000000000000 l    d  .debug_ranges	0000000000000000 .debug_ranges
0000000000000000 l    d  .debug_macro	0000000000000000 .debug_macro
0000000000000000 l    d  .debug_line	0000000000000000 .debug_line
0000000000000000 l    d  .debug_str	0000000000000000 .debug_str
0000000000000000 l    d  .comment	0000000000000000 .comment
0000000000000000 l    df *ABS*	0000000000000000 user_ta_header.c
000000000000c720 l     O .rodata	0000000000000004 __compound_literal.4
000000000000c724 l     O .rodata	0000000000000004 __compound_literal.3
000000000000c728 l     O .rodata	0000000000000001 __compound_literal.2
000000000000c729 l     O .rodata	0000000000000001 __compound_literal.1
000000000000c72a l     O .rodata	0000000000000001 __compound_literal.0
0000000000000000 l    df *ABS*	0000000000000000 trusted_data_store.c
0000000000000000 l    df *ABS*	0000000000000000 tds_storage.c
0000000000000208 l     F .text	000000000000006c read_string
0000000000000000 l    df *ABS*	0000000000000000 bget_malloc.c
0000000000000668 l     F .text	0000000000000044 raw_malloc_return_hook.constprop.21
000000000000d590 l     O .rodata	0000000000000005 __func__.3627
000000000000d595 l     O .rodata	0000000000000006 __func__.3642
000000000000d59b l     O .rodata	0000000000000005 __func__.3660
000000000000d5a0 l     O .rodata	0000000000000006 __func__.3651
000000000000d5a6 l     O .rodata	0000000000000006 __func__.3669
000000000000d5ac l     O .rodata	0000000000000007 __func__.3679
000000000000d5b3 l     O .rodata	0000000000000014 __func__.3843
000000000000d5c7 l     O .rodata	000000000000000e __func__.3794
000000000000d5d5 l     O .rodata	0000000000000013 __func__.3741
000000000000f378 l     O .data	0000000000000080 malloc_ctx
0000000000000000 l    df *ABS*	0000000000000000 memcpy.c
0000000000000000 l    df *ABS*	0000000000000000 memset.c
0000000000000000 l    df *ABS*	0000000000000000 strlen.c
0000000000000000 l    df *ABS*	0000000000000000 assert.c
0000000000000000 l    df *ABS*	0000000000000000 tee_api_objects.c
0000000000000000 l    df *ABS*	0000000000000000 tee_api_panic.c
0000000000000000 l    df *ABS*	0000000000000000 user_ta_entry.c
0000000000002034 l     F .text	0000000000000028 ta_header_get_session
000000000000205c l     F .text	0000000000000094 ta_header_remove_session
00000000000020f0 l     F .text	0000000000000014 ta_header_save_params.part.0
000000000001a498 l     O .bss	0000000000000001 init_done
000000000000f3f8 l     O .data	0000000000000010 ta_sessions
0000000000000000 l    df *ABS*	0000000000000000 utee_syscalls_a64.o
0000000000000000 l    df *ABS*	0000000000000000 tee_api.c
000000000000f468 l     O .bss	0000000000000008 tee_api_instance_data
000000000000d1e7 l     O .rodata	000000000000000b __func__.4664
0000000000000000 l    df *ABS*	0000000000000000 tee_api_arith_mpi.c
0000000000002a8c l     F .text	0000000000000030 api_panic
0000000000002abc l     F .text	0000000000000030 mpi_panic
0000000000002aec l     F .text	0000000000000098 get_mpi
0000000000002b84 l     F .text	0000000000000064 copy_mpi_to_bigint
0000000000002be8 l     F .text	0000000000000118 bigint_binary
0000000000002d00 l     F .text	0000000000000020 mpi_is_odd
0000000000002d20 l     F .text	0000000000000028 rng_read
0000000000002d48 l     F .text	000000000000054c mpi_egcd
000000000000f470 l     O .bss	0000000000003000 data.4653
0000000000003630 l     F .text	0000000000000194 bigint_binary_mod
000000000000d8c4 l     O .rodata	0000000000000008 __func__.4687
000000000000d8cc l     O .rodata	000000000000000e __func__.4784
000000000000d8da l     O .rodata	0000000000000009 __func__.4930
000000000000d8e3 l     O .rodata	0000000000000012 __func__.4654
000000000000d8f5 l     O .rodata	000000000000000f __func__.4693
000000000000d904 l     O .rodata	000000000000001f __func__.4711
000000000000d923 l     O .rodata	0000000000000019 __func__.4718
000000000000d93c l     O .rodata	0000000000000012 __func__.4796
000000000000d94e l     O .rodata	0000000000000015 __func__.4749
000000000000d963 l     O .rodata	000000000000000e __func__.4824
000000000000d971 l     O .rodata	000000000000000e __func__.4853
000000000000d97f l     O .rodata	000000000000000e __func__.4861
000000000000d98d l     O .rodata	0000000000000011 __func__.4890
000000000000d99e l     O .rodata	0000000000000018 __func__.4907
000000000000d9b6 l     O .rodata	000000000000001d __func__.4987
000000000000d9d3 l     O .rodata	0000000000000019 __func__.5040
000000000000d9ec l     O .rodata	0000000000000015 __func__.5055
0000000000000000 l    df *ABS*	0000000000000000 trace_ext.c
0000000000000000 l    df *ABS*	0000000000000000 bignum.c
0000000000004544 l     F .text	0000000000000064 mpi_get_digit
00000000000045a8 l     F .text	0000000000000060 mpi_sub_hlp
0000000000004608 l     F .text	00000000000004d4 mpi_mul_hlp
00000000000064f0 l     F .text	00000000000000d4 mpi_write_hlp
0000000000006798 l     F .text	0000000000000098 mpi_check_small_factors
00000000000072ac l     F .text	0000000000000288 mpi_miller_rabin
000000000000d1f4 l     O .rodata	00000000000002a0 small_prime
000000000000d494 l     O .rodata	0000000000000024 gcd_pairs
0000000000000000 l    df *ABS*	0000000000000000 platform_util.c
000000000000f408 l     O .data	0000000000000008 memset_func
0000000000000000 l    df *ABS*	0000000000000000 entry.c
0000000000000000 l    df *ABS*	0000000000000000 hashtable.c
000000000000c740 l     O .rodata	0000000000000548 primes
0000000000012478 l     O .bss	0000000000000010 DELETED
00000000000081c4 l     F .text	000000000000008c basic_hash
0000000000008250 l     F .text	0000000000000048 hashtable_hash
0000000000008478 l     F .text	00000000000000f0 hashtable_resize
0000000000008568 l     F .text	0000000000000034 hashtable_resize_up
000000000000859c l     F .text	0000000000000038 hashtable_resize_down
00000000000086ec l     F .text	00000000000000e0 hashtable_get_entry_index
0000000000000000 l    df *ABS*	0000000000000000 hashtable_iterator.c
0000000000012488 l     O .bss	0000000000000010 DELETED
00000000000089ac l     F .text	0000000000000044 is_valid_entry
00000000000089f0 l     F .text	0000000000000094 find_next
0000000000000000 l    df *ABS*	0000000000000000 prime.c
000000000000cc88 l     O .rodata	0000000000000548 primes
0000000000000000 l    df *ABS*	0000000000000000 data_store.c
0000000000008f04 l     F .text	0000000000000064 delete_set
0000000000000000 l    df *ABS*	0000000000000000 data.c
0000000000000000 l    df *ABS*	0000000000000000 snprintf.c
0000000000000000 l    df *ABS*	0000000000000000 strdup.c
0000000000000000 l    df *ABS*	0000000000000000 memmove.c
0000000000000000 l    df *ABS*	0000000000000000 strcmp.c
0000000000000000 l    df *ABS*	0000000000000000 snprintk.c
000000000000df15 l     O .rodata	0000000000000011 hexdigits
000000000000df26 l     O .rodata	0000000000000011 HEXDIGITS
0000000000000000 l    df *ABS*	0000000000000000 trace.c
000000000000df6f l     O .rodata	0000000000000005 lvl_strs.3485
0000000000000000 l    df *ABS*	0000000000000000 mempool.c
000000000000df8e l     O .rodata	0000000000000013 __func__.3538
000000000000dfa1 l     O .rodata	000000000000000e __func__.3547
0000000000000000 l    df *ABS*	0000000000000000 consttime_memcmp.c
0000000000000000 l    df *ABS*	0000000000000000 memchr.c
0000000000000000 l    df *ABS*	0000000000000000 
000000000000f1c0 l     O *ABS*	0000000000000000 _DYNAMIC
000000000000f018 l     O *ABS*	0000000000000000 _GLOBAL_OFFSET_TABLE_
0000000000004508 g     F .text	000000000000003c putchar
0000000000008e68 g     F .text	000000000000009c data_store_delete_field
0000000000001748 g     F .text	00000000000000c0 TEE_PopulateTransientObject
0000000000008c34 g     F .text	0000000000000018 create_data_store
0000000000004218 g     F .text	0000000000000004 TEE_BigIntConvertToFMM
0000000000003d74 g     F .text	000000000000000c TEE_BigIntSquareMod
00000000000037c4 g     F .text	000000000000016c TEE_BigIntShiftRight
0000000000002504 g     F .text	000000000000000c utee_storage_obj_create
0000000000004b80 g     F .text	00000000000000f8 mbedtls_mpi_grow
000000000000230c g     F .text	000000000000000c utee_return
0000000000002a68 g     F .text	0000000000000008 TEE_Realloc
0000000000004400 g     F .text	00000000000000c8 printf
0000000000002318 g     F .text	000000000000000c utee_log
0000000000001808 g     F .text	0000000000000054 TEE_InitRefAttribute
0000000000002748 g     F .text	00000000000000b8 TEE_InvokeTACommand
0000000000004aec g     F .text	0000000000000028 mbedtls_mpi_init_mempool
00000000000052f4 g     F .text	00000000000000c4 mbedtls_mpi_write_binary
0000000000009e98 g     F .text	0000000000000054 vsnprintk
0000000000005a88 g     F .text	0000000000000040 mbedtls_mpi_sub_int
00000000000091e4 g     F .text	000000000000005c memmove
00000000000090d4 g     F .text	0000000000000078 snprintf
00000000000035e8 g     F .text	0000000000000048 TEE_BigIntCmpS32
0000000000008f68 g     F .text	000000000000006c data_store_delete_key
000000000000185c g     F .text	0000000000000050 TEE_InitValueAttribute
0000000000004c78 g     F .text	0000000000000120 mbedtls_mpi_shrink
00000000000039bc g     F .text	000000000000000c TEE_BigIntAdd
000000000000233c g     F .text	000000000000000c utee_get_property_name_to_index
000000000000c730 g     O .rodata	0000000000000008 ta_heap_size
00000000000016f4 g     F .text	0000000000000054 TEE_ResetTransientObject
00000000000023c0 g     F .text	000000000000000c utee_cryp_state_alloc
00000000000024c8 g     F .text	000000000000000c utee_authenc_enc_final
0000000000005c4c g     F .text	00000000000001e4 mbedtls_mpi_read_string
0000000000008d70 g     F .text	00000000000000f8 data_store_insert
00000000000039d4 g     F .text	00000000000000b0 TEE_BigIntNeg
0000000000000020 g       .text	0000000000000000 __text_start
0000000000001d50 g     F .text	0000000000000050 TEE_StartPersistentObjectEnumerator
00000000000054b8 g     F .text	00000000000000c8 mbedtls_mpi_shift_r
000000000000120c g     F .text	000000000000006c malloc_buffer_overlaps_heap
0000000000003d5c g     F .text	000000000000000c TEE_BigIntSubMod
0000000000007a24 g     F .text	000000000000030c mbedtls_mpi_gen_prime
00000000000050b8 g     F .text	000000000000002c mbedtls_mpi_get_bit
000000000000523c g     F .text	00000000000000b8 mbedtls_mpi_read_binary
0000000000009f8c g     F .text	0000000000000238 trace_printf
000000000000686c g     F .text	0000000000000134 mbedtls_mpi_montmul
0000000000001278 g     F .text	0000000000000020 memcpy
00000000000023d8 g     F .text	000000000000000c utee_cryp_state_free
000000000000421c g     F .text	000000000000009c TEE_BigIntConvertFromFMM
000000000000202c g     F .text	0000000000000008 TEE_Panic
00000000000044c8 g     F .text	0000000000000040 puts
00000000000042b8 g     F .text	0000000000000118 TEE_BigIntComputeFMM
0000000000000e04 g     F .text	0000000000000038 malloc_get_stats
0000000000002420 g     F .text	000000000000000c utee_cipher_final
00000000000029e4 g     F .text	0000000000000028 TEE_GetREETime
0000000000001ca0 g     F .text	0000000000000060 TEE_AllocatePersistentObjectEnumerator
000000000000f418 g     O .bss	0000000000000008 store
000000000000f2d0 g     O .data	00000000000000a8 ta_props
0000000000000e3c g     F .text	0000000000000050 malloc
000000000000245c g     F .text	000000000000000c utee_cryp_obj_close
0000000000008ce4 g     F .text	0000000000000054 data_store_get
000000000000914c g     F .text	0000000000000054 vsnprintf
00000000000019ac g     F .text	0000000000000088 TEE_GenerateKey
000000000000f410 g     O .data	0000000000000004 trace_level
0000000000003580 g     F .text	0000000000000068 TEE_BigIntCmp
000000000000c718 g     O .rodata	0000000000000008 ta_num_props
0000000000000bb4 g     F .text	00000000000000cc bgetr
00000000000024bc g     F .text	000000000000000c utee_authenc_update_payload
000000000000a32c g     F .text	0000000000000044 mempool_free
00000000000033e0 g     F .text	0000000000000094 TEE_BigIntConvertToOctetString
00000000000025a0 g     F .text	000000000000000c utee_cache_operation
00000000000051c4 g     F .text	000000000000005c mbedtls_mpi_bitlen
00000000000024a4 g     F .text	000000000000000c utee_authenc_init
0000000000003930 g     F .text	000000000000004c TEE_BigIntGetBit
000000000000c738 g     O .rodata	0000000000000003 trace_ext_prefix
000000000000086c g     F .text	000000000000008c bgetz
00000000000028a4 g     F .text	000000000000000c TEE_GetInstanceData
0000000000008298 g     F .text	0000000000000084 new_hashtable
00000000000028f0 g     F .text	000000000000003c TEE_Wait
0000000000002570 g     F .text	000000000000000c utee_storage_obj_write
0000000000005ac8 g     F .text	0000000000000150 mbedtls_mpi_mul_mpi
0000000000008120 g     F .text	0000000000000078 create_entry
0000000000002a7c g     F .text	0000000000000008 TEE_CacheFlush
000000000000002c g     F .text	0000000000000018 TA_DestroyEntryPoint
0000000000004adc g     F .text	0000000000000010 mbedtls_mpi_init
00000000000083ac g     F .text	00000000000000cc hashtable_insert_new_entry
0000000000005170 g     F .text	0000000000000054 mbedtls_mpi_lsb
00000000000012d0 g     F .text	0000000000000044 _assert_log
0000000000004210 g     F .text	0000000000000008 TEE_BigIntFMMContextSizeInU32
0000000000001c2c g     F .text	0000000000000074 TEE_RenamePersistentObject
0000000000008198 g     F .text	000000000000002c delete_entry
0000000000003294 g     F .text	0000000000000050 _TEE_MathAPI_Init
0000000000005934 g     F .text	0000000000000088 mbedtls_mpi_add_mpi
0000000000002558 g     F .text	000000000000000c utee_storage_next_enum
0000000000008bcc g     F .text	0000000000000068 new_data_store
0000000000012498 g     O .bss	0000000000008000 ta_heap
0000000000003d80 g     F .text	000000000000011c TEE_BigIntInvMod
0000000000000054 g     F .text	0000000000000004 TA_CloseSessionEntryPoint
0000000000001a34 g     F .text	00000000000000c0 TEE_OpenPersistentObject
00000000000059bc g     F .text	000000000000008c mbedtls_mpi_sub_mpi
000000000000a370 g     F .text	0000000000000070 consttime_memcmp
0000000000002324 g     F .text	000000000000000c __utee_panic
00000000000023cc g     F .text	000000000000000c utee_cryp_state_copy
0000000000000058 g     F .text	00000000000001b0 TA_InvokeCommandEntryPoint
0000000000000f58 g     F .text	0000000000000018 free_wipe
000000000000a230 g     F .text	00000000000000ac mempool_alloc
0000000000002450 g     F .text	000000000000000c utee_cryp_obj_alloc
00000000000023b4 g     F .text	000000000000000c utee_set_ta_time
0000000000002444 g     F .text	000000000000000c utee_cryp_obj_get_attr
000000000000a2dc g     F .text	0000000000000050 mempool_calloc
0000000000001958 g     F .text	0000000000000054 TEE_CopyObjectAttributes
0000000000000e8c g     F .text	0000000000000064 calloc
0000000000002a0c g     F .text	000000000000005c TEE_Malloc
0000000000002390 g     F .text	000000000000000c utee_mask_cancellation
0000000000002468 g     F .text	000000000000000c utee_cryp_obj_reset
0000000000002884 g     F .text	0000000000000014 TEE_CheckMemoryAccessRights
000000000001a4a0 g       .bss	0000000000000000 __gprof_buf_end
0000000000005050 g     F .text	0000000000000068 mbedtls_mpi_lset
0000000000001e20 g     F .text	000000000000006c TEE_ReadObjectData
0000000000001494 g     F .text	00000000000000ac TEE_GetObjectBufferAttribute
0000000000000044 g     F .text	0000000000000010 TA_OpenSessionEntryPoint
000000000000254c g     F .text	000000000000000c utee_storage_start_enum
000000000000251c g     F .text	000000000000000c utee_storage_obj_rename
000000000000f420 g     O .bss	0000000000000004 ta_param_types
000000000000635c g     F .text	0000000000000040 mbedtls_mpi_div_int
0000000000001328 g     F .text	0000000000000050 __utee_from_attr
000000000000796c g     F .text	00000000000000a8 mbedtls_mpi_is_prime_ext
00000000000041a8 g     F .text	0000000000000050 TEE_BigIntIsProbablePrime
0000000000005c18 g     F .text	0000000000000034 mbedtls_mpi_mul_int
0000000000001bb8 g     F .text	0000000000000048 TEE_CloseAndDeletePersistentObject1
00000000000069e0 g     F .text	000000000000068c mbedtls_mpi_exp_mod
0000000000004eac g     F .text	00000000000000c0 mbedtls_mpi_safe_cond_assign
0000000000002330 g     F .text	000000000000000c utee_get_property
00000000000032e4 g     F .text	0000000000000070 TEE_BigIntInit
00000000000028b0 g     F .text	0000000000000008 TEE_MemMove
000000000000810c g     F .text	0000000000000014 mbedtls_platform_zeroize
0000000000003354 g     F .text	000000000000008c TEE_BigIntConvertFromOctetString
0000000000005580 g     F .text	000000000000009c mbedtls_mpi_cmp_abs
000000000000a3e0 g     F .text	000000000000002c memchr
000000000000282c g     F .text	000000000000002c TEE_UnmaskCancellation
0000000000001378 g     F .text	0000000000000048 TEE_GetObjectInfo
0000000000007d30 g     F .text	00000000000003dc mbedtls_mpi_self_test
0000000000002510 g     F .text	000000000000000c utee_storage_obj_del
0000000000002588 g     F .text	000000000000000c utee_storage_obj_seek
00000000000016a0 g     F .text	0000000000000054 TEE_FreeTransientObject
00000000000056f4 g     F .text	0000000000000040 mbedtls_mpi_cmp_int
00000000000023f0 g     F .text	000000000000000c utee_hash_update
0000000000003cec g     F .text	0000000000000064 TEE_BigIntMod
0000000000006450 g     F .text	00000000000000a0 mbedtls_mpi_mod_int
0000000000002354 g     F .text	000000000000000c utee_close_ta_session
0000000000003b74 g     F .text	0000000000000178 TEE_BigIntDiv
0000000000004d98 g     F .text	00000000000000b4 mbedtls_mpi_copy
0000000000000dec g     F .text	0000000000000018 malloc_reset_stats
0000000000008b68 g     F .text	0000000000000064 next_prime
0000000000002414 g     F .text	000000000000000c utee_cipher_update
0000000000001400 g     F .text	0000000000000044 TEE_RestrictObjectUsage1
0000000000000ef0 g     F .text	0000000000000050 realloc
0000000000004e4c g     F .text	0000000000000060 mbedtls_mpi_swap
0000000000008968 g     F .text	0000000000000044 hashtable_get
000000000000a1c8 g     F .text	0000000000000068 mempool_alloc_pool
00000000000024ec g     F .text	000000000000000c utee_asymm_verify
0000000000003a84 g     F .text	00000000000000e8 TEE_BigIntMul
00000000000053b8 g     F .text	0000000000000100 mbedtls_mpi_shift_l
000000000000561c g     F .text	00000000000000d8 mbedtls_mpi_cmp_mpi
00000000000028c0 g     F .text	0000000000000008 TEE_MemFill
0000000000000f70 g     F .text	000000000000011c malloc_add_pool
0000000000009f7c g     F .text	0000000000000010 trace_get_level
0000000000005734 g     F .text	000000000000012c mbedtls_mpi_add_abs
0000000000002498 g     F .text	000000000000000c utee_cryp_random_number_generate
0000000000001444 g     F .text	0000000000000050 TEE_RestrictObjectUsage
0000000000004200 g     F .text	0000000000000010 TEE_BigIntFMMSizeInU32
00000000000041f8 g     F .text	0000000000000004 TEE_BigIntInitFMM
00000000000024e0 g     F .text	000000000000000c utee_asymm_operate
0000000000001614 g     F .text	0000000000000028 TEE_CloseObject
00000000000087cc g     F .text	0000000000000138 hashtable_delete
0000000000002104 g     F .text	00000000000001fc __utee_entry
000000000000a40c g       .text	0000000000000000 __text_end
0000000000003e9c g     F .text	00000000000000d4 TEE_BigIntRelativePrime
000000000000639c g     F .text	00000000000000b4 mbedtls_mpi_mod_mpi
0000000000000c80 g     F .text	00000000000000d4 bpool
00000000000091a0 g     F .text	0000000000000044 strdup
0000000000002800 g     F .text	000000000000002c TEE_GetCancellationFlag
000000000000706c g     F .text	00000000000001bc mbedtls_mpi_gcd
00000000000029a0 g     F .text	0000000000000044 TEE_SetTAPersistentTime
0000000000001298 g     F .text	000000000000001c memset
000000000000292c g     F .text	0000000000000074 TEE_GetTAPersistentTime
000000000000a1c4 g     F .text	0000000000000004 dhex_dump
0000000000001af4 g     F .text	00000000000000c4 TEE_CreatePersistentObject
0000000000002858 g     F .text	000000000000002c TEE_MaskCancellation
0000000000002564 g     F .text	000000000000000c utee_storage_obj_read
0000000000001ef4 g     F .text	0000000000000060 TEE_TruncateObjectData
0000000000002474 g     F .text	000000000000000c utee_cryp_obj_populate
000000000000831c g     F .text	0000000000000090 delete_hashtable
00000000000013c0 g     F .text	0000000000000040 TEE_GetObjectInfo1
0000000000009f60 g     F .text	000000000000001c trace_set_level
000000000000242c g     F .text	000000000000000c utee_cryp_obj_get_info
0000000000001540 g     F .text	00000000000000d4 TEE_GetObjectValueAttribute
0000000000002528 g     F .text	000000000000000c utee_storage_alloc_enum
0000000000002540 g     F .text	000000000000000c utee_storage_reset_enum
000000000000257c g     F .text	000000000000000c utee_storage_obj_trunc
0000000000008fd4 g     F .text	0000000000000070 set_data_value
0000000000008b48 g     F .text	0000000000000020 delete_hashtable_iterator
0000000000009240 g     F .text	0000000000000024 strcmp
00000000000034f8 g     F .text	0000000000000088 TEE_BigIntConvertToS32
00000000000039c8 g     F .text	000000000000000c TEE_BigIntSub
000000000000236c g     F .text	000000000000000c utee_get_cancellation_flag
00000000000023e4 g     F .text	000000000000000c utee_hash_init
0000000000000660 g     F .text	0000000000000008 tahead_get_trace_level
00000000000025ac g     F .text	0000000000000078 __utee_from_param
0000000000008a84 g     F .text	0000000000000060 create_hashtable_iterator
0000000000001f54 g     F .text	00000000000000d8 TEE_SeekObjectData
0000000000002624 g     F .text	000000000000006c __utee_to_param
00000000000069a0 g     F .text	0000000000000040 mbedtls_mpi_montred
0000000000003474 g     F .text	0000000000000084 TEE_BigIntConvertFromS32
0000000000005a48 g     F .text	0000000000000040 mbedtls_mpi_add_int
0000000000002438 g     F .text	000000000000000c utee_cryp_obj_restrict_usage
000000000000108c g     F .text	0000000000000180 malloc_buffer_is_within_alloced
0000000000002480 g     F .text	000000000000000c utee_cryp_obj_copy
00000000000041fc g     F .text	0000000000000004 TEE_BigIntInitFMMContext
000000000000248c g     F .text	000000000000000c utee_cryp_derive_key
0000000000008d38 g     F .text	0000000000000038 data_store_insert_new_entry
00000000000024d4 g     F .text	000000000000000c utee_authenc_dec_final
0000000000008b08 g     F .text	0000000000000040 next
0000000000001d28 g     F .text	0000000000000028 TEE_ResetPersistentObjectEnumerator
0000000000001e8c g     F .text	0000000000000068 TEE_WriteObjectData
0000000000003b6c g     F .text	0000000000000008 TEE_BigIntSquare
0000000000000020 g     F .text	000000000000000c TA_CreateEntryPoint
000000000000064c g     F .text	0000000000000014 __ta_entry
0000000000009eec g     F .text	0000000000000074 snprintk
0000000000006830 g     F .text	000000000000003c mbedtls_mpi_montg_init
000000000000397c g     F .text	0000000000000040 TEE_BigIntGetBitCount
0000000000003d68 g     F .text	000000000000000c TEE_BigIntMulMod
0000000000007534 g     F .text	0000000000000438 mbedtls_mpi_inv_mod
000000000000f428 g     O .bss	0000000000000040 ta_params
0000000000005e30 g     F .text	000000000000052c mbedtls_mpi_div_mpi
00000000000085d4 g     F .text	0000000000000118 hashtable_insert
0000000000005220 g     F .text	000000000000001c mbedtls_mpi_size
00000000000006ac g     F .text	00000000000001c0 bget
000000000000163c g     F .text	0000000000000064 TEE_AllocateTransientObject
00000000000050e4 g     F .text	000000000000008c mbedtls_mpi_set_bit
0000000000002a70 g     F .text	0000000000000004 TEE_Free
0000000000007a14 g     F .text	0000000000000010 mbedtls_mpi_is_prime
0000000000002a84 g     F .text	0000000000000008 TEE_CacheInvalidate
0000000000002408 g     F .text	000000000000000c utee_cipher_init
0000000000001314 g     F .text	0000000000000014 _assert_break
0000000000003d50 g     F .text	000000000000000c TEE_BigIntAddMod
0000000000009044 g     F .text	0000000000000064 create_data_struct
0000000000002534 g     F .text	000000000000000c utee_storage_free_enum
00000000000024b0 g     F .text	000000000000000c utee_authenc_update_aad
0000000000008c4c g     F .text	000000000000003c data_store_contains_key
00000000000028b8 g     F .text	0000000000000008 TEE_MemCompare
0000000000009264 g     F .text	0000000000000c34 __vsnprintf
0000000000001d00 g     F .text	0000000000000028 TEE_FreePersistentObjectEnumerator
0000000000008c88 g     F .text	000000000000005c data_store_contains_field
0000000000002690 g     F .text	0000000000000090 TEE_OpenTASession
0000000000002300 g     F .text	000000000000000c utee_panic
0000000000008ae4 g     F .text	0000000000000024 has_next
00000000000043d0 g     F .text	0000000000000028 trace_ext_puts
00000000000043f8 g     F .text	0000000000000008 trace_ext_get_thread_id
0000000000001c00 g     F .text	000000000000002c TEE_CloseAndDeletePersistentObject
0000000000000274 g     F .text	000000000000021c load_data_store
0000000000004b14 g     F .text	000000000000006c mbedtls_mpi_free
0000000000002a74 g     F .text	0000000000000008 TEE_CacheClean
0000000000002348 g     F .text	000000000000000c utee_open_ta_session
0000000000000490 g     F .text	00000000000001bc save_data_store
0000000000004f6c g     F .text	00000000000000e4 mbedtls_mpi_safe_cond_swap
00000000000090a8 g     F .text	000000000000002c delete_data
00000000000018ac g     F .text	00000000000000ac TEE_CopyObjectAttributes1
00000000000023fc g     F .text	000000000000000c utee_hash_final
00000000000012b4 g     F .text	000000000000001c strlen
0000000000003f70 g     F .text	0000000000000238 TEE_BigIntComputeExtendedGcd
00000000000024f8 g     F .text	000000000000000c utee_storage_obj_open
0000000000002360 g     F .text	000000000000000c utee_invoke_ta_command
000000000000239c g     F .text	000000000000000c utee_wait
00000000000028c8 g     F .text	0000000000000028 TEE_GetSystemTime
0000000000000000 g     O .ta_head	0000000000000020 ta_head
0000000000008904 g     F .text	0000000000000064 hashtable_get_entry
00000000000008f8 g     F .text	00000000000002bc brel
0000000000005860 g     F .text	00000000000000d4 mbedtls_mpi_sub_abs
00000000000023a8 g     F .text	000000000000000c utee_get_time
0000000000007228 g     F .text	0000000000000084 mbedtls_mpi_fill_random
0000000000002898 g     F .text	000000000000000c TEE_SetInstanceData
0000000000002384 g     F .text	000000000000000c utee_unmask_cancellation
0000000000002378 g     F .text	000000000000000c utee_check_access_rights
00000000000065c4 g     F .text	00000000000001d4 mbedtls_mpi_write_string
0000000000001da0 g     F .text	0000000000000080 TEE_GetNextPersistentObject
0000000000002594 g     F .text	000000000000000c utee_cryp_obj_generate_key
0000000000002720 g     F .text	0000000000000028 TEE_CloseTASession
000000000001a4a0 g       .bss	0000000000000000 __gprof_buf_start
0000000000000f40 g     F .text	0000000000000018 free
0000000000000d54 g     F .text	0000000000000098 bstats
0000000000012470 g     O .bss	0000000000000008 mbedtls_mpi_mempool



Disassembly of section .text:

0000000000000020 <TA_CreateEntryPoint>:
TA_CreateEntryPoint():
/home/thesis/Desktop/trusted_data_store/ta/trusted_data_store.c:38
      20:	f0000060 	adrp	x0, f000 <.got>
      24:	f9401400 	ldr	x0, [x0, #40]
      28:	14000093 	b	274 <load_data_store>

000000000000002c <TA_DestroyEntryPoint>:
TA_DestroyEntryPoint():
/home/thesis/Desktop/trusted_data_store/ta/trusted_data_store.c:47
      2c:	f0000060 	adrp	x0, f000 <.got>
      30:	f9401400 	ldr	x0, [x0, #40]
      34:	f9400000 	ldr	x0, [x0]
      38:	b4000040 	cbz	x0, 40 <TA_DestroyEntryPoint+0x14>
/home/thesis/Desktop/trusted_data_store/ta/trusted_data_store.c:47 (discriminator 1)
      3c:	14000115 	b	490 <save_data_store>
/home/thesis/Desktop/trusted_data_store/ta/trusted_data_store.c:48
      40:	d65f03c0 	ret

0000000000000044 <TA_OpenSessionEntryPoint>:
TA_OpenSessionEntryPoint():
/home/thesis/Desktop/trusted_data_store/ta/trusted_data_store.c:63
      44:	7100001f 	cmp	w0, #0x0
/home/thesis/Desktop/trusted_data_store/ta/trusted_data_store.c:67
      48:	129fff21 	mov	w1, #0xffff0006            	// #-65530
      4c:	1a810000 	csel	w0, w0, w1, eq  // eq = none
      50:	d65f03c0 	ret

0000000000000054 <TA_CloseSessionEntryPoint>:
TA_CloseSessionEntryPoint():
/home/thesis/Desktop/trusted_data_store/ta/trusted_data_store.c:76
      54:	d65f03c0 	ret

0000000000000058 <TA_InvokeCommandEntryPoint>:
TA_InvokeCommandEntryPoint():
/home/thesis/Desktop/trusted_data_store/ta/trusted_data_store.c:177
      58:	a9ba7bfd 	stp	x29, x30, [sp, #-96]!
      5c:	910003fd 	mov	x29, sp
      60:	a9025bf5 	stp	x21, x22, [sp, #32]
tds_delete_key():
/home/thesis/Desktop/trusted_data_store/ta/trusted_data_store.c:169
      64:	f0000075 	adrp	x21, f000 <.got>
TA_InvokeCommandEntryPoint():
/home/thesis/Desktop/trusted_data_store/ta/trusted_data_store.c:177
      68:	a9046bf9 	stp	x25, x26, [sp, #64]
/home/thesis/Desktop/trusted_data_store/ta/trusted_data_store.c:185
      6c:	b0000079 	adrp	x25, d000 <primes+0x378>
      70:	91074339 	add	x25, x25, #0x1d0
tds_delete_key():
/home/thesis/Desktop/trusted_data_store/ta/trusted_data_store.c:169
      74:	f94016ba 	ldr	x26, [x21, #40]
TA_InvokeCommandEntryPoint():
/home/thesis/Desktop/trusted_data_store/ta/trusted_data_store.c:177
      78:	a90153f3 	stp	x19, x20, [sp, #16]
      7c:	2a0203f4 	mov	w20, w2
      80:	aa0303f3 	mov	x19, x3
      84:	a90363f7 	stp	x23, x24, [sp, #48]
      88:	2a0103f8 	mov	w24, w1
      8c:	52800c97 	mov	w23, #0x64                  	// #100
      90:	f9002bfb 	str	x27, [sp, #80]
/home/thesis/Desktop/trusted_data_store/ta/trusted_data_store.c:185
      94:	7100171f 	cmp	w24, #0x5
      98:	54000b48 	b.hi	200 <TA_InvokeCommandEntryPoint+0x1a8>  // b.pmore
      9c:	38784b20 	ldrb	w0, [x25, w24, uxtw]
      a0:	10000061 	adr	x1, ac <TA_InvokeCommandEntryPoint+0x54>
      a4:	8b208820 	add	x0, x1, w0, sxtb #2
      a8:	d61f0000 	br	x0
tds_contains_key():
/home/thesis/Desktop/trusted_data_store/ta/trusted_data_store.c:85
      ac:	7100169f 	cmp	w20, #0x5
      b0:	54000a81 	b.ne	200 <TA_InvokeCommandEntryPoint+0x1a8>  // b.any
/home/thesis/Desktop/trusted_data_store/ta/trusted_data_store.c:87
      b4:	f94016a0 	ldr	x0, [x21, #40]
      b8:	f9400261 	ldr	x1, [x19]
      bc:	f9400000 	ldr	x0, [x0]
      c0:	940022e3 	bl	8c4c <data_store_contains_key>
      c4:	72001c1f 	tst	w0, #0xff
      c8:	54000160 	b.eq	f4 <TA_InvokeCommandEntryPoint+0x9c>  // b.none
      cc:	52800000 	mov	w0, #0x0                   	// #0
TA_InvokeCommandEntryPoint():
/home/thesis/Desktop/trusted_data_store/ta/trusted_data_store.c:182 (discriminator 2)
      d0:	710006f7 	subs	w23, w23, #0x1
      d4:	54fffe01 	b.ne	94 <TA_InvokeCommandEntryPoint+0x3c>  // b.any
/home/thesis/Desktop/trusted_data_store/ta/trusted_data_store.c:219
      d8:	a94153f3 	ldp	x19, x20, [sp, #16]
      dc:	a9425bf5 	ldp	x21, x22, [sp, #32]
      e0:	a94363f7 	ldp	x23, x24, [sp, #48]
      e4:	a9446bf9 	ldp	x25, x26, [sp, #64]
      e8:	f9402bfb 	ldr	x27, [sp, #80]
      ec:	a8c67bfd 	ldp	x29, x30, [sp], #96
      f0:	d65f03c0 	ret
tds_contains_key():
/home/thesis/Desktop/trusted_data_store/ta/trusted_data_store.c:88
      f4:	129ffee0 	mov	w0, #0xffff0008            	// #-65528
      f8:	17fffff6 	b	d0 <TA_InvokeCommandEntryPoint+0x78>
tds_contains_field():
/home/thesis/Desktop/trusted_data_store/ta/trusted_data_store.c:98
      fc:	7101569f 	cmp	w20, #0x55
     100:	54000801 	b.ne	200 <TA_InvokeCommandEntryPoint+0x1a8>  // b.any
/home/thesis/Desktop/trusted_data_store/ta/trusted_data_store.c:100
     104:	f94016a0 	ldr	x0, [x21, #40]
     108:	f9400261 	ldr	x1, [x19]
     10c:	f9400000 	ldr	x0, [x0]
     110:	f9400a62 	ldr	x2, [x19, #16]
     114:	940022dd 	bl	8c88 <data_store_contains_field>
     118:	17ffffeb 	b	c4 <TA_InvokeCommandEntryPoint+0x6c>
tds_get():
/home/thesis/Desktop/trusted_data_store/ta/trusted_data_store.c:111
     11c:	7119569f 	cmp	w20, #0x655
     120:	54000701 	b.ne	200 <TA_InvokeCommandEntryPoint+0x1a8>  // b.any
/home/thesis/Desktop/trusted_data_store/ta/trusted_data_store.c:113
     124:	f94016a0 	ldr	x0, [x21, #40]
     128:	f9400261 	ldr	x1, [x19]
     12c:	f9400000 	ldr	x0, [x0]
     130:	f9400a62 	ldr	x2, [x19, #16]
     134:	940022ec 	bl	8ce4 <data_store_get>
     138:	aa0003f6 	mov	x22, x0
/home/thesis/Desktop/trusted_data_store/ta/trusted_data_store.c:114
     13c:	b4fffdc0 	cbz	x0, f4 <TA_InvokeCommandEntryPoint+0x9c>
/home/thesis/Desktop/trusted_data_store/ta/trusted_data_store.c:116
     140:	f94006c2 	ldr	x2, [x22, #8]
     144:	b9402a60 	ldr	w0, [x19, #40]
     148:	eb02001f 	cmp	x0, x2
     14c:	54000563 	b.cc	1f8 <TA_InvokeCommandEntryPoint+0x1a0>  // b.lo, b.ul, b.last
/home/thesis/Desktop/trusted_data_store/ta/trusted_data_store.c:118
     150:	f94002c1 	ldr	x1, [x22]
     154:	f9401260 	ldr	x0, [x19, #32]
     158:	94000448 	bl	1278 <memcpy>
/home/thesis/Desktop/trusted_data_store/ta/trusted_data_store.c:119
     15c:	f94006c0 	ldr	x0, [x22, #8]
     160:	b9002a60 	str	w0, [x19, #40]
/home/thesis/Desktop/trusted_data_store/ta/trusted_data_store.c:121
     164:	2a1803e0 	mov	w0, w24
     168:	17ffffda 	b	d0 <TA_InvokeCommandEntryPoint+0x78>
tds_insert():
/home/thesis/Desktop/trusted_data_store/ta/trusted_data_store.c:133
     16c:	7115569f 	cmp	w20, #0x555
     170:	54000481 	b.ne	200 <TA_InvokeCommandEntryPoint+0x1a8>  // b.any
/home/thesis/Desktop/trusted_data_store/ta/trusted_data_store.c:135
     174:	f94016a0 	ldr	x0, [x21, #40]
     178:	b9402a64 	ldr	w4, [x19, #40]
     17c:	f9400261 	ldr	x1, [x19]
     180:	f9400000 	ldr	x0, [x0]
     184:	f9400a62 	ldr	x2, [x19, #16]
     188:	f9401263 	ldr	x3, [x19, #32]
     18c:	940022f9 	bl	8d70 <data_store_insert>
     190:	72001c1f 	tst	w0, #0xff
     194:	54fff9c1 	b.ne	cc <TA_InvokeCommandEntryPoint+0x74>  // b.any
/home/thesis/Desktop/trusted_data_store/ta/trusted_data_store.c:139
     198:	129ffe60 	mov	w0, #0xffff000c            	// #-65524
     19c:	17ffffcd 	b	d0 <TA_InvokeCommandEntryPoint+0x78>
tds_delete_field():
/home/thesis/Desktop/trusted_data_store/ta/trusted_data_store.c:149
     1a0:	7101569f 	cmp	w20, #0x55
     1a4:	540002e1 	b.ne	200 <TA_InvokeCommandEntryPoint+0x1a8>  // b.any
/home/thesis/Desktop/trusted_data_store/ta/trusted_data_store.c:151
     1a8:	f94016bb 	ldr	x27, [x21, #40]
     1ac:	b0000076 	adrp	x22, d000 <primes+0x378>
     1b0:	9112e2d6 	add	x22, x22, #0x4b8
     1b4:	d2800424 	mov	x4, #0x21                  	// #33
     1b8:	aa1603e2 	mov	x2, x22
     1bc:	aa1603e1 	mov	x1, x22
     1c0:	f9400360 	ldr	x0, [x27]
     1c4:	aa1603e3 	mov	x3, x22
     1c8:	940022ea 	bl	8d70 <data_store_insert>
/home/thesis/Desktop/trusted_data_store/ta/trusted_data_store.c:153
     1cc:	f9400360 	ldr	x0, [x27]
     1d0:	aa1603e2 	mov	x2, x22
     1d4:	aa1603e1 	mov	x1, x22
     1d8:	94002324 	bl	8e68 <data_store_delete_field>
     1dc:	17ffffba 	b	c4 <TA_InvokeCommandEntryPoint+0x6c>
tds_delete_key():
/home/thesis/Desktop/trusted_data_store/ta/trusted_data_store.c:167
     1e0:	7100169f 	cmp	w20, #0x5
     1e4:	540000e1 	b.ne	200 <TA_InvokeCommandEntryPoint+0x1a8>  // b.any
/home/thesis/Desktop/trusted_data_store/ta/trusted_data_store.c:169
     1e8:	f9400261 	ldr	x1, [x19]
     1ec:	f9400340 	ldr	x0, [x26]
     1f0:	9400235e 	bl	8f68 <data_store_delete_key>
     1f4:	17ffffb4 	b	c4 <TA_InvokeCommandEntryPoint+0x6c>
tds_get():
/home/thesis/Desktop/trusted_data_store/ta/trusted_data_store.c:116
     1f8:	129ffde0 	mov	w0, #0xffff0010            	// #-65520
     1fc:	17ffffb5 	b	d0 <TA_InvokeCommandEntryPoint+0x78>
tds_contains_key():
/home/thesis/Desktop/trusted_data_store/ta/trusted_data_store.c:85
     200:	129fff20 	mov	w0, #0xffff0006            	// #-65530
     204:	17ffffb3 	b	d0 <TA_InvokeCommandEntryPoint+0x78>

0000000000000208 <read_string>:
read_string():
/home/thesis/Desktop/trusted_data_store/ta/tds_storage.c:33
     208:	a9bc7bfd 	stp	x29, x30, [sp, #-64]!
/home/thesis/Desktop/trusted_data_store/ta/tds_storage.c:37
     20c:	52800102 	mov	w2, #0x8                   	// #8
/home/thesis/Desktop/trusted_data_store/ta/tds_storage.c:33
     210:	910003fd 	mov	x29, sp
     214:	a9025bf5 	stp	x21, x22, [sp, #32]
/home/thesis/Desktop/trusted_data_store/ta/tds_storage.c:37
     218:	9100d3f5 	add	x21, sp, #0x34
     21c:	aa1503e3 	mov	x3, x21
/home/thesis/Desktop/trusted_data_store/ta/tds_storage.c:33
     220:	aa0003f6 	mov	x22, x0
/home/thesis/Desktop/trusted_data_store/ta/tds_storage.c:37
     224:	9100e3e1 	add	x1, sp, #0x38
/home/thesis/Desktop/trusted_data_store/ta/tds_storage.c:33
     228:	a90153f3 	stp	x19, x20, [sp, #16]
/home/thesis/Desktop/trusted_data_store/ta/tds_storage.c:34
     22c:	b90037ff 	str	wzr, [sp, #52]
/home/thesis/Desktop/trusted_data_store/ta/tds_storage.c:36
     230:	f9001fff 	str	xzr, [sp, #56]
/home/thesis/Desktop/trusted_data_store/ta/tds_storage.c:37
     234:	940006fb 	bl	1e20 <TEE_ReadObjectData>
/home/thesis/Desktop/trusted_data_store/ta/tds_storage.c:39
     238:	f9401ff4 	ldr	x20, [sp, #56]
     23c:	d2800021 	mov	x1, #0x1                   	// #1
     240:	aa1403e0 	mov	x0, x20
     244:	94000312 	bl	e8c <calloc>
/home/thesis/Desktop/trusted_data_store/ta/tds_storage.c:40
     248:	aa1503e3 	mov	x3, x21
/home/thesis/Desktop/trusted_data_store/ta/tds_storage.c:39
     24c:	aa0003f3 	mov	x19, x0
/home/thesis/Desktop/trusted_data_store/ta/tds_storage.c:40
     250:	2a1403e2 	mov	w2, w20
     254:	aa0003e1 	mov	x1, x0
     258:	aa1603e0 	mov	x0, x22
     25c:	940006f1 	bl	1e20 <TEE_ReadObjectData>
/home/thesis/Desktop/trusted_data_store/ta/tds_storage.c:43
     260:	aa1303e0 	mov	x0, x19
     264:	a94153f3 	ldp	x19, x20, [sp, #16]
     268:	a9425bf5 	ldp	x21, x22, [sp, #32]
     26c:	a8c47bfd 	ldp	x29, x30, [sp], #64
     270:	d65f03c0 	ret

0000000000000274 <load_data_store>:
load_data_store():
/home/thesis/Desktop/trusted_data_store/ta/tds_storage.c:79
     274:	a9b37bfd 	stp	x29, x30, [sp, #-208]!
/home/thesis/Desktop/trusted_data_store/ta/tds_storage.c:84
     278:	52800223 	mov	w3, #0x11                  	// #17
     27c:	52800102 	mov	w2, #0x8                   	// #8
/home/thesis/Desktop/trusted_data_store/ta/tds_storage.c:79
     280:	910003fd 	mov	x29, sp
     284:	a90153f3 	stp	x19, x20, [sp, #16]
     288:	aa0003f4 	mov	x20, x0
/home/thesis/Desktop/trusted_data_store/ta/tds_storage.c:84
     28c:	9102a3e4 	add	x4, sp, #0xa8
     290:	b0000061 	adrp	x1, d000 <primes+0x378>
     294:	52800020 	mov	w0, #0x1                   	// #1
     298:	91136421 	add	x1, x1, #0x4d9
/home/thesis/Desktop/trusted_data_store/ta/tds_storage.c:79
     29c:	a9025bf5 	stp	x21, x22, [sp, #32]
     2a0:	a90363f7 	stp	x23, x24, [sp, #48]
     2a4:	a9046bf9 	stp	x25, x26, [sp, #64]
     2a8:	a90573fb 	stp	x27, x28, [sp, #80]
     2ac:	6d0627e8 	stp	d8, d9, [sp, #96]
     2b0:	fd003bea 	str	d10, [sp, #112]
/home/thesis/Desktop/trusted_data_store/ta/tds_storage.c:84
     2b4:	940005e0 	bl	1a34 <TEE_OpenPersistentObject>
/home/thesis/Desktop/trusted_data_store/ta/tds_storage.c:90
     2b8:	f900029f 	str	xzr, [x20]
/home/thesis/Desktop/trusted_data_store/ta/tds_storage.c:92
     2bc:	35000de0 	cbnz	w0, 478 <load_data_store+0x204>
     2c0:	2a0003f3 	mov	w19, w0
/home/thesis/Desktop/trusted_data_store/ta/tds_storage.c:97
     2c4:	910273f5 	add	x21, sp, #0x9c
     2c8:	f94057e0 	ldr	x0, [sp, #168]
     2cc:	aa1503e3 	mov	x3, x21
     2d0:	52800102 	mov	w2, #0x8                   	// #8
     2d4:	9102c3e1 	add	x1, sp, #0xb0
/home/thesis/Desktop/trusted_data_store/ta/tds_storage.c:94
     2d8:	b9009fff 	str	wzr, [sp, #156]
/home/thesis/Desktop/trusted_data_store/ta/tds_storage.c:96
     2dc:	f9005bff 	str	xzr, [sp, #176]
/home/thesis/Desktop/trusted_data_store/ta/tds_storage.c:97
     2e0:	940006d0 	bl	1e20 <TEE_ReadObjectData>
/home/thesis/Desktop/trusted_data_store/ta/tds_storage.c:99
     2e4:	f9405be0 	ldr	x0, [sp, #176]
     2e8:	94002239 	bl	8bcc <new_data_store>
     2ec:	f9000280 	str	x0, [x20]
/home/thesis/Desktop/trusted_data_store/ta/tds_storage.c:100
     2f0:	b4000c00 	cbz	x0, 470 <load_data_store+0x1fc>
/home/thesis/Desktop/trusted_data_store/ta/tds_storage.c:103
     2f4:	f94057e0 	ldr	x0, [sp, #168]
     2f8:	aa1503e3 	mov	x3, x21
     2fc:	52800102 	mov	w2, #0x8                   	// #8
     300:	9102e3e1 	add	x1, sp, #0xb8
/home/thesis/Desktop/trusted_data_store/ta/tds_storage.c:107
     304:	d2800016 	mov	x22, #0x0                   	// #0
read_hashtable():
/home/thesis/Desktop/trusted_data_store/ta/tds_storage.c:62
     308:	910283f7 	add	x23, sp, #0xa0
     30c:	910303f9 	add	x25, sp, #0xc0
/home/thesis/Desktop/trusted_data_store/ta/tds_storage.c:67
     310:	910323fa 	add	x26, sp, #0xc8
read_data():
/home/thesis/Desktop/trusted_data_store/ta/tds_storage.c:24
     314:	910293f8 	add	x24, sp, #0xa4
load_data_store():
/home/thesis/Desktop/trusted_data_store/ta/tds_storage.c:102
     318:	f9005fff 	str	xzr, [sp, #184]
/home/thesis/Desktop/trusted_data_store/ta/tds_storage.c:103
     31c:	940006c1 	bl	1e20 <TEE_ReadObjectData>
/home/thesis/Desktop/trusted_data_store/ta/tds_storage.c:107 (discriminator 1)
     320:	f9405fe1 	ldr	x1, [sp, #184]
     324:	f94057e0 	ldr	x0, [sp, #168]
     328:	eb16003f 	cmp	x1, x22
     32c:	54000049 	b.ls	334 <load_data_store+0xc0>  // b.plast
/home/thesis/Desktop/trusted_data_store/ta/tds_storage.c:107 (discriminator 3)
     330:	340001b3 	cbz	w19, 364 <load_data_store+0xf0>
/home/thesis/Desktop/trusted_data_store/ta/tds_storage.c:117 (discriminator 1)
     334:	f94057e0 	ldr	x0, [sp, #168]
     338:	940004b7 	bl	1614 <TEE_CloseObject>
/home/thesis/Desktop/trusted_data_store/ta/tds_storage.c:127
     33c:	2a1303e0 	mov	w0, w19
     340:	fd403bea 	ldr	d10, [sp, #112]
     344:	a94153f3 	ldp	x19, x20, [sp, #16]
     348:	a9425bf5 	ldp	x21, x22, [sp, #32]
     34c:	a94363f7 	ldp	x23, x24, [sp, #48]
     350:	a9446bf9 	ldp	x25, x26, [sp, #64]
     354:	a94573fb 	ldp	x27, x28, [sp, #80]
     358:	6d4627e8 	ldp	d8, d9, [sp, #96]
     35c:	a8cd7bfd 	ldp	x29, x30, [sp], #208
     360:	d65f03c0 	ret
/home/thesis/Desktop/trusted_data_store/ta/tds_storage.c:109
     364:	97ffffa9 	bl	208 <read_string>
     368:	9e67000a 	fmov	d10, x0
/home/thesis/Desktop/trusted_data_store/ta/tds_storage.c:110
     36c:	f94057f3 	ldr	x19, [sp, #168]
read_hashtable():
/home/thesis/Desktop/trusted_data_store/ta/tds_storage.c:62
     370:	aa1703e3 	mov	x3, x23
     374:	52800102 	mov	w2, #0x8                   	// #8
     378:	aa1903e1 	mov	x1, x25
     37c:	aa1303e0 	mov	x0, x19
/home/thesis/Desktop/trusted_data_store/ta/tds_storage.c:59
     380:	b900a3ff 	str	wzr, [sp, #160]
/home/thesis/Desktop/trusted_data_store/ta/tds_storage.c:61
     384:	f90063ff 	str	xzr, [sp, #192]
/home/thesis/Desktop/trusted_data_store/ta/tds_storage.c:62
     388:	940006a6 	bl	1e20 <TEE_ReadObjectData>
/home/thesis/Desktop/trusted_data_store/ta/tds_storage.c:64
     38c:	f94063e0 	ldr	x0, [sp, #192]
/home/thesis/Desktop/trusted_data_store/ta/tds_storage.c:67
     390:	d280001b 	mov	x27, #0x0                   	// #0
/home/thesis/Desktop/trusted_data_store/ta/tds_storage.c:64
     394:	94001fc1 	bl	8298 <new_hashtable>
     398:	aa0003fc 	mov	x28, x0
/home/thesis/Desktop/trusted_data_store/ta/tds_storage.c:67
     39c:	aa1703e3 	mov	x3, x23
     3a0:	52800102 	mov	w2, #0x8                   	// #8
     3a4:	aa1a03e1 	mov	x1, x26
     3a8:	aa1303e0 	mov	x0, x19
/home/thesis/Desktop/trusted_data_store/ta/tds_storage.c:66
     3ac:	f90067ff 	str	xzr, [sp, #200]
/home/thesis/Desktop/trusted_data_store/ta/tds_storage.c:67
     3b0:	9400069c 	bl	1e20 <TEE_ReadObjectData>
/home/thesis/Desktop/trusted_data_store/ta/tds_storage.c:69
     3b4:	f94067e0 	ldr	x0, [sp, #200]
     3b8:	eb00037f 	cmp	x27, x0
     3bc:	54000143 	b.cc	3e4 <load_data_store+0x170>  // b.lo, b.ul, b.last
load_data_store():
/home/thesis/Desktop/trusted_data_store/ta/tds_storage.c:111
     3c0:	9e660141 	fmov	x1, d10
     3c4:	aa1c03e2 	mov	x2, x28
     3c8:	f9400280 	ldr	x0, [x20]
/home/thesis/Desktop/trusted_data_store/ta/tds_storage.c:112
     3cc:	52bffff3 	mov	w19, #0xffff0000            	// #-65536
     3d0:	910006d6 	add	x22, x22, #0x1
/home/thesis/Desktop/trusted_data_store/ta/tds_storage.c:111
     3d4:	94002259 	bl	8d38 <data_store_insert_new_entry>
/home/thesis/Desktop/trusted_data_store/ta/tds_storage.c:112
     3d8:	72001c1f 	tst	w0, #0xff
     3dc:	1a9313f3 	csel	w19, wzr, w19, ne  // ne = any
     3e0:	17ffffd0 	b	320 <load_data_store+0xac>
read_hashtable_entry():
/home/thesis/Desktop/trusted_data_store/ta/tds_storage.c:47
     3e4:	aa1303e0 	mov	x0, x19
     3e8:	97ffff88 	bl	208 <read_string>
     3ec:	9e670008 	fmov	d8, x0
read_data():
/home/thesis/Desktop/trusted_data_store/ta/tds_storage.c:22
     3f0:	d2800201 	mov	x1, #0x10                  	// #16
     3f4:	d2800020 	mov	x0, #0x1                   	// #1
/home/thesis/Desktop/trusted_data_store/ta/tds_storage.c:20
     3f8:	b900a7ff 	str	wzr, [sp, #164]
/home/thesis/Desktop/trusted_data_store/ta/tds_storage.c:22
     3fc:	940002a4 	bl	e8c <calloc>
     400:	aa0003f5 	mov	x21, x0
/home/thesis/Desktop/trusted_data_store/ta/tds_storage.c:24
     404:	aa1803e3 	mov	x3, x24
     408:	52800102 	mov	w2, #0x8                   	// #8
     40c:	91002001 	add	x1, x0, #0x8
     410:	aa1303e0 	mov	x0, x19
     414:	94000683 	bl	1e20 <TEE_ReadObjectData>
/home/thesis/Desktop/trusted_data_store/ta/tds_storage.c:26
     418:	9100077b 	add	x27, x27, #0x1
     41c:	fd4006a9 	ldr	d9, [x21, #8]
     420:	d2800021 	mov	x1, #0x1                   	// #1
     424:	9e660120 	fmov	x0, d9
     428:	94000299 	bl	e8c <calloc>
/home/thesis/Desktop/trusted_data_store/ta/tds_storage.c:27
     42c:	1e260122 	fmov	w2, s9
/home/thesis/Desktop/trusted_data_store/ta/tds_storage.c:26
     430:	f90002a0 	str	x0, [x21]
/home/thesis/Desktop/trusted_data_store/ta/tds_storage.c:27
     434:	aa1803e3 	mov	x3, x24
     438:	aa0003e1 	mov	x1, x0
     43c:	aa1303e0 	mov	x0, x19
     440:	94000678 	bl	1e20 <TEE_ReadObjectData>
read_hashtable_entry():
/home/thesis/Desktop/trusted_data_store/ta/tds_storage.c:50
     444:	9e660100 	fmov	x0, d8
     448:	aa1503e1 	mov	x1, x21
     44c:	94001f35 	bl	8120 <create_entry>
     450:	aa0003e1 	mov	x1, x0
/home/thesis/Desktop/trusted_data_store/ta/tds_storage.c:52
     454:	9e660100 	fmov	x0, d8
/home/thesis/Desktop/trusted_data_store/ta/tds_storage.c:50
     458:	f90047e1 	str	x1, [sp, #136]
/home/thesis/Desktop/trusted_data_store/ta/tds_storage.c:52
     45c:	940002b9 	bl	f40 <free>
read_hashtable():
/home/thesis/Desktop/trusted_data_store/ta/tds_storage.c:72
     460:	f94047e1 	ldr	x1, [sp, #136]
     464:	aa1c03e0 	mov	x0, x28
     468:	94001fd1 	bl	83ac <hashtable_insert_new_entry>
     46c:	17ffffd2 	b	3b4 <load_data_store+0x140>
load_data_store():
/home/thesis/Desktop/trusted_data_store/ta/tds_storage.c:115
     470:	129ffe73 	mov	w19, #0xffff000c            	// #-65524
     474:	17ffffb0 	b	334 <load_data_store+0xc0>
/home/thesis/Desktop/trusted_data_store/ta/tds_storage.c:121
     478:	940021ef 	bl	8c34 <create_data_store>
/home/thesis/Desktop/trusted_data_store/ta/tds_storage.c:123
     47c:	f100001f 	cmp	x0, #0x0
     480:	129ffe73 	mov	w19, #0xffff000c            	// #-65524
     484:	1a9313f3 	csel	w19, wzr, w19, ne  // ne = any
/home/thesis/Desktop/trusted_data_store/ta/tds_storage.c:121
     488:	f9000280 	str	x0, [x20]
/home/thesis/Desktop/trusted_data_store/ta/tds_storage.c:122
     48c:	17ffffac 	b	33c <load_data_store+0xc8>

0000000000000490 <save_data_store>:
save_data_store():
/home/thesis/Desktop/trusted_data_store/ta/tds_storage.c:174
     490:	a9ba7bfd 	stp	x29, x30, [sp, #-96]!
/home/thesis/Desktop/trusted_data_store/ta/tds_storage.c:185
     494:	52800006 	mov	w6, #0x0                   	// #0
     498:	d2800005 	mov	x5, #0x0                   	// #0
/home/thesis/Desktop/trusted_data_store/ta/tds_storage.c:174
     49c:	910003fd 	mov	x29, sp
/home/thesis/Desktop/trusted_data_store/ta/tds_storage.c:185
     4a0:	910143e7 	add	x7, sp, #0x50
     4a4:	d2800004 	mov	x4, #0x0                   	// #0
     4a8:	528080e3 	mov	w3, #0x407                 	// #1031
     4ac:	52800102 	mov	w2, #0x8                   	// #8
     4b0:	b0000061 	adrp	x1, d000 <primes+0x378>
     4b4:	91136421 	add	x1, x1, #0x4d9
/home/thesis/Desktop/trusted_data_store/ta/tds_storage.c:174
     4b8:	a90153f3 	stp	x19, x20, [sp, #16]
     4bc:	aa0003f3 	mov	x19, x0
/home/thesis/Desktop/trusted_data_store/ta/tds_storage.c:185
     4c0:	52800020 	mov	w0, #0x1                   	// #1
/home/thesis/Desktop/trusted_data_store/ta/tds_storage.c:174
     4c4:	a9025bf5 	stp	x21, x22, [sp, #32]
     4c8:	a90363f7 	stp	x23, x24, [sp, #48]
     4cc:	f90023f9 	str	x25, [sp, #64]
/home/thesis/Desktop/trusted_data_store/ta/tds_storage.c:185
     4d0:	94000589 	bl	1af4 <TEE_CreatePersistentObject>
     4d4:	2a0003f7 	mov	w23, w0
/home/thesis/Desktop/trusted_data_store/ta/tds_storage.c:192
     4d8:	350002e0 	cbnz	w0, 534 <save_data_store+0xa4>
/home/thesis/Desktop/trusted_data_store/ta/tds_storage.c:195
     4dc:	f9400275 	ldr	x21, [x19]
save_hashtable_metadata():
/home/thesis/Desktop/trusted_data_store/ta/tds_storage.c:153
     4e0:	52800102 	mov	w2, #0x8                   	// #8
save_data_store():
/home/thesis/Desktop/trusted_data_store/ta/tds_storage.c:195
     4e4:	f9402bf4 	ldr	x20, [sp, #80]
save_hashtable_metadata():
/home/thesis/Desktop/trusted_data_store/ta/tds_storage.c:153
     4e8:	aa1503e1 	mov	x1, x21
     4ec:	aa1403e0 	mov	x0, x20
     4f0:	94000667 	bl	1e8c <TEE_WriteObjectData>
/home/thesis/Desktop/trusted_data_store/ta/tds_storage.c:154
     4f4:	910022a1 	add	x1, x21, #0x8
     4f8:	52800102 	mov	w2, #0x8                   	// #8
     4fc:	aa1403e0 	mov	x0, x20
     500:	94000663 	bl	1e8c <TEE_WriteObjectData>
save_data_store():
/home/thesis/Desktop/trusted_data_store/ta/tds_storage.c:198
     504:	f9400260 	ldr	x0, [x19]
save_data():
/home/thesis/Desktop/trusted_data_store/ta/tds_storage.c:133
     508:	910163f5 	add	x21, sp, #0x58
save_data_store():
/home/thesis/Desktop/trusted_data_store/ta/tds_storage.c:198
     50c:	9400215e 	bl	8a84 <create_hashtable_iterator>
     510:	aa0003f4 	mov	x20, x0
/home/thesis/Desktop/trusted_data_store/ta/tds_storage.c:199
     514:	aa1403e0 	mov	x0, x20
     518:	94002173 	bl	8ae4 <has_next>
     51c:	72001c1f 	tst	w0, #0xff
/home/thesis/Desktop/trusted_data_store/ta/tds_storage.c:201
     520:	aa1403e0 	mov	x0, x20
/home/thesis/Desktop/trusted_data_store/ta/tds_storage.c:199
     524:	54000161 	b.ne	550 <save_data_store+0xc0>  // b.any
/home/thesis/Desktop/trusted_data_store/ta/tds_storage.c:208
     528:	94002188 	bl	8b48 <delete_hashtable_iterator>
/home/thesis/Desktop/trusted_data_store/ta/tds_storage.c:210
     52c:	f9402be0 	ldr	x0, [sp, #80]
     530:	94000439 	bl	1614 <TEE_CloseObject>
/home/thesis/Desktop/trusted_data_store/ta/tds_storage.c:214
     534:	2a1703e0 	mov	w0, w23
     538:	a94153f3 	ldp	x19, x20, [sp, #16]
     53c:	a9425bf5 	ldp	x21, x22, [sp, #32]
     540:	a94363f7 	ldp	x23, x24, [sp, #48]
     544:	f94023f9 	ldr	x25, [sp, #64]
     548:	a8c67bfd 	ldp	x29, x30, [sp], #96
     54c:	d65f03c0 	ret
/home/thesis/Desktop/trusted_data_store/ta/tds_storage.c:201
     550:	9400216e 	bl	8b08 <next>
     554:	aa0003f6 	mov	x22, x0
/home/thesis/Desktop/trusted_data_store/ta/tds_storage.c:204
     558:	f9400018 	ldr	x24, [x0]
save_string():
/home/thesis/Desktop/trusted_data_store/ta/tds_storage.c:139
     55c:	aa1803e0 	mov	x0, x24
     560:	94000355 	bl	12b4 <strlen>
save_data_store():
/home/thesis/Desktop/trusted_data_store/ta/tds_storage.c:204
     564:	f9402bf3 	ldr	x19, [sp, #80]
save_string():
/home/thesis/Desktop/trusted_data_store/ta/tds_storage.c:139
     568:	91000400 	add	x0, x0, #0x1
save_data():
/home/thesis/Desktop/trusted_data_store/ta/tds_storage.c:133
     56c:	52800102 	mov	w2, #0x8                   	// #8
     570:	aa1503e1 	mov	x1, x21
     574:	f9002fe0 	str	x0, [sp, #88]
     578:	aa1303e0 	mov	x0, x19
     57c:	94000644 	bl	1e8c <TEE_WriteObjectData>
/home/thesis/Desktop/trusted_data_store/ta/tds_storage.c:134
     580:	b9405be2 	ldr	w2, [sp, #88]
     584:	aa1803e1 	mov	x1, x24
     588:	aa1303e0 	mov	x0, x19
     58c:	94000640 	bl	1e8c <TEE_WriteObjectData>
save_data_store():
/home/thesis/Desktop/trusted_data_store/ta/tds_storage.c:206
     590:	f94006d6 	ldr	x22, [x22, #8]
save_hashtable_metadata():
/home/thesis/Desktop/trusted_data_store/ta/tds_storage.c:153
     594:	52800102 	mov	w2, #0x8                   	// #8
save_data_store():
/home/thesis/Desktop/trusted_data_store/ta/tds_storage.c:206
     598:	f9402bf3 	ldr	x19, [sp, #80]
save_hashtable_metadata():
/home/thesis/Desktop/trusted_data_store/ta/tds_storage.c:153
     59c:	aa1603e1 	mov	x1, x22
     5a0:	aa1303e0 	mov	x0, x19
     5a4:	9400063a 	bl	1e8c <TEE_WriteObjectData>
/home/thesis/Desktop/trusted_data_store/ta/tds_storage.c:154
     5a8:	910022c1 	add	x1, x22, #0x8
     5ac:	52800102 	mov	w2, #0x8                   	// #8
     5b0:	aa1303e0 	mov	x0, x19
     5b4:	94000636 	bl	1e8c <TEE_WriteObjectData>
save_data_store_entry():
/home/thesis/Desktop/trusted_data_store/ta/tds_storage.c:165
     5b8:	aa1603e0 	mov	x0, x22
     5bc:	94002132 	bl	8a84 <create_hashtable_iterator>
     5c0:	aa0003f6 	mov	x22, x0
/home/thesis/Desktop/trusted_data_store/ta/tds_storage.c:166
     5c4:	aa1603e0 	mov	x0, x22
     5c8:	94002147 	bl	8ae4 <has_next>
     5cc:	72001c1f 	tst	w0, #0xff
/home/thesis/Desktop/trusted_data_store/ta/tds_storage.c:168
     5d0:	aa1603e0 	mov	x0, x22
/home/thesis/Desktop/trusted_data_store/ta/tds_storage.c:166
     5d4:	54000061 	b.ne	5e0 <save_data_store+0x150>  // b.any
/home/thesis/Desktop/trusted_data_store/ta/tds_storage.c:170
     5d8:	9400215c 	bl	8b48 <delete_hashtable_iterator>
     5dc:	17ffffce 	b	514 <save_data_store+0x84>
/home/thesis/Desktop/trusted_data_store/ta/tds_storage.c:168
     5e0:	9400214a 	bl	8b08 <next>
     5e4:	aa0003f8 	mov	x24, x0
save_hashtable_entry():
/home/thesis/Desktop/trusted_data_store/ta/tds_storage.c:145
     5e8:	f9400019 	ldr	x25, [x0]
save_string():
/home/thesis/Desktop/trusted_data_store/ta/tds_storage.c:139
     5ec:	aa1903e0 	mov	x0, x25
     5f0:	94000331 	bl	12b4 <strlen>
     5f4:	91000400 	add	x0, x0, #0x1
save_data():
/home/thesis/Desktop/trusted_data_store/ta/tds_storage.c:133
     5f8:	aa1503e1 	mov	x1, x21
     5fc:	52800102 	mov	w2, #0x8                   	// #8
     600:	f9002fe0 	str	x0, [sp, #88]
     604:	aa1303e0 	mov	x0, x19
     608:	94000621 	bl	1e8c <TEE_WriteObjectData>
/home/thesis/Desktop/trusted_data_store/ta/tds_storage.c:134
     60c:	b9405be2 	ldr	w2, [sp, #88]
     610:	aa1903e1 	mov	x1, x25
     614:	aa1303e0 	mov	x0, x19
     618:	9400061d 	bl	1e8c <TEE_WriteObjectData>
save_hashtable_entry():
/home/thesis/Desktop/trusted_data_store/ta/tds_storage.c:147
     61c:	f9400700 	ldr	x0, [x24, #8]
save_data():
/home/thesis/Desktop/trusted_data_store/ta/tds_storage.c:133
     620:	aa1503e1 	mov	x1, x21
     624:	52800102 	mov	w2, #0x8                   	// #8
     628:	a9400018 	ldp	x24, x0, [x0]
     62c:	f9002fe0 	str	x0, [sp, #88]
     630:	aa1303e0 	mov	x0, x19
     634:	94000616 	bl	1e8c <TEE_WriteObjectData>
/home/thesis/Desktop/trusted_data_store/ta/tds_storage.c:134
     638:	b9405be2 	ldr	w2, [sp, #88]
     63c:	aa1303e0 	mov	x0, x19
     640:	aa1803e1 	mov	x1, x24
     644:	94000612 	bl	1e8c <TEE_WriteObjectData>
     648:	17ffffdf 	b	5c4 <save_data_store+0x134>

000000000000064c <__ta_entry>:
__ta_entry():
/home/thesis/Desktop/optee_rpi3bplus/optee_os/out/arm/export-ta_arm64/src/user_ta_header.c:36
     64c:	a9bf7bfd 	stp	x29, x30, [sp, #-16]!
     650:	910003fd 	mov	x29, sp
/home/thesis/Desktop/optee_rpi3bplus/optee_os/out/arm/export-ta_arm64/src/user_ta_header.c:39
     654:	940006ac 	bl	2104 <__utee_entry>
/home/thesis/Desktop/optee_rpi3bplus/optee_os/out/arm/export-ta_arm64/src/user_ta_header.c:41
     658:	2a0003e0 	mov	w0, w0
     65c:	9400072c 	bl	230c <utee_return>

0000000000000660 <tahead_get_trace_level>:
tahead_get_trace_level():
/home/thesis/Desktop/optee_rpi3bplus/optee_os/out/arm/export-ta_arm64/src/user_ta_header.c:117
     660:	52800020 	mov	w0, #0x1                   	// #1
     664:	d65f03c0 	ret

0000000000000668 <raw_malloc_return_hook.constprop.21>:
raw_malloc_return_hook():
/home/thesis/Desktop/optee_rpi3bplus/optee_os/lib/libutils/isoc/bget_malloc.c:198
     668:	f0000062 	adrp	x2, f000 <.got>
     66c:	910de044 	add	x4, x2, #0x378
     670:	f9401083 	ldr	x3, [x4, #32]
     674:	b9406c85 	ldr	w5, [x4, #108]
     678:	eb05007f 	cmp	x3, x5
     67c:	5400004d 	b.le	684 <raw_malloc_return_hook.constprop.21+0x1c>
/home/thesis/Desktop/optee_rpi3bplus/optee_os/lib/libutils/isoc/bget_malloc.c:199
     680:	b9006c83 	str	w3, [x4, #108]
/home/thesis/Desktop/optee_rpi3bplus/optee_os/lib/libutils/isoc/bget_malloc.c:201
     684:	b5000120 	cbnz	x0, 6a8 <raw_malloc_return_hook.constprop.21+0x40>
/home/thesis/Desktop/optee_rpi3bplus/optee_os/lib/libutils/isoc/bget_malloc.c:202
     688:	910de040 	add	x0, x2, #0x378
     68c:	b9407402 	ldr	w2, [x0, #116]
     690:	11000442 	add	w2, w2, #0x1
     694:	b9007402 	str	w2, [x0, #116]
/home/thesis/Desktop/optee_rpi3bplus/optee_os/lib/libutils/isoc/bget_malloc.c:204
     698:	b9407802 	ldr	w2, [x0, #120]
     69c:	eb01005f 	cmp	x2, x1
     6a0:	54000042 	b.cs	6a8 <raw_malloc_return_hook.constprop.21+0x40>  // b.hs, b.nlast
/home/thesis/Desktop/optee_rpi3bplus/optee_os/lib/libutils/isoc/bget_malloc.c:206
     6a4:	290f0c01 	stp	w1, w3, [x0, #120]
/home/thesis/Desktop/optee_rpi3bplus/optee_os/lib/libutils/isoc/bget_malloc.c:210
     6a8:	d65f03c0 	ret

00000000000006ac <bget>:
bget():
/home/thesis/Desktop/optee_rpi3bplus/optee_os/lib/libutils/isoc/bget.c:583
     6ac:	a9bf7bfd 	stp	x29, x30, [sp, #-16]!
/home/thesis/Desktop/optee_rpi3bplus/optee_os/lib/libutils/isoc/bget.c:594
     6b0:	f100001f 	cmp	x0, #0x0
/home/thesis/Desktop/optee_rpi3bplus/optee_os/lib/libutils/isoc/bget.c:583
     6b4:	910003fd 	mov	x29, sp
/home/thesis/Desktop/optee_rpi3bplus/optee_os/lib/libutils/isoc/bget.c:594
     6b8:	5400014c 	b.gt	6e0 <bget+0x34>
/home/thesis/Desktop/optee_rpi3bplus/optee_os/lib/libutils/isoc/bget.c:594 (discriminator 1)
     6bc:	b0000063 	adrp	x3, d000 <primes+0x378>
     6c0:	b0000061 	adrp	x1, d000 <primes+0x378>
     6c4:	b0000060 	adrp	x0, d000 <primes+0x378>
     6c8:	91164063 	add	x3, x3, #0x590
     6cc:	9117a021 	add	x1, x1, #0x5e8
     6d0:	91215400 	add	x0, x0, #0x855
     6d4:	52804a42 	mov	w2, #0x252                 	// #594
/home/thesis/Desktop/optee_rpi3bplus/optee_os/lib/libutils/isoc/bget.c:658 (discriminator 1)
     6d8:	940002fe 	bl	12d0 <_assert_log>
     6dc:	9400030e 	bl	1314 <_assert_break>
/home/thesis/Desktop/optee_rpi3bplus/optee_os/lib/libutils/isoc/bget.c:601
     6e0:	f100401f 	cmp	x0, #0x10
     6e4:	d2800202 	mov	x2, #0x10                  	// #16
     6e8:	9a82a000 	csel	x0, x0, x2, ge  // ge = tcont
     6ec:	b1003c02 	adds	x2, x0, #0xf
     6f0:	54000144 	b.mi	718 <bget+0x6c>  // b.first
     6f4:	eb00005f 	cmp	x2, x0
     6f8:	54000103 	b.cc	718 <bget+0x6c>  // b.lo, b.ul, b.last
/home/thesis/Desktop/optee_rpi3bplus/optee_os/lib/libutils/isoc/bget.c:604
     6fc:	927cec40 	and	x0, x2, #0xfffffffffffffff0
/home/thesis/Desktop/optee_rpi3bplus/optee_os/lib/libutils/isoc/bget.c:609
     700:	91004003 	add	x3, x0, #0x10
     704:	eb00007f 	cmp	x3, x0
     708:	5400008b 	b.lt	718 <bget+0x6c>  // b.tstop
/home/thesis/Desktop/optee_rpi3bplus/optee_os/lib/libutils/isoc/bget.c:619
     70c:	f9400820 	ldr	x0, [x1, #16]
/home/thesis/Desktop/optee_rpi3bplus/optee_os/lib/libutils/isoc/bget.c:641
     710:	eb00003f 	cmp	x1, x0
     714:	54000061 	b.ne	720 <bget+0x74>  // b.any
/home/thesis/Desktop/optee_rpi3bplus/optee_os/lib/libutils/isoc/bget.c:602
     718:	d2800000 	mov	x0, #0x0                   	// #0
     71c:	1400001e 	b	794 <bget+0xe8>
/home/thesis/Desktop/optee_rpi3bplus/optee_os/lib/libutils/isoc/bget.c:642
     720:	f9400402 	ldr	x2, [x0, #8]
     724:	eb02007f 	cmp	x3, x2
     728:	540009ec 	b.gt	864 <bget+0x1b8>
/home/thesis/Desktop/optee_rpi3bplus/optee_os/lib/libutils/isoc/bget.c:653
     72c:	cb030044 	sub	x4, x2, x3
     730:	f100809f 	cmp	x4, #0x20
     734:	5400034d 	b.le	79c <bget+0xf0>
/home/thesis/Desktop/optee_rpi3bplus/optee_os/lib/libutils/isoc/bget.c:656
     738:	8b040005 	add	x5, x0, x4
/home/thesis/Desktop/optee_rpi3bplus/optee_os/lib/libutils/isoc/bget.c:658
     73c:	f86368a6 	ldr	x6, [x5, x3]
     740:	eb06005f 	cmp	x2, x6
     744:	54000120 	b.eq	768 <bget+0xbc>  // b.none
/home/thesis/Desktop/optee_rpi3bplus/optee_os/lib/libutils/isoc/bget.c:658 (discriminator 1)
     748:	b0000063 	adrp	x3, d000 <primes+0x378>
     74c:	b0000061 	adrp	x1, d000 <primes+0x378>
     750:	b0000060 	adrp	x0, d000 <primes+0x378>
     754:	91164063 	add	x3, x3, #0x590
     758:	52805242 	mov	w2, #0x292                 	// #658
     75c:	9117a021 	add	x1, x1, #0x5e8
     760:	91180400 	add	x0, x0, #0x601
     764:	17ffffdd 	b	6d8 <bget+0x2c>
/home/thesis/Desktop/optee_rpi3bplus/optee_os/lib/libutils/isoc/bget.c:660
     768:	f9000404 	str	x4, [x0, #8]
/home/thesis/Desktop/optee_rpi3bplus/optee_os/lib/libutils/isoc/bget.c:662
     76c:	f8246804 	str	x4, [x0, x4]
/home/thesis/Desktop/optee_rpi3bplus/optee_os/lib/libutils/isoc/bget.c:664
     770:	cb0303e0 	neg	x0, x3
     774:	f90004a0 	str	x0, [x5, #8]
/home/thesis/Desktop/optee_rpi3bplus/optee_os/lib/libutils/isoc/bget.c:669
     778:	f9401020 	ldr	x0, [x1, #32]
/home/thesis/Desktop/optee_rpi3bplus/optee_os/lib/libutils/isoc/bget.c:666
     77c:	f82368bf 	str	xzr, [x5, x3]
/home/thesis/Desktop/optee_rpi3bplus/optee_os/lib/libutils/isoc/bget.c:669
     780:	8b030003 	add	x3, x0, x3
/home/thesis/Desktop/optee_rpi3bplus/optee_os/lib/libutils/isoc/bget.c:670
     784:	f9401420 	ldr	x0, [x1, #40]
     788:	91000400 	add	x0, x0, #0x1
     78c:	a9020023 	stp	x3, x0, [x1, #32]
/home/thesis/Desktop/optee_rpi3bplus/optee_os/lib/libutils/isoc/bget.c:672
     790:	910040a0 	add	x0, x5, #0x10
/home/thesis/Desktop/optee_rpi3bplus/optee_os/lib/libutils/isoc/bget.c:770
     794:	a8c17bfd 	ldp	x29, x30, [sp], #16
     798:	d65f03c0 	ret
/home/thesis/Desktop/optee_rpi3bplus/optee_os/lib/libutils/isoc/bget.c:679
     79c:	f8626803 	ldr	x3, [x0, x2]
/home/thesis/Desktop/optee_rpi3bplus/optee_os/lib/libutils/isoc/bget.c:678
     7a0:	8b020005 	add	x5, x0, x2
/home/thesis/Desktop/optee_rpi3bplus/optee_os/lib/libutils/isoc/bget.c:679
     7a4:	eb03005f 	cmp	x2, x3
     7a8:	54000120 	b.eq	7cc <bget+0x120>  // b.none
/home/thesis/Desktop/optee_rpi3bplus/optee_os/lib/libutils/isoc/bget.c:679 (discriminator 1)
     7ac:	b0000063 	adrp	x3, d000 <primes+0x378>
     7b0:	b0000061 	adrp	x1, d000 <primes+0x378>
     7b4:	b0000060 	adrp	x0, d000 <primes+0x378>
     7b8:	91164063 	add	x3, x3, #0x590
     7bc:	528054e2 	mov	w2, #0x2a7                 	// #679
     7c0:	9117a021 	add	x1, x1, #0x5e8
     7c4:	91187400 	add	x0, x0, #0x61d
     7c8:	17ffffc4 	b	6d8 <bget+0x2c>
/home/thesis/Desktop/optee_rpi3bplus/optee_os/lib/libutils/isoc/bget.c:684
     7cc:	f9400c03 	ldr	x3, [x0, #24]
     7d0:	f9400864 	ldr	x4, [x3, #16]
     7d4:	eb00009f 	cmp	x4, x0
     7d8:	54000120 	b.eq	7fc <bget+0x150>  // b.none
/home/thesis/Desktop/optee_rpi3bplus/optee_os/lib/libutils/isoc/bget.c:684 (discriminator 1)
     7dc:	b0000063 	adrp	x3, d000 <primes+0x378>
     7e0:	b0000061 	adrp	x1, d000 <primes+0x378>
     7e4:	b0000060 	adrp	x0, d000 <primes+0x378>
     7e8:	91164063 	add	x3, x3, #0x590
     7ec:	52805582 	mov	w2, #0x2ac                 	// #684
     7f0:	9117a021 	add	x1, x1, #0x5e8
     7f4:	9118e400 	add	x0, x0, #0x639
     7f8:	17ffffb8 	b	6d8 <bget+0x2c>
/home/thesis/Desktop/optee_rpi3bplus/optee_os/lib/libutils/isoc/bget.c:685
     7fc:	f9400804 	ldr	x4, [x0, #16]
     800:	f9400c86 	ldr	x6, [x4, #24]
     804:	eb0000df 	cmp	x6, x0
     808:	54000120 	b.eq	82c <bget+0x180>  // b.none
/home/thesis/Desktop/optee_rpi3bplus/optee_os/lib/libutils/isoc/bget.c:685 (discriminator 1)
     80c:	b0000063 	adrp	x3, d000 <primes+0x378>
     810:	b0000061 	adrp	x1, d000 <primes+0x378>
     814:	b0000060 	adrp	x0, d000 <primes+0x378>
     818:	91164063 	add	x3, x3, #0x590
     81c:	528055a2 	mov	w2, #0x2ad                 	// #685
     820:	9117a021 	add	x1, x1, #0x5e8
     824:	91195000 	add	x0, x0, #0x654
     828:	17ffffac 	b	6d8 <bget+0x2c>
/home/thesis/Desktop/optee_rpi3bplus/optee_os/lib/libutils/isoc/bget.c:686
     82c:	f9000864 	str	x4, [x3, #16]
/home/thesis/Desktop/optee_rpi3bplus/optee_os/lib/libutils/isoc/bget.c:701
     830:	91004000 	add	x0, x0, #0x10
/home/thesis/Desktop/optee_rpi3bplus/optee_os/lib/libutils/isoc/bget.c:687
     834:	f9400004 	ldr	x4, [x0]
     838:	f9000c83 	str	x3, [x4, #24]
/home/thesis/Desktop/optee_rpi3bplus/optee_os/lib/libutils/isoc/bget.c:690
     83c:	f9401023 	ldr	x3, [x1, #32]
     840:	8b020063 	add	x3, x3, x2
     844:	f9001023 	str	x3, [x1, #32]
/home/thesis/Desktop/optee_rpi3bplus/optee_os/lib/libutils/isoc/bget.c:691
     848:	f9401423 	ldr	x3, [x1, #40]
/home/thesis/Desktop/optee_rpi3bplus/optee_os/lib/libutils/isoc/bget.c:694
     84c:	cb0203e2 	neg	x2, x2
/home/thesis/Desktop/optee_rpi3bplus/optee_os/lib/libutils/isoc/bget.c:691
     850:	91000463 	add	x3, x3, #0x1
     854:	f9001423 	str	x3, [x1, #40]
/home/thesis/Desktop/optee_rpi3bplus/optee_os/lib/libutils/isoc/bget.c:694
     858:	f81f8002 	stur	x2, [x0, #-8]
/home/thesis/Desktop/optee_rpi3bplus/optee_os/lib/libutils/isoc/bget.c:698
     85c:	f90000bf 	str	xzr, [x5]
/home/thesis/Desktop/optee_rpi3bplus/optee_os/lib/libutils/isoc/bget.c:703
     860:	17ffffcd 	b	794 <bget+0xe8>
/home/thesis/Desktop/optee_rpi3bplus/optee_os/lib/libutils/isoc/bget.c:706
     864:	f9400800 	ldr	x0, [x0, #16]
     868:	17ffffaa 	b	710 <bget+0x64>

000000000000086c <bgetz>:
bgetz():
/home/thesis/Desktop/optee_rpi3bplus/optee_os/lib/libutils/isoc/bget.c:779
     86c:	a9be7bfd 	stp	x29, x30, [sp, #-32]!
     870:	910003fd 	mov	x29, sp
     874:	f9000bf3 	str	x19, [sp, #16]
     878:	aa0003f3 	mov	x19, x0
/home/thesis/Desktop/optee_rpi3bplus/optee_os/lib/libutils/isoc/bget.c:780
     87c:	97ffff8c 	bl	6ac <bget>
     880:	aa0003e3 	mov	x3, x0
/home/thesis/Desktop/optee_rpi3bplus/optee_os/lib/libutils/isoc/bget.c:782
     884:	b4000320 	cbz	x0, 8e8 <bgetz+0x7c>
/home/thesis/Desktop/optee_rpi3bplus/optee_os/lib/libutils/isoc/bget.c:787
     888:	f85f8000 	ldur	x0, [x0, #-8]
/home/thesis/Desktop/optee_rpi3bplus/optee_os/lib/libutils/isoc/bget.c:788
     88c:	b50001e0 	cbnz	x0, 8c8 <bgetz+0x5c>
/home/thesis/Desktop/optee_rpi3bplus/optee_os/lib/libutils/isoc/bget.c:792
     890:	f85e8062 	ldur	x2, [x3, #-24]
     894:	d1006042 	sub	x2, x2, #0x18
/home/thesis/Desktop/optee_rpi3bplus/optee_os/lib/libutils/isoc/bget.c:796
     898:	eb13005f 	cmp	x2, x19
     89c:	540001ca 	b.ge	8d4 <bgetz+0x68>  // b.tcont
     8a0:	b0000063 	adrp	x3, d000 <primes+0x378>
     8a4:	91164063 	add	x3, x3, #0x590
     8a8:	91001463 	add	x3, x3, #0x5
     8ac:	b0000061 	adrp	x1, d000 <primes+0x378>
     8b0:	b0000060 	adrp	x0, d000 <primes+0x378>
     8b4:	9117a021 	add	x1, x1, #0x5e8
     8b8:	9119bc00 	add	x0, x0, #0x66f
     8bc:	52806382 	mov	w2, #0x31c                 	// #796
     8c0:	94000284 	bl	12d0 <_assert_log>
     8c4:	94000294 	bl	1314 <_assert_break>
/home/thesis/Desktop/optee_rpi3bplus/optee_os/lib/libutils/isoc/bget.c:794
     8c8:	928001e2 	mov	x2, #0xfffffffffffffff0    	// #-16
     8cc:	cb000042 	sub	x2, x2, x0
     8d0:	17fffff2 	b	898 <bgetz+0x2c>
memset_unchecked():
/home/thesis/Desktop/optee_rpi3bplus/optee_os/lib/libutils/isoc/bget_malloc.c:124
     8d4:	aa0303e0 	mov	x0, x3
     8d8:	93407c42 	sxtw	x2, w2
     8dc:	52800001 	mov	w1, #0x0                   	// #0
     8e0:	9400026e 	bl	1298 <memset>
     8e4:	aa0003e3 	mov	x3, x0
bgetz():
/home/thesis/Desktop/optee_rpi3bplus/optee_os/lib/libutils/isoc/bget.c:800
     8e8:	aa0303e0 	mov	x0, x3
     8ec:	f9400bf3 	ldr	x19, [sp, #16]
     8f0:	a8c27bfd 	ldp	x29, x30, [sp], #32
     8f4:	d65f03c0 	ret

00000000000008f8 <brel>:
brel():
/home/thesis/Desktop/optee_rpi3bplus/optee_os/lib/libutils/isoc/bget.c:852
     8f8:	a9be7bfd 	stp	x29, x30, [sp, #-32]!
     8fc:	910003fd 	mov	x29, sp
/home/thesis/Desktop/optee_rpi3bplus/optee_os/lib/libutils/isoc/bget.c:858
     900:	f9401823 	ldr	x3, [x1, #48]
/home/thesis/Desktop/optee_rpi3bplus/optee_os/lib/libutils/isoc/bget.c:852
     904:	a90153f3 	stp	x19, x20, [sp, #16]
/home/thesis/Desktop/optee_rpi3bplus/optee_os/lib/libutils/isoc/bget.c:858
     908:	91000463 	add	x3, x3, #0x1
     90c:	f9001823 	str	x3, [x1, #48]
/home/thesis/Desktop/optee_rpi3bplus/optee_os/lib/libutils/isoc/bget.c:860
     910:	b5000160 	cbnz	x0, 93c <brel+0x44>
/home/thesis/Desktop/optee_rpi3bplus/optee_os/lib/libutils/isoc/bget.c:860 (discriminator 1)
     914:	b0000063 	adrp	x3, d000 <primes+0x378>
     918:	91164063 	add	x3, x3, #0x590
     91c:	b0000061 	adrp	x1, d000 <primes+0x378>
     920:	b0000060 	adrp	x0, d000 <primes+0x378>
     924:	91002c63 	add	x3, x3, #0xb
     928:	9117a021 	add	x1, x1, #0x5e8
     92c:	9119f400 	add	x0, x0, #0x67d
     930:	52806b82 	mov	w2, #0x35c                 	// #860
/home/thesis/Desktop/optee_rpi3bplus/optee_os/lib/libutils/isoc/bget.c:895 (discriminator 1)
     934:	94000267 	bl	12d0 <_assert_log>
     938:	94000277 	bl	1314 <_assert_break>
/home/thesis/Desktop/optee_rpi3bplus/optee_os/lib/libutils/isoc/bget.c:892
     93c:	f85f8003 	ldur	x3, [x0, #-8]
/home/thesis/Desktop/optee_rpi3bplus/optee_os/lib/libutils/isoc/bget.c:895
     940:	b7f80143 	tbnz	x3, #63, 968 <brel+0x70>
/home/thesis/Desktop/optee_rpi3bplus/optee_os/lib/libutils/isoc/bget.c:895 (discriminator 1)
     944:	b0000063 	adrp	x3, d000 <primes+0x378>
     948:	91164063 	add	x3, x3, #0x590
     94c:	b0000061 	adrp	x1, d000 <primes+0x378>
     950:	b0000060 	adrp	x0, d000 <primes+0x378>
     954:	91002c63 	add	x3, x3, #0xb
     958:	52806fe2 	mov	w2, #0x37f                 	// #895
     95c:	9117a021 	add	x1, x1, #0x5e8
     960:	911a2400 	add	x0, x0, #0x689
     964:	17fffff4 	b	934 <brel+0x3c>
     968:	d1004013 	sub	x19, x0, #0x10
/home/thesis/Desktop/optee_rpi3bplus/optee_os/lib/libutils/isoc/bget.c:901
     96c:	cb030264 	sub	x4, x19, x3
     970:	f9400084 	ldr	x4, [x4]
     974:	b4000144 	cbz	x4, 99c <brel+0xa4>
/home/thesis/Desktop/optee_rpi3bplus/optee_os/lib/libutils/isoc/bget.c:901 (discriminator 1)
     978:	b0000063 	adrp	x3, d000 <primes+0x378>
     97c:	91164063 	add	x3, x3, #0x590
     980:	b0000061 	adrp	x1, d000 <primes+0x378>
     984:	b0000060 	adrp	x0, d000 <primes+0x378>
     988:	91002c63 	add	x3, x3, #0xb
     98c:	528070a2 	mov	w2, #0x385                 	// #901
     990:	9117a021 	add	x1, x1, #0x5e8
     994:	911a6400 	add	x0, x0, #0x699
     998:	17ffffe7 	b	934 <brel+0x3c>
/home/thesis/Desktop/optee_rpi3bplus/optee_os/lib/libutils/isoc/bget.c:904
     99c:	f9401024 	ldr	x4, [x1, #32]
     9a0:	8b040064 	add	x4, x3, x4
     9a4:	f9001024 	str	x4, [x1, #32]
/home/thesis/Desktop/optee_rpi3bplus/optee_os/lib/libutils/isoc/bget.c:905
     9a8:	b6f80144 	tbz	x4, #63, 9d0 <brel+0xd8>
/home/thesis/Desktop/optee_rpi3bplus/optee_os/lib/libutils/isoc/bget.c:905 (discriminator 1)
     9ac:	b0000063 	adrp	x3, d000 <primes+0x378>
     9b0:	91164063 	add	x3, x3, #0x590
     9b4:	b0000061 	adrp	x1, d000 <primes+0x378>
     9b8:	b0000060 	adrp	x0, d000 <primes+0x378>
     9bc:	91002c63 	add	x3, x3, #0xb
     9c0:	52807122 	mov	w2, #0x389                 	// #905
     9c4:	9117a021 	add	x1, x1, #0x5e8
     9c8:	911b1400 	add	x0, x0, #0x6c5
     9cc:	17ffffda 	b	934 <brel+0x3c>
/home/thesis/Desktop/optee_rpi3bplus/optee_os/lib/libutils/isoc/bget.c:910
     9d0:	f85f0004 	ldur	x4, [x0, #-16]
     9d4:	b4000424 	cbz	x4, a58 <brel+0x160>
/home/thesis/Desktop/optee_rpi3bplus/optee_os/lib/libutils/isoc/bget.c:921
     9d8:	cb040273 	sub	x19, x19, x4
     9dc:	f9400660 	ldr	x0, [x19, #8]
     9e0:	eb00009f 	cmp	x4, x0
     9e4:	54000140 	b.eq	a0c <brel+0x114>  // b.none
/home/thesis/Desktop/optee_rpi3bplus/optee_os/lib/libutils/isoc/bget.c:921 (discriminator 1)
     9e8:	b0000063 	adrp	x3, d000 <primes+0x378>
     9ec:	91164063 	add	x3, x3, #0x590
     9f0:	b0000061 	adrp	x1, d000 <primes+0x378>
     9f4:	b0000060 	adrp	x0, d000 <primes+0x378>
     9f8:	91002c63 	add	x3, x3, #0xb
     9fc:	52807322 	mov	w2, #0x399                 	// #921
     a00:	9117a021 	add	x1, x1, #0x5e8
     a04:	911b7000 	add	x0, x0, #0x6dc
     a08:	17ffffcb 	b	934 <brel+0x3c>
/home/thesis/Desktop/optee_rpi3bplus/optee_os/lib/libutils/isoc/bget.c:923
     a0c:	cb030083 	sub	x3, x4, x3
     a10:	f9000663 	str	x3, [x19, #8]
/home/thesis/Desktop/optee_rpi3bplus/optee_os/lib/libutils/isoc/bget.c:943
     a14:	f9400660 	ldr	x0, [x19, #8]
     a18:	8b000274 	add	x20, x19, x0
/home/thesis/Desktop/optee_rpi3bplus/optee_os/lib/libutils/isoc/bget.c:944
     a1c:	f9400681 	ldr	x1, [x20, #8]
     a20:	f100003f 	cmp	x1, #0x0
     a24:	540009ad 	b.le	b58 <brel+0x260>
/home/thesis/Desktop/optee_rpi3bplus/optee_os/lib/libutils/isoc/bget.c:949
     a28:	f8616a83 	ldr	x3, [x20, x1]
     a2c:	eb03003f 	cmp	x1, x3
     a30:	54000560 	b.eq	adc <brel+0x1e4>  // b.none
/home/thesis/Desktop/optee_rpi3bplus/optee_os/lib/libutils/isoc/bget.c:949 (discriminator 1)
     a34:	b0000063 	adrp	x3, d000 <primes+0x378>
     a38:	91164063 	add	x3, x3, #0x590
     a3c:	b0000061 	adrp	x1, d000 <primes+0x378>
     a40:	b0000060 	adrp	x0, d000 <primes+0x378>
     a44:	91002c63 	add	x3, x3, #0xb
     a48:	528076a2 	mov	w2, #0x3b5                 	// #949
     a4c:	9117a021 	add	x1, x1, #0x5e8
     a50:	911e2c00 	add	x0, x0, #0x78b
     a54:	17ffffb8 	b	934 <brel+0x3c>
/home/thesis/Desktop/optee_rpi3bplus/optee_os/lib/libutils/isoc/bget.c:929
     a58:	f9400c25 	ldr	x5, [x1, #24]
     a5c:	f94008a4 	ldr	x4, [x5, #16]
     a60:	eb01009f 	cmp	x4, x1
     a64:	54000140 	b.eq	a8c <brel+0x194>  // b.none
/home/thesis/Desktop/optee_rpi3bplus/optee_os/lib/libutils/isoc/bget.c:929 (discriminator 1)
     a68:	b0000063 	adrp	x3, d000 <primes+0x378>
     a6c:	91164063 	add	x3, x3, #0x590
     a70:	b0000061 	adrp	x1, d000 <primes+0x378>
     a74:	b0000060 	adrp	x0, d000 <primes+0x378>
     a78:	91002c63 	add	x3, x3, #0xb
     a7c:	52807422 	mov	w2, #0x3a1                 	// #929
     a80:	9117a021 	add	x1, x1, #0x5e8
     a84:	911c5400 	add	x0, x0, #0x715
     a88:	17ffffab 	b	934 <brel+0x3c>
/home/thesis/Desktop/optee_rpi3bplus/optee_os/lib/libutils/isoc/bget.c:930
     a8c:	f9400881 	ldr	x1, [x4, #16]
     a90:	f9400c21 	ldr	x1, [x1, #24]
     a94:	eb01009f 	cmp	x4, x1
     a98:	54000140 	b.eq	ac0 <brel+0x1c8>  // b.none
/home/thesis/Desktop/optee_rpi3bplus/optee_os/lib/libutils/isoc/bget.c:930 (discriminator 1)
     a9c:	b0000063 	adrp	x3, d000 <primes+0x378>
     aa0:	91164063 	add	x3, x3, #0x590
     aa4:	b0000061 	adrp	x1, d000 <primes+0x378>
     aa8:	b0000060 	adrp	x0, d000 <primes+0x378>
     aac:	91002c63 	add	x3, x3, #0xb
     ab0:	52807442 	mov	w2, #0x3a2                 	// #930
     ab4:	9117a021 	add	x1, x1, #0x5e8
     ab8:	911d4000 	add	x0, x0, #0x750
     abc:	17ffff9e 	b	934 <brel+0x3c>
/home/thesis/Desktop/optee_rpi3bplus/optee_os/lib/libutils/isoc/bget.c:932
     ac0:	a9011664 	stp	x4, x5, [x19, #16]
/home/thesis/Desktop/optee_rpi3bplus/optee_os/lib/libutils/isoc/bget.c:896
     ac4:	cb0303e3 	neg	x3, x3
/home/thesis/Desktop/optee_rpi3bplus/optee_os/lib/libutils/isoc/bget.c:933
     ac8:	f9000c93 	str	x19, [x4, #24]
/home/thesis/Desktop/optee_rpi3bplus/optee_os/lib/libutils/isoc/bget.c:934
     acc:	f9400e61 	ldr	x1, [x19, #24]
     ad0:	f9000833 	str	x19, [x1, #16]
/home/thesis/Desktop/optee_rpi3bplus/optee_os/lib/libutils/isoc/bget.c:935
     ad4:	f81f8003 	stur	x3, [x0, #-8]
     ad8:	17ffffcf 	b	a14 <brel+0x11c>
/home/thesis/Desktop/optee_rpi3bplus/optee_os/lib/libutils/isoc/bget.c:950
     adc:	f9400e84 	ldr	x4, [x20, #24]
     ae0:	f9400885 	ldr	x5, [x4, #16]
     ae4:	eb1400bf 	cmp	x5, x20
     ae8:	54000140 	b.eq	b10 <brel+0x218>  // b.none
/home/thesis/Desktop/optee_rpi3bplus/optee_os/lib/libutils/isoc/bget.c:950 (discriminator 1)
     aec:	b0000063 	adrp	x3, d000 <primes+0x378>
     af0:	91164063 	add	x3, x3, #0x590
     af4:	b0000061 	adrp	x1, d000 <primes+0x378>
     af8:	b0000060 	adrp	x0, d000 <primes+0x378>
     afc:	91002c63 	add	x3, x3, #0xb
     b00:	528076c2 	mov	w2, #0x3b6                 	// #950
     b04:	9117a021 	add	x1, x1, #0x5e8
     b08:	911f1000 	add	x0, x0, #0x7c4
     b0c:	17ffff8a 	b	934 <brel+0x3c>
/home/thesis/Desktop/optee_rpi3bplus/optee_os/lib/libutils/isoc/bget.c:951
     b10:	f94008a3 	ldr	x3, [x5, #16]
     b14:	f9400c66 	ldr	x6, [x3, #24]
     b18:	eb0500df 	cmp	x6, x5
     b1c:	54000140 	b.eq	b44 <brel+0x24c>  // b.none
/home/thesis/Desktop/optee_rpi3bplus/optee_os/lib/libutils/isoc/bget.c:951 (discriminator 1)
     b20:	b0000063 	adrp	x3, d000 <primes+0x378>
     b24:	91164063 	add	x3, x3, #0x590
     b28:	b0000061 	adrp	x1, d000 <primes+0x378>
     b2c:	b0000060 	adrp	x0, d000 <primes+0x378>
     b30:	91002c63 	add	x3, x3, #0xb
     b34:	528076e2 	mov	w2, #0x3b7                 	// #951
     b38:	9117a021 	add	x1, x1, #0x5e8
     b3c:	911f8400 	add	x0, x0, #0x7e1
     b40:	17ffff7d 	b	934 <brel+0x3c>
/home/thesis/Desktop/optee_rpi3bplus/optee_os/lib/libutils/isoc/bget.c:952
     b44:	f9000883 	str	x3, [x4, #16]
/home/thesis/Desktop/optee_rpi3bplus/optee_os/lib/libutils/isoc/bget.c:954
     b48:	8b010014 	add	x20, x0, x1
/home/thesis/Desktop/optee_rpi3bplus/optee_os/lib/libutils/isoc/bget.c:953
     b4c:	f9000c64 	str	x4, [x3, #24]
/home/thesis/Desktop/optee_rpi3bplus/optee_os/lib/libutils/isoc/bget.c:954
     b50:	f9000674 	str	x20, [x19, #8]
/home/thesis/Desktop/optee_rpi3bplus/optee_os/lib/libutils/isoc/bget.c:963
     b54:	8b140274 	add	x20, x19, x20
/home/thesis/Desktop/optee_rpi3bplus/optee_os/lib/libutils/isoc/bget.c:965
     b58:	340000e2 	cbz	w2, b74 <brel+0x27c>
/home/thesis/Desktop/optee_rpi3bplus/optee_os/lib/libutils/isoc/bget.c:967
     b5c:	f9400662 	ldr	x2, [x19, #8]
memset_unchecked():
/home/thesis/Desktop/optee_rpi3bplus/optee_os/lib/libutils/isoc/bget_malloc.c:124
     b60:	52800aa1 	mov	w1, #0x55                  	// #85
     b64:	91008260 	add	x0, x19, #0x20
brel():
/home/thesis/Desktop/optee_rpi3bplus/optee_os/lib/libutils/isoc/bget.c:967
     b68:	51008042 	sub	w2, w2, #0x20
memset_unchecked():
/home/thesis/Desktop/optee_rpi3bplus/optee_os/lib/libutils/isoc/bget_malloc.c:124
     b6c:	93407c42 	sxtw	x2, w2
     b70:	940001ca 	bl	1298 <memset>
brel():
/home/thesis/Desktop/optee_rpi3bplus/optee_os/lib/libutils/isoc/bget.c:969
     b74:	f9400680 	ldr	x0, [x20, #8]
     b78:	b7f80140 	tbnz	x0, #63, ba0 <brel+0x2a8>
/home/thesis/Desktop/optee_rpi3bplus/optee_os/lib/libutils/isoc/bget.c:969 (discriminator 1)
     b7c:	b0000063 	adrp	x3, d000 <primes+0x378>
     b80:	91164063 	add	x3, x3, #0x590
     b84:	b0000061 	adrp	x1, d000 <primes+0x378>
     b88:	b0000060 	adrp	x0, d000 <primes+0x378>
     b8c:	91002c63 	add	x3, x3, #0xb
     b90:	52807922 	mov	w2, #0x3c9                 	// #969
     b94:	9117a021 	add	x1, x1, #0x5e8
     b98:	911ff800 	add	x0, x0, #0x7fe
     b9c:	17ffff66 	b	934 <brel+0x3c>
/home/thesis/Desktop/optee_rpi3bplus/optee_os/lib/libutils/isoc/bget.c:974
     ba0:	f9400660 	ldr	x0, [x19, #8]
     ba4:	f9000280 	str	x0, [x20]
/home/thesis/Desktop/optee_rpi3bplus/optee_os/lib/libutils/isoc/bget.c:1002
     ba8:	a94153f3 	ldp	x19, x20, [sp, #16]
     bac:	a8c27bfd 	ldp	x29, x30, [sp], #32
     bb0:	d65f03c0 	ret

0000000000000bb4 <bgetr>:
bgetr():
/home/thesis/Desktop/optee_rpi3bplus/optee_os/lib/libutils/isoc/bget.c:811
     bb4:	a9bc7bfd 	stp	x29, x30, [sp, #-64]!
     bb8:	910003fd 	mov	x29, sp
     bbc:	a90153f3 	stp	x19, x20, [sp, #16]
     bc0:	aa0103f4 	mov	x20, x1
/home/thesis/Desktop/optee_rpi3bplus/optee_os/lib/libutils/isoc/bget.c:816
     bc4:	aa0203e1 	mov	x1, x2
/home/thesis/Desktop/optee_rpi3bplus/optee_os/lib/libutils/isoc/bget.c:811
     bc8:	a9025bf5 	stp	x21, x22, [sp, #32]
     bcc:	aa0003f5 	mov	x21, x0
/home/thesis/Desktop/optee_rpi3bplus/optee_os/lib/libutils/isoc/bget.c:816
     bd0:	aa1403e0 	mov	x0, x20
/home/thesis/Desktop/optee_rpi3bplus/optee_os/lib/libutils/isoc/bget.c:811
     bd4:	f9001bf7 	str	x23, [sp, #48]
     bd8:	aa0203f7 	mov	x23, x2
/home/thesis/Desktop/optee_rpi3bplus/optee_os/lib/libutils/isoc/bget.c:816
     bdc:	97fffeb4 	bl	6ac <bget>
     be0:	aa0003f6 	mov	x22, x0
     be4:	b4000420 	cbz	x0, c68 <bgetr+0xb4>
/home/thesis/Desktop/optee_rpi3bplus/optee_os/lib/libutils/isoc/bget.c:819
     be8:	b4000415 	cbz	x21, c68 <bgetr+0xb4>
/home/thesis/Desktop/optee_rpi3bplus/optee_os/lib/libutils/isoc/bget.c:833
     bec:	f85f82a1 	ldur	x1, [x21, #-8]
     bf0:	928001f3 	mov	x19, #0xfffffffffffffff0    	// #-16
     bf4:	cb010273 	sub	x19, x19, x1
/home/thesis/Desktop/optee_rpi3bplus/optee_os/lib/libutils/isoc/bget.c:834
     bf8:	f100027f 	cmp	x19, #0x0
     bfc:	5400016c 	b.gt	c28 <bgetr+0x74>
     c00:	b0000063 	adrp	x3, d000 <primes+0x378>
     c04:	91164063 	add	x3, x3, #0x590
     c08:	91004063 	add	x3, x3, #0x10
     c0c:	b0000061 	adrp	x1, d000 <primes+0x378>
     c10:	b0000060 	adrp	x0, d000 <primes+0x378>
     c14:	9117a021 	add	x1, x1, #0x5e8
     c18:	91203c00 	add	x0, x0, #0x80f
     c1c:	52806842 	mov	w2, #0x342                 	// #834
     c20:	940001ac 	bl	12d0 <_assert_log>
     c24:	940001bc 	bl	1314 <_assert_break>
/home/thesis/Desktop/optee_rpi3bplus/optee_os/lib/libutils/isoc/bget.c:835
     c28:	eb13029f 	cmp	x20, x19
     c2c:	93407e81 	sxtw	x1, w20
     c30:	93407e62 	sxtw	x2, w19
     c34:	9a81a042 	csel	x2, x2, x1, ge  // ge = tcont
     c38:	aa1503e1 	mov	x1, x21
     c3c:	9400018f 	bl	1278 <memcpy>
/home/thesis/Desktop/optee_rpi3bplus/optee_os/lib/libutils/isoc/bget.c:839
     c40:	eb13029f 	cmp	x20, x19
     c44:	540000ad 	b.le	c58 <bgetr+0xa4>
/home/thesis/Desktop/optee_rpi3bplus/optee_os/lib/libutils/isoc/bget.c:840
     c48:	cb130282 	sub	x2, x20, x19
     c4c:	52800001 	mov	w1, #0x0                   	// #0
     c50:	8b1302c0 	add	x0, x22, x19
     c54:	94000191 	bl	1298 <memset>
/home/thesis/Desktop/optee_rpi3bplus/optee_os/lib/libutils/isoc/bget.c:842
     c58:	52800002 	mov	w2, #0x0                   	// #0
     c5c:	aa1703e1 	mov	x1, x23
     c60:	aa1503e0 	mov	x0, x21
     c64:	97ffff25 	bl	8f8 <brel>
/home/thesis/Desktop/optee_rpi3bplus/optee_os/lib/libutils/isoc/bget.c:844
     c68:	aa1603e0 	mov	x0, x22
     c6c:	a94153f3 	ldp	x19, x20, [sp, #16]
     c70:	a9425bf5 	ldp	x21, x22, [sp, #32]
     c74:	f9401bf7 	ldr	x23, [sp, #48]
     c78:	a8c47bfd 	ldp	x29, x30, [sp], #64
     c7c:	d65f03c0 	ret

0000000000000c80 <bpool>:
bpool():
/home/thesis/Desktop/optee_rpi3bplus/optee_os/lib/libutils/isoc/bget.c:1028
     c80:	a9bf7bfd 	stp	x29, x30, [sp, #-16]!
/home/thesis/Desktop/optee_rpi3bplus/optee_os/lib/libutils/isoc/bget.c:1033
     c84:	927cec21 	and	x1, x1, #0xfffffffffffffff0
/home/thesis/Desktop/optee_rpi3bplus/optee_os/lib/libutils/isoc/bget.c:1052
     c88:	f1004021 	subs	x1, x1, #0x10
/home/thesis/Desktop/optee_rpi3bplus/optee_os/lib/libutils/isoc/bget.c:1028
     c8c:	910003fd 	mov	x29, sp
/home/thesis/Desktop/optee_rpi3bplus/optee_os/lib/libutils/isoc/bget.c:1052
     c90:	54000165 	b.pl	cbc <bpool+0x3c>  // b.nfrst
/home/thesis/Desktop/optee_rpi3bplus/optee_os/lib/libutils/isoc/bget.c:1052 (discriminator 1)
     c94:	b0000063 	adrp	x3, d000 <primes+0x378>
     c98:	91164063 	add	x3, x3, #0x590
     c9c:	b0000061 	adrp	x1, d000 <primes+0x378>
     ca0:	b0000060 	adrp	x0, d000 <primes+0x378>
     ca4:	91005863 	add	x3, x3, #0x16
     ca8:	9117a021 	add	x1, x1, #0x5e8
     cac:	91206400 	add	x0, x0, #0x819
     cb0:	52808382 	mov	w2, #0x41c                 	// #1052
/home/thesis/Desktop/optee_rpi3bplus/optee_os/lib/libutils/isoc/bget.c:1062 (discriminator 1)
     cb4:	94000187 	bl	12d0 <_assert_log>
     cb8:	94000197 	bl	1314 <_assert_break>
/home/thesis/Desktop/optee_rpi3bplus/optee_os/lib/libutils/isoc/bget.c:1062
     cbc:	f9400c44 	ldr	x4, [x2, #24]
     cc0:	f9400883 	ldr	x3, [x4, #16]
/home/thesis/Desktop/optee_rpi3bplus/optee_os/lib/libutils/isoc/bget.c:1058
     cc4:	f900001f 	str	xzr, [x0]
/home/thesis/Desktop/optee_rpi3bplus/optee_os/lib/libutils/isoc/bget.c:1062
     cc8:	eb02007f 	cmp	x3, x2
     ccc:	54000140 	b.eq	cf4 <bpool+0x74>  // b.none
/home/thesis/Desktop/optee_rpi3bplus/optee_os/lib/libutils/isoc/bget.c:1062 (discriminator 1)
     cd0:	b0000063 	adrp	x3, d000 <primes+0x378>
     cd4:	91164063 	add	x3, x3, #0x590
     cd8:	b0000061 	adrp	x1, d000 <primes+0x378>
     cdc:	b0000060 	adrp	x0, d000 <primes+0x378>
     ce0:	91005863 	add	x3, x3, #0x16
     ce4:	528084c2 	mov	w2, #0x426                 	// #1062
     ce8:	9117a021 	add	x1, x1, #0x5e8
     cec:	911c5400 	add	x0, x0, #0x715
     cf0:	17fffff1 	b	cb4 <bpool+0x34>
/home/thesis/Desktop/optee_rpi3bplus/optee_os/lib/libutils/isoc/bget.c:1063
     cf4:	f9400862 	ldr	x2, [x3, #16]
     cf8:	f9400c42 	ldr	x2, [x2, #24]
     cfc:	eb02007f 	cmp	x3, x2
     d00:	54000140 	b.eq	d28 <bpool+0xa8>  // b.none
     d04:	b0000063 	adrp	x3, d000 <primes+0x378>
     d08:	91164063 	add	x3, x3, #0x590
     d0c:	b0000061 	adrp	x1, d000 <primes+0x378>
     d10:	b0000060 	adrp	x0, d000 <primes+0x378>
     d14:	91005863 	add	x3, x3, #0x16
     d18:	528084e2 	mov	w2, #0x427                 	// #1063
     d1c:	9117a021 	add	x1, x1, #0x5e8
     d20:	911d4000 	add	x0, x0, #0x750
     d24:	17ffffe4 	b	cb4 <bpool+0x34>
/home/thesis/Desktop/optee_rpi3bplus/optee_os/lib/libutils/isoc/bget.c:1065
     d28:	a9011003 	stp	x3, x4, [x0, #16]
/home/thesis/Desktop/optee_rpi3bplus/optee_os/lib/libutils/isoc/bget.c:1066
     d2c:	f9000c60 	str	x0, [x3, #24]
/home/thesis/Desktop/optee_rpi3bplus/optee_os/lib/libutils/isoc/bget.c:1067
     d30:	f9400c02 	ldr	x2, [x0, #24]
     d34:	f9000840 	str	x0, [x2, #16]
/home/thesis/Desktop/optee_rpi3bplus/optee_os/lib/libutils/isoc/bget.c:1083
     d38:	8b010002 	add	x2, x0, x1
/home/thesis/Desktop/optee_rpi3bplus/optee_os/lib/libutils/isoc/bget.c:1078
     d3c:	f9000401 	str	x1, [x0, #8]
/home/thesis/Desktop/optee_rpi3bplus/optee_os/lib/libutils/isoc/bget.c:1084
     d40:	f8216801 	str	x1, [x0, x1]
/home/thesis/Desktop/optee_rpi3bplus/optee_os/lib/libutils/isoc/bget.c:1087
     d44:	d2f00000 	mov	x0, #0x8000000000000000    	// #-9223372036854775808
     d48:	f9000440 	str	x0, [x2, #8]
/home/thesis/Desktop/optee_rpi3bplus/optee_os/lib/libutils/isoc/bget.c:1088
     d4c:	a8c17bfd 	ldp	x29, x30, [sp], #16
     d50:	d65f03c0 	ret

0000000000000d54 <bstats>:
bstats():
/home/thesis/Desktop/optee_rpi3bplus/optee_os/lib/libutils/isoc/bget.c:1101
     d54:	f94014a7 	ldr	x7, [x5, #40]
/home/thesis/Desktop/optee_rpi3bplus/optee_os/lib/libutils/isoc/bget.c:1099
     d58:	f94008a6 	ldr	x6, [x5, #16]
/home/thesis/Desktop/optee_rpi3bplus/optee_os/lib/libutils/isoc/bget.c:1101
     d5c:	f9000067 	str	x7, [x3]
/home/thesis/Desktop/optee_rpi3bplus/optee_os/lib/libutils/isoc/bget.c:1102
     d60:	f94018a3 	ldr	x3, [x5, #48]
     d64:	f9000083 	str	x3, [x4]
/home/thesis/Desktop/optee_rpi3bplus/optee_os/lib/libutils/isoc/bget.c:1103
     d68:	f94010a3 	ldr	x3, [x5, #32]
     d6c:	f9000003 	str	x3, [x0]
/home/thesis/Desktop/optee_rpi3bplus/optee_os/lib/libutils/isoc/bget.c:1104
     d70:	f900003f 	str	xzr, [x1]
/home/thesis/Desktop/optee_rpi3bplus/optee_os/lib/libutils/isoc/bget.c:1105
     d74:	92800000 	mov	x0, #0xffffffffffffffff    	// #-1
     d78:	f9000040 	str	x0, [x2]
/home/thesis/Desktop/optee_rpi3bplus/optee_os/lib/libutils/isoc/bget.c:1106
     d7c:	eb0600bf 	cmp	x5, x6
     d80:	54000041 	b.ne	d88 <bstats+0x34>  // b.any
     d84:	d65f03c0 	ret
/home/thesis/Desktop/optee_rpi3bplus/optee_os/lib/libutils/isoc/bget.c:1107
     d88:	f94004c3 	ldr	x3, [x6, #8]
     d8c:	f100007f 	cmp	x3, #0x0
     d90:	540001ac 	b.gt	dc4 <bstats+0x70>
/home/thesis/Desktop/optee_rpi3bplus/optee_os/lib/libutils/isoc/bget.c:1107 (discriminator 1)
     d94:	b0000063 	adrp	x3, d000 <primes+0x378>
     d98:	91164063 	add	x3, x3, #0x590
     d9c:	91007063 	add	x3, x3, #0x1c
     da0:	b0000061 	adrp	x1, d000 <primes+0x378>
     da4:	b0000060 	adrp	x0, d000 <primes+0x378>
     da8:	9117a021 	add	x1, x1, #0x5e8
     dac:	91213800 	add	x0, x0, #0x84e
/home/thesis/Desktop/optee_rpi3bplus/optee_os/lib/libutils/isoc/bget.c:1098 (discriminator 1)
     db0:	a9bf7bfd 	stp	x29, x30, [sp, #-16]!
/home/thesis/Desktop/optee_rpi3bplus/optee_os/lib/libutils/isoc/bget.c:1107 (discriminator 1)
     db4:	52808a62 	mov	w2, #0x453                 	// #1107
/home/thesis/Desktop/optee_rpi3bplus/optee_os/lib/libutils/isoc/bget.c:1098 (discriminator 1)
     db8:	910003fd 	mov	x29, sp
/home/thesis/Desktop/optee_rpi3bplus/optee_os/lib/libutils/isoc/bget.c:1107 (discriminator 1)
     dbc:	94000145 	bl	12d0 <_assert_log>
     dc0:	94000155 	bl	1314 <_assert_break>
/home/thesis/Desktop/optee_rpi3bplus/optee_os/lib/libutils/isoc/bget.c:1108
     dc4:	f9400020 	ldr	x0, [x1]
     dc8:	8b030000 	add	x0, x0, x3
     dcc:	f9000020 	str	x0, [x1]
/home/thesis/Desktop/optee_rpi3bplus/optee_os/lib/libutils/isoc/bget.c:1109
     dd0:	f9400043 	ldr	x3, [x2]
     dd4:	f94004c0 	ldr	x0, [x6, #8]
     dd8:	eb03001f 	cmp	x0, x3
     ddc:	5400004d 	b.le	de4 <bstats+0x90>
/home/thesis/Desktop/optee_rpi3bplus/optee_os/lib/libutils/isoc/bget.c:1110
     de0:	f9000040 	str	x0, [x2]
/home/thesis/Desktop/optee_rpi3bplus/optee_os/lib/libutils/isoc/bget.c:1112
     de4:	f94008c6 	ldr	x6, [x6, #16]
     de8:	17ffffe5 	b	d7c <bstats+0x28>

0000000000000dec <malloc_reset_stats>:
gen_malloc_reset_stats():
/home/thesis/Desktop/optee_rpi3bplus/optee_os/lib/libutils/isoc/bget_malloc.c:216
     dec:	f0000060 	adrp	x0, f000 <.got>
     df0:	910de000 	add	x0, x0, #0x378
     df4:	b9006c1f 	str	wzr, [x0, #108]
/home/thesis/Desktop/optee_rpi3bplus/optee_os/lib/libutils/isoc/bget_malloc.c:217
     df8:	b900741f 	str	wzr, [x0, #116]
/home/thesis/Desktop/optee_rpi3bplus/optee_os/lib/libutils/isoc/bget_malloc.c:218
     dfc:	f9003c1f 	str	xzr, [x0, #120]
malloc_reset_stats():
/home/thesis/Desktop/optee_rpi3bplus/optee_os/lib/libutils/isoc/bget_malloc.c:226
     e00:	d65f03c0 	ret

0000000000000e04 <malloc_get_stats>:
malloc_get_stats():
/home/thesis/Desktop/optee_rpi3bplus/optee_os/lib/libutils/isoc/bget_malloc.c:239
     e04:	a9be7bfd 	stp	x29, x30, [sp, #-32]!
gen_malloc_get_stats():
/home/thesis/Desktop/optee_rpi3bplus/optee_os/lib/libutils/isoc/bget_malloc.c:233
     e08:	d2800702 	mov	x2, #0x38                  	// #56
malloc_get_stats():
/home/thesis/Desktop/optee_rpi3bplus/optee_os/lib/libutils/isoc/bget_malloc.c:239
     e0c:	910003fd 	mov	x29, sp
     e10:	f9000bf3 	str	x19, [sp, #16]
gen_malloc_get_stats():
/home/thesis/Desktop/optee_rpi3bplus/optee_os/lib/libutils/isoc/bget_malloc.c:233
     e14:	f0000073 	adrp	x19, f000 <.got>
     e18:	910de273 	add	x19, x19, #0x378
     e1c:	91012261 	add	x1, x19, #0x48
     e20:	94000116 	bl	1278 <memcpy>
     e24:	aa0003e3 	mov	x3, x0
/home/thesis/Desktop/optee_rpi3bplus/optee_os/lib/libutils/isoc/bget_malloc.c:234
     e28:	f9401260 	ldr	x0, [x19, #32]
malloc_get_stats():
/home/thesis/Desktop/optee_rpi3bplus/optee_os/lib/libutils/isoc/bget_malloc.c:241
     e2c:	f9400bf3 	ldr	x19, [sp, #16]
gen_malloc_get_stats():
/home/thesis/Desktop/optee_rpi3bplus/optee_os/lib/libutils/isoc/bget_malloc.c:234
     e30:	b9002060 	str	w0, [x3, #32]
malloc_get_stats():
/home/thesis/Desktop/optee_rpi3bplus/optee_os/lib/libutils/isoc/bget_malloc.c:241
     e34:	a8c27bfd 	ldp	x29, x30, [sp], #32
     e38:	d65f03c0 	ret

0000000000000e3c <malloc>:
malloc():
/home/thesis/Desktop/optee_rpi3bplus/optee_os/lib/libutils/isoc/bget_malloc.c:656
     e3c:	a9be7bfd 	stp	x29, x30, [sp, #-32]!
     e40:	910003fd 	mov	x29, sp
     e44:	f9000bf3 	str	x19, [sp, #16]
     e48:	aa0003f3 	mov	x19, x0
raw_malloc():
/home/thesis/Desktop/optee_rpi3bplus/optee_os/lib/libutils/isoc/bget_malloc.c:352
     e4c:	b7f801c0 	tbnz	x0, #63, e84 <malloc+0x48>
/home/thesis/Desktop/optee_rpi3bplus/optee_os/lib/libutils/isoc/bget_malloc.c:359
     e50:	f100001f 	cmp	x0, #0x0
/home/thesis/Desktop/optee_rpi3bplus/optee_os/lib/libutils/isoc/bget_malloc.c:361
     e54:	f0000061 	adrp	x1, f000 <.got>
     e58:	9a9f1400 	csinc	x0, x0, xzr, ne  // ne = any
     e5c:	910de021 	add	x1, x1, #0x378
     e60:	97fffe13 	bl	6ac <bget>
     e64:	aa0003e6 	mov	x6, x0
/home/thesis/Desktop/optee_rpi3bplus/optee_os/lib/libutils/isoc/bget_malloc.c:363
     e68:	aa1303e1 	mov	x1, x19
     e6c:	aa0603e0 	mov	x0, x6
     e70:	97fffdfe 	bl	668 <raw_malloc_return_hook.constprop.21>
malloc():
/home/thesis/Desktop/optee_rpi3bplus/optee_os/lib/libutils/isoc/bget_malloc.c:663
     e74:	aa0603e0 	mov	x0, x6
     e78:	f9400bf3 	ldr	x19, [sp, #16]
     e7c:	a8c27bfd 	ldp	x29, x30, [sp], #32
     e80:	d65f03c0 	ret
raw_malloc():
/home/thesis/Desktop/optee_rpi3bplus/optee_os/lib/libutils/isoc/bget_malloc.c:339
     e84:	d2800006 	mov	x6, #0x0                   	// #0
     e88:	17fffff8 	b	e68 <malloc+0x2c>

0000000000000e8c <calloc>:
calloc():
/home/thesis/Desktop/optee_rpi3bplus/optee_os/lib/libutils/isoc/bget_malloc.c:674
     e8c:	a9be7bfd 	stp	x29, x30, [sp, #-32]!
     e90:	910003fd 	mov	x29, sp
     e94:	f9000bf3 	str	x19, [sp, #16]
raw_calloc():
/home/thesis/Desktop/optee_rpi3bplus/optee_os/lib/libutils/isoc/bget_malloc.c:385
     e98:	9b017c13 	mul	x19, x0, x1
     e9c:	9bc17c00 	umulh	x0, x0, x1
     ea0:	f100001f 	cmp	x0, #0x0
     ea4:	d2800020 	mov	x0, #0x1                   	// #1
     ea8:	9a9f07e1 	cset	x1, ne  // ne = any
     eac:	f100027f 	cmp	x19, #0x0
     eb0:	9a80a021 	csel	x1, x1, x0, ge  // ge = tcont
     eb4:	b50001a1 	cbnz	x1, ee8 <calloc+0x5c>
/home/thesis/Desktop/optee_rpi3bplus/optee_os/lib/libutils/isoc/bget_malloc.c:396
     eb8:	f0000061 	adrp	x1, f000 <.got>
     ebc:	9a801260 	csel	x0, x19, x0, ne  // ne = any
     ec0:	910de021 	add	x1, x1, #0x378
     ec4:	97fffe6a 	bl	86c <bgetz>
     ec8:	aa0003e6 	mov	x6, x0
/home/thesis/Desktop/optee_rpi3bplus/optee_os/lib/libutils/isoc/bget_malloc.c:398
     ecc:	aa1303e1 	mov	x1, x19
     ed0:	aa0603e0 	mov	x0, x6
     ed4:	97fffde5 	bl	668 <raw_malloc_return_hook.constprop.21>
calloc():
/home/thesis/Desktop/optee_rpi3bplus/optee_os/lib/libutils/isoc/bget_malloc.c:681
     ed8:	aa0603e0 	mov	x0, x6
     edc:	f9400bf3 	ldr	x19, [sp, #16]
     ee0:	a8c27bfd 	ldp	x29, x30, [sp], #32
     ee4:	d65f03c0 	ret
raw_calloc():
/home/thesis/Desktop/optee_rpi3bplus/optee_os/lib/libutils/isoc/bget_malloc.c:379
     ee8:	d2800006 	mov	x6, #0x0                   	// #0
     eec:	17fffff8 	b	ecc <calloc+0x40>

0000000000000ef0 <realloc>:
realloc():
/home/thesis/Desktop/optee_rpi3bplus/optee_os/lib/libutils/isoc/bget_malloc.c:690
     ef0:	a9be7bfd 	stp	x29, x30, [sp, #-32]!
     ef4:	910003fd 	mov	x29, sp
     ef8:	f9000bf3 	str	x19, [sp, #16]
     efc:	aa0103f3 	mov	x19, x1
raw_realloc():
/home/thesis/Desktop/optee_rpi3bplus/optee_os/lib/libutils/isoc/bget_malloc.c:410
     f00:	b7f801c1 	tbnz	x1, #63, f38 <realloc+0x48>
/home/thesis/Desktop/optee_rpi3bplus/optee_os/lib/libutils/isoc/bget_malloc.c:419
     f04:	f100003f 	cmp	x1, #0x0
/home/thesis/Desktop/optee_rpi3bplus/optee_os/lib/libutils/isoc/bget_malloc.c:421
     f08:	f0000062 	adrp	x2, f000 <.got>
     f0c:	9a9f1421 	csinc	x1, x1, xzr, ne  // ne = any
     f10:	910de042 	add	x2, x2, #0x378
     f14:	97ffff28 	bl	bb4 <bgetr>
     f18:	aa0003e6 	mov	x6, x0
/home/thesis/Desktop/optee_rpi3bplus/optee_os/lib/libutils/isoc/bget_malloc.c:423
     f1c:	aa1303e1 	mov	x1, x19
     f20:	aa0603e0 	mov	x0, x6
     f24:	97fffdd1 	bl	668 <raw_malloc_return_hook.constprop.21>
realloc():
/home/thesis/Desktop/optee_rpi3bplus/optee_os/lib/libutils/isoc/bget_malloc.c:697
     f28:	aa0603e0 	mov	x0, x6
     f2c:	f9400bf3 	ldr	x19, [sp, #16]
     f30:	a8c27bfd 	ldp	x29, x30, [sp], #32
     f34:	d65f03c0 	ret
raw_realloc():
/home/thesis/Desktop/optee_rpi3bplus/optee_os/lib/libutils/isoc/bget_malloc.c:406
     f38:	d2800006 	mov	x6, #0x0                   	// #0
     f3c:	17fffff8 	b	f1c <realloc+0x2c>

0000000000000f40 <free>:
raw_free():
/home/thesis/Desktop/optee_rpi3bplus/optee_os/lib/libutils/isoc/bget_malloc.c:372
     f40:	b40000a0 	cbz	x0, f54 <free+0x14>
/home/thesis/Desktop/optee_rpi3bplus/optee_os/lib/libutils/isoc/bget_malloc.c:373
     f44:	52800002 	mov	w2, #0x0                   	// #0
     f48:	f0000061 	adrp	x1, f000 <.got>
     f4c:	910de021 	add	x1, x1, #0x378
     f50:	17fffe6a 	b	8f8 <brel>
free():
/home/thesis/Desktop/optee_rpi3bplus/optee_os/lib/libutils/isoc/bget_malloc.c:710
     f54:	d65f03c0 	ret

0000000000000f58 <free_wipe>:
raw_free():
/home/thesis/Desktop/optee_rpi3bplus/optee_os/lib/libutils/isoc/bget_malloc.c:372
     f58:	b40000a0 	cbz	x0, f6c <free_wipe+0x14>
/home/thesis/Desktop/optee_rpi3bplus/optee_os/lib/libutils/isoc/bget_malloc.c:373
     f5c:	52800022 	mov	w2, #0x1                   	// #1
     f60:	f0000061 	adrp	x1, f000 <.got>
     f64:	910de021 	add	x1, x1, #0x378
     f68:	17fffe64 	b	8f8 <brel>
free_wipe():
/home/thesis/Desktop/optee_rpi3bplus/optee_os/lib/libutils/isoc/bget_malloc.c:715
     f6c:	d65f03c0 	ret

0000000000000f70 <malloc_add_pool>:
malloc_add_pool():
/home/thesis/Desktop/optee_rpi3bplus/optee_os/lib/libutils/isoc/bget_malloc.c:823
     f70:	a9bc7bfd 	stp	x29, x30, [sp, #-64]!
     f74:	910003fd 	mov	x29, sp
     f78:	a90153f3 	stp	x19, x20, [sp, #16]
gen_malloc_add_pool():
/home/thesis/Desktop/optee_rpi3bplus/optee_os/lib/libutils/isoc/bget_malloc.c:723
     f7c:	8b010014 	add	x20, x0, x1
/home/thesis/Desktop/optee_rpi3bplus/optee_os/lib/libutils/isoc/bget_malloc.c:729
     f80:	91003c00 	add	x0, x0, #0xf
malloc_add_pool():
/home/thesis/Desktop/optee_rpi3bplus/optee_os/lib/libutils/isoc/bget_malloc.c:823
     f84:	a9025bf5 	stp	x21, x22, [sp, #32]
gen_malloc_add_pool():
/home/thesis/Desktop/optee_rpi3bplus/optee_os/lib/libutils/isoc/bget_malloc.c:730
     f88:	927cee94 	and	x20, x20, #0xfffffffffffffff0
/home/thesis/Desktop/optee_rpi3bplus/optee_os/lib/libutils/isoc/bget_malloc.c:729
     f8c:	927cec16 	and	x22, x0, #0xfffffffffffffff0
malloc_add_pool():
/home/thesis/Desktop/optee_rpi3bplus/optee_os/lib/libutils/isoc/bget_malloc.c:823
     f90:	a90363f7 	stp	x23, x24, [sp, #48]
gen_malloc_add_pool():
/home/thesis/Desktop/optee_rpi3bplus/optee_os/lib/libutils/isoc/bget_malloc.c:731
     f94:	eb1402df 	cmp	x22, x20
     f98:	54000163 	b.cc	fc4 <malloc_add_pool+0x54>  // b.lo, b.ul, b.last
     f9c:	b0000063 	adrp	x3, d000 <primes+0x378>
     fa0:	91164063 	add	x3, x3, #0x590
     fa4:	b0000061 	adrp	x1, d000 <primes+0x378>
     fa8:	b0000060 	adrp	x0, d000 <primes+0x378>
     fac:	91008c63 	add	x3, x3, #0x23
     fb0:	91217821 	add	x1, x1, #0x85e
     fb4:	9121f800 	add	x0, x0, #0x87e
     fb8:	52805b62 	mov	w2, #0x2db                 	// #731
/home/thesis/Desktop/optee_rpi3bplus/optee_os/lib/libutils/isoc/bget_malloc.c:744
     fbc:	940000c5 	bl	12d0 <_assert_log>
     fc0:	940000d5 	bl	1314 <_assert_break>
/home/thesis/Desktop/optee_rpi3bplus/optee_os/lib/libutils/isoc/bget_malloc.c:733
     fc4:	cb160294 	sub	x20, x20, x22
     fc8:	f100be9f 	cmp	x20, #0x2f
     fcc:	54000569 	b.ls	1078 <malloc_add_pool+0x108>  // b.plast
/home/thesis/Desktop/optee_rpi3bplus/optee_os/lib/libutils/isoc/bget_malloc.c:741
     fd0:	f0000073 	adrp	x19, f000 <.got>
     fd4:	910de278 	add	x24, x19, #0x378
     fd8:	aa1803e2 	mov	x2, x24
     fdc:	aa1403e1 	mov	x1, x20
     fe0:	aa1603e0 	mov	x0, x22
     fe4:	97ffff27 	bl	c80 <bpool>
/home/thesis/Desktop/optee_rpi3bplus/optee_os/lib/libutils/isoc/bget_malloc.c:742
     fe8:	f9402317 	ldr	x23, [x24, #64]
     fec:	910006f7 	add	x23, x23, #0x1
/home/thesis/Desktop/optee_rpi3bplus/optee_os/lib/libutils/isoc/bget_malloc.c:743
     ff0:	d37ceef5 	lsl	x21, x23, #4
raw_realloc():
/home/thesis/Desktop/optee_rpi3bplus/optee_os/lib/libutils/isoc/bget_malloc.c:410
     ff4:	b7f80295 	tbnz	x21, #63, 1044 <malloc_add_pool+0xd4>
/home/thesis/Desktop/optee_rpi3bplus/optee_os/lib/libutils/isoc/bget_malloc.c:421
     ff8:	f9401f00 	ldr	x0, [x24, #56]
/home/thesis/Desktop/optee_rpi3bplus/optee_os/lib/libutils/isoc/bget_malloc.c:419
     ffc:	f10002bf 	cmp	x21, #0x0
/home/thesis/Desktop/optee_rpi3bplus/optee_os/lib/libutils/isoc/bget_malloc.c:421
    1000:	aa1803e2 	mov	x2, x24
    1004:	9a9f16a1 	csinc	x1, x21, xzr, ne  // ne = any
    1008:	97fffeeb 	bl	bb4 <bgetr>
    100c:	aa0003e6 	mov	x6, x0
/home/thesis/Desktop/optee_rpi3bplus/optee_os/lib/libutils/isoc/bget_malloc.c:423
    1010:	aa1503e1 	mov	x1, x21
    1014:	aa0603e0 	mov	x0, x6
    1018:	97fffd94 	bl	668 <raw_malloc_return_hook.constprop.21>
gen_malloc_add_pool():
/home/thesis/Desktop/optee_rpi3bplus/optee_os/lib/libutils/isoc/bget_malloc.c:744
    101c:	b5000186 	cbnz	x6, 104c <malloc_add_pool+0xdc>
    1020:	90000063 	adrp	x3, d000 <primes+0x378>
    1024:	91164063 	add	x3, x3, #0x590
    1028:	90000061 	adrp	x1, d000 <primes+0x378>
    102c:	90000060 	adrp	x0, d000 <primes+0x378>
    1030:	91008c63 	add	x3, x3, #0x23
    1034:	52805d02 	mov	w2, #0x2e8                 	// #744
    1038:	91217821 	add	x1, x1, #0x85e
    103c:	91222800 	add	x0, x0, #0x88a
    1040:	17ffffdf 	b	fbc <malloc_add_pool+0x4c>
raw_realloc():
/home/thesis/Desktop/optee_rpi3bplus/optee_os/lib/libutils/isoc/bget_malloc.c:406
    1044:	d2800006 	mov	x6, #0x0                   	// #0
    1048:	17fffff2 	b	1010 <malloc_add_pool+0xa0>
gen_malloc_add_pool():
/home/thesis/Desktop/optee_rpi3bplus/optee_os/lib/libutils/isoc/bget_malloc.c:745
    104c:	910de260 	add	x0, x19, #0x378
/home/thesis/Desktop/optee_rpi3bplus/optee_os/lib/libutils/isoc/bget_malloc.c:746
    1050:	f9402001 	ldr	x1, [x0, #64]
/home/thesis/Desktop/optee_rpi3bplus/optee_os/lib/libutils/isoc/bget_malloc.c:745
    1054:	f9001c06 	str	x6, [x0, #56]
/home/thesis/Desktop/optee_rpi3bplus/optee_os/lib/libutils/isoc/bget_malloc.c:746
    1058:	d37cec21 	lsl	x1, x1, #4
    105c:	8b0100c2 	add	x2, x6, x1
    1060:	f82168d6 	str	x22, [x6, x1]
/home/thesis/Desktop/optee_rpi3bplus/optee_os/lib/libutils/isoc/bget_malloc.c:749
    1064:	b9407001 	ldr	w1, [x0, #112]
/home/thesis/Desktop/optee_rpi3bplus/optee_os/lib/libutils/isoc/bget_malloc.c:747
    1068:	f9000454 	str	x20, [x2, #8]
/home/thesis/Desktop/optee_rpi3bplus/optee_os/lib/libutils/isoc/bget_malloc.c:749
    106c:	0b140034 	add	w20, w1, w20
/home/thesis/Desktop/optee_rpi3bplus/optee_os/lib/libutils/isoc/bget_malloc.c:751
    1070:	f9002017 	str	x23, [x0, #64]
/home/thesis/Desktop/optee_rpi3bplus/optee_os/lib/libutils/isoc/bget_malloc.c:749
    1074:	b9007014 	str	w20, [x0, #112]
malloc_add_pool():
/home/thesis/Desktop/optee_rpi3bplus/optee_os/lib/libutils/isoc/bget_malloc.c:825
    1078:	a94153f3 	ldp	x19, x20, [sp, #16]
    107c:	a9425bf5 	ldp	x21, x22, [sp, #32]
    1080:	a94363f7 	ldp	x23, x24, [sp, #48]
    1084:	a8c47bfd 	ldp	x29, x30, [sp], #64
    1088:	d65f03c0 	ret

000000000000108c <malloc_buffer_is_within_alloced>:
gen_malloc_buffer_is_within_alloced():
/home/thesis/Desktop/optee_rpi3bplus/optee_os/lib/libutils/isoc/bget_malloc.c:761
    108c:	8b010001 	add	x1, x0, x1
/home/thesis/Desktop/optee_rpi3bplus/optee_os/lib/libutils/isoc/bget_malloc.c:768
    1090:	eb01001f 	cmp	x0, x1
    1094:	54000b88 	b.hi	1204 <malloc_buffer_is_within_alloced+0x178>  // b.pmore
    1098:	aa0003e4 	mov	x4, x0
/home/thesis/Desktop/optee_rpi3bplus/optee_os/lib/libutils/isoc/bget_malloc.c:771
    109c:	d0000060 	adrp	x0, f000 <.got>
    10a0:	910de000 	add	x0, x0, #0x378
bpool_foreach_iterator_init():
/home/thesis/Desktop/optee_rpi3bplus/optee_os/lib/libutils/isoc/bget_malloc.c:276
    10a4:	d2800005 	mov	x5, #0x0                   	// #0
bpool_foreach_pool():
/home/thesis/Desktop/optee_rpi3bplus/optee_os/lib/libutils/isoc/bget_malloc.c:286
    10a8:	d2f0000a 	mov	x10, #0x8000000000000000    	// #-9223372036854775808
    10ac:	928001eb 	mov	x11, #0xfffffffffffffff0    	// #-16
bpool_foreach():
/home/thesis/Desktop/optee_rpi3bplus/optee_os/lib/libutils/isoc/bget_malloc.c:323
    10b0:	a943a406 	ldp	x6, x9, [x0, #56]
bpool_foreach_iterator_init():
/home/thesis/Desktop/optee_rpi3bplus/optee_os/lib/libutils/isoc/bget_malloc.c:277
    10b4:	f94000c3 	ldr	x3, [x6]
/home/thesis/Desktop/optee_rpi3bplus/optee_os/lib/libutils/isoc/bget_malloc.c:276
    10b8:	aa0303e0 	mov	x0, x3
bpool_foreach_pool():
/home/thesis/Desktop/optee_rpi3bplus/optee_os/lib/libutils/isoc/bget_malloc.c:284
    10bc:	f9400462 	ldr	x2, [x3, #8]
/home/thesis/Desktop/optee_rpi3bplus/optee_os/lib/libutils/isoc/bget_malloc.c:286
    10c0:	eb0a005f 	cmp	x2, x10
    10c4:	540009a0 	b.eq	11f8 <malloc_buffer_is_within_alloced+0x16c>  // b.none
malloc_buffer_is_within_alloced():
/home/thesis/Desktop/optee_rpi3bplus/optee_os/lib/libutils/isoc/bget_malloc.c:828
    10c8:	a9bf7bfd 	stp	x29, x30, [sp, #-16]!
    10cc:	910003fd 	mov	x29, sp
    10d0:	1400000d 	b	1104 <malloc_buffer_is_within_alloced+0x78>
bpool_foreach_pool():
/home/thesis/Desktop/optee_rpi3bplus/optee_os/lib/libutils/isoc/bget_malloc.c:303
    10d4:	91004000 	add	x0, x0, #0x10
gen_malloc_buffer_is_within_alloced():
/home/thesis/Desktop/optee_rpi3bplus/optee_os/lib/libutils/isoc/bget_malloc.c:777
    10d8:	8b020002 	add	x2, x0, x2
/home/thesis/Desktop/optee_rpi3bplus/optee_os/lib/libutils/isoc/bget_malloc.c:779
    10dc:	eb02003f 	cmp	x1, x2
    10e0:	1a9f87e2 	cset	w2, ls  // ls = plast
    10e4:	eb00009f 	cmp	x4, x0
    10e8:	1a9f37e0 	cset	w0, cs  // cs = hs, nlast
    10ec:	6a000040 	ands	w0, w2, w0
    10f0:	540007a1 	b.ne	11e4 <malloc_buffer_is_within_alloced+0x158>  // b.any
bpool_foreach_pool():
/home/thesis/Desktop/optee_rpi3bplus/optee_os/lib/libutils/isoc/bget_malloc.c:284
    10f4:	f9400462 	ldr	x2, [x3, #8]
bpool_foreach_iterator_init():
/home/thesis/Desktop/optee_rpi3bplus/optee_os/lib/libutils/isoc/bget_malloc.c:276
    10f8:	aa0303e0 	mov	x0, x3
bpool_foreach_pool():
/home/thesis/Desktop/optee_rpi3bplus/optee_os/lib/libutils/isoc/bget_malloc.c:286
    10fc:	eb0a005f 	cmp	x2, x10
    1100:	540006a0 	b.eq	11d4 <malloc_buffer_is_within_alloced+0x148>  // b.none
/home/thesis/Desktop/optee_rpi3bplus/optee_os/lib/libutils/isoc/bget_malloc.c:289
    1104:	b6f80242 	tbz	x2, #63, 114c <malloc_buffer_is_within_alloced+0xc0>
/home/thesis/Desktop/optee_rpi3bplus/optee_os/lib/libutils/isoc/bget_malloc.c:291
    1108:	cb0203e8 	neg	x8, x2
/home/thesis/Desktop/optee_rpi3bplus/optee_os/lib/libutils/isoc/bget_malloc.c:293
    110c:	52800007 	mov	w7, #0x0                   	// #0
/home/thesis/Desktop/optee_rpi3bplus/optee_os/lib/libutils/isoc/bget_malloc.c:306
    1110:	8b080063 	add	x3, x3, x8
bpool_foreach():
/home/thesis/Desktop/optee_rpi3bplus/optee_os/lib/libutils/isoc/bget_malloc.c:318
    1114:	35ffff07 	cbnz	w7, 10f4 <malloc_buffer_is_within_alloced+0x68>
bget_buf_size():
/home/thesis/Desktop/optee_rpi3bplus/optee_os/lib/libutils/isoc/bget_malloc.c:445
    1118:	cb020162 	sub	x2, x11, x2
/home/thesis/Desktop/optee_rpi3bplus/optee_os/lib/libutils/isoc/bget_malloc.c:446
    111c:	f100005f 	cmp	x2, #0x0
    1120:	54fffdac 	b.gt	10d4 <malloc_buffer_is_within_alloced+0x48>
    1124:	90000063 	adrp	x3, d000 <primes+0x378>
    1128:	91164063 	add	x3, x3, #0x590
    112c:	9100dc63 	add	x3, x3, #0x37
    1130:	90000061 	adrp	x1, d000 <primes+0x378>
    1134:	90000060 	adrp	x0, d000 <primes+0x378>
    1138:	91217821 	add	x1, x1, #0x85e
    113c:	91203c00 	add	x0, x0, #0x80f
    1140:	528037c2 	mov	w2, #0x1be                 	// #446
    1144:	94000063 	bl	12d0 <_assert_log>
    1148:	94000073 	bl	1314 <_assert_break>
bpool_foreach_pool():
/home/thesis/Desktop/optee_rpi3bplus/optee_os/lib/libutils/isoc/bget_malloc.c:299
    114c:	f9400c67 	ldr	x7, [x3, #24]
    1150:	f94008e7 	ldr	x7, [x7, #16]
    1154:	eb0300ff 	cmp	x7, x3
    1158:	54000160 	b.eq	1184 <malloc_buffer_is_within_alloced+0xf8>  // b.none
    115c:	90000063 	adrp	x3, d000 <primes+0x378>
    1160:	91164063 	add	x3, x3, #0x590
    1164:	91011463 	add	x3, x3, #0x45
    1168:	90000061 	adrp	x1, d000 <primes+0x378>
    116c:	90000060 	adrp	x0, d000 <primes+0x378>
    1170:	91217821 	add	x1, x1, #0x85e
    1174:	9118e400 	add	x0, x0, #0x639
    1178:	52802562 	mov	w2, #0x12b                 	// #299
    117c:	94000055 	bl	12d0 <_assert_log>
    1180:	94000065 	bl	1314 <_assert_break>
/home/thesis/Desktop/optee_rpi3bplus/optee_os/lib/libutils/isoc/bget_malloc.c:300
    1184:	f9400867 	ldr	x7, [x3, #16]
    1188:	f9400ce7 	ldr	x7, [x7, #24]
    118c:	eb0300ff 	cmp	x7, x3
    1190:	54000160 	b.eq	11bc <malloc_buffer_is_within_alloced+0x130>  // b.none
    1194:	90000063 	adrp	x3, d000 <primes+0x378>
    1198:	91164063 	add	x3, x3, #0x590
    119c:	91011463 	add	x3, x3, #0x45
    11a0:	90000061 	adrp	x1, d000 <primes+0x378>
    11a4:	90000060 	adrp	x0, d000 <primes+0x378>
    11a8:	91217821 	add	x1, x1, #0x85e
    11ac:	91195000 	add	x0, x0, #0x654
    11b0:	52802582 	mov	w2, #0x12c                 	// #300
    11b4:	94000047 	bl	12d0 <_assert_log>
    11b8:	94000057 	bl	1314 <_assert_break>
    11bc:	aa0203e8 	mov	x8, x2
/home/thesis/Desktop/optee_rpi3bplus/optee_os/lib/libutils/isoc/bget_malloc.c:296
    11c0:	52800027 	mov	w7, #0x1                   	// #1
    11c4:	17ffffd3 	b	1110 <malloc_buffer_is_within_alloced+0x84>
bpool_foreach():
/home/thesis/Desktop/optee_rpi3bplus/optee_os/lib/libutils/isoc/bget_malloc.c:327
    11c8:	d37ceca0 	lsl	x0, x5, #4
    11cc:	f86068c3 	ldr	x3, [x6, x0]
    11d0:	17ffffc9 	b	10f4 <malloc_buffer_is_within_alloced+0x68>
/home/thesis/Desktop/optee_rpi3bplus/optee_os/lib/libutils/isoc/bget_malloc.c:323
    11d4:	910004a5 	add	x5, x5, #0x1
    11d8:	eb0900bf 	cmp	x5, x9
    11dc:	54ffff63 	b.cc	11c8 <malloc_buffer_is_within_alloced+0x13c>  // b.lo, b.ul, b.last
gen_malloc_buffer_is_within_alloced():
/home/thesis/Desktop/optee_rpi3bplus/optee_os/lib/libutils/isoc/bget_malloc.c:762
    11e0:	52800000 	mov	w0, #0x0                   	// #0
malloc_buffer_is_within_alloced():
/home/thesis/Desktop/optee_rpi3bplus/optee_os/lib/libutils/isoc/bget_malloc.c:830
    11e4:	a8c17bfd 	ldp	x29, x30, [sp], #16
    11e8:	d65f03c0 	ret
bpool_foreach():
/home/thesis/Desktop/optee_rpi3bplus/optee_os/lib/libutils/isoc/bget_malloc.c:327
    11ec:	d37ceca0 	lsl	x0, x5, #4
    11f0:	f86068c3 	ldr	x3, [x6, x0]
    11f4:	17ffffb1 	b	10b8 <malloc_buffer_is_within_alloced+0x2c>
/home/thesis/Desktop/optee_rpi3bplus/optee_os/lib/libutils/isoc/bget_malloc.c:323
    11f8:	910004a5 	add	x5, x5, #0x1
    11fc:	eb0900bf 	cmp	x5, x9
    1200:	54ffff63 	b.cc	11ec <malloc_buffer_is_within_alloced+0x160>  // b.lo, b.ul, b.last
gen_malloc_buffer_is_within_alloced():
/home/thesis/Desktop/optee_rpi3bplus/optee_os/lib/libutils/isoc/bget_malloc.c:762
    1204:	52800000 	mov	w0, #0x0                   	// #0
malloc_buffer_is_within_alloced():
/home/thesis/Desktop/optee_rpi3bplus/optee_os/lib/libutils/isoc/bget_malloc.c:830
    1208:	d65f03c0 	ret

000000000000120c <malloc_buffer_overlaps_heap>:
gen_malloc_buffer_overlaps_heap():
/home/thesis/Desktop/optee_rpi3bplus/optee_os/lib/libutils/isoc/bget_malloc.c:802
    120c:	d0000062 	adrp	x2, f000 <.got>
    1210:	910de042 	add	x2, x2, #0x378
/home/thesis/Desktop/optee_rpi3bplus/optee_os/lib/libutils/isoc/bget_malloc.c:795
    1214:	8b010001 	add	x1, x0, x1
/home/thesis/Desktop/optee_rpi3bplus/optee_os/lib/libutils/isoc/bget_malloc.c:802
    1218:	d2800005 	mov	x5, #0x0                   	// #0
    121c:	a9439c43 	ldp	x3, x7, [x2, #56]
    1220:	eb0700bf 	cmp	x5, x7
    1224:	54000081 	b.ne	1234 <malloc_buffer_overlaps_heap+0x28>  // b.any
/home/thesis/Desktop/optee_rpi3bplus/optee_os/lib/libutils/isoc/bget_malloc.c:797
    1228:	52800002 	mov	w2, #0x0                   	// #0
malloc_buffer_overlaps_heap():
/home/thesis/Desktop/optee_rpi3bplus/optee_os/lib/libutils/isoc/bget_malloc.c:835
    122c:	2a0203e0 	mov	w0, w2
    1230:	d65f03c0 	ret
gen_malloc_buffer_overlaps_heap():
/home/thesis/Desktop/optee_rpi3bplus/optee_os/lib/libutils/isoc/bget_malloc.c:804
    1234:	a9401066 	ldp	x6, x4, [x3]
/home/thesis/Desktop/optee_rpi3bplus/optee_os/lib/libutils/isoc/bget_malloc.c:806
    1238:	eb01001f 	cmp	x0, x1
    123c:	1a9f97e2 	cset	w2, hi  // hi = pmore
/home/thesis/Desktop/optee_rpi3bplus/optee_os/lib/libutils/isoc/bget_malloc.c:804
    1240:	8b0400c4 	add	x4, x6, x4
/home/thesis/Desktop/optee_rpi3bplus/optee_os/lib/libutils/isoc/bget_malloc.c:806
    1244:	eb0400df 	cmp	x6, x4
    1248:	1a9f97e8 	cset	w8, hi  // hi = pmore
    124c:	2a080042 	orr	w2, w2, w8
    1250:	35fffee2 	cbnz	w2, 122c <malloc_buffer_overlaps_heap+0x20>
/home/thesis/Desktop/optee_rpi3bplus/optee_os/lib/libutils/isoc/bget_malloc.c:811
    1254:	eb06003f 	cmp	x1, x6
    1258:	91004063 	add	x3, x3, #0x10
    125c:	1a9f97e2 	cset	w2, hi  // hi = pmore
    1260:	eb04001f 	cmp	x0, x4
    1264:	1a9f27e4 	cset	w4, cc  // cc = lo, ul, last
    1268:	2a040042 	orr	w2, w2, w4
    126c:	35fffe02 	cbnz	w2, 122c <malloc_buffer_overlaps_heap+0x20>
/home/thesis/Desktop/optee_rpi3bplus/optee_os/lib/libutils/isoc/bget_malloc.c:802
    1270:	910004a5 	add	x5, x5, #0x1
    1274:	17ffffeb 	b	1220 <malloc_buffer_overlaps_heap+0x14>

0000000000001278 <memcpy>:
memcpy():
/home/thesis/Desktop/optee_rpi3bplus/optee_os/lib/libutils/isoc/newlib/memcpy.c:94
    1278:	d2800003 	mov	x3, #0x0                   	// #0
    127c:	eb03005f 	cmp	x2, x3
    1280:	54000041 	b.ne	1288 <memcpy+0x10>  // b.any
/home/thesis/Desktop/optee_rpi3bplus/optee_os/lib/libutils/isoc/newlib/memcpy.c:135
    1284:	d65f03c0 	ret
/home/thesis/Desktop/optee_rpi3bplus/optee_os/lib/libutils/isoc/newlib/memcpy.c:95
    1288:	38636824 	ldrb	w4, [x1, x3]
    128c:	38236804 	strb	w4, [x0, x3]
    1290:	91000463 	add	x3, x3, #0x1
    1294:	17fffffa 	b	127c <memcpy+0x4>

0000000000001298 <memset>:
memset():
/home/thesis/Desktop/optee_rpi3bplus/optee_os/lib/libutils/isoc/newlib/memset.c:125
    1298:	d2800003 	mov	x3, #0x0                   	// #0
    129c:	eb03005f 	cmp	x2, x3
    12a0:	54000041 	b.ne	12a8 <memset+0x10>  // b.any
/home/thesis/Desktop/optee_rpi3bplus/optee_os/lib/libutils/isoc/newlib/memset.c:129
    12a4:	d65f03c0 	ret
/home/thesis/Desktop/optee_rpi3bplus/optee_os/lib/libutils/isoc/newlib/memset.c:126
    12a8:	38236801 	strb	w1, [x0, x3]
    12ac:	91000463 	add	x3, x3, #0x1
    12b0:	17fffffb 	b	129c <memset+0x4>

00000000000012b4 <strlen>:
strlen():
/home/thesis/Desktop/optee_rpi3bplus/optee_os/lib/libutils/isoc/newlib/strlen.c:117
    12b4:	aa0003e1 	mov	x1, x0
    12b8:	39400022 	ldrb	w2, [x1]
    12bc:	35000062 	cbnz	w2, 12c8 <strlen+0x14>
/home/thesis/Desktop/optee_rpi3bplus/optee_os/lib/libutils/isoc/newlib/strlen.c:120
    12c0:	cb000020 	sub	x0, x1, x0
    12c4:	d65f03c0 	ret
/home/thesis/Desktop/optee_rpi3bplus/optee_os/lib/libutils/isoc/newlib/strlen.c:118
    12c8:	91000421 	add	x1, x1, #0x1
    12cc:	17fffffb 	b	12b8 <strlen+0x4>

00000000000012d0 <_assert_log>:
_assert_log():
/home/thesis/Desktop/optee_rpi3bplus/optee_os/lib/libutee/assert.c:17
    12d0:	d10083ff 	sub	sp, sp, #0x20
/home/thesis/Desktop/optee_rpi3bplus/optee_os/lib/libutee/assert.c:18
    12d4:	2a0203e7 	mov	w7, w2
    12d8:	aa0103e6 	mov	x6, x1
    12dc:	aa0003e5 	mov	x5, x0
    12e0:	52800022 	mov	w2, #0x1                   	// #1
    12e4:	52800001 	mov	w1, #0x0                   	// #0
/home/thesis/Desktop/optee_rpi3bplus/optee_os/lib/libutee/assert.c:17
    12e8:	a9017bfd 	stp	x29, x30, [sp, #16]
    12ec:	910043fd 	add	x29, sp, #0x10
/home/thesis/Desktop/optee_rpi3bplus/optee_os/lib/libutee/assert.c:18
    12f0:	d2800000 	mov	x0, #0x0                   	// #0
    12f4:	90000064 	adrp	x4, d000 <primes+0x378>
    12f8:	f90003e3 	str	x3, [sp]
    12fc:	91223084 	add	x4, x4, #0x88c
    1300:	52800023 	mov	w3, #0x1                   	// #1
    1304:	94002322 	bl	9f8c <trace_printf>
/home/thesis/Desktop/optee_rpi3bplus/optee_os/lib/libutee/assert.c:20
    1308:	a9417bfd 	ldp	x29, x30, [sp, #16]
    130c:	910083ff 	add	sp, sp, #0x20
    1310:	d65f03c0 	ret

0000000000001314 <_assert_break>:
_assert_break():
/home/thesis/Desktop/optee_rpi3bplus/optee_os/lib/libutee/assert.c:23
    1314:	a9bf7bfd 	stp	x29, x30, [sp, #-16]!
/home/thesis/Desktop/optee_rpi3bplus/optee_os/lib/libutee/assert.c:24
    1318:	d2bfffe0 	mov	x0, #0xffff0000            	// #4294901760
/home/thesis/Desktop/optee_rpi3bplus/optee_os/lib/libutee/assert.c:23
    131c:	910003fd 	mov	x29, sp
/home/thesis/Desktop/optee_rpi3bplus/optee_os/lib/libutee/assert.c:24
    1320:	940003f8 	bl	2300 <utee_panic>
/home/thesis/Desktop/optee_rpi3bplus/optee_os/lib/libutee/assert.c:27 (discriminator 1)
    1324:	14000000 	b	1324 <_assert_break+0x10>

0000000000001328 <__utee_from_attr>:
__utee_from_attr():
/home/thesis/Desktop/optee_rpi3bplus/optee_os/lib/libutee/tee_api_objects.c:22
    1328:	2a0203e2 	mov	w2, w2
    132c:	d2800003 	mov	x3, #0x0                   	// #0
/home/thesis/Desktop/optee_rpi3bplus/optee_os/lib/libutee/tee_api_objects.c:22 (discriminator 1)
    1330:	eb03005f 	cmp	x2, x3
    1334:	54000048 	b.hi	133c <__utee_from_attr+0x14>  // b.pmore
/home/thesis/Desktop/optee_rpi3bplus/optee_os/lib/libutee/tee_api_objects.c:32
    1338:	d65f03c0 	ret
/home/thesis/Desktop/optee_rpi3bplus/optee_os/lib/libutee/tee_api_objects.c:23
    133c:	b9400024 	ldr	w4, [x1]
    1340:	b9001004 	str	w4, [x0, #16]
/home/thesis/Desktop/optee_rpi3bplus/optee_os/lib/libutee/tee_api_objects.c:24
    1344:	36e80124 	tbz	w4, #29, 1368 <__utee_from_attr+0x40>
/home/thesis/Desktop/optee_rpi3bplus/optee_os/lib/libutee/tee_api_objects.c:25
    1348:	b9400824 	ldr	w4, [x1, #8]
    134c:	f9000004 	str	x4, [x0]
/home/thesis/Desktop/optee_rpi3bplus/optee_os/lib/libutee/tee_api_objects.c:26
    1350:	b9400c24 	ldr	w4, [x1, #12]
/home/thesis/Desktop/optee_rpi3bplus/optee_os/lib/libutee/tee_api_objects.c:22
    1354:	91000463 	add	x3, x3, #0x1
    1358:	91006021 	add	x1, x1, #0x18
    135c:	91006000 	add	x0, x0, #0x18
/home/thesis/Desktop/optee_rpi3bplus/optee_os/lib/libutee/tee_api_objects.c:29
    1360:	f81f0004 	stur	x4, [x0, #-16]
    1364:	17fffff3 	b	1330 <__utee_from_attr+0x8>
/home/thesis/Desktop/optee_rpi3bplus/optee_os/lib/libutee/tee_api_objects.c:28
    1368:	f9400424 	ldr	x4, [x1, #8]
    136c:	f9000004 	str	x4, [x0]
/home/thesis/Desktop/optee_rpi3bplus/optee_os/lib/libutee/tee_api_objects.c:29
    1370:	b9401024 	ldr	w4, [x1, #16]
    1374:	17fffff8 	b	1354 <__utee_from_attr+0x2c>

0000000000001378 <TEE_GetObjectInfo>:
TEE_GetObjectInfo():
/home/thesis/Desktop/optee_rpi3bplus/optee_os/lib/libutee/tee_api_objects.c:42
    1378:	a9be7bfd 	stp	x29, x30, [sp, #-32]!
    137c:	910003fd 	mov	x29, sp
    1380:	f9000bf3 	str	x19, [sp, #16]
    1384:	aa0103f3 	mov	x19, x1
/home/thesis/Desktop/optee_rpi3bplus/optee_os/lib/libutee/tee_api_objects.c:45
    1388:	94000429 	bl	242c <utee_cryp_obj_get_info>
/home/thesis/Desktop/optee_rpi3bplus/optee_os/lib/libutee/tee_api_objects.c:47
    138c:	34000040 	cbz	w0, 1394 <TEE_GetObjectInfo+0x1c>
/home/thesis/Desktop/optee_rpi3bplus/optee_os/lib/libutee/tee_api_objects.c:48
    1390:	94000327 	bl	202c <TEE_Panic>
/home/thesis/Desktop/optee_rpi3bplus/optee_os/lib/libutee/tee_api_objects.c:50
    1394:	b9400261 	ldr	w1, [x19]
    1398:	528017c0 	mov	w0, #0xbe                  	// #190
    139c:	72b40000 	movk	w0, #0xa000, lsl #16
    13a0:	6b00003f 	cmp	w1, w0
    13a4:	54000081 	b.ne	13b4 <TEE_GetObjectInfo+0x3c>  // b.any
/home/thesis/Desktop/optee_rpi3bplus/optee_os/lib/libutee/tee_api_objects.c:52
    13a8:	2900fe7f 	stp	wzr, wzr, [x19, #4]
/home/thesis/Desktop/optee_rpi3bplus/optee_os/lib/libutee/tee_api_objects.c:54
    13ac:	2901fe7f 	stp	wzr, wzr, [x19, #12]
/home/thesis/Desktop/optee_rpi3bplus/optee_os/lib/libutee/tee_api_objects.c:56
    13b0:	2902fe7f 	stp	wzr, wzr, [x19, #20]
/home/thesis/Desktop/optee_rpi3bplus/optee_os/lib/libutee/tee_api_objects.c:58
    13b4:	f9400bf3 	ldr	x19, [sp, #16]
    13b8:	a8c27bfd 	ldp	x29, x30, [sp], #32
    13bc:	d65f03c0 	ret

00000000000013c0 <TEE_GetObjectInfo1>:
TEE_GetObjectInfo1():
/home/thesis/Desktop/optee_rpi3bplus/optee_os/lib/libutee/tee_api_objects.c:61
    13c0:	a9be7bfd 	stp	x29, x30, [sp, #-32]!
    13c4:	910003fd 	mov	x29, sp
    13c8:	f9000bf3 	str	x19, [sp, #16]
/home/thesis/Desktop/optee_rpi3bplus/optee_os/lib/libutee/tee_api_objects.c:64
    13cc:	94000418 	bl	242c <utee_cryp_obj_get_info>
/home/thesis/Desktop/optee_rpi3bplus/optee_os/lib/libutee/tee_api_objects.c:66
    13d0:	52800021 	mov	w1, #0x1                   	// #1
/home/thesis/Desktop/optee_rpi3bplus/optee_os/lib/libutee/tee_api_objects.c:67
    13d4:	121e7802 	and	w2, w0, #0xfffffffd
/home/thesis/Desktop/optee_rpi3bplus/optee_os/lib/libutee/tee_api_objects.c:66
    13d8:	7100001f 	cmp	w0, #0x0
    13dc:	72be0201 	movk	w1, #0xf010, lsl #16
/home/thesis/Desktop/optee_rpi3bplus/optee_os/lib/libutee/tee_api_objects.c:64
    13e0:	2a0003f3 	mov	w19, w0
/home/thesis/Desktop/optee_rpi3bplus/optee_os/lib/libutee/tee_api_objects.c:66
    13e4:	7a411044 	ccmp	w2, w1, #0x4, ne  // ne = any
    13e8:	54000040 	b.eq	13f0 <TEE_GetObjectInfo1+0x30>  // b.none
/home/thesis/Desktop/optee_rpi3bplus/optee_os/lib/libutee/tee_api_objects.c:69
    13ec:	94000310 	bl	202c <TEE_Panic>
/home/thesis/Desktop/optee_rpi3bplus/optee_os/lib/libutee/tee_api_objects.c:72
    13f0:	2a1303e0 	mov	w0, w19
    13f4:	f9400bf3 	ldr	x19, [sp, #16]
    13f8:	a8c27bfd 	ldp	x29, x30, [sp], #32
    13fc:	d65f03c0 	ret

0000000000001400 <TEE_RestrictObjectUsage1>:
TEE_RestrictObjectUsage1():
/home/thesis/Desktop/optee_rpi3bplus/optee_os/lib/libutee/tee_api_objects.c:96
    1400:	a9be7bfd 	stp	x29, x30, [sp, #-32]!
/home/thesis/Desktop/optee_rpi3bplus/optee_os/lib/libutee/tee_api_objects.c:99
    1404:	2a0103e1 	mov	w1, w1
/home/thesis/Desktop/optee_rpi3bplus/optee_os/lib/libutee/tee_api_objects.c:96
    1408:	910003fd 	mov	x29, sp
    140c:	f9000bf3 	str	x19, [sp, #16]
/home/thesis/Desktop/optee_rpi3bplus/optee_os/lib/libutee/tee_api_objects.c:99
    1410:	9400040a 	bl	2438 <utee_cryp_obj_restrict_usage>
/home/thesis/Desktop/optee_rpi3bplus/optee_os/lib/libutee/tee_api_objects.c:101
    1414:	52800021 	mov	w1, #0x1                   	// #1
/home/thesis/Desktop/optee_rpi3bplus/optee_os/lib/libutee/tee_api_objects.c:102
    1418:	121e7802 	and	w2, w0, #0xfffffffd
/home/thesis/Desktop/optee_rpi3bplus/optee_os/lib/libutee/tee_api_objects.c:101
    141c:	7100001f 	cmp	w0, #0x0
    1420:	72be0201 	movk	w1, #0xf010, lsl #16
/home/thesis/Desktop/optee_rpi3bplus/optee_os/lib/libutee/tee_api_objects.c:99
    1424:	2a0003f3 	mov	w19, w0
/home/thesis/Desktop/optee_rpi3bplus/optee_os/lib/libutee/tee_api_objects.c:101
    1428:	7a411044 	ccmp	w2, w1, #0x4, ne  // ne = any
    142c:	54000040 	b.eq	1434 <TEE_RestrictObjectUsage1+0x34>  // b.none
/home/thesis/Desktop/optee_rpi3bplus/optee_os/lib/libutee/tee_api_objects.c:104
    1430:	940002ff 	bl	202c <TEE_Panic>
/home/thesis/Desktop/optee_rpi3bplus/optee_os/lib/libutee/tee_api_objects.c:107
    1434:	2a1303e0 	mov	w0, w19
    1438:	f9400bf3 	ldr	x19, [sp, #16]
    143c:	a8c27bfd 	ldp	x29, x30, [sp], #32
    1440:	d65f03c0 	ret

0000000000001444 <TEE_RestrictObjectUsage>:
TEE_RestrictObjectUsage():
/home/thesis/Desktop/optee_rpi3bplus/optee_os/lib/libutee/tee_api_objects.c:81
    1444:	a9bc7bfd 	stp	x29, x30, [sp, #-64]!
    1448:	910003fd 	mov	x29, sp
    144c:	a90153f3 	stp	x19, x20, [sp, #16]
    1450:	aa0003f3 	mov	x19, x0
    1454:	2a0103f4 	mov	w20, w1
/home/thesis/Desktop/optee_rpi3bplus/optee_os/lib/libutee/tee_api_objects.c:85
    1458:	910083e1 	add	x1, sp, #0x20
    145c:	940003f4 	bl	242c <utee_cryp_obj_get_info>
/home/thesis/Desktop/optee_rpi3bplus/optee_os/lib/libutee/tee_api_objects.c:86
    1460:	b94023e1 	ldr	w1, [sp, #32]
    1464:	528017c0 	mov	w0, #0xbe                  	// #190
    1468:	72b40000 	movk	w0, #0xa000, lsl #16
    146c:	6b00003f 	cmp	w1, w0
    1470:	540000c0 	b.eq	1488 <TEE_RestrictObjectUsage+0x44>  // b.none
/home/thesis/Desktop/optee_rpi3bplus/optee_os/lib/libutee/tee_api_objects.c:89
    1474:	2a1403e1 	mov	w1, w20
    1478:	aa1303e0 	mov	x0, x19
    147c:	97ffffe1 	bl	1400 <TEE_RestrictObjectUsage1>
/home/thesis/Desktop/optee_rpi3bplus/optee_os/lib/libutee/tee_api_objects.c:91
    1480:	34000040 	cbz	w0, 1488 <TEE_RestrictObjectUsage+0x44>
/home/thesis/Desktop/optee_rpi3bplus/optee_os/lib/libutee/tee_api_objects.c:92
    1484:	940002ea 	bl	202c <TEE_Panic>
/home/thesis/Desktop/optee_rpi3bplus/optee_os/lib/libutee/tee_api_objects.c:93
    1488:	a94153f3 	ldp	x19, x20, [sp, #16]
    148c:	a8c47bfd 	ldp	x29, x30, [sp], #64
    1490:	d65f03c0 	ret

0000000000001494 <TEE_GetObjectBufferAttribute>:
TEE_GetObjectBufferAttribute():
/home/thesis/Desktop/optee_rpi3bplus/optee_os/lib/libutee/tee_api_objects.c:112
    1494:	a9b97bfd 	stp	x29, x30, [sp, #-112]!
    1498:	910003fd 	mov	x29, sp
    149c:	a90153f3 	stp	x19, x20, [sp, #16]
    14a0:	aa0303f4 	mov	x20, x3
    14a4:	a9025bf5 	stp	x21, x22, [sp, #32]
    14a8:	aa0003f6 	mov	x22, x0
    14ac:	2a0103f5 	mov	w21, w1
/home/thesis/Desktop/optee_rpi3bplus/optee_os/lib/libutee/tee_api_objects.c:117
    14b0:	910143e1 	add	x1, sp, #0x50
/home/thesis/Desktop/optee_rpi3bplus/optee_os/lib/libutee/tee_api_objects.c:112
    14b4:	f9001fe2 	str	x2, [sp, #56]
/home/thesis/Desktop/optee_rpi3bplus/optee_os/lib/libutee/tee_api_objects.c:117
    14b8:	940003dd 	bl	242c <utee_cryp_obj_get_info>
    14bc:	2a0003f3 	mov	w19, w0
/home/thesis/Desktop/optee_rpi3bplus/optee_os/lib/libutee/tee_api_objects.c:118
    14c0:	35000180 	cbnz	w0, 14f0 <TEE_GetObjectBufferAttribute+0x5c>
/home/thesis/Desktop/optee_rpi3bplus/optee_os/lib/libutee/tee_api_objects.c:122
    14c4:	37e803b5 	tbnz	w21, #29, 1538 <TEE_GetObjectBufferAttribute+0xa4>
/home/thesis/Desktop/optee_rpi3bplus/optee_os/lib/libutee/tee_api_objects.c:128
    14c8:	f9401fe2 	ldr	x2, [sp, #56]
    14cc:	910123e3 	add	x3, sp, #0x48
/home/thesis/Desktop/optee_rpi3bplus/optee_os/lib/libutee/tee_api_objects.c:127
    14d0:	b9400280 	ldr	w0, [x20]
/home/thesis/Desktop/optee_rpi3bplus/optee_os/lib/libutee/tee_api_objects.c:128
    14d4:	2a1503e1 	mov	w1, w21
/home/thesis/Desktop/optee_rpi3bplus/optee_os/lib/libutee/tee_api_objects.c:127
    14d8:	f90027e0 	str	x0, [sp, #72]
/home/thesis/Desktop/optee_rpi3bplus/optee_os/lib/libutee/tee_api_objects.c:128
    14dc:	aa1603e0 	mov	x0, x22
    14e0:	940003d9 	bl	2444 <utee_cryp_obj_get_attr>
    14e4:	2a0003f3 	mov	w19, w0
/home/thesis/Desktop/optee_rpi3bplus/optee_os/lib/libutee/tee_api_objects.c:130
    14e8:	f94027e0 	ldr	x0, [sp, #72]
    14ec:	b9000280 	str	w0, [x20]
/home/thesis/Desktop/optee_rpi3bplus/optee_os/lib/libutee/tee_api_objects.c:133
    14f0:	7100027f 	cmp	w19, #0x0
    14f4:	129ffee0 	mov	w0, #0xffff0008            	// #-65528
    14f8:	7a401264 	ccmp	w19, w0, #0x4, ne  // ne = any
    14fc:	54000140 	b.eq	1524 <TEE_GetObjectBufferAttribute+0x90>  // b.none
/home/thesis/Desktop/optee_rpi3bplus/optee_os/lib/libutee/tee_api_objects.c:136
    1500:	121e7a61 	and	w1, w19, #0xfffffffd
/home/thesis/Desktop/optee_rpi3bplus/optee_os/lib/libutee/tee_api_objects.c:135
    1504:	52800020 	mov	w0, #0x1                   	// #1
    1508:	72be0200 	movk	w0, #0xf010, lsl #16
    150c:	6b00003f 	cmp	w1, w0
    1510:	129ffde0 	mov	w0, #0xffff0010            	// #-65520
    1514:	7a401264 	ccmp	w19, w0, #0x4, ne  // ne = any
    1518:	54000060 	b.eq	1524 <TEE_GetObjectBufferAttribute+0x90>  // b.none
/home/thesis/Desktop/optee_rpi3bplus/optee_os/lib/libutee/tee_api_objects.c:138
    151c:	2a1303e0 	mov	w0, w19
    1520:	940002c3 	bl	202c <TEE_Panic>
/home/thesis/Desktop/optee_rpi3bplus/optee_os/lib/libutee/tee_api_objects.c:141
    1524:	2a1303e0 	mov	w0, w19
    1528:	a94153f3 	ldp	x19, x20, [sp, #16]
    152c:	a9425bf5 	ldp	x21, x22, [sp, #32]
    1530:	a8c77bfd 	ldp	x29, x30, [sp], #112
    1534:	d65f03c0 	ret
/home/thesis/Desktop/optee_rpi3bplus/optee_os/lib/libutee/tee_api_objects.c:123
    1538:	129fff33 	mov	w19, #0xffff0006            	// #-65530
    153c:	17ffffed 	b	14f0 <TEE_GetObjectBufferAttribute+0x5c>

0000000000001540 <TEE_GetObjectValueAttribute>:
TEE_GetObjectValueAttribute():
/home/thesis/Desktop/optee_rpi3bplus/optee_os/lib/libutee/tee_api_objects.c:146
    1540:	a9b97bfd 	stp	x29, x30, [sp, #-112]!
    1544:	910003fd 	mov	x29, sp
    1548:	a9025bf5 	stp	x21, x22, [sp, #32]
    154c:	2a0103f6 	mov	w22, w1
/home/thesis/Desktop/optee_rpi3bplus/optee_os/lib/libutee/tee_api_objects.c:150
    1550:	d2800101 	mov	x1, #0x8                   	// #8
/home/thesis/Desktop/optee_rpi3bplus/optee_os/lib/libutee/tee_api_objects.c:146
    1554:	aa0203f5 	mov	x21, x2
    1558:	a90153f3 	stp	x19, x20, [sp, #16]
    155c:	aa0303f4 	mov	x20, x3
    1560:	f9001bf7 	str	x23, [sp, #48]
    1564:	aa0003f7 	mov	x23, x0
/home/thesis/Desktop/optee_rpi3bplus/optee_os/lib/libutee/tee_api_objects.c:150
    1568:	f90027e1 	str	x1, [sp, #72]
/home/thesis/Desktop/optee_rpi3bplus/optee_os/lib/libutee/tee_api_objects.c:152
    156c:	910143e1 	add	x1, sp, #0x50
    1570:	940003af 	bl	242c <utee_cryp_obj_get_info>
    1574:	2a0003f3 	mov	w19, w0
/home/thesis/Desktop/optee_rpi3bplus/optee_os/lib/libutee/tee_api_objects.c:153
    1578:	35000100 	cbnz	w0, 1598 <TEE_GetObjectValueAttribute+0x58>
/home/thesis/Desktop/optee_rpi3bplus/optee_os/lib/libutee/tee_api_objects.c:157
    157c:	36e80496 	tbz	w22, #29, 160c <TEE_GetObjectValueAttribute+0xcc>
/home/thesis/Desktop/optee_rpi3bplus/optee_os/lib/libutee/tee_api_objects.c:162
    1580:	910123e3 	add	x3, sp, #0x48
    1584:	910103e2 	add	x2, sp, #0x40
    1588:	2a1603e1 	mov	w1, w22
    158c:	aa1703e0 	mov	x0, x23
    1590:	940003ad 	bl	2444 <utee_cryp_obj_get_attr>
    1594:	2a0003f3 	mov	w19, w0
/home/thesis/Desktop/optee_rpi3bplus/optee_os/lib/libutee/tee_api_objects.c:166
    1598:	7100027f 	cmp	w19, #0x0
    159c:	129ffee0 	mov	w0, #0xffff0008            	// #-65528
    15a0:	7a401264 	ccmp	w19, w0, #0x4, ne  // ne = any
    15a4:	54000100 	b.eq	15c4 <TEE_GetObjectValueAttribute+0x84>  // b.none
/home/thesis/Desktop/optee_rpi3bplus/optee_os/lib/libutee/tee_api_objects.c:168
    15a8:	121e7a61 	and	w1, w19, #0xfffffffd
    15ac:	52800020 	mov	w0, #0x1                   	// #1
    15b0:	72be0200 	movk	w0, #0xf010, lsl #16
    15b4:	6b00003f 	cmp	w1, w0
    15b8:	54000060 	b.eq	15c4 <TEE_GetObjectValueAttribute+0x84>  // b.none
/home/thesis/Desktop/optee_rpi3bplus/optee_os/lib/libutee/tee_api_objects.c:170
    15bc:	2a1303e0 	mov	w0, w19
    15c0:	9400029b 	bl	202c <TEE_Panic>
/home/thesis/Desktop/optee_rpi3bplus/optee_os/lib/libutee/tee_api_objects.c:172
    15c4:	f94027e0 	ldr	x0, [sp, #72]
    15c8:	f100201f 	cmp	x0, #0x8
    15cc:	54000060 	b.eq	15d8 <TEE_GetObjectValueAttribute+0x98>  // b.none
/home/thesis/Desktop/optee_rpi3bplus/optee_os/lib/libutee/tee_api_objects.c:173
    15d0:	52800000 	mov	w0, #0x0                   	// #0
    15d4:	94000296 	bl	202c <TEE_Panic>
/home/thesis/Desktop/optee_rpi3bplus/optee_os/lib/libutee/tee_api_objects.c:175
    15d8:	350000f3 	cbnz	w19, 15f4 <TEE_GetObjectValueAttribute+0xb4>
/home/thesis/Desktop/optee_rpi3bplus/optee_os/lib/libutee/tee_api_objects.c:176
    15dc:	b4000075 	cbz	x21, 15e8 <TEE_GetObjectValueAttribute+0xa8>
/home/thesis/Desktop/optee_rpi3bplus/optee_os/lib/libutee/tee_api_objects.c:177
    15e0:	b94043e0 	ldr	w0, [sp, #64]
    15e4:	b90002a0 	str	w0, [x21]
/home/thesis/Desktop/optee_rpi3bplus/optee_os/lib/libutee/tee_api_objects.c:178
    15e8:	b4000074 	cbz	x20, 15f4 <TEE_GetObjectValueAttribute+0xb4>
/home/thesis/Desktop/optee_rpi3bplus/optee_os/lib/libutee/tee_api_objects.c:179
    15ec:	b94047e0 	ldr	w0, [sp, #68]
    15f0:	b9000280 	str	w0, [x20]
/home/thesis/Desktop/optee_rpi3bplus/optee_os/lib/libutee/tee_api_objects.c:183
    15f4:	2a1303e0 	mov	w0, w19
    15f8:	a94153f3 	ldp	x19, x20, [sp, #16]
    15fc:	a9425bf5 	ldp	x21, x22, [sp, #32]
    1600:	f9401bf7 	ldr	x23, [sp, #48]
    1604:	a8c77bfd 	ldp	x29, x30, [sp], #112
    1608:	d65f03c0 	ret
/home/thesis/Desktop/optee_rpi3bplus/optee_os/lib/libutee/tee_api_objects.c:158
    160c:	129fff33 	mov	w19, #0xffff0006            	// #-65530
    1610:	17ffffe2 	b	1598 <TEE_GetObjectValueAttribute+0x58>

0000000000001614 <TEE_CloseObject>:
TEE_CloseObject():
/home/thesis/Desktop/optee_rpi3bplus/optee_os/lib/libutee/tee_api_objects.c:189
    1614:	b4000120 	cbz	x0, 1638 <TEE_CloseObject+0x24>
/home/thesis/Desktop/optee_rpi3bplus/optee_os/lib/libutee/tee_api_objects.c:186
    1618:	a9bf7bfd 	stp	x29, x30, [sp, #-16]!
    161c:	910003fd 	mov	x29, sp
/home/thesis/Desktop/optee_rpi3bplus/optee_os/lib/libutee/tee_api_objects.c:192
    1620:	9400038f 	bl	245c <utee_cryp_obj_close>
/home/thesis/Desktop/optee_rpi3bplus/optee_os/lib/libutee/tee_api_objects.c:193
    1624:	34000060 	cbz	w0, 1630 <TEE_CloseObject+0x1c>
/home/thesis/Desktop/optee_rpi3bplus/optee_os/lib/libutee/tee_api_objects.c:195
    1628:	a8c17bfd 	ldp	x29, x30, [sp], #16
/home/thesis/Desktop/optee_rpi3bplus/optee_os/lib/libutee/tee_api_objects.c:194
    162c:	14000280 	b	202c <TEE_Panic>
/home/thesis/Desktop/optee_rpi3bplus/optee_os/lib/libutee/tee_api_objects.c:195
    1630:	a8c17bfd 	ldp	x29, x30, [sp], #16
    1634:	d65f03c0 	ret
    1638:	d65f03c0 	ret

000000000000163c <TEE_AllocateTransientObject>:
TEE_AllocateTransientObject():
/home/thesis/Desktop/optee_rpi3bplus/optee_os/lib/libutee/tee_api_objects.c:202
    163c:	a9bd7bfd 	stp	x29, x30, [sp, #-48]!
/home/thesis/Desktop/optee_rpi3bplus/optee_os/lib/libutee/tee_api_objects.c:206
    1640:	2a0103e1 	mov	w1, w1
    1644:	2a0003e0 	mov	w0, w0
/home/thesis/Desktop/optee_rpi3bplus/optee_os/lib/libutee/tee_api_objects.c:202
    1648:	910003fd 	mov	x29, sp
    164c:	a90153f3 	stp	x19, x20, [sp, #16]
    1650:	aa0203f4 	mov	x20, x2
/home/thesis/Desktop/optee_rpi3bplus/optee_os/lib/libutee/tee_api_objects.c:206
    1654:	9100b3e2 	add	x2, sp, #0x2c
    1658:	9400037e 	bl	2450 <utee_cryp_obj_alloc>
/home/thesis/Desktop/optee_rpi3bplus/optee_os/lib/libutee/tee_api_objects.c:208
    165c:	7100001f 	cmp	w0, #0x0
    1660:	129ffe61 	mov	w1, #0xffff000c            	// #-65524
/home/thesis/Desktop/optee_rpi3bplus/optee_os/lib/libutee/tee_api_objects.c:206
    1664:	2a0003f3 	mov	w19, w0
/home/thesis/Desktop/optee_rpi3bplus/optee_os/lib/libutee/tee_api_objects.c:208
    1668:	7a411004 	ccmp	w0, w1, #0x4, ne  // ne = any
    166c:	54000120 	b.eq	1690 <TEE_AllocateTransientObject+0x54>  // b.none
/home/thesis/Desktop/optee_rpi3bplus/optee_os/lib/libutee/tee_api_objects.c:209
    1670:	129ffea1 	mov	w1, #0xffff000a            	// #-65526
    1674:	6b01001f 	cmp	w0, w1
    1678:	54000040 	b.eq	1680 <TEE_AllocateTransientObject+0x44>  // b.none
/home/thesis/Desktop/optee_rpi3bplus/optee_os/lib/libutee/tee_api_objects.c:211
    167c:	9400026c 	bl	202c <TEE_Panic>
/home/thesis/Desktop/optee_rpi3bplus/optee_os/lib/libutee/tee_api_objects.c:217
    1680:	2a1303e0 	mov	w0, w19
    1684:	a94153f3 	ldp	x19, x20, [sp, #16]
    1688:	a8c37bfd 	ldp	x29, x30, [sp], #48
    168c:	d65f03c0 	ret
/home/thesis/Desktop/optee_rpi3bplus/optee_os/lib/libutee/tee_api_objects.c:213
    1690:	35ffff80 	cbnz	w0, 1680 <TEE_AllocateTransientObject+0x44>
/home/thesis/Desktop/optee_rpi3bplus/optee_os/lib/libutee/tee_api_objects.c:214
    1694:	b9402fe0 	ldr	w0, [sp, #44]
    1698:	f9000280 	str	x0, [x20]
/home/thesis/Desktop/optee_rpi3bplus/optee_os/lib/libutee/tee_api_objects.c:216
    169c:	17fffff9 	b	1680 <TEE_AllocateTransientObject+0x44>

00000000000016a0 <TEE_FreeTransientObject>:
TEE_FreeTransientObject():
/home/thesis/Desktop/optee_rpi3bplus/optee_os/lib/libutee/tee_api_objects.c:224
    16a0:	b4000280 	cbz	x0, 16f0 <TEE_FreeTransientObject+0x50>
/home/thesis/Desktop/optee_rpi3bplus/optee_os/lib/libutee/tee_api_objects.c:220
    16a4:	a9bc7bfd 	stp	x29, x30, [sp, #-64]!
    16a8:	910003fd 	mov	x29, sp
/home/thesis/Desktop/optee_rpi3bplus/optee_os/lib/libutee/tee_api_objects.c:227
    16ac:	910083e1 	add	x1, sp, #0x20
/home/thesis/Desktop/optee_rpi3bplus/optee_os/lib/libutee/tee_api_objects.c:220
    16b0:	f9000bf3 	str	x19, [sp, #16]
    16b4:	aa0003f3 	mov	x19, x0
/home/thesis/Desktop/optee_rpi3bplus/optee_os/lib/libutee/tee_api_objects.c:227
    16b8:	9400035d 	bl	242c <utee_cryp_obj_get_info>
/home/thesis/Desktop/optee_rpi3bplus/optee_os/lib/libutee/tee_api_objects.c:228
    16bc:	34000040 	cbz	w0, 16c4 <TEE_FreeTransientObject+0x24>
/home/thesis/Desktop/optee_rpi3bplus/optee_os/lib/libutee/tee_api_objects.c:229
    16c0:	9400025b 	bl	202c <TEE_Panic>
/home/thesis/Desktop/optee_rpi3bplus/optee_os/lib/libutee/tee_api_objects.c:231
    16c4:	b9403be0 	ldr	w0, [sp, #56]
    16c8:	36800060 	tbz	w0, #16, 16d4 <TEE_FreeTransientObject+0x34>
/home/thesis/Desktop/optee_rpi3bplus/optee_os/lib/libutee/tee_api_objects.c:232
    16cc:	52800000 	mov	w0, #0x0                   	// #0
    16d0:	94000257 	bl	202c <TEE_Panic>
/home/thesis/Desktop/optee_rpi3bplus/optee_os/lib/libutee/tee_api_objects.c:234
    16d4:	aa1303e0 	mov	x0, x19
    16d8:	94000361 	bl	245c <utee_cryp_obj_close>
/home/thesis/Desktop/optee_rpi3bplus/optee_os/lib/libutee/tee_api_objects.c:235
    16dc:	34000040 	cbz	w0, 16e4 <TEE_FreeTransientObject+0x44>
/home/thesis/Desktop/optee_rpi3bplus/optee_os/lib/libutee/tee_api_objects.c:236
    16e0:	94000253 	bl	202c <TEE_Panic>
/home/thesis/Desktop/optee_rpi3bplus/optee_os/lib/libutee/tee_api_objects.c:237
    16e4:	f9400bf3 	ldr	x19, [sp, #16]
    16e8:	a8c47bfd 	ldp	x29, x30, [sp], #64
    16ec:	d65f03c0 	ret
    16f0:	d65f03c0 	ret

00000000000016f4 <TEE_ResetTransientObject>:
TEE_ResetTransientObject():
/home/thesis/Desktop/optee_rpi3bplus/optee_os/lib/libutee/tee_api_objects.c:244
    16f4:	b4000280 	cbz	x0, 1744 <TEE_ResetTransientObject+0x50>
/home/thesis/Desktop/optee_rpi3bplus/optee_os/lib/libutee/tee_api_objects.c:240
    16f8:	a9bc7bfd 	stp	x29, x30, [sp, #-64]!
    16fc:	910003fd 	mov	x29, sp
/home/thesis/Desktop/optee_rpi3bplus/optee_os/lib/libutee/tee_api_objects.c:247
    1700:	910083e1 	add	x1, sp, #0x20
/home/thesis/Desktop/optee_rpi3bplus/optee_os/lib/libutee/tee_api_objects.c:240
    1704:	f9000bf3 	str	x19, [sp, #16]
    1708:	aa0003f3 	mov	x19, x0
/home/thesis/Desktop/optee_rpi3bplus/optee_os/lib/libutee/tee_api_objects.c:247
    170c:	94000348 	bl	242c <utee_cryp_obj_get_info>
/home/thesis/Desktop/optee_rpi3bplus/optee_os/lib/libutee/tee_api_objects.c:248
    1710:	34000040 	cbz	w0, 1718 <TEE_ResetTransientObject+0x24>
/home/thesis/Desktop/optee_rpi3bplus/optee_os/lib/libutee/tee_api_objects.c:249
    1714:	94000246 	bl	202c <TEE_Panic>
/home/thesis/Desktop/optee_rpi3bplus/optee_os/lib/libutee/tee_api_objects.c:251
    1718:	b9403be0 	ldr	w0, [sp, #56]
    171c:	36800060 	tbz	w0, #16, 1728 <TEE_ResetTransientObject+0x34>
/home/thesis/Desktop/optee_rpi3bplus/optee_os/lib/libutee/tee_api_objects.c:252
    1720:	52800000 	mov	w0, #0x0                   	// #0
    1724:	94000242 	bl	202c <TEE_Panic>
/home/thesis/Desktop/optee_rpi3bplus/optee_os/lib/libutee/tee_api_objects.c:254
    1728:	aa1303e0 	mov	x0, x19
    172c:	9400034f 	bl	2468 <utee_cryp_obj_reset>
/home/thesis/Desktop/optee_rpi3bplus/optee_os/lib/libutee/tee_api_objects.c:255
    1730:	34000040 	cbz	w0, 1738 <TEE_ResetTransientObject+0x44>
/home/thesis/Desktop/optee_rpi3bplus/optee_os/lib/libutee/tee_api_objects.c:256
    1734:	9400023e 	bl	202c <TEE_Panic>
/home/thesis/Desktop/optee_rpi3bplus/optee_os/lib/libutee/tee_api_objects.c:257
    1738:	f9400bf3 	ldr	x19, [sp, #16]
    173c:	a8c47bfd 	ldp	x29, x30, [sp], #64
    1740:	d65f03c0 	ret
    1744:	d65f03c0 	ret

0000000000001748 <TEE_PopulateTransientObject>:
TEE_PopulateTransientObject():
/home/thesis/Desktop/optee_rpi3bplus/optee_os/lib/libutee/tee_api_objects.c:262
    1748:	a9ba7bfd 	stp	x29, x30, [sp, #-96]!
    174c:	910003fd 	mov	x29, sp
    1750:	a9025bf5 	stp	x21, x22, [sp, #32]
    1754:	2a0203f6 	mov	w22, w2
    1758:	aa0003f5 	mov	x21, x0
    175c:	f9001bf7 	str	x23, [sp, #48]
    1760:	aa0103f7 	mov	x23, x1
/home/thesis/Desktop/optee_rpi3bplus/optee_os/lib/libutee/tee_api_objects.c:265
    1764:	52800301 	mov	w1, #0x18                  	// #24
/home/thesis/Desktop/optee_rpi3bplus/optee_os/lib/libutee/tee_api_objects.c:262
    1768:	a90153f3 	stp	x19, x20, [sp, #16]
    176c:	aa1603f3 	mov	x19, x22
/home/thesis/Desktop/optee_rpi3bplus/optee_os/lib/libutee/tee_api_objects.c:265
    1770:	9ba17ec1 	umull	x1, w22, w1
    1774:	91003c21 	add	x1, x1, #0xf
    1778:	927c8421 	and	x1, x1, #0x3ffffffff0
    177c:	cb2163ff 	sub	sp, sp, x1
/home/thesis/Desktop/optee_rpi3bplus/optee_os/lib/libutee/tee_api_objects.c:267
    1780:	910103a1 	add	x1, x29, #0x40
/home/thesis/Desktop/optee_rpi3bplus/optee_os/lib/libutee/tee_api_objects.c:265
    1784:	910003f4 	mov	x20, sp
/home/thesis/Desktop/optee_rpi3bplus/optee_os/lib/libutee/tee_api_objects.c:267
    1788:	94000329 	bl	242c <utee_cryp_obj_get_info>
/home/thesis/Desktop/optee_rpi3bplus/optee_os/lib/libutee/tee_api_objects.c:268
    178c:	34000040 	cbz	w0, 1794 <TEE_PopulateTransientObject+0x4c>
/home/thesis/Desktop/optee_rpi3bplus/optee_os/lib/libutee/tee_api_objects.c:269
    1790:	94000227 	bl	202c <TEE_Panic>
/home/thesis/Desktop/optee_rpi3bplus/optee_os/lib/libutee/tee_api_objects.c:272
    1794:	b9405ba0 	ldr	w0, [x29, #88]
    1798:	36800060 	tbz	w0, #16, 17a4 <TEE_PopulateTransientObject+0x5c>
/home/thesis/Desktop/optee_rpi3bplus/optee_os/lib/libutee/tee_api_objects.c:273
    179c:	52800000 	mov	w0, #0x0                   	// #0
    17a0:	94000223 	bl	202c <TEE_Panic>
/home/thesis/Desktop/optee_rpi3bplus/optee_os/lib/libutee/tee_api_objects.c:276
    17a4:	b9405ba0 	ldr	w0, [x29, #88]
    17a8:	36880060 	tbz	w0, #17, 17b4 <TEE_PopulateTransientObject+0x6c>
/home/thesis/Desktop/optee_rpi3bplus/optee_os/lib/libutee/tee_api_objects.c:277
    17ac:	52800000 	mov	w0, #0x0                   	// #0
    17b0:	9400021f 	bl	202c <TEE_Panic>
/home/thesis/Desktop/optee_rpi3bplus/optee_os/lib/libutee/tee_api_objects.c:279
    17b4:	2a1303e2 	mov	w2, w19
    17b8:	aa1703e1 	mov	x1, x23
    17bc:	aa1403e0 	mov	x0, x20
    17c0:	97fffeda 	bl	1328 <__utee_from_attr>
/home/thesis/Desktop/optee_rpi3bplus/optee_os/lib/libutee/tee_api_objects.c:280
    17c4:	aa1403e1 	mov	x1, x20
    17c8:	aa1603e2 	mov	x2, x22
    17cc:	aa1503e0 	mov	x0, x21
    17d0:	94000329 	bl	2474 <utee_cryp_obj_populate>
/home/thesis/Desktop/optee_rpi3bplus/optee_os/lib/libutee/tee_api_objects.c:281
    17d4:	7100001f 	cmp	w0, #0x0
    17d8:	129fff21 	mov	w1, #0xffff0006            	// #-65530
/home/thesis/Desktop/optee_rpi3bplus/optee_os/lib/libutee/tee_api_objects.c:280
    17dc:	2a0003f3 	mov	w19, w0
/home/thesis/Desktop/optee_rpi3bplus/optee_os/lib/libutee/tee_api_objects.c:281
    17e0:	7a411004 	ccmp	w0, w1, #0x4, ne  // ne = any
    17e4:	54000040 	b.eq	17ec <TEE_PopulateTransientObject+0xa4>  // b.none
/home/thesis/Desktop/optee_rpi3bplus/optee_os/lib/libutee/tee_api_objects.c:282
    17e8:	94000211 	bl	202c <TEE_Panic>
/home/thesis/Desktop/optee_rpi3bplus/optee_os/lib/libutee/tee_api_objects.c:284
    17ec:	910003bf 	mov	sp, x29
    17f0:	2a1303e0 	mov	w0, w19
    17f4:	a94153f3 	ldp	x19, x20, [sp, #16]
    17f8:	a9425bf5 	ldp	x21, x22, [sp, #32]
    17fc:	f9401bf7 	ldr	x23, [sp, #48]
    1800:	a8c67bfd 	ldp	x29, x30, [sp], #96
    1804:	d65f03c0 	ret

0000000000001808 <TEE_InitRefAttribute>:
TEE_InitRefAttribute():
/home/thesis/Desktop/optee_rpi3bplus/optee_os/lib/libutee/tee_api_objects.c:288
    1808:	a9bd7bfd 	stp	x29, x30, [sp, #-48]!
    180c:	910003fd 	mov	x29, sp
    1810:	a90153f3 	stp	x19, x20, [sp, #16]
    1814:	aa0003f3 	mov	x19, x0
    1818:	2a0103f4 	mov	w20, w1
    181c:	a9025bf5 	stp	x21, x22, [sp, #32]
    1820:	aa0203f6 	mov	x22, x2
    1824:	2a0303f5 	mov	w21, w3
/home/thesis/Desktop/optee_rpi3bplus/optee_os/lib/libutee/tee_api_objects.c:289
    1828:	b5000060 	cbnz	x0, 1834 <TEE_InitRefAttribute+0x2c>
/home/thesis/Desktop/optee_rpi3bplus/optee_os/lib/libutee/tee_api_objects.c:290
    182c:	52800000 	mov	w0, #0x0                   	// #0
    1830:	940001ff 	bl	202c <TEE_Panic>
/home/thesis/Desktop/optee_rpi3bplus/optee_os/lib/libutee/tee_api_objects.c:291
    1834:	36e80074 	tbz	w20, #29, 1840 <TEE_InitRefAttribute+0x38>
/home/thesis/Desktop/optee_rpi3bplus/optee_os/lib/libutee/tee_api_objects.c:292
    1838:	52800000 	mov	w0, #0x0                   	// #0
    183c:	940001fc 	bl	202c <TEE_Panic>
/home/thesis/Desktop/optee_rpi3bplus/optee_os/lib/libutee/tee_api_objects.c:293
    1840:	b9000274 	str	w20, [x19]
/home/thesis/Desktop/optee_rpi3bplus/optee_os/lib/libutee/tee_api_objects.c:294
    1844:	f9000676 	str	x22, [x19, #8]
/home/thesis/Desktop/optee_rpi3bplus/optee_os/lib/libutee/tee_api_objects.c:295
    1848:	b9001275 	str	w21, [x19, #16]
/home/thesis/Desktop/optee_rpi3bplus/optee_os/lib/libutee/tee_api_objects.c:296
    184c:	a94153f3 	ldp	x19, x20, [sp, #16]
    1850:	a9425bf5 	ldp	x21, x22, [sp, #32]
    1854:	a8c37bfd 	ldp	x29, x30, [sp], #48
    1858:	d65f03c0 	ret

000000000000185c <TEE_InitValueAttribute>:
TEE_InitValueAttribute():
/home/thesis/Desktop/optee_rpi3bplus/optee_os/lib/libutee/tee_api_objects.c:300
    185c:	a9bd7bfd 	stp	x29, x30, [sp, #-48]!
    1860:	910003fd 	mov	x29, sp
    1864:	a90153f3 	stp	x19, x20, [sp, #16]
    1868:	aa0003f3 	mov	x19, x0
    186c:	2a0103f4 	mov	w20, w1
    1870:	a9025bf5 	stp	x21, x22, [sp, #32]
    1874:	2a0203f6 	mov	w22, w2
    1878:	2a0303f5 	mov	w21, w3
/home/thesis/Desktop/optee_rpi3bplus/optee_os/lib/libutee/tee_api_objects.c:301
    187c:	b5000060 	cbnz	x0, 1888 <TEE_InitValueAttribute+0x2c>
/home/thesis/Desktop/optee_rpi3bplus/optee_os/lib/libutee/tee_api_objects.c:302
    1880:	52800000 	mov	w0, #0x0                   	// #0
    1884:	940001ea 	bl	202c <TEE_Panic>
/home/thesis/Desktop/optee_rpi3bplus/optee_os/lib/libutee/tee_api_objects.c:303
    1888:	37e80074 	tbnz	w20, #29, 1894 <TEE_InitValueAttribute+0x38>
/home/thesis/Desktop/optee_rpi3bplus/optee_os/lib/libutee/tee_api_objects.c:304
    188c:	52800000 	mov	w0, #0x0                   	// #0
    1890:	940001e7 	bl	202c <TEE_Panic>
/home/thesis/Desktop/optee_rpi3bplus/optee_os/lib/libutee/tee_api_objects.c:305
    1894:	b9000274 	str	w20, [x19]
/home/thesis/Desktop/optee_rpi3bplus/optee_os/lib/libutee/tee_api_objects.c:307
    1898:	29015676 	stp	w22, w21, [x19, #8]
/home/thesis/Desktop/optee_rpi3bplus/optee_os/lib/libutee/tee_api_objects.c:308
    189c:	a94153f3 	ldp	x19, x20, [sp, #16]
    18a0:	a9425bf5 	ldp	x21, x22, [sp, #32]
    18a4:	a8c37bfd 	ldp	x29, x30, [sp], #48
    18a8:	d65f03c0 	ret

00000000000018ac <TEE_CopyObjectAttributes1>:
TEE_CopyObjectAttributes1():
/home/thesis/Desktop/optee_rpi3bplus/optee_os/lib/libutee/tee_api_objects.c:333
    18ac:	a9b97bfd 	stp	x29, x30, [sp, #-112]!
    18b0:	910003fd 	mov	x29, sp
    18b4:	a90153f3 	stp	x19, x20, [sp, #16]
    18b8:	aa0103f4 	mov	x20, x1
/home/thesis/Desktop/optee_rpi3bplus/optee_os/lib/libutee/tee_api_objects.c:338
    18bc:	9100c3e1 	add	x1, sp, #0x30
/home/thesis/Desktop/optee_rpi3bplus/optee_os/lib/libutee/tee_api_objects.c:333
    18c0:	f90013f5 	str	x21, [sp, #32]
    18c4:	aa0003f5 	mov	x21, x0
/home/thesis/Desktop/optee_rpi3bplus/optee_os/lib/libutee/tee_api_objects.c:338
    18c8:	940002d9 	bl	242c <utee_cryp_obj_get_info>
    18cc:	2a0003f3 	mov	w19, w0
/home/thesis/Desktop/optee_rpi3bplus/optee_os/lib/libutee/tee_api_objects.c:339
    18d0:	350002a0 	cbnz	w0, 1924 <TEE_CopyObjectAttributes1+0x78>
/home/thesis/Desktop/optee_rpi3bplus/optee_os/lib/libutee/tee_api_objects.c:342
    18d4:	910143e1 	add	x1, sp, #0x50
    18d8:	aa1403e0 	mov	x0, x20
    18dc:	940002d4 	bl	242c <utee_cryp_obj_get_info>
    18e0:	2a0003f3 	mov	w19, w0
/home/thesis/Desktop/optee_rpi3bplus/optee_os/lib/libutee/tee_api_objects.c:343
    18e4:	35000200 	cbnz	w0, 1924 <TEE_CopyObjectAttributes1+0x78>
/home/thesis/Desktop/optee_rpi3bplus/optee_os/lib/libutee/tee_api_objects.c:346
    18e8:	b9406be1 	ldr	w1, [sp, #104]
    18ec:	37880041 	tbnz	w1, #17, 18f4 <TEE_CopyObjectAttributes1+0x48>
/home/thesis/Desktop/optee_rpi3bplus/optee_os/lib/libutee/tee_api_objects.c:347
    18f0:	940001cf 	bl	202c <TEE_Panic>
/home/thesis/Desktop/optee_rpi3bplus/optee_os/lib/libutee/tee_api_objects.c:349
    18f4:	b9404be0 	ldr	w0, [sp, #72]
    18f8:	36800060 	tbz	w0, #16, 1904 <TEE_CopyObjectAttributes1+0x58>
/home/thesis/Desktop/optee_rpi3bplus/optee_os/lib/libutee/tee_api_objects.c:350
    18fc:	52800000 	mov	w0, #0x0                   	// #0
    1900:	940001cb 	bl	202c <TEE_Panic>
/home/thesis/Desktop/optee_rpi3bplus/optee_os/lib/libutee/tee_api_objects.c:352
    1904:	b9404be0 	ldr	w0, [sp, #72]
    1908:	36880060 	tbz	w0, #17, 1914 <TEE_CopyObjectAttributes1+0x68>
/home/thesis/Desktop/optee_rpi3bplus/optee_os/lib/libutee/tee_api_objects.c:353
    190c:	52800000 	mov	w0, #0x0                   	// #0
    1910:	940001c7 	bl	202c <TEE_Panic>
/home/thesis/Desktop/optee_rpi3bplus/optee_os/lib/libutee/tee_api_objects.c:355
    1914:	aa1403e1 	mov	x1, x20
    1918:	aa1503e0 	mov	x0, x21
    191c:	940002d9 	bl	2480 <utee_cryp_obj_copy>
    1920:	2a0003f3 	mov	w19, w0
/home/thesis/Desktop/optee_rpi3bplus/optee_os/lib/libutee/tee_api_objects.c:360
    1924:	121e7a60 	and	w0, w19, #0xfffffffd
/home/thesis/Desktop/optee_rpi3bplus/optee_os/lib/libutee/tee_api_objects.c:359
    1928:	7100027f 	cmp	w19, #0x0
    192c:	52800021 	mov	w1, #0x1                   	// #1
    1930:	72be0201 	movk	w1, #0xf010, lsl #16
    1934:	7a411004 	ccmp	w0, w1, #0x4, ne  // ne = any
    1938:	54000060 	b.eq	1944 <TEE_CopyObjectAttributes1+0x98>  // b.none
/home/thesis/Desktop/optee_rpi3bplus/optee_os/lib/libutee/tee_api_objects.c:362
    193c:	2a1303e0 	mov	w0, w19
    1940:	940001bb 	bl	202c <TEE_Panic>
/home/thesis/Desktop/optee_rpi3bplus/optee_os/lib/libutee/tee_api_objects.c:365
    1944:	2a1303e0 	mov	w0, w19
    1948:	a94153f3 	ldp	x19, x20, [sp, #16]
    194c:	f94013f5 	ldr	x21, [sp, #32]
    1950:	a8c77bfd 	ldp	x29, x30, [sp], #112
    1954:	d65f03c0 	ret

0000000000001958 <TEE_CopyObjectAttributes>:
TEE_CopyObjectAttributes():
/home/thesis/Desktop/optee_rpi3bplus/optee_os/lib/libutee/tee_api_objects.c:318
    1958:	a9bc7bfd 	stp	x29, x30, [sp, #-64]!
    195c:	910003fd 	mov	x29, sp
    1960:	a90153f3 	stp	x19, x20, [sp, #16]
    1964:	aa0103f3 	mov	x19, x1
    1968:	aa0003f4 	mov	x20, x0
/home/thesis/Desktop/optee_rpi3bplus/optee_os/lib/libutee/tee_api_objects.c:322
    196c:	910083e1 	add	x1, sp, #0x20
    1970:	aa1303e0 	mov	x0, x19
    1974:	940002ae 	bl	242c <utee_cryp_obj_get_info>
/home/thesis/Desktop/optee_rpi3bplus/optee_os/lib/libutee/tee_api_objects.c:323
    1978:	b94023e1 	ldr	w1, [sp, #32]
    197c:	528017c0 	mov	w0, #0xbe                  	// #190
    1980:	72b40000 	movk	w0, #0xa000, lsl #16
    1984:	6b00003f 	cmp	w1, w0
    1988:	540000c0 	b.eq	19a0 <TEE_CopyObjectAttributes+0x48>  // b.none
/home/thesis/Desktop/optee_rpi3bplus/optee_os/lib/libutee/tee_api_objects.c:326
    198c:	aa1303e1 	mov	x1, x19
    1990:	aa1403e0 	mov	x0, x20
    1994:	97ffffc6 	bl	18ac <TEE_CopyObjectAttributes1>
/home/thesis/Desktop/optee_rpi3bplus/optee_os/lib/libutee/tee_api_objects.c:327
    1998:	34000040 	cbz	w0, 19a0 <TEE_CopyObjectAttributes+0x48>
/home/thesis/Desktop/optee_rpi3bplus/optee_os/lib/libutee/tee_api_objects.c:328
    199c:	940001a4 	bl	202c <TEE_Panic>
/home/thesis/Desktop/optee_rpi3bplus/optee_os/lib/libutee/tee_api_objects.c:329
    19a0:	a94153f3 	ldp	x19, x20, [sp, #16]
    19a4:	a8c47bfd 	ldp	x29, x30, [sp], #64
    19a8:	d65f03c0 	ret

00000000000019ac <TEE_GenerateKey>:
TEE_GenerateKey():
/home/thesis/Desktop/optee_rpi3bplus/optee_os/lib/libutee/tee_api_objects.c:369
    19ac:	a9bd7bfd 	stp	x29, x30, [sp, #-48]!
    19b0:	910003fd 	mov	x29, sp
    19b4:	a9025bf5 	stp	x21, x22, [sp, #32]
    19b8:	aa0003f5 	mov	x21, x0
/home/thesis/Desktop/optee_rpi3bplus/optee_os/lib/libutee/tee_api_objects.c:371
    19bc:	52800300 	mov	w0, #0x18                  	// #24
/home/thesis/Desktop/optee_rpi3bplus/optee_os/lib/libutee/tee_api_objects.c:369
    19c0:	a90153f3 	stp	x19, x20, [sp, #16]
    19c4:	2a0103f6 	mov	w22, w1
/home/thesis/Desktop/optee_rpi3bplus/optee_os/lib/libutee/tee_api_objects.c:371
    19c8:	9ba07c60 	umull	x0, w3, w0
/home/thesis/Desktop/optee_rpi3bplus/optee_os/lib/libutee/tee_api_objects.c:369
    19cc:	2a0303f3 	mov	w19, w3
    19d0:	aa0203e1 	mov	x1, x2
/home/thesis/Desktop/optee_rpi3bplus/optee_os/lib/libutee/tee_api_objects.c:371
    19d4:	91003c00 	add	x0, x0, #0xf
/home/thesis/Desktop/optee_rpi3bplus/optee_os/lib/libutee/tee_api_objects.c:373
    19d8:	2a0303e2 	mov	w2, w3
/home/thesis/Desktop/optee_rpi3bplus/optee_os/lib/libutee/tee_api_objects.c:371
    19dc:	927c8400 	and	x0, x0, #0x3ffffffff0
    19e0:	cb2063ff 	sub	sp, sp, x0
    19e4:	910003f4 	mov	x20, sp
/home/thesis/Desktop/optee_rpi3bplus/optee_os/lib/libutee/tee_api_objects.c:373
    19e8:	aa1403e0 	mov	x0, x20
    19ec:	97fffe4f 	bl	1328 <__utee_from_attr>
/home/thesis/Desktop/optee_rpi3bplus/optee_os/lib/libutee/tee_api_objects.c:374
    19f0:	2a1303e3 	mov	w3, w19
    19f4:	2a1603e1 	mov	w1, w22
    19f8:	aa1403e2 	mov	x2, x20
    19fc:	aa1503e0 	mov	x0, x21
    1a00:	940002e5 	bl	2594 <utee_cryp_obj_generate_key>
/home/thesis/Desktop/optee_rpi3bplus/optee_os/lib/libutee/tee_api_objects.c:377
    1a04:	7100001f 	cmp	w0, #0x0
    1a08:	129fff21 	mov	w1, #0xffff0006            	// #-65530
/home/thesis/Desktop/optee_rpi3bplus/optee_os/lib/libutee/tee_api_objects.c:374
    1a0c:	2a0003f3 	mov	w19, w0
/home/thesis/Desktop/optee_rpi3bplus/optee_os/lib/libutee/tee_api_objects.c:377
    1a10:	7a411004 	ccmp	w0, w1, #0x4, ne  // ne = any
    1a14:	54000040 	b.eq	1a1c <TEE_GenerateKey+0x70>  // b.none
/home/thesis/Desktop/optee_rpi3bplus/optee_os/lib/libutee/tee_api_objects.c:378
    1a18:	94000185 	bl	202c <TEE_Panic>
/home/thesis/Desktop/optee_rpi3bplus/optee_os/lib/libutee/tee_api_objects.c:381
    1a1c:	910003bf 	mov	sp, x29
    1a20:	2a1303e0 	mov	w0, w19
    1a24:	a94153f3 	ldp	x19, x20, [sp, #16]
    1a28:	a9425bf5 	ldp	x21, x22, [sp, #32]
    1a2c:	a8c37bfd 	ldp	x29, x30, [sp], #48
    1a30:	d65f03c0 	ret

0000000000001a34 <TEE_OpenPersistentObject>:
TEE_OpenPersistentObject():
/home/thesis/Desktop/optee_rpi3bplus/optee_os/lib/libutee/tee_api_objects.c:388
    1a34:	a9bc7bfd 	stp	x29, x30, [sp, #-64]!
    1a38:	910003fd 	mov	x29, sp
    1a3c:	a90153f3 	stp	x19, x20, [sp, #16]
    1a40:	aa0403f4 	mov	x20, x4
    1a44:	f90013f5 	str	x21, [sp, #32]
/home/thesis/Desktop/optee_rpi3bplus/optee_os/lib/libutee/tee_api_objects.c:392
    1a48:	b40004e1 	cbz	x1, 1ae4 <TEE_OpenPersistentObject+0xb0>
/home/thesis/Desktop/optee_rpi3bplus/optee_os/lib/libutee/tee_api_objects.c:397
    1a4c:	7101005f 	cmp	w2, #0x40
    1a50:	540004e8 	b.hi	1aec <TEE_OpenPersistentObject+0xb8>  // b.pmore
/home/thesis/Desktop/optee_rpi3bplus/optee_os/lib/libutee/tee_api_objects.c:402
    1a54:	b40004c4 	cbz	x4, 1aec <TEE_OpenPersistentObject+0xb8>
/home/thesis/Desktop/optee_rpi3bplus/optee_os/lib/libutee/tee_api_objects.c:407
    1a58:	9100f3e4 	add	x4, sp, #0x3c
    1a5c:	2a0303e3 	mov	w3, w3
    1a60:	2a0203e2 	mov	w2, w2
    1a64:	2a0003e0 	mov	w0, w0
    1a68:	940002a4 	bl	24f8 <utee_storage_obj_open>
    1a6c:	2a0003f3 	mov	w19, w0
/home/thesis/Desktop/optee_rpi3bplus/optee_os/lib/libutee/tee_api_objects.c:409
    1a70:	35000060 	cbnz	w0, 1a7c <TEE_OpenPersistentObject+0x48>
/home/thesis/Desktop/optee_rpi3bplus/optee_os/lib/libutee/tee_api_objects.c:410
    1a74:	b9403fe0 	ldr	w0, [sp, #60]
    1a78:	f9000280 	str	x0, [x20]
/home/thesis/Desktop/optee_rpi3bplus/optee_os/lib/libutee/tee_api_objects.c:413
    1a7c:	7100027f 	cmp	w19, #0x0
/home/thesis/Desktop/optee_rpi3bplus/optee_os/lib/libutee/tee_api_objects.c:414
    1a80:	121d7a60 	and	w0, w19, #0xfffffffb
/home/thesis/Desktop/optee_rpi3bplus/optee_os/lib/libutee/tee_api_objects.c:413
    1a84:	1a9f07f5 	cset	w21, ne  // ne = any
    1a88:	129ffee1 	mov	w1, #0xffff0008            	// #-65528
    1a8c:	710002bf 	cmp	w21, #0x0
    1a90:	7a411004 	ccmp	w0, w1, #0x4, ne  // ne = any
    1a94:	54000160 	b.eq	1ac0 <TEE_OpenPersistentObject+0x8c>  // b.none
/home/thesis/Desktop/optee_rpi3bplus/optee_os/lib/libutee/tee_api_objects.c:415
    1a98:	129fff80 	mov	w0, #0xffff0003            	// #-65533
    1a9c:	6b00027f 	cmp	w19, w0
    1aa0:	54000100 	b.eq	1ac0 <TEE_OpenPersistentObject+0x8c>  // b.none
/home/thesis/Desktop/optee_rpi3bplus/optee_os/lib/libutee/tee_api_objects.c:417
    1aa4:	121e7a61 	and	w1, w19, #0xfffffffd
    1aa8:	52800020 	mov	w0, #0x1                   	// #1
    1aac:	72be0200 	movk	w0, #0xf010, lsl #16
    1ab0:	6b00003f 	cmp	w1, w0
    1ab4:	54000060 	b.eq	1ac0 <TEE_OpenPersistentObject+0x8c>  // b.none
/home/thesis/Desktop/optee_rpi3bplus/optee_os/lib/libutee/tee_api_objects.c:419
    1ab8:	2a1303e0 	mov	w0, w19
    1abc:	9400015c 	bl	202c <TEE_Panic>
/home/thesis/Desktop/optee_rpi3bplus/optee_os/lib/libutee/tee_api_objects.c:421
    1ac0:	f100029f 	cmp	x20, #0x0
    1ac4:	7a401aa4 	ccmp	w21, #0x0, #0x4, ne  // ne = any
    1ac8:	54000040 	b.eq	1ad0 <TEE_OpenPersistentObject+0x9c>  // b.none
/home/thesis/Desktop/optee_rpi3bplus/optee_os/lib/libutee/tee_api_objects.c:422
    1acc:	f900029f 	str	xzr, [x20]
/home/thesis/Desktop/optee_rpi3bplus/optee_os/lib/libutee/tee_api_objects.c:425
    1ad0:	2a1303e0 	mov	w0, w19
    1ad4:	a94153f3 	ldp	x19, x20, [sp, #16]
    1ad8:	f94013f5 	ldr	x21, [sp, #32]
    1adc:	a8c47bfd 	ldp	x29, x30, [sp], #64
    1ae0:	d65f03c0 	ret
/home/thesis/Desktop/optee_rpi3bplus/optee_os/lib/libutee/tee_api_objects.c:393
    1ae4:	129ffef3 	mov	w19, #0xffff0008            	// #-65528
    1ae8:	17ffffe5 	b	1a7c <TEE_OpenPersistentObject+0x48>
/home/thesis/Desktop/optee_rpi3bplus/optee_os/lib/libutee/tee_api_objects.c:398
    1aec:	129fff33 	mov	w19, #0xffff0006            	// #-65530
    1af0:	17ffffe3 	b	1a7c <TEE_OpenPersistentObject+0x48>

0000000000001af4 <TEE_CreatePersistentObject>:
TEE_CreatePersistentObject():
/home/thesis/Desktop/optee_rpi3bplus/optee_os/lib/libutee/tee_api_objects.c:433
    1af4:	a9bd7bfd 	stp	x29, x30, [sp, #-48]!
    1af8:	910003fd 	mov	x29, sp
    1afc:	f9000bf3 	str	x19, [sp, #16]
    1b00:	aa0703f3 	mov	x19, x7
/home/thesis/Desktop/optee_rpi3bplus/optee_os/lib/libutee/tee_api_objects.c:437
    1b04:	b40004e1 	cbz	x1, 1ba0 <TEE_CreatePersistentObject+0xac>
/home/thesis/Desktop/optee_rpi3bplus/optee_os/lib/libutee/tee_api_objects.c:442
    1b08:	7101005f 	cmp	w2, #0x40
    1b0c:	54000508 	b.hi	1bac <TEE_CreatePersistentObject+0xb8>  // b.pmore
/home/thesis/Desktop/optee_rpi3bplus/optee_os/lib/libutee/tee_api_objects.c:447
    1b10:	9100b3e7 	add	x7, sp, #0x2c
    1b14:	2a0603e6 	mov	w6, w6
    1b18:	2a0303e3 	mov	w3, w3
    1b1c:	2a0203e2 	mov	w2, w2
    1b20:	2a0003e0 	mov	w0, w0
    1b24:	94000278 	bl	2504 <utee_storage_obj_create>
/home/thesis/Desktop/optee_rpi3bplus/optee_os/lib/libutee/tee_api_objects.c:450
    1b28:	35000360 	cbnz	w0, 1b94 <TEE_CreatePersistentObject+0xa0>
/home/thesis/Desktop/optee_rpi3bplus/optee_os/lib/libutee/tee_api_objects.c:451
    1b2c:	b9402fe1 	ldr	w1, [sp, #44]
    1b30:	b40000b3 	cbz	x19, 1b44 <TEE_CreatePersistentObject+0x50>
/home/thesis/Desktop/optee_rpi3bplus/optee_os/lib/libutee/tee_api_objects.c:452
    1b34:	f9000261 	str	x1, [x19]
/home/thesis/Desktop/optee_rpi3bplus/optee_os/lib/libutee/tee_api_objects.c:471
    1b38:	f9400bf3 	ldr	x19, [sp, #16]
    1b3c:	a8c37bfd 	ldp	x29, x30, [sp], #48
    1b40:	d65f03c0 	ret
/home/thesis/Desktop/optee_rpi3bplus/optee_os/lib/libutee/tee_api_objects.c:454
    1b44:	aa0103e0 	mov	x0, x1
    1b48:	94000245 	bl	245c <utee_cryp_obj_close>
/home/thesis/Desktop/optee_rpi3bplus/optee_os/lib/libutee/tee_api_objects.c:455
    1b4c:	34ffff60 	cbz	w0, 1b38 <TEE_CreatePersistentObject+0x44>
/home/thesis/Desktop/optee_rpi3bplus/optee_os/lib/libutee/tee_api_objects.c:461
    1b50:	121d7802 	and	w2, w0, #0xfffffffb
    1b54:	129ffee1 	mov	w1, #0xffff0008            	// #-65528
    1b58:	6b01005f 	cmp	w2, w1
    1b5c:	129fff81 	mov	w1, #0xffff0003            	// #-65533
    1b60:	7a411004 	ccmp	w0, w1, #0x4, ne  // ne = any
    1b64:	54fffea0 	b.eq	1b38 <TEE_CreatePersistentObject+0x44>  // b.none
/home/thesis/Desktop/optee_rpi3bplus/optee_os/lib/libutee/tee_api_objects.c:463
    1b68:	1299f7c1 	mov	w1, #0xffff3041            	// #-53183
    1b6c:	6b01001f 	cmp	w0, w1
    1b70:	54fffe40 	b.eq	1b38 <TEE_CreatePersistentObject+0x44>  // b.none
/home/thesis/Desktop/optee_rpi3bplus/optee_os/lib/libutee/tee_api_objects.c:465
    1b74:	121e7802 	and	w2, w0, #0xfffffffd
    1b78:	52800021 	mov	w1, #0x1                   	// #1
    1b7c:	72be0201 	movk	w1, #0xf010, lsl #16
    1b80:	6b01005f 	cmp	w2, w1
    1b84:	54fffda0 	b.eq	1b38 <TEE_CreatePersistentObject+0x44>  // b.none
/home/thesis/Desktop/optee_rpi3bplus/optee_os/lib/libutee/tee_api_objects.c:468
    1b88:	94000129 	bl	202c <TEE_Panic>
/home/thesis/Desktop/optee_rpi3bplus/optee_os/lib/libutee/tee_api_objects.c:470
    1b8c:	52800000 	mov	w0, #0x0                   	// #0
    1b90:	17ffffea 	b	1b38 <TEE_CreatePersistentObject+0x44>
/home/thesis/Desktop/optee_rpi3bplus/optee_os/lib/libutee/tee_api_objects.c:459
    1b94:	b4fffdf3 	cbz	x19, 1b50 <TEE_CreatePersistentObject+0x5c>
/home/thesis/Desktop/optee_rpi3bplus/optee_os/lib/libutee/tee_api_objects.c:460
    1b98:	f900027f 	str	xzr, [x19]
    1b9c:	17ffffed 	b	1b50 <TEE_CreatePersistentObject+0x5c>
/home/thesis/Desktop/optee_rpi3bplus/optee_os/lib/libutee/tee_api_objects.c:438
    1ba0:	129ffee0 	mov	w0, #0xffff0008            	// #-65528
/home/thesis/Desktop/optee_rpi3bplus/optee_os/lib/libutee/tee_api_objects.c:459
    1ba4:	b5ffffa7 	cbnz	x7, 1b98 <TEE_CreatePersistentObject+0xa4>
    1ba8:	17ffffe4 	b	1b38 <TEE_CreatePersistentObject+0x44>
/home/thesis/Desktop/optee_rpi3bplus/optee_os/lib/libutee/tee_api_objects.c:443
    1bac:	129fff20 	mov	w0, #0xffff0006            	// #-65530
/home/thesis/Desktop/optee_rpi3bplus/optee_os/lib/libutee/tee_api_objects.c:459
    1bb0:	b5ffff47 	cbnz	x7, 1b98 <TEE_CreatePersistentObject+0xa4>
    1bb4:	17fffff5 	b	1b88 <TEE_CreatePersistentObject+0x94>

0000000000001bb8 <TEE_CloseAndDeletePersistentObject1>:
TEE_CloseAndDeletePersistentObject1():
/home/thesis/Desktop/optee_rpi3bplus/optee_os/lib/libutee/tee_api_objects.c:493
    1bb8:	a9be7bfd 	stp	x29, x30, [sp, #-32]!
    1bbc:	910003fd 	mov	x29, sp
    1bc0:	a90153f3 	stp	x19, x20, [sp, #16]
    1bc4:	52800074 	mov	w20, #0x3                   	// #3
    1bc8:	72be0214 	movk	w20, #0xf010, lsl #16
/home/thesis/Desktop/optee_rpi3bplus/optee_os/lib/libutee/tee_api_objects.c:496
    1bcc:	b4000160 	cbz	x0, 1bf8 <TEE_CloseAndDeletePersistentObject1+0x40>
/home/thesis/Desktop/optee_rpi3bplus/optee_os/lib/libutee/tee_api_objects.c:499
    1bd0:	94000250 	bl	2510 <utee_storage_obj_del>
/home/thesis/Desktop/optee_rpi3bplus/optee_os/lib/libutee/tee_api_objects.c:501
    1bd4:	7100001f 	cmp	w0, #0x0
/home/thesis/Desktop/optee_rpi3bplus/optee_os/lib/libutee/tee_api_objects.c:499
    1bd8:	2a0003f3 	mov	w19, w0
/home/thesis/Desktop/optee_rpi3bplus/optee_os/lib/libutee/tee_api_objects.c:501
    1bdc:	7a541004 	ccmp	w0, w20, #0x4, ne  // ne = any
    1be0:	54000040 	b.eq	1be8 <TEE_CloseAndDeletePersistentObject1+0x30>  // b.none
/home/thesis/Desktop/optee_rpi3bplus/optee_os/lib/libutee/tee_api_objects.c:502
    1be4:	94000112 	bl	202c <TEE_Panic>
/home/thesis/Desktop/optee_rpi3bplus/optee_os/lib/libutee/tee_api_objects.c:505
    1be8:	2a1303e0 	mov	w0, w19
    1bec:	a94153f3 	ldp	x19, x20, [sp, #16]
    1bf0:	a8c27bfd 	ldp	x29, x30, [sp], #32
    1bf4:	d65f03c0 	ret
/home/thesis/Desktop/optee_rpi3bplus/optee_os/lib/libutee/tee_api_objects.c:497
    1bf8:	2a1403f3 	mov	w19, w20
    1bfc:	17fffffb 	b	1be8 <TEE_CloseAndDeletePersistentObject1+0x30>

0000000000001c00 <TEE_CloseAndDeletePersistentObject>:
TEE_CloseAndDeletePersistentObject():
/home/thesis/Desktop/optee_rpi3bplus/optee_os/lib/libutee/tee_api_objects.c:483
    1c00:	b4000140 	cbz	x0, 1c28 <TEE_CloseAndDeletePersistentObject+0x28>
/home/thesis/Desktop/optee_rpi3bplus/optee_os/lib/libutee/tee_api_objects.c:480
    1c04:	a9bf7bfd 	stp	x29, x30, [sp, #-16]!
    1c08:	910003fd 	mov	x29, sp
/home/thesis/Desktop/optee_rpi3bplus/optee_os/lib/libutee/tee_api_objects.c:486
    1c0c:	97ffffeb 	bl	1bb8 <TEE_CloseAndDeletePersistentObject1>
/home/thesis/Desktop/optee_rpi3bplus/optee_os/lib/libutee/tee_api_objects.c:488
    1c10:	34000080 	cbz	w0, 1c20 <TEE_CloseAndDeletePersistentObject+0x20>
/home/thesis/Desktop/optee_rpi3bplus/optee_os/lib/libutee/tee_api_objects.c:490
    1c14:	a8c17bfd 	ldp	x29, x30, [sp], #16
/home/thesis/Desktop/optee_rpi3bplus/optee_os/lib/libutee/tee_api_objects.c:489
    1c18:	52800000 	mov	w0, #0x0                   	// #0
    1c1c:	14000104 	b	202c <TEE_Panic>
/home/thesis/Desktop/optee_rpi3bplus/optee_os/lib/libutee/tee_api_objects.c:490
    1c20:	a8c17bfd 	ldp	x29, x30, [sp], #16
    1c24:	d65f03c0 	ret
    1c28:	d65f03c0 	ret

0000000000001c2c <TEE_RenamePersistentObject>:
TEE_RenamePersistentObject():
/home/thesis/Desktop/optee_rpi3bplus/optee_os/lib/libutee/tee_api_objects.c:511
    1c2c:	a9be7bfd 	stp	x29, x30, [sp, #-32]!
    1c30:	910003fd 	mov	x29, sp
    1c34:	f9000bf3 	str	x19, [sp, #16]
/home/thesis/Desktop/optee_rpi3bplus/optee_os/lib/libutee/tee_api_objects.c:514
    1c38:	b40002c0 	cbz	x0, 1c90 <TEE_RenamePersistentObject+0x64>
/home/thesis/Desktop/optee_rpi3bplus/optee_os/lib/libutee/tee_api_objects.c:519
    1c3c:	b40002e1 	cbz	x1, 1c98 <TEE_RenamePersistentObject+0x6c>
/home/thesis/Desktop/optee_rpi3bplus/optee_os/lib/libutee/tee_api_objects.c:524
    1c40:	7101005f 	cmp	w2, #0x40
    1c44:	540002a8 	b.hi	1c98 <TEE_RenamePersistentObject+0x6c>  // b.pmore
/home/thesis/Desktop/optee_rpi3bplus/optee_os/lib/libutee/tee_api_objects.c:529
    1c48:	2a0203e2 	mov	w2, w2
    1c4c:	94000234 	bl	251c <utee_storage_obj_rename>
    1c50:	2a0003f3 	mov	w19, w0
/home/thesis/Desktop/optee_rpi3bplus/optee_os/lib/libutee/tee_api_objects.c:533
    1c54:	7100027f 	cmp	w19, #0x0
    1c58:	129fff80 	mov	w0, #0xffff0003            	// #-65533
    1c5c:	7a401264 	ccmp	w19, w0, #0x4, ne  // ne = any
    1c60:	54000100 	b.eq	1c80 <TEE_RenamePersistentObject+0x54>  // b.none
/home/thesis/Desktop/optee_rpi3bplus/optee_os/lib/libutee/tee_api_objects.c:535
    1c64:	121e7a61 	and	w1, w19, #0xfffffffd
    1c68:	52800020 	mov	w0, #0x1                   	// #1
    1c6c:	72be0200 	movk	w0, #0xf010, lsl #16
    1c70:	6b00003f 	cmp	w1, w0
    1c74:	54000060 	b.eq	1c80 <TEE_RenamePersistentObject+0x54>  // b.none
/home/thesis/Desktop/optee_rpi3bplus/optee_os/lib/libutee/tee_api_objects.c:537
    1c78:	2a1303e0 	mov	w0, w19
    1c7c:	940000ec 	bl	202c <TEE_Panic>
/home/thesis/Desktop/optee_rpi3bplus/optee_os/lib/libutee/tee_api_objects.c:540
    1c80:	2a1303e0 	mov	w0, w19
    1c84:	f9400bf3 	ldr	x19, [sp, #16]
    1c88:	a8c27bfd 	ldp	x29, x30, [sp], #32
    1c8c:	d65f03c0 	ret
/home/thesis/Desktop/optee_rpi3bplus/optee_os/lib/libutee/tee_api_objects.c:515
    1c90:	129ffef3 	mov	w19, #0xffff0008            	// #-65528
    1c94:	17fffff0 	b	1c54 <TEE_RenamePersistentObject+0x28>
/home/thesis/Desktop/optee_rpi3bplus/optee_os/lib/libutee/tee_api_objects.c:520
    1c98:	129fff33 	mov	w19, #0xffff0006            	// #-65530
    1c9c:	17ffffee 	b	1c54 <TEE_RenamePersistentObject+0x28>

0000000000001ca0 <TEE_AllocatePersistentObjectEnumerator>:
TEE_AllocatePersistentObjectEnumerator():
/home/thesis/Desktop/optee_rpi3bplus/optee_os/lib/libutee/tee_api_objects.c:544
    1ca0:	a9bd7bfd 	stp	x29, x30, [sp, #-48]!
    1ca4:	910003fd 	mov	x29, sp
    1ca8:	a90153f3 	stp	x19, x20, [sp, #16]
/home/thesis/Desktop/optee_rpi3bplus/optee_os/lib/libutee/tee_api_objects.c:548
    1cac:	b4000260 	cbz	x0, 1cf8 <TEE_AllocatePersistentObjectEnumerator+0x58>
    1cb0:	aa0003f4 	mov	x20, x0
/home/thesis/Desktop/optee_rpi3bplus/optee_os/lib/libutee/tee_api_objects.c:551
    1cb4:	9100b3e0 	add	x0, sp, #0x2c
    1cb8:	9400021c 	bl	2528 <utee_storage_alloc_enum>
    1cbc:	2a0003f3 	mov	w19, w0
/home/thesis/Desktop/optee_rpi3bplus/optee_os/lib/libutee/tee_api_objects.c:553
    1cc0:	34000040 	cbz	w0, 1cc8 <TEE_AllocatePersistentObjectEnumerator+0x28>
/home/thesis/Desktop/optee_rpi3bplus/optee_os/lib/libutee/tee_api_objects.c:554
    1cc4:	b9002fff 	str	wzr, [sp, #44]
/home/thesis/Desktop/optee_rpi3bplus/optee_os/lib/libutee/tee_api_objects.c:556
    1cc8:	b9402fe0 	ldr	w0, [sp, #44]
/home/thesis/Desktop/optee_rpi3bplus/optee_os/lib/libutee/tee_api_objects.c:558
    1ccc:	7100027f 	cmp	w19, #0x0
/home/thesis/Desktop/optee_rpi3bplus/optee_os/lib/libutee/tee_api_objects.c:556
    1cd0:	f9000280 	str	x0, [x20]
/home/thesis/Desktop/optee_rpi3bplus/optee_os/lib/libutee/tee_api_objects.c:558
    1cd4:	129fff80 	mov	w0, #0xffff0003            	// #-65533
    1cd8:	7a401264 	ccmp	w19, w0, #0x4, ne  // ne = any
    1cdc:	54000060 	b.eq	1ce8 <TEE_AllocatePersistentObjectEnumerator+0x48>  // b.none
/home/thesis/Desktop/optee_rpi3bplus/optee_os/lib/libutee/tee_api_objects.c:560
    1ce0:	2a1303e0 	mov	w0, w19
    1ce4:	940000d2 	bl	202c <TEE_Panic>
/home/thesis/Desktop/optee_rpi3bplus/optee_os/lib/libutee/tee_api_objects.c:563
    1ce8:	2a1303e0 	mov	w0, w19
    1cec:	a94153f3 	ldp	x19, x20, [sp, #16]
    1cf0:	a8c37bfd 	ldp	x29, x30, [sp], #48
    1cf4:	d65f03c0 	ret
/home/thesis/Desktop/optee_rpi3bplus/optee_os/lib/libutee/tee_api_objects.c:549
    1cf8:	129fff33 	mov	w19, #0xffff0006            	// #-65530
    1cfc:	17fffffb 	b	1ce8 <TEE_AllocatePersistentObjectEnumerator+0x48>

0000000000001d00 <TEE_FreePersistentObjectEnumerator>:
TEE_FreePersistentObjectEnumerator():
/home/thesis/Desktop/optee_rpi3bplus/optee_os/lib/libutee/tee_api_objects.c:569
    1d00:	b4000120 	cbz	x0, 1d24 <TEE_FreePersistentObjectEnumerator+0x24>
/home/thesis/Desktop/optee_rpi3bplus/optee_os/lib/libutee/tee_api_objects.c:566
    1d04:	a9bf7bfd 	stp	x29, x30, [sp, #-16]!
    1d08:	910003fd 	mov	x29, sp
/home/thesis/Desktop/optee_rpi3bplus/optee_os/lib/libutee/tee_api_objects.c:572
    1d0c:	9400020a 	bl	2534 <utee_storage_free_enum>
/home/thesis/Desktop/optee_rpi3bplus/optee_os/lib/libutee/tee_api_objects.c:574
    1d10:	34000060 	cbz	w0, 1d1c <TEE_FreePersistentObjectEnumerator+0x1c>
/home/thesis/Desktop/optee_rpi3bplus/optee_os/lib/libutee/tee_api_objects.c:576
    1d14:	a8c17bfd 	ldp	x29, x30, [sp], #16
/home/thesis/Desktop/optee_rpi3bplus/optee_os/lib/libutee/tee_api_objects.c:575
    1d18:	140000c5 	b	202c <TEE_Panic>
/home/thesis/Desktop/optee_rpi3bplus/optee_os/lib/libutee/tee_api_objects.c:576
    1d1c:	a8c17bfd 	ldp	x29, x30, [sp], #16
    1d20:	d65f03c0 	ret
    1d24:	d65f03c0 	ret

0000000000001d28 <TEE_ResetPersistentObjectEnumerator>:
TEE_ResetPersistentObjectEnumerator():
/home/thesis/Desktop/optee_rpi3bplus/optee_os/lib/libutee/tee_api_objects.c:582
    1d28:	b4000120 	cbz	x0, 1d4c <TEE_ResetPersistentObjectEnumerator+0x24>
/home/thesis/Desktop/optee_rpi3bplus/optee_os/lib/libutee/tee_api_objects.c:579
    1d2c:	a9bf7bfd 	stp	x29, x30, [sp, #-16]!
    1d30:	910003fd 	mov	x29, sp
/home/thesis/Desktop/optee_rpi3bplus/optee_os/lib/libutee/tee_api_objects.c:585
    1d34:	94000203 	bl	2540 <utee_storage_reset_enum>
/home/thesis/Desktop/optee_rpi3bplus/optee_os/lib/libutee/tee_api_objects.c:587
    1d38:	34000060 	cbz	w0, 1d44 <TEE_ResetPersistentObjectEnumerator+0x1c>
/home/thesis/Desktop/optee_rpi3bplus/optee_os/lib/libutee/tee_api_objects.c:589
    1d3c:	a8c17bfd 	ldp	x29, x30, [sp], #16
/home/thesis/Desktop/optee_rpi3bplus/optee_os/lib/libutee/tee_api_objects.c:588
    1d40:	140000bb 	b	202c <TEE_Panic>
/home/thesis/Desktop/optee_rpi3bplus/optee_os/lib/libutee/tee_api_objects.c:589
    1d44:	a8c17bfd 	ldp	x29, x30, [sp], #16
    1d48:	d65f03c0 	ret
    1d4c:	d65f03c0 	ret

0000000000001d50 <TEE_StartPersistentObjectEnumerator>:
TEE_StartPersistentObjectEnumerator():
/home/thesis/Desktop/optee_rpi3bplus/optee_os/lib/libutee/tee_api_objects.c:594
    1d50:	a9be7bfd 	stp	x29, x30, [sp, #-32]!
/home/thesis/Desktop/optee_rpi3bplus/optee_os/lib/libutee/tee_api_objects.c:597
    1d54:	2a0103e1 	mov	w1, w1
/home/thesis/Desktop/optee_rpi3bplus/optee_os/lib/libutee/tee_api_objects.c:594
    1d58:	910003fd 	mov	x29, sp
    1d5c:	f9000bf3 	str	x19, [sp, #16]
/home/thesis/Desktop/optee_rpi3bplus/optee_os/lib/libutee/tee_api_objects.c:597
    1d60:	940001fb 	bl	254c <utee_storage_start_enum>
/home/thesis/Desktop/optee_rpi3bplus/optee_os/lib/libutee/tee_api_objects.c:600
    1d64:	7100001f 	cmp	w0, #0x0
    1d68:	129ffee1 	mov	w1, #0xffff0008            	// #-65528
/home/thesis/Desktop/optee_rpi3bplus/optee_os/lib/libutee/tee_api_objects.c:597
    1d6c:	2a0003f3 	mov	w19, w0
/home/thesis/Desktop/optee_rpi3bplus/optee_os/lib/libutee/tee_api_objects.c:600
    1d70:	7a411004 	ccmp	w0, w1, #0x4, ne  // ne = any
    1d74:	540000e0 	b.eq	1d90 <TEE_StartPersistentObjectEnumerator+0x40>  // b.none
/home/thesis/Desktop/optee_rpi3bplus/optee_os/lib/libutee/tee_api_objects.c:602
    1d78:	121e7802 	and	w2, w0, #0xfffffffd
    1d7c:	52800021 	mov	w1, #0x1                   	// #1
    1d80:	72be0201 	movk	w1, #0xf010, lsl #16
    1d84:	6b01005f 	cmp	w2, w1
    1d88:	54000040 	b.eq	1d90 <TEE_StartPersistentObjectEnumerator+0x40>  // b.none
/home/thesis/Desktop/optee_rpi3bplus/optee_os/lib/libutee/tee_api_objects.c:604
    1d8c:	940000a8 	bl	202c <TEE_Panic>
/home/thesis/Desktop/optee_rpi3bplus/optee_os/lib/libutee/tee_api_objects.c:607
    1d90:	2a1303e0 	mov	w0, w19
    1d94:	f9400bf3 	ldr	x19, [sp, #16]
    1d98:	a8c27bfd 	ldp	x29, x30, [sp], #32
    1d9c:	d65f03c0 	ret

0000000000001da0 <TEE_GetNextPersistentObject>:
TEE_GetNextPersistentObject():
/home/thesis/Desktop/optee_rpi3bplus/optee_os/lib/libutee/tee_api_objects.c:612
    1da0:	a9bb7bfd 	stp	x29, x30, [sp, #-80]!
    1da4:	910003fd 	mov	x29, sp
    1da8:	a90153f3 	stp	x19, x20, [sp, #16]
/home/thesis/Desktop/optee_rpi3bplus/optee_os/lib/libutee/tee_api_objects.c:618
    1dac:	b4000362 	cbz	x2, 1e18 <TEE_GetNextPersistentObject+0x78>
    1db0:	aa0303f4 	mov	x20, x3
/home/thesis/Desktop/optee_rpi3bplus/optee_os/lib/libutee/tee_api_objects.c:623
    1db4:	b4000323 	cbz	x3, 1e18 <TEE_GetNextPersistentObject+0x78>
/home/thesis/Desktop/optee_rpi3bplus/optee_os/lib/libutee/tee_api_objects.c:628
    1db8:	b5000041 	cbnz	x1, 1dc0 <TEE_GetNextPersistentObject+0x20>
/home/thesis/Desktop/optee_rpi3bplus/optee_os/lib/libutee/tee_api_objects.c:631
    1dbc:	9100c3e1 	add	x1, sp, #0x30
/home/thesis/Desktop/optee_rpi3bplus/optee_os/lib/libutee/tee_api_objects.c:632
    1dc0:	b9400283 	ldr	w3, [x20]
    1dc4:	f90017e3 	str	x3, [sp, #40]
/home/thesis/Desktop/optee_rpi3bplus/optee_os/lib/libutee/tee_api_objects.c:633
    1dc8:	9100a3e3 	add	x3, sp, #0x28
    1dcc:	940001e3 	bl	2558 <utee_storage_next_enum>
    1dd0:	2a0003f3 	mov	w19, w0
/home/thesis/Desktop/optee_rpi3bplus/optee_os/lib/libutee/tee_api_objects.c:635
    1dd4:	f94017e0 	ldr	x0, [sp, #40]
    1dd8:	b9000280 	str	w0, [x20]
/home/thesis/Desktop/optee_rpi3bplus/optee_os/lib/libutee/tee_api_objects.c:638
    1ddc:	7100027f 	cmp	w19, #0x0
    1de0:	129ffee0 	mov	w0, #0xffff0008            	// #-65528
    1de4:	7a401264 	ccmp	w19, w0, #0x4, ne  // ne = any
    1de8:	54000100 	b.eq	1e08 <TEE_GetNextPersistentObject+0x68>  // b.none
/home/thesis/Desktop/optee_rpi3bplus/optee_os/lib/libutee/tee_api_objects.c:640
    1dec:	121e7a61 	and	w1, w19, #0xfffffffd
    1df0:	52800020 	mov	w0, #0x1                   	// #1
    1df4:	72be0200 	movk	w0, #0xf010, lsl #16
    1df8:	6b00003f 	cmp	w1, w0
    1dfc:	54000060 	b.eq	1e08 <TEE_GetNextPersistentObject+0x68>  // b.none
/home/thesis/Desktop/optee_rpi3bplus/optee_os/lib/libutee/tee_api_objects.c:642
    1e00:	2a1303e0 	mov	w0, w19
    1e04:	9400008a 	bl	202c <TEE_Panic>
/home/thesis/Desktop/optee_rpi3bplus/optee_os/lib/libutee/tee_api_objects.c:645
    1e08:	2a1303e0 	mov	w0, w19
    1e0c:	a94153f3 	ldp	x19, x20, [sp, #16]
    1e10:	a8c57bfd 	ldp	x29, x30, [sp], #80
    1e14:	d65f03c0 	ret
/home/thesis/Desktop/optee_rpi3bplus/optee_os/lib/libutee/tee_api_objects.c:619
    1e18:	129fff33 	mov	w19, #0xffff0006            	// #-65530
    1e1c:	17fffff0 	b	1ddc <TEE_GetNextPersistentObject+0x3c>

0000000000001e20 <TEE_ReadObjectData>:
TEE_ReadObjectData():
/home/thesis/Desktop/optee_rpi3bplus/optee_os/lib/libutee/tee_api_objects.c:651
    1e20:	a9bd7bfd 	stp	x29, x30, [sp, #-48]!
    1e24:	910003fd 	mov	x29, sp
    1e28:	a90153f3 	stp	x19, x20, [sp, #16]
/home/thesis/Desktop/optee_rpi3bplus/optee_os/lib/libutee/tee_api_objects.c:655
    1e2c:	b40002c0 	cbz	x0, 1e84 <TEE_ReadObjectData+0x64>
    1e30:	aa0303f4 	mov	x20, x3
/home/thesis/Desktop/optee_rpi3bplus/optee_os/lib/libutee/tee_api_objects.c:660
    1e34:	b9400063 	ldr	w3, [x3]
/home/thesis/Desktop/optee_rpi3bplus/optee_os/lib/libutee/tee_api_objects.c:661
    1e38:	2a0203e2 	mov	w2, w2
/home/thesis/Desktop/optee_rpi3bplus/optee_os/lib/libutee/tee_api_objects.c:660
    1e3c:	f90017e3 	str	x3, [sp, #40]
/home/thesis/Desktop/optee_rpi3bplus/optee_os/lib/libutee/tee_api_objects.c:661
    1e40:	9100a3e3 	add	x3, sp, #0x28
    1e44:	940001c8 	bl	2564 <utee_storage_obj_read>
    1e48:	2a0003f3 	mov	w19, w0
/home/thesis/Desktop/optee_rpi3bplus/optee_os/lib/libutee/tee_api_objects.c:663
    1e4c:	f94017e0 	ldr	x0, [sp, #40]
    1e50:	b9000280 	str	w0, [x20]
/home/thesis/Desktop/optee_rpi3bplus/optee_os/lib/libutee/tee_api_objects.c:667
    1e54:	121e7a60 	and	w0, w19, #0xfffffffd
/home/thesis/Desktop/optee_rpi3bplus/optee_os/lib/libutee/tee_api_objects.c:666
    1e58:	7100027f 	cmp	w19, #0x0
    1e5c:	52800021 	mov	w1, #0x1                   	// #1
    1e60:	72be0201 	movk	w1, #0xf010, lsl #16
    1e64:	7a411004 	ccmp	w0, w1, #0x4, ne  // ne = any
    1e68:	54000060 	b.eq	1e74 <TEE_ReadObjectData+0x54>  // b.none
/home/thesis/Desktop/optee_rpi3bplus/optee_os/lib/libutee/tee_api_objects.c:669
    1e6c:	2a1303e0 	mov	w0, w19
    1e70:	9400006f 	bl	202c <TEE_Panic>
/home/thesis/Desktop/optee_rpi3bplus/optee_os/lib/libutee/tee_api_objects.c:672
    1e74:	2a1303e0 	mov	w0, w19
    1e78:	a94153f3 	ldp	x19, x20, [sp, #16]
    1e7c:	a8c37bfd 	ldp	x29, x30, [sp], #48
    1e80:	d65f03c0 	ret
/home/thesis/Desktop/optee_rpi3bplus/optee_os/lib/libutee/tee_api_objects.c:656
    1e84:	129fff33 	mov	w19, #0xffff0006            	// #-65530
    1e88:	17fffff3 	b	1e54 <TEE_ReadObjectData+0x34>

0000000000001e8c <TEE_WriteObjectData>:
TEE_WriteObjectData():
/home/thesis/Desktop/optee_rpi3bplus/optee_os/lib/libutee/tee_api_objects.c:676
    1e8c:	a9be7bfd 	stp	x29, x30, [sp, #-32]!
    1e90:	910003fd 	mov	x29, sp
    1e94:	f9000bf3 	str	x19, [sp, #16]
/home/thesis/Desktop/optee_rpi3bplus/optee_os/lib/libutee/tee_api_objects.c:679
    1e98:	b40002a0 	cbz	x0, 1eec <TEE_WriteObjectData+0x60>
/home/thesis/Desktop/optee_rpi3bplus/optee_os/lib/libutee/tee_api_objects.c:689
    1e9c:	2a0203e2 	mov	w2, w2
    1ea0:	940001b4 	bl	2570 <utee_storage_obj_write>
    1ea4:	2a0003f3 	mov	w19, w0
/home/thesis/Desktop/optee_rpi3bplus/optee_os/lib/libutee/tee_api_objects.c:692
    1ea8:	7100027f 	cmp	w19, #0x0
    1eac:	1299f7c0 	mov	w0, #0xffff3041            	// #-53183
    1eb0:	7a401264 	ccmp	w19, w0, #0x4, ne  // ne = any
    1eb4:	54000140 	b.eq	1edc <TEE_WriteObjectData+0x50>  // b.none
/home/thesis/Desktop/optee_rpi3bplus/optee_os/lib/libutee/tee_api_objects.c:695
    1eb8:	121e7a61 	and	w1, w19, #0xfffffffd
/home/thesis/Desktop/optee_rpi3bplus/optee_os/lib/libutee/tee_api_objects.c:694
    1ebc:	52800020 	mov	w0, #0x1                   	// #1
    1ec0:	72be0200 	movk	w0, #0xf010, lsl #16
    1ec4:	6b00003f 	cmp	w1, w0
    1ec8:	1299fe00 	mov	w0, #0xffff300f            	// #-53233
    1ecc:	7a401264 	ccmp	w19, w0, #0x4, ne  // ne = any
    1ed0:	54000060 	b.eq	1edc <TEE_WriteObjectData+0x50>  // b.none
/home/thesis/Desktop/optee_rpi3bplus/optee_os/lib/libutee/tee_api_objects.c:697
    1ed4:	2a1303e0 	mov	w0, w19
    1ed8:	94000055 	bl	202c <TEE_Panic>
/home/thesis/Desktop/optee_rpi3bplus/optee_os/lib/libutee/tee_api_objects.c:700
    1edc:	2a1303e0 	mov	w0, w19
    1ee0:	f9400bf3 	ldr	x19, [sp, #16]
    1ee4:	a8c27bfd 	ldp	x29, x30, [sp], #32
    1ee8:	d65f03c0 	ret
/home/thesis/Desktop/optee_rpi3bplus/optee_os/lib/libutee/tee_api_objects.c:680
    1eec:	129fff33 	mov	w19, #0xffff0006            	// #-65530
    1ef0:	17ffffee 	b	1ea8 <TEE_WriteObjectData+0x1c>

0000000000001ef4 <TEE_TruncateObjectData>:
TEE_TruncateObjectData():
/home/thesis/Desktop/optee_rpi3bplus/optee_os/lib/libutee/tee_api_objects.c:703
    1ef4:	a9be7bfd 	stp	x29, x30, [sp, #-32]!
    1ef8:	910003fd 	mov	x29, sp
    1efc:	f9000bf3 	str	x19, [sp, #16]
/home/thesis/Desktop/optee_rpi3bplus/optee_os/lib/libutee/tee_api_objects.c:706
    1f00:	b4000260 	cbz	x0, 1f4c <TEE_TruncateObjectData+0x58>
/home/thesis/Desktop/optee_rpi3bplus/optee_os/lib/libutee/tee_api_objects.c:711
    1f04:	2a0103e1 	mov	w1, w1
    1f08:	9400019d 	bl	257c <utee_storage_obj_trunc>
    1f0c:	2a0003f3 	mov	w19, w0
/home/thesis/Desktop/optee_rpi3bplus/optee_os/lib/libutee/tee_api_objects.c:714
    1f10:	7100027f 	cmp	w19, #0x0
    1f14:	1299f7c0 	mov	w0, #0xffff3041            	// #-53183
    1f18:	7a401264 	ccmp	w19, w0, #0x4, ne  // ne = any
    1f1c:	54000100 	b.eq	1f3c <TEE_TruncateObjectData+0x48>  // b.none
/home/thesis/Desktop/optee_rpi3bplus/optee_os/lib/libutee/tee_api_objects.c:716
    1f20:	121e7a61 	and	w1, w19, #0xfffffffd
    1f24:	52800020 	mov	w0, #0x1                   	// #1
    1f28:	72be0200 	movk	w0, #0xf010, lsl #16
    1f2c:	6b00003f 	cmp	w1, w0
    1f30:	54000060 	b.eq	1f3c <TEE_TruncateObjectData+0x48>  // b.none
/home/thesis/Desktop/optee_rpi3bplus/optee_os/lib/libutee/tee_api_objects.c:718
    1f34:	2a1303e0 	mov	w0, w19
    1f38:	9400003d 	bl	202c <TEE_Panic>
/home/thesis/Desktop/optee_rpi3bplus/optee_os/lib/libutee/tee_api_objects.c:721
    1f3c:	2a1303e0 	mov	w0, w19
    1f40:	f9400bf3 	ldr	x19, [sp, #16]
    1f44:	a8c27bfd 	ldp	x29, x30, [sp], #32
    1f48:	d65f03c0 	ret
/home/thesis/Desktop/optee_rpi3bplus/optee_os/lib/libutee/tee_api_objects.c:707
    1f4c:	129fff33 	mov	w19, #0xffff0006            	// #-65530
    1f50:	17fffff0 	b	1f10 <TEE_TruncateObjectData+0x1c>

0000000000001f54 <TEE_SeekObjectData>:
TEE_SeekObjectData():
/home/thesis/Desktop/optee_rpi3bplus/optee_os/lib/libutee/tee_api_objects.c:725
    1f54:	a9bb7bfd 	stp	x29, x30, [sp, #-80]!
    1f58:	910003fd 	mov	x29, sp
    1f5c:	a90153f3 	stp	x19, x20, [sp, #16]
    1f60:	a9025bf5 	stp	x21, x22, [sp, #32]
/home/thesis/Desktop/optee_rpi3bplus/optee_os/lib/libutee/tee_api_objects.c:729
    1f64:	b40005c0 	cbz	x0, 201c <TEE_SeekObjectData+0xc8>
    1f68:	aa0003f6 	mov	x22, x0
    1f6c:	2a0103f4 	mov	w20, w1
    1f70:	2a0203f5 	mov	w21, w2
/home/thesis/Desktop/optee_rpi3bplus/optee_os/lib/libutee/tee_api_objects.c:734
    1f74:	9100c3e1 	add	x1, sp, #0x30
    1f78:	9400012d 	bl	242c <utee_cryp_obj_get_info>
    1f7c:	2a0003f3 	mov	w19, w0
/home/thesis/Desktop/optee_rpi3bplus/optee_os/lib/libutee/tee_api_objects.c:735
    1f80:	350000e0 	cbnz	w0, 1f9c <TEE_SeekObjectData+0x48>
/home/thesis/Desktop/optee_rpi3bplus/optee_os/lib/libutee/tee_api_objects.c:738
    1f84:	710006bf 	cmp	w21, #0x1
    1f88:	540002a0 	b.eq	1fdc <TEE_SeekObjectData+0x88>  // b.none
    1f8c:	34000355 	cbz	w21, 1ff4 <TEE_SeekObjectData+0xa0>
    1f90:	71000abf 	cmp	w21, #0x2
    1f94:	540003c0 	b.eq	200c <TEE_SeekObjectData+0xb8>  // b.none
/home/thesis/Desktop/optee_rpi3bplus/optee_os/lib/libutee/tee_api_objects.c:764
    1f98:	129ffef3 	mov	w19, #0xffff0008            	// #-65528
/home/thesis/Desktop/optee_rpi3bplus/optee_os/lib/libutee/tee_api_objects.c:771
    1f9c:	7100027f 	cmp	w19, #0x0
    1fa0:	1299fe00 	mov	w0, #0xffff300f            	// #-53233
    1fa4:	7a401264 	ccmp	w19, w0, #0x4, ne  // ne = any
    1fa8:	54000100 	b.eq	1fc8 <TEE_SeekObjectData+0x74>  // b.none
/home/thesis/Desktop/optee_rpi3bplus/optee_os/lib/libutee/tee_api_objects.c:773
    1fac:	121e7a61 	and	w1, w19, #0xfffffffd
    1fb0:	52800020 	mov	w0, #0x1                   	// #1
    1fb4:	72be0200 	movk	w0, #0xf010, lsl #16
    1fb8:	6b00003f 	cmp	w1, w0
    1fbc:	54000060 	b.eq	1fc8 <TEE_SeekObjectData+0x74>  // b.none
/home/thesis/Desktop/optee_rpi3bplus/optee_os/lib/libutee/tee_api_objects.c:775
    1fc0:	2a1303e0 	mov	w0, w19
    1fc4:	9400001a 	bl	202c <TEE_Panic>
/home/thesis/Desktop/optee_rpi3bplus/optee_os/lib/libutee/tee_api_objects.c:778
    1fc8:	2a1303e0 	mov	w0, w19
    1fcc:	a94153f3 	ldp	x19, x20, [sp, #16]
    1fd0:	a9425bf5 	ldp	x21, x22, [sp, #32]
    1fd4:	a8c57bfd 	ldp	x29, x30, [sp], #80
    1fd8:	d65f03c0 	ret
/home/thesis/Desktop/optee_rpi3bplus/optee_os/lib/libutee/tee_api_objects.c:746
    1fdc:	7100029f 	cmp	w20, #0x0
    1fe0:	540000ad 	b.le	1ff4 <TEE_SeekObjectData+0xa0>
/home/thesis/Desktop/optee_rpi3bplus/optee_os/lib/libutee/tee_api_objects.c:749 (discriminator 1)
    1fe4:	b94047e0 	ldr	w0, [sp, #68]
/home/thesis/Desktop/optee_rpi3bplus/optee_os/lib/libutee/tee_api_objects.c:758 (discriminator 1)
    1fe8:	0b000281 	add	w1, w20, w0
/home/thesis/Desktop/optee_rpi3bplus/optee_os/lib/libutee/tee_api_objects.c:756 (discriminator 1)
    1fec:	6b01001f 	cmp	w0, w1
    1ff0:	540001a8 	b.hi	2024 <TEE_SeekObjectData+0xd0>  // b.pmore
/home/thesis/Desktop/optee_rpi3bplus/optee_os/lib/libutee/tee_api_objects.c:768
    1ff4:	2a1503e2 	mov	w2, w21
    1ff8:	2a1403e1 	mov	w1, w20
    1ffc:	aa1603e0 	mov	x0, x22
    2000:	94000162 	bl	2588 <utee_storage_obj_seek>
    2004:	2a0003f3 	mov	w19, w0
    2008:	17ffffe5 	b	1f9c <TEE_SeekObjectData+0x48>
/home/thesis/Desktop/optee_rpi3bplus/optee_os/lib/libutee/tee_api_objects.c:756
    200c:	7100029f 	cmp	w20, #0x0
    2010:	54ffff2d 	b.le	1ff4 <TEE_SeekObjectData+0xa0>
/home/thesis/Desktop/optee_rpi3bplus/optee_os/lib/libutee/tee_api_objects.c:758 (discriminator 1)
    2014:	b94043e0 	ldr	w0, [sp, #64]
    2018:	17fffff4 	b	1fe8 <TEE_SeekObjectData+0x94>
/home/thesis/Desktop/optee_rpi3bplus/optee_os/lib/libutee/tee_api_objects.c:730
    201c:	129fff33 	mov	w19, #0xffff0006            	// #-65530
    2020:	17ffffdf 	b	1f9c <TEE_SeekObjectData+0x48>
/home/thesis/Desktop/optee_rpi3bplus/optee_os/lib/libutee/tee_api_objects.c:751
    2024:	1299fe13 	mov	w19, #0xffff300f            	// #-53233
    2028:	17ffffdd 	b	1f9c <TEE_SeekObjectData+0x48>

000000000000202c <TEE_Panic>:
TEE_Panic():
/home/thesis/Desktop/optee_rpi3bplus/optee_os/lib/libutee/tee_api_panic.c:12
    202c:	2a0003e0 	mov	w0, w0
    2030:	140000b4 	b	2300 <utee_panic>

0000000000002034 <ta_header_get_session>:
ta_header_get_session():
/home/thesis/Desktop/optee_rpi3bplus/optee_os/lib/libutee/arch/arm/user_ta_entry.c:65
    2034:	2a0003e1 	mov	w1, w0
/home/thesis/Desktop/optee_rpi3bplus/optee_os/lib/libutee/arch/arm/user_ta_entry.c:68
    2038:	b0000060 	adrp	x0, f000 <.got>
    203c:	f941fc00 	ldr	x0, [x0, #1016]
/home/thesis/Desktop/optee_rpi3bplus/optee_os/lib/libutee/arch/arm/user_ta_entry.c:68 (discriminator 1)
    2040:	b5000040 	cbnz	x0, 2048 <ta_header_get_session+0x14>
/home/thesis/Desktop/optee_rpi3bplus/optee_os/lib/libutee/arch/arm/user_ta_entry.c:73
    2044:	d65f03c0 	ret
/home/thesis/Desktop/optee_rpi3bplus/optee_os/lib/libutee/arch/arm/user_ta_entry.c:69
    2048:	b9400002 	ldr	w2, [x0]
    204c:	6b01005f 	cmp	w2, w1
    2050:	54ffffa0 	b.eq	2044 <ta_header_get_session+0x10>  // b.none
/home/thesis/Desktop/optee_rpi3bplus/optee_os/lib/libutee/arch/arm/user_ta_entry.c:68 (discriminator 2)
    2054:	f9400800 	ldr	x0, [x0, #16]
    2058:	17fffffa 	b	2040 <ta_header_get_session+0xc>

000000000000205c <ta_header_remove_session>:
ta_header_remove_session():
/home/thesis/Desktop/optee_rpi3bplus/optee_os/lib/libutee/arch/arm/user_ta_entry.c:102
    205c:	a9be7bfd 	stp	x29, x30, [sp, #-32]!
    2060:	2a0003e2 	mov	w2, w0
    2064:	910003fd 	mov	x29, sp
    2068:	f9000bf3 	str	x19, [sp, #16]
/home/thesis/Desktop/optee_rpi3bplus/optee_os/lib/libutee/arch/arm/user_ta_entry.c:106
    206c:	b0000073 	adrp	x19, f000 <.got>
    2070:	f941fe60 	ldr	x0, [x19, #1016]
/home/thesis/Desktop/optee_rpi3bplus/optee_os/lib/libutee/arch/arm/user_ta_entry.c:106 (discriminator 1)
    2074:	b5000080 	cbnz	x0, 2084 <ta_header_remove_session+0x28>
/home/thesis/Desktop/optee_rpi3bplus/optee_os/lib/libutee/arch/arm/user_ta_entry.c:120
    2078:	f9400bf3 	ldr	x19, [sp, #16]
    207c:	a8c27bfd 	ldp	x29, x30, [sp], #32
    2080:	d65f03c0 	ret
/home/thesis/Desktop/optee_rpi3bplus/optee_os/lib/libutee/arch/arm/user_ta_entry.c:107
    2084:	b9400003 	ldr	w3, [x0]
    2088:	f9400801 	ldr	x1, [x0, #16]
    208c:	6b02007f 	cmp	w3, w2
    2090:	540002c1 	b.ne	20e8 <ta_header_remove_session+0x8c>  // b.any
/home/thesis/Desktop/optee_rpi3bplus/optee_os/lib/libutee/arch/arm/user_ta_entry.c:108
    2094:	f9400c02 	ldr	x2, [x0, #24]
    2098:	b4000221 	cbz	x1, 20dc <ta_header_remove_session+0x80>
/home/thesis/Desktop/optee_rpi3bplus/optee_os/lib/libutee/arch/arm/user_ta_entry.c:108 (discriminator 1)
    209c:	f9000c22 	str	x2, [x1, #24]
/home/thesis/Desktop/optee_rpi3bplus/optee_os/lib/libutee/arch/arm/user_ta_entry.c:108 (discriminator 4)
    20a0:	f9400c02 	ldr	x2, [x0, #24]
    20a4:	f9000041 	str	x1, [x2]
/home/thesis/Desktop/optee_rpi3bplus/optee_os/lib/libutee/arch/arm/user_ta_entry.c:109 (discriminator 4)
    20a8:	94000272 	bl	2a70 <TEE_Free>
/home/thesis/Desktop/optee_rpi3bplus/optee_os/lib/libutee/arch/arm/user_ta_entry.c:114 (discriminator 4)
    20ac:	f941fe60 	ldr	x0, [x19, #1016]
    20b0:	b5fffe40 	cbnz	x0, 2078 <ta_header_remove_session+0x1c>
/home/thesis/Desktop/optee_rpi3bplus/optee_os/lib/libutee/arch/arm/user_ta_entry.c:112 (discriminator 1)
    20b4:	b0000060 	adrp	x0, f000 <.got>
    20b8:	52800281 	mov	w1, #0x14                  	// #20
    20bc:	f9403c00 	ldr	x0, [x0, #120]
    20c0:	b9401400 	ldr	w0, [x0, #20]
    20c4:	0a010000 	and	w0, w0, w1
/home/thesis/Desktop/optee_rpi3bplus/optee_os/lib/libutee/arch/arm/user_ta_entry.c:114 (discriminator 1)
    20c8:	6b01001f 	cmp	w0, w1
    20cc:	54fffd60 	b.eq	2078 <ta_header_remove_session+0x1c>  // b.none
/home/thesis/Desktop/optee_rpi3bplus/optee_os/lib/libutee/arch/arm/user_ta_entry.c:120
    20d0:	f9400bf3 	ldr	x19, [sp, #16]
    20d4:	a8c27bfd 	ldp	x29, x30, [sp], #32
uninit_instance():
/home/thesis/Desktop/optee_rpi3bplus/optee_os/lib/libutee/arch/arm/user_ta_entry.c:50
    20d8:	17fff7d5 	b	2c <TA_DestroyEntryPoint>
ta_header_remove_session():
/home/thesis/Desktop/optee_rpi3bplus/optee_os/lib/libutee/arch/arm/user_ta_entry.c:108 (discriminator 2)
    20dc:	910fe263 	add	x3, x19, #0x3f8
    20e0:	f9000462 	str	x2, [x3, #8]
    20e4:	17ffffef 	b	20a0 <ta_header_remove_session+0x44>
    20e8:	aa0103e0 	mov	x0, x1
    20ec:	17ffffe2 	b	2074 <ta_header_remove_session+0x18>

00000000000020f0 <ta_header_save_params.part.0>:
ta_header_save_params():
/home/thesis/Desktop/optee_rpi3bplus/optee_os/lib/libutee/arch/arm/user_ta_entry.c:61
    20f0:	b0000060 	adrp	x0, f000 <.got>
    20f4:	d2800802 	mov	x2, #0x40                  	// #64
    20f8:	52800001 	mov	w1, #0x0                   	// #0
    20fc:	f9403800 	ldr	x0, [x0, #112]
    2100:	17fffc66 	b	1298 <memset>

0000000000002104 <__utee_entry>:
__utee_entry():
/home/thesis/Desktop/optee_rpi3bplus/optee_os/lib/libutee/arch/arm/user_ta_entry.c:187
    2104:	a9b77bfd 	stp	x29, x30, [sp, #-144]!
/home/thesis/Desktop/optee_rpi3bplus/optee_os/lib/libutee/arch/arm/user_ta_entry.c:198
    2108:	f100041f 	cmp	x0, #0x1
/home/thesis/Desktop/optee_rpi3bplus/optee_os/lib/libutee/arch/arm/user_ta_entry.c:187
    210c:	910003fd 	mov	x29, sp
    2110:	a90153f3 	stp	x19, x20, [sp, #16]
    2114:	b0000074 	adrp	x20, f000 <.got>
    2118:	a9025bf5 	stp	x21, x22, [sp, #32]
    211c:	aa0103f5 	mov	x21, x1
    2120:	a90363f7 	stp	x23, x24, [sp, #48]
/home/thesis/Desktop/optee_rpi3bplus/optee_os/lib/libutee/arch/arm/user_ta_entry.c:198
    2124:	54000a00 	b.eq	2264 <__utee_entry+0x160>  // b.none
    2128:	aa0203f7 	mov	x23, x2
    212c:	b40000e0 	cbz	x0, 2148 <__utee_entry+0x44>
    2130:	f100081f 	cmp	x0, #0x2
    2134:	54000aa0 	b.eq	2288 <__utee_entry+0x184>  // b.none
/home/thesis/Desktop/optee_rpi3bplus/optee_os/lib/libutee/arch/arm/user_ta_entry.c:210
    2138:	52800000 	mov	w0, #0x0                   	// #0
/home/thesis/Desktop/optee_rpi3bplus/optee_os/lib/libutee/arch/arm/user_ta_entry.c:209
    213c:	12800013 	mov	w19, #0xffffffff            	// #-1
/home/thesis/Desktop/optee_rpi3bplus/optee_os/lib/libutee/arch/arm/user_ta_entry.c:210
    2140:	97ffffbb 	bl	202c <TEE_Panic>
/home/thesis/Desktop/optee_rpi3bplus/optee_os/lib/libutee/arch/arm/user_ta_entry.c:211
    2144:	14000019 	b	21a8 <__utee_entry+0xa4>
ta_header_add_session():
/home/thesis/Desktop/optee_rpi3bplus/optee_os/lib/libutee/arch/arm/user_ta_entry.c:77
    2148:	2a0103e0 	mov	w0, w1
    214c:	97ffffba 	bl	2034 <ta_header_get_session>
/home/thesis/Desktop/optee_rpi3bplus/optee_os/lib/libutee/arch/arm/user_ta_entry.c:80
    2150:	b5000500 	cbnz	x0, 21f0 <__utee_entry+0xec>
/home/thesis/Desktop/optee_rpi3bplus/optee_os/lib/libutee/arch/arm/user_ta_entry.c:83
    2154:	900000c0 	adrp	x0, 1a000 <ta_heap+0x7b68>
    2158:	39526001 	ldrb	w1, [x0, #1176]
    215c:	340000e1 	cbz	w1, 2178 <__utee_entry+0x74>
/home/thesis/Desktop/optee_rpi3bplus/optee_os/lib/libutee/arch/arm/user_ta_entry.c:90
    2160:	52b00001 	mov	w1, #0x80000000            	// #-2147483648
    2164:	52800400 	mov	w0, #0x20                  	// #32
    2168:	94000229 	bl	2a0c <TEE_Malloc>
/home/thesis/Desktop/optee_rpi3bplus/optee_os/lib/libutee/arch/arm/user_ta_entry.c:92
    216c:	b5000300 	cbnz	x0, 21cc <__utee_entry+0xc8>
/home/thesis/Desktop/optee_rpi3bplus/optee_os/lib/libutee/arch/arm/user_ta_entry.c:93
    2170:	129ffe73 	mov	w19, #0xffff000c            	// #-65524
    2174:	1400000d 	b	21a8 <__utee_entry+0xa4>
/home/thesis/Desktop/optee_rpi3bplus/optee_os/lib/libutee/arch/arm/user_ta_entry.c:84
    2178:	52800021 	mov	w1, #0x1                   	// #1
    217c:	39126001 	strb	w1, [x0, #1176]
init_instance():
/home/thesis/Desktop/optee_rpi3bplus/optee_os/lib/libutee/arch/arm/user_ta_entry.c:40
    2180:	97fff938 	bl	660 <tahead_get_trace_level>
    2184:	94001f77 	bl	9f60 <trace_set_level>
/home/thesis/Desktop/optee_rpi3bplus/optee_os/lib/libutee/arch/arm/user_ta_entry.c:42
    2188:	f9401280 	ldr	x0, [x20, #32]
    218c:	f9400001 	ldr	x1, [x0]
    2190:	f9402a80 	ldr	x0, [x20, #80]
    2194:	97fffb77 	bl	f70 <malloc_add_pool>
/home/thesis/Desktop/optee_rpi3bplus/optee_os/lib/libutee/arch/arm/user_ta_entry.c:43
    2198:	9400043f 	bl	3294 <_TEE_MathAPI_Init>
/home/thesis/Desktop/optee_rpi3bplus/optee_os/lib/libutee/arch/arm/user_ta_entry.c:44
    219c:	97fff7a1 	bl	20 <TA_CreateEntryPoint>
    21a0:	2a0003f3 	mov	w19, w0
ta_header_add_session():
/home/thesis/Desktop/optee_rpi3bplus/optee_os/lib/libutee/arch/arm/user_ta_entry.c:86
    21a4:	34fffde0 	cbz	w0, 2160 <__utee_entry+0x5c>
ta_header_save_params():
/home/thesis/Desktop/optee_rpi3bplus/optee_os/lib/libutee/arch/arm/user_ta_entry.c:56
    21a8:	f9403294 	ldr	x20, [x20, #96]
    21ac:	b900029f 	str	wzr, [x20]
/home/thesis/Desktop/optee_rpi3bplus/optee_os/lib/libutee/arch/arm/user_ta_entry.c:58
    21b0:	97ffffd0 	bl	20f0 <ta_header_save_params.part.0>
__utee_entry():
/home/thesis/Desktop/optee_rpi3bplus/optee_os/lib/libutee/arch/arm/user_ta_entry.c:216
    21b4:	2a1303e0 	mov	w0, w19
    21b8:	a94153f3 	ldp	x19, x20, [sp, #16]
    21bc:	a9425bf5 	ldp	x21, x22, [sp, #32]
    21c0:	a94363f7 	ldp	x23, x24, [sp, #48]
    21c4:	a8c97bfd 	ldp	x29, x30, [sp], #144
    21c8:	d65f03c0 	ret
ta_header_add_session():
/home/thesis/Desktop/optee_rpi3bplus/optee_os/lib/libutee/arch/arm/user_ta_entry.c:96
    21cc:	b0000061 	adrp	x1, f000 <.got>
    21d0:	910fe021 	add	x1, x1, #0x3f8
    21d4:	f9400422 	ldr	x2, [x1, #8]
/home/thesis/Desktop/optee_rpi3bplus/optee_os/lib/libutee/arch/arm/user_ta_entry.c:94
    21d8:	b9000015 	str	w21, [x0]
/home/thesis/Desktop/optee_rpi3bplus/optee_os/lib/libutee/arch/arm/user_ta_entry.c:96
    21dc:	a900fc1f 	stp	xzr, xzr, [x0, #8]
    21e0:	f9000c02 	str	x2, [x0, #24]
    21e4:	f9000040 	str	x0, [x2]
    21e8:	91004000 	add	x0, x0, #0x10
    21ec:	f9000420 	str	x0, [x1, #8]
entry_open_session():
/home/thesis/Desktop/optee_rpi3bplus/optee_os/lib/libutee/arch/arm/user_ta_entry.c:134
    21f0:	2a1503e0 	mov	w0, w21
    21f4:	97ffff90 	bl	2034 <ta_header_get_session>
    21f8:	aa0003f8 	mov	x24, x0
/home/thesis/Desktop/optee_rpi3bplus/optee_os/lib/libutee/arch/arm/user_ta_entry.c:135
    21fc:	b40007e0 	cbz	x0, 22f8 <__utee_entry+0x1f4>
/home/thesis/Desktop/optee_rpi3bplus/optee_os/lib/libutee/arch/arm/user_ta_entry.c:138
    2200:	910143f6 	add	x22, sp, #0x50
    2204:	aa1703e2 	mov	x2, x23
    2208:	910133e1 	add	x1, sp, #0x4c
    220c:	aa1603e0 	mov	x0, x22
    2210:	94000105 	bl	2624 <__utee_to_param>
/home/thesis/Desktop/optee_rpi3bplus/optee_os/lib/libutee/arch/arm/user_ta_entry.c:139
    2214:	b9404ff3 	ldr	w19, [sp, #76]
ta_header_save_params():
/home/thesis/Desktop/optee_rpi3bplus/optee_os/lib/libutee/arch/arm/user_ta_entry.c:56
    2218:	f9403280 	ldr	x0, [x20, #96]
/home/thesis/Desktop/optee_rpi3bplus/optee_os/lib/libutee/arch/arm/user_ta_entry.c:59
    221c:	d2800802 	mov	x2, #0x40                  	// #64
    2220:	aa1603e1 	mov	x1, x22
/home/thesis/Desktop/optee_rpi3bplus/optee_os/lib/libutee/arch/arm/user_ta_entry.c:56
    2224:	b9000013 	str	w19, [x0]
/home/thesis/Desktop/optee_rpi3bplus/optee_os/lib/libutee/arch/arm/user_ta_entry.c:59
    2228:	f9403a80 	ldr	x0, [x20, #112]
    222c:	97fffc13 	bl	1278 <memcpy>
entry_open_session():
/home/thesis/Desktop/optee_rpi3bplus/optee_os/lib/libutee/arch/arm/user_ta_entry.c:141
    2230:	91002302 	add	x2, x24, #0x8
    2234:	aa1603e1 	mov	x1, x22
    2238:	2a1303e0 	mov	w0, w19
    223c:	97fff782 	bl	44 <TA_OpenSessionEntryPoint>
/home/thesis/Desktop/optee_rpi3bplus/optee_os/lib/libutee/arch/arm/user_ta_entry.c:144
    2240:	b9404fe1 	ldr	w1, [sp, #76]
/home/thesis/Desktop/optee_rpi3bplus/optee_os/lib/libutee/arch/arm/user_ta_entry.c:141
    2244:	2a0003f3 	mov	w19, w0
/home/thesis/Desktop/optee_rpi3bplus/optee_os/lib/libutee/arch/arm/user_ta_entry.c:144
    2248:	aa1603e2 	mov	x2, x22
    224c:	aa1703e0 	mov	x0, x23
    2250:	940000d7 	bl	25ac <__utee_from_param>
/home/thesis/Desktop/optee_rpi3bplus/optee_os/lib/libutee/arch/arm/user_ta_entry.c:146
    2254:	34fffab3 	cbz	w19, 21a8 <__utee_entry+0xa4>
/home/thesis/Desktop/optee_rpi3bplus/optee_os/lib/libutee/arch/arm/user_ta_entry.c:147
    2258:	2a1503e0 	mov	w0, w21
    225c:	97ffff80 	bl	205c <ta_header_remove_session>
    2260:	17ffffd2 	b	21a8 <__utee_entry+0xa4>
entry_close_session():
/home/thesis/Desktop/optee_rpi3bplus/optee_os/lib/libutee/arch/arm/user_ta_entry.c:153
    2264:	2a0103e0 	mov	w0, w1
    2268:	97ffff73 	bl	2034 <ta_header_get_session>
/home/thesis/Desktop/optee_rpi3bplus/optee_os/lib/libutee/arch/arm/user_ta_entry.c:155
    226c:	b4000460 	cbz	x0, 22f8 <__utee_entry+0x1f4>
/home/thesis/Desktop/optee_rpi3bplus/optee_os/lib/libutee/arch/arm/user_ta_entry.c:158
    2270:	f9400400 	ldr	x0, [x0, #8]
/home/thesis/Desktop/optee_rpi3bplus/optee_os/lib/libutee/arch/arm/user_ta_entry.c:161
    2274:	52800013 	mov	w19, #0x0                   	// #0
/home/thesis/Desktop/optee_rpi3bplus/optee_os/lib/libutee/arch/arm/user_ta_entry.c:158
    2278:	97fff777 	bl	54 <TA_CloseSessionEntryPoint>
/home/thesis/Desktop/optee_rpi3bplus/optee_os/lib/libutee/arch/arm/user_ta_entry.c:160
    227c:	2a1503e0 	mov	w0, w21
    2280:	97ffff77 	bl	205c <ta_header_remove_session>
/home/thesis/Desktop/optee_rpi3bplus/optee_os/lib/libutee/arch/arm/user_ta_entry.c:161
    2284:	17ffffc9 	b	21a8 <__utee_entry+0xa4>
entry_invoke_command():
/home/thesis/Desktop/optee_rpi3bplus/optee_os/lib/libutee/arch/arm/user_ta_entry.c:170
    2288:	2a0103e0 	mov	w0, w1
    228c:	97ffff6a 	bl	2034 <ta_header_get_session>
    2290:	aa0003f3 	mov	x19, x0
/home/thesis/Desktop/optee_rpi3bplus/optee_os/lib/libutee/arch/arm/user_ta_entry.c:172
    2294:	b4000320 	cbz	x0, 22f8 <__utee_entry+0x1f4>
/home/thesis/Desktop/optee_rpi3bplus/optee_os/lib/libutee/arch/arm/user_ta_entry.c:175
    2298:	910143f5 	add	x21, sp, #0x50
    229c:	aa0303f8 	mov	x24, x3
    22a0:	aa1703e2 	mov	x2, x23
    22a4:	910133e1 	add	x1, sp, #0x4c
    22a8:	aa1503e0 	mov	x0, x21
    22ac:	940000de 	bl	2624 <__utee_to_param>
ta_header_save_params():
/home/thesis/Desktop/optee_rpi3bplus/optee_os/lib/libutee/arch/arm/user_ta_entry.c:56
    22b0:	f9403280 	ldr	x0, [x20, #96]
/home/thesis/Desktop/optee_rpi3bplus/optee_os/lib/libutee/arch/arm/user_ta_entry.c:59
    22b4:	aa1503e1 	mov	x1, x21
entry_invoke_command():
/home/thesis/Desktop/optee_rpi3bplus/optee_os/lib/libutee/arch/arm/user_ta_entry.c:176
    22b8:	b9404ff6 	ldr	w22, [sp, #76]
ta_header_save_params():
/home/thesis/Desktop/optee_rpi3bplus/optee_os/lib/libutee/arch/arm/user_ta_entry.c:59
    22bc:	d2800802 	mov	x2, #0x40                  	// #64
/home/thesis/Desktop/optee_rpi3bplus/optee_os/lib/libutee/arch/arm/user_ta_entry.c:56
    22c0:	b9000016 	str	w22, [x0]
/home/thesis/Desktop/optee_rpi3bplus/optee_os/lib/libutee/arch/arm/user_ta_entry.c:59
    22c4:	f9403a80 	ldr	x0, [x20, #112]
    22c8:	97fffbec 	bl	1278 <memcpy>
entry_invoke_command():
/home/thesis/Desktop/optee_rpi3bplus/optee_os/lib/libutee/arch/arm/user_ta_entry.c:178
    22cc:	f9400660 	ldr	x0, [x19, #8]
    22d0:	2a1603e2 	mov	w2, w22
    22d4:	2a1803e1 	mov	w1, w24
    22d8:	aa1503e3 	mov	x3, x21
    22dc:	97fff75f 	bl	58 <TA_InvokeCommandEntryPoint>
    22e0:	2a0003f3 	mov	w19, w0
/home/thesis/Desktop/optee_rpi3bplus/optee_os/lib/libutee/arch/arm/user_ta_entry.c:181
    22e4:	b9404fe1 	ldr	w1, [sp, #76]
    22e8:	aa1503e2 	mov	x2, x21
    22ec:	aa1703e0 	mov	x0, x23
    22f0:	940000af 	bl	25ac <__utee_from_param>
/home/thesis/Desktop/optee_rpi3bplus/optee_os/lib/libutee/arch/arm/user_ta_entry.c:182
    22f4:	17ffffad 	b	21a8 <__utee_entry+0xa4>
entry_close_session():
/home/thesis/Desktop/optee_rpi3bplus/optee_os/lib/libutee/arch/arm/user_ta_entry.c:156
    22f8:	129fff13 	mov	w19, #0xffff0007            	// #-65529
    22fc:	17ffffab 	b	21a8 <__utee_entry+0xa4>

0000000000002300 <utee_panic>:
utee_panic():
/home/thesis/Desktop/optee_rpi3bplus/optee_os/lib/libutee/arch/arm/utee_syscalls_a64.S:24
    2300:	a9bf7bfd 	stp	x29, x30, [sp, #-16]!
/home/thesis/Desktop/optee_rpi3bplus/optee_os/lib/libutee/arch/arm/utee_syscalls_a64.S:25
    2304:	910003e1 	mov	x1, sp
/home/thesis/Desktop/optee_rpi3bplus/optee_os/lib/libutee/arch/arm/utee_syscalls_a64.S:26
    2308:	94000007 	bl	2324 <__utee_panic>

000000000000230c <utee_return>:
utee_return():
/home/thesis/Desktop/optee_rpi3bplus/optee_os/lib/libutee/arch/arm/utee_syscalls_asm.S:8
    230c:	d2800008 	mov	x8, #0x0                   	// #0
    2310:	d4000001 	svc	#0x0
    2314:	d65f03c0 	ret

0000000000002318 <utee_log>:
utee_log():
/home/thesis/Desktop/optee_rpi3bplus/optee_os/lib/libutee/arch/arm/utee_syscalls_asm.S:10
    2318:	d2800028 	mov	x8, #0x1                   	// #1
    231c:	d4000001 	svc	#0x0
    2320:	d65f03c0 	ret

0000000000002324 <__utee_panic>:
__utee_panic():
/home/thesis/Desktop/optee_rpi3bplus/optee_os/lib/libutee/arch/arm/utee_syscalls_asm.S:12
    2324:	d2800048 	mov	x8, #0x2                   	// #2
    2328:	d4000001 	svc	#0x0
    232c:	d65f03c0 	ret

0000000000002330 <utee_get_property>:
utee_get_property():
/home/thesis/Desktop/optee_rpi3bplus/optee_os/lib/libutee/arch/arm/utee_syscalls_asm.S:14
    2330:	d2800068 	mov	x8, #0x3                   	// #3
    2334:	d4000001 	svc	#0x0
    2338:	d65f03c0 	ret

000000000000233c <utee_get_property_name_to_index>:
utee_get_property_name_to_index():
/home/thesis/Desktop/optee_rpi3bplus/optee_os/lib/libutee/arch/arm/utee_syscalls_asm.S:16
    233c:	d2800088 	mov	x8, #0x4                   	// #4
    2340:	d4000001 	svc	#0x0
    2344:	d65f03c0 	ret

0000000000002348 <utee_open_ta_session>:
utee_open_ta_session():
/home/thesis/Desktop/optee_rpi3bplus/optee_os/lib/libutee/arch/arm/utee_syscalls_asm.S:19
    2348:	d28000a8 	mov	x8, #0x5                   	// #5
    234c:	d4000001 	svc	#0x0
    2350:	d65f03c0 	ret

0000000000002354 <utee_close_ta_session>:
utee_close_ta_session():
/home/thesis/Desktop/optee_rpi3bplus/optee_os/lib/libutee/arch/arm/utee_syscalls_asm.S:21
    2354:	d28000c8 	mov	x8, #0x6                   	// #6
    2358:	d4000001 	svc	#0x0
    235c:	d65f03c0 	ret

0000000000002360 <utee_invoke_ta_command>:
utee_invoke_ta_command():
/home/thesis/Desktop/optee_rpi3bplus/optee_os/lib/libutee/arch/arm/utee_syscalls_asm.S:23
    2360:	d28000e8 	mov	x8, #0x7                   	// #7
    2364:	d4000001 	svc	#0x0
    2368:	d65f03c0 	ret

000000000000236c <utee_get_cancellation_flag>:
utee_get_cancellation_flag():
/home/thesis/Desktop/optee_rpi3bplus/optee_os/lib/libutee/arch/arm/utee_syscalls_asm.S:25
    236c:	d2800128 	mov	x8, #0x9                   	// #9
    2370:	d4000001 	svc	#0x0
    2374:	d65f03c0 	ret

0000000000002378 <utee_check_access_rights>:
utee_check_access_rights():
/home/thesis/Desktop/optee_rpi3bplus/optee_os/lib/libutee/arch/arm/utee_syscalls_asm.S:28
    2378:	d2800108 	mov	x8, #0x8                   	// #8
    237c:	d4000001 	svc	#0x0
    2380:	d65f03c0 	ret

0000000000002384 <utee_unmask_cancellation>:
utee_unmask_cancellation():
/home/thesis/Desktop/optee_rpi3bplus/optee_os/lib/libutee/arch/arm/utee_syscalls_asm.S:30
    2384:	d2800148 	mov	x8, #0xa                   	// #10
    2388:	d4000001 	svc	#0x0
    238c:	d65f03c0 	ret

0000000000002390 <utee_mask_cancellation>:
utee_mask_cancellation():
/home/thesis/Desktop/optee_rpi3bplus/optee_os/lib/libutee/arch/arm/utee_syscalls_asm.S:32
    2390:	d2800168 	mov	x8, #0xb                   	// #11
    2394:	d4000001 	svc	#0x0
    2398:	d65f03c0 	ret

000000000000239c <utee_wait>:
utee_wait():
/home/thesis/Desktop/optee_rpi3bplus/optee_os/lib/libutee/arch/arm/utee_syscalls_asm.S:34
    239c:	d2800188 	mov	x8, #0xc                   	// #12
    23a0:	d4000001 	svc	#0x0
    23a4:	d65f03c0 	ret

00000000000023a8 <utee_get_time>:
utee_get_time():
/home/thesis/Desktop/optee_rpi3bplus/optee_os/lib/libutee/arch/arm/utee_syscalls_asm.S:36
    23a8:	d28001a8 	mov	x8, #0xd                   	// #13
    23ac:	d4000001 	svc	#0x0
    23b0:	d65f03c0 	ret

00000000000023b4 <utee_set_ta_time>:
utee_set_ta_time():
/home/thesis/Desktop/optee_rpi3bplus/optee_os/lib/libutee/arch/arm/utee_syscalls_asm.S:38
    23b4:	d28001c8 	mov	x8, #0xe                   	// #14
    23b8:	d4000001 	svc	#0x0
    23bc:	d65f03c0 	ret

00000000000023c0 <utee_cryp_state_alloc>:
utee_cryp_state_alloc():
/home/thesis/Desktop/optee_rpi3bplus/optee_os/lib/libutee/arch/arm/utee_syscalls_asm.S:40
    23c0:	d28001e8 	mov	x8, #0xf                   	// #15
    23c4:	d4000001 	svc	#0x0
    23c8:	d65f03c0 	ret

00000000000023cc <utee_cryp_state_copy>:
utee_cryp_state_copy():
/home/thesis/Desktop/optee_rpi3bplus/optee_os/lib/libutee/arch/arm/utee_syscalls_asm.S:42
    23cc:	d2800208 	mov	x8, #0x10                  	// #16
    23d0:	d4000001 	svc	#0x0
    23d4:	d65f03c0 	ret

00000000000023d8 <utee_cryp_state_free>:
utee_cryp_state_free():
/home/thesis/Desktop/optee_rpi3bplus/optee_os/lib/libutee/arch/arm/utee_syscalls_asm.S:44
    23d8:	d2800228 	mov	x8, #0x11                  	// #17
    23dc:	d4000001 	svc	#0x0
    23e0:	d65f03c0 	ret

00000000000023e4 <utee_hash_init>:
utee_hash_init():
/home/thesis/Desktop/optee_rpi3bplus/optee_os/lib/libutee/arch/arm/utee_syscalls_asm.S:46
    23e4:	d2800248 	mov	x8, #0x12                  	// #18
    23e8:	d4000001 	svc	#0x0
    23ec:	d65f03c0 	ret

00000000000023f0 <utee_hash_update>:
utee_hash_update():
/home/thesis/Desktop/optee_rpi3bplus/optee_os/lib/libutee/arch/arm/utee_syscalls_asm.S:48
    23f0:	d2800268 	mov	x8, #0x13                  	// #19
    23f4:	d4000001 	svc	#0x0
    23f8:	d65f03c0 	ret

00000000000023fc <utee_hash_final>:
utee_hash_final():
/home/thesis/Desktop/optee_rpi3bplus/optee_os/lib/libutee/arch/arm/utee_syscalls_asm.S:50
    23fc:	d2800288 	mov	x8, #0x14                  	// #20
    2400:	d4000001 	svc	#0x0
    2404:	d65f03c0 	ret

0000000000002408 <utee_cipher_init>:
utee_cipher_init():
/home/thesis/Desktop/optee_rpi3bplus/optee_os/lib/libutee/arch/arm/utee_syscalls_asm.S:52
    2408:	d28002a8 	mov	x8, #0x15                  	// #21
    240c:	d4000001 	svc	#0x0
    2410:	d65f03c0 	ret

0000000000002414 <utee_cipher_update>:
utee_cipher_update():
/home/thesis/Desktop/optee_rpi3bplus/optee_os/lib/libutee/arch/arm/utee_syscalls_asm.S:54
    2414:	d28002c8 	mov	x8, #0x16                  	// #22
    2418:	d4000001 	svc	#0x0
    241c:	d65f03c0 	ret

0000000000002420 <utee_cipher_final>:
utee_cipher_final():
/home/thesis/Desktop/optee_rpi3bplus/optee_os/lib/libutee/arch/arm/utee_syscalls_asm.S:56
    2420:	d28002e8 	mov	x8, #0x17                  	// #23
    2424:	d4000001 	svc	#0x0
    2428:	d65f03c0 	ret

000000000000242c <utee_cryp_obj_get_info>:
utee_cryp_obj_get_info():
/home/thesis/Desktop/optee_rpi3bplus/optee_os/lib/libutee/arch/arm/utee_syscalls_asm.S:58
    242c:	d2800308 	mov	x8, #0x18                  	// #24
    2430:	d4000001 	svc	#0x0
    2434:	d65f03c0 	ret

0000000000002438 <utee_cryp_obj_restrict_usage>:
utee_cryp_obj_restrict_usage():
/home/thesis/Desktop/optee_rpi3bplus/optee_os/lib/libutee/arch/arm/utee_syscalls_asm.S:60
    2438:	d2800328 	mov	x8, #0x19                  	// #25
    243c:	d4000001 	svc	#0x0
    2440:	d65f03c0 	ret

0000000000002444 <utee_cryp_obj_get_attr>:
utee_cryp_obj_get_attr():
/home/thesis/Desktop/optee_rpi3bplus/optee_os/lib/libutee/arch/arm/utee_syscalls_asm.S:63
    2444:	d2800348 	mov	x8, #0x1a                  	// #26
    2448:	d4000001 	svc	#0x0
    244c:	d65f03c0 	ret

0000000000002450 <utee_cryp_obj_alloc>:
utee_cryp_obj_alloc():
/home/thesis/Desktop/optee_rpi3bplus/optee_os/lib/libutee/arch/arm/utee_syscalls_asm.S:65
    2450:	d2800368 	mov	x8, #0x1b                  	// #27
    2454:	d4000001 	svc	#0x0
    2458:	d65f03c0 	ret

000000000000245c <utee_cryp_obj_close>:
utee_cryp_obj_close():
/home/thesis/Desktop/optee_rpi3bplus/optee_os/lib/libutee/arch/arm/utee_syscalls_asm.S:67
    245c:	d2800388 	mov	x8, #0x1c                  	// #28
    2460:	d4000001 	svc	#0x0
    2464:	d65f03c0 	ret

0000000000002468 <utee_cryp_obj_reset>:
utee_cryp_obj_reset():
/home/thesis/Desktop/optee_rpi3bplus/optee_os/lib/libutee/arch/arm/utee_syscalls_asm.S:69
    2468:	d28003a8 	mov	x8, #0x1d                  	// #29
    246c:	d4000001 	svc	#0x0
    2470:	d65f03c0 	ret

0000000000002474 <utee_cryp_obj_populate>:
utee_cryp_obj_populate():
/home/thesis/Desktop/optee_rpi3bplus/optee_os/lib/libutee/arch/arm/utee_syscalls_asm.S:71
    2474:	d28003c8 	mov	x8, #0x1e                  	// #30
    2478:	d4000001 	svc	#0x0
    247c:	d65f03c0 	ret

0000000000002480 <utee_cryp_obj_copy>:
utee_cryp_obj_copy():
/home/thesis/Desktop/optee_rpi3bplus/optee_os/lib/libutee/arch/arm/utee_syscalls_asm.S:73
    2480:	d28003e8 	mov	x8, #0x1f                  	// #31
    2484:	d4000001 	svc	#0x0
    2488:	d65f03c0 	ret

000000000000248c <utee_cryp_derive_key>:
utee_cryp_derive_key():
/home/thesis/Desktop/optee_rpi3bplus/optee_os/lib/libutee/arch/arm/utee_syscalls_asm.S:75
    248c:	d2800408 	mov	x8, #0x20                  	// #32
    2490:	d4000001 	svc	#0x0
    2494:	d65f03c0 	ret

0000000000002498 <utee_cryp_random_number_generate>:
utee_cryp_random_number_generate():
/home/thesis/Desktop/optee_rpi3bplus/optee_os/lib/libutee/arch/arm/utee_syscalls_asm.S:77
    2498:	d2800428 	mov	x8, #0x21                  	// #33
    249c:	d4000001 	svc	#0x0
    24a0:	d65f03c0 	ret

00000000000024a4 <utee_authenc_init>:
utee_authenc_init():
/home/thesis/Desktop/optee_rpi3bplus/optee_os/lib/libutee/arch/arm/utee_syscalls_asm.S:80
    24a4:	d2800448 	mov	x8, #0x22                  	// #34
    24a8:	d4000001 	svc	#0x0
    24ac:	d65f03c0 	ret

00000000000024b0 <utee_authenc_update_aad>:
utee_authenc_update_aad():
/home/thesis/Desktop/optee_rpi3bplus/optee_os/lib/libutee/arch/arm/utee_syscalls_asm.S:82
    24b0:	d2800468 	mov	x8, #0x23                  	// #35
    24b4:	d4000001 	svc	#0x0
    24b8:	d65f03c0 	ret

00000000000024bc <utee_authenc_update_payload>:
utee_authenc_update_payload():
/home/thesis/Desktop/optee_rpi3bplus/optee_os/lib/libutee/arch/arm/utee_syscalls_asm.S:84
    24bc:	d2800488 	mov	x8, #0x24                  	// #36
    24c0:	d4000001 	svc	#0x0
    24c4:	d65f03c0 	ret

00000000000024c8 <utee_authenc_enc_final>:
utee_authenc_enc_final():
/home/thesis/Desktop/optee_rpi3bplus/optee_os/lib/libutee/arch/arm/utee_syscalls_asm.S:87
    24c8:	d28004a8 	mov	x8, #0x25                  	// #37
    24cc:	d4000001 	svc	#0x0
    24d0:	d65f03c0 	ret

00000000000024d4 <utee_authenc_dec_final>:
utee_authenc_dec_final():
/home/thesis/Desktop/optee_rpi3bplus/optee_os/lib/libutee/arch/arm/utee_syscalls_asm.S:89
    24d4:	d28004c8 	mov	x8, #0x26                  	// #38
    24d8:	d4000001 	svc	#0x0
    24dc:	d65f03c0 	ret

00000000000024e0 <utee_asymm_operate>:
utee_asymm_operate():
/home/thesis/Desktop/optee_rpi3bplus/optee_os/lib/libutee/arch/arm/utee_syscalls_asm.S:91
    24e0:	d28004e8 	mov	x8, #0x27                  	// #39
    24e4:	d4000001 	svc	#0x0
    24e8:	d65f03c0 	ret

00000000000024ec <utee_asymm_verify>:
utee_asymm_verify():
/home/thesis/Desktop/optee_rpi3bplus/optee_os/lib/libutee/arch/arm/utee_syscalls_asm.S:93
    24ec:	d2800508 	mov	x8, #0x28                  	// #40
    24f0:	d4000001 	svc	#0x0
    24f4:	d65f03c0 	ret

00000000000024f8 <utee_storage_obj_open>:
utee_storage_obj_open():
/home/thesis/Desktop/optee_rpi3bplus/optee_os/lib/libutee/arch/arm/utee_syscalls_asm.S:95
    24f8:	d2800528 	mov	x8, #0x29                  	// #41
    24fc:	d4000001 	svc	#0x0
    2500:	d65f03c0 	ret

0000000000002504 <utee_storage_obj_create>:
utee_storage_obj_create():
/home/thesis/Desktop/optee_rpi3bplus/optee_os/lib/libutee/arch/arm/utee_syscalls_asm.S:97
    2504:	d2800548 	mov	x8, #0x2a                  	// #42
    2508:	d4000001 	svc	#0x0
    250c:	d65f03c0 	ret

0000000000002510 <utee_storage_obj_del>:
utee_storage_obj_del():
/home/thesis/Desktop/optee_rpi3bplus/optee_os/lib/libutee/arch/arm/utee_syscalls_asm.S:99
    2510:	d2800568 	mov	x8, #0x2b                  	// #43
    2514:	d4000001 	svc	#0x0
    2518:	d65f03c0 	ret

000000000000251c <utee_storage_obj_rename>:
utee_storage_obj_rename():
/home/thesis/Desktop/optee_rpi3bplus/optee_os/lib/libutee/arch/arm/utee_syscalls_asm.S:101
    251c:	d2800588 	mov	x8, #0x2c                  	// #44
    2520:	d4000001 	svc	#0x0
    2524:	d65f03c0 	ret

0000000000002528 <utee_storage_alloc_enum>:
utee_storage_alloc_enum():
/home/thesis/Desktop/optee_rpi3bplus/optee_os/lib/libutee/arch/arm/utee_syscalls_asm.S:103
    2528:	d28005a8 	mov	x8, #0x2d                  	// #45
    252c:	d4000001 	svc	#0x0
    2530:	d65f03c0 	ret

0000000000002534 <utee_storage_free_enum>:
utee_storage_free_enum():
/home/thesis/Desktop/optee_rpi3bplus/optee_os/lib/libutee/arch/arm/utee_syscalls_asm.S:105
    2534:	d28005c8 	mov	x8, #0x2e                  	// #46
    2538:	d4000001 	svc	#0x0
    253c:	d65f03c0 	ret

0000000000002540 <utee_storage_reset_enum>:
utee_storage_reset_enum():
/home/thesis/Desktop/optee_rpi3bplus/optee_os/lib/libutee/arch/arm/utee_syscalls_asm.S:107
    2540:	d28005e8 	mov	x8, #0x2f                  	// #47
    2544:	d4000001 	svc	#0x0
    2548:	d65f03c0 	ret

000000000000254c <utee_storage_start_enum>:
utee_storage_start_enum():
/home/thesis/Desktop/optee_rpi3bplus/optee_os/lib/libutee/arch/arm/utee_syscalls_asm.S:109
    254c:	d2800608 	mov	x8, #0x30                  	// #48
    2550:	d4000001 	svc	#0x0
    2554:	d65f03c0 	ret

0000000000002558 <utee_storage_next_enum>:
utee_storage_next_enum():
/home/thesis/Desktop/optee_rpi3bplus/optee_os/lib/libutee/arch/arm/utee_syscalls_asm.S:111
    2558:	d2800628 	mov	x8, #0x31                  	// #49
    255c:	d4000001 	svc	#0x0
    2560:	d65f03c0 	ret

0000000000002564 <utee_storage_obj_read>:
utee_storage_obj_read():
/home/thesis/Desktop/optee_rpi3bplus/optee_os/lib/libutee/arch/arm/utee_syscalls_asm.S:113
    2564:	d2800648 	mov	x8, #0x32                  	// #50
    2568:	d4000001 	svc	#0x0
    256c:	d65f03c0 	ret

0000000000002570 <utee_storage_obj_write>:
utee_storage_obj_write():
/home/thesis/Desktop/optee_rpi3bplus/optee_os/lib/libutee/arch/arm/utee_syscalls_asm.S:115
    2570:	d2800668 	mov	x8, #0x33                  	// #51
    2574:	d4000001 	svc	#0x0
    2578:	d65f03c0 	ret

000000000000257c <utee_storage_obj_trunc>:
utee_storage_obj_trunc():
/home/thesis/Desktop/optee_rpi3bplus/optee_os/lib/libutee/arch/arm/utee_syscalls_asm.S:117
    257c:	d2800688 	mov	x8, #0x34                  	// #52
    2580:	d4000001 	svc	#0x0
    2584:	d65f03c0 	ret

0000000000002588 <utee_storage_obj_seek>:
utee_storage_obj_seek():
/home/thesis/Desktop/optee_rpi3bplus/optee_os/lib/libutee/arch/arm/utee_syscalls_asm.S:119
    2588:	d28006a8 	mov	x8, #0x35                  	// #53
    258c:	d4000001 	svc	#0x0
    2590:	d65f03c0 	ret

0000000000002594 <utee_cryp_obj_generate_key>:
utee_cryp_obj_generate_key():
/home/thesis/Desktop/optee_rpi3bplus/optee_os/lib/libutee/arch/arm/utee_syscalls_asm.S:121
    2594:	d28006c8 	mov	x8, #0x36                  	// #54
    2598:	d4000001 	svc	#0x0
    259c:	d65f03c0 	ret

00000000000025a0 <utee_cache_operation>:
utee_cache_operation():
/home/thesis/Desktop/optee_rpi3bplus/optee_os/lib/libutee/arch/arm/utee_syscalls_asm.S:124
    25a0:	d28008c8 	mov	x8, #0x46                  	// #70
    25a4:	d4000001 	svc	#0x0
    25a8:	d65f03c0 	ret

00000000000025ac <__utee_from_param>:
__utee_from_param():
/home/thesis/Desktop/optee_rpi3bplus/optee_os/lib/libutee/tee_api.c:26
    25ac:	f0000045 	adrp	x5, d000 <primes+0x378>
    25b0:	910760a5 	add	x5, x5, #0x1d8
/home/thesis/Desktop/optee_rpi3bplus/optee_os/lib/libutee/tee_api.c:24
    25b4:	2a0103e3 	mov	w3, w1
    25b8:	52800004 	mov	w4, #0x0                   	// #0
    25bc:	f8008403 	str	x3, [x0], #8
/home/thesis/Desktop/optee_rpi3bplus/optee_os/lib/libutee/tee_api.c:26
    25c0:	1ac42423 	lsr	w3, w1, w4
    25c4:	12000c63 	and	w3, w3, #0xf
    25c8:	51000463 	sub	w3, w3, #0x1
    25cc:	7100187f 	cmp	w3, #0x6
    25d0:	54000268 	b.hi	261c <__utee_from_param+0x70>  // b.pmore
    25d4:	386348a3 	ldrb	w3, [x5, w3, uxtw]
    25d8:	10000066 	adr	x6, 25e4 <__utee_from_param+0x38>
    25dc:	8b2388c3 	add	x3, x6, w3, sxtb #2
    25e0:	d61f0060 	br	x3
/home/thesis/Desktop/optee_rpi3bplus/optee_os/lib/libutee/tee_api.c:30
    25e4:	b9400043 	ldr	w3, [x2]
    25e8:	f9000003 	str	x3, [x0]
/home/thesis/Desktop/optee_rpi3bplus/optee_os/lib/libutee/tee_api.c:31
    25ec:	b9400443 	ldr	w3, [x2, #4]
/home/thesis/Desktop/optee_rpi3bplus/optee_os/lib/libutee/tee_api.c:37
    25f0:	f9000403 	str	x3, [x0, #8]
/home/thesis/Desktop/optee_rpi3bplus/optee_os/lib/libutee/tee_api.c:38
    25f4:	11001084 	add	w4, w4, #0x4
    25f8:	91004042 	add	x2, x2, #0x10
    25fc:	91004000 	add	x0, x0, #0x10
/home/thesis/Desktop/optee_rpi3bplus/optee_os/lib/libutee/tee_api.c:25 (discriminator 2)
    2600:	7100409f 	cmp	w4, #0x10
    2604:	54fffde1 	b.ne	25c0 <__utee_from_param+0x14>  // b.any
/home/thesis/Desktop/optee_rpi3bplus/optee_os/lib/libutee/tee_api.c:45
    2608:	d65f03c0 	ret
/home/thesis/Desktop/optee_rpi3bplus/optee_os/lib/libutee/tee_api.c:36
    260c:	f9400043 	ldr	x3, [x2]
    2610:	f9000003 	str	x3, [x0]
/home/thesis/Desktop/optee_rpi3bplus/optee_os/lib/libutee/tee_api.c:37
    2614:	b9400843 	ldr	w3, [x2, #8]
    2618:	17fffff6 	b	25f0 <__utee_from_param+0x44>
/home/thesis/Desktop/optee_rpi3bplus/optee_os/lib/libutee/tee_api.c:41
    261c:	a9007c1f 	stp	xzr, xzr, [x0]
/home/thesis/Desktop/optee_rpi3bplus/optee_os/lib/libutee/tee_api.c:42
    2620:	17fffff5 	b	25f4 <__utee_from_param+0x48>

0000000000002624 <__utee_to_param>:
__utee_to_param():
/home/thesis/Desktop/optee_rpi3bplus/optee_os/lib/libutee/tee_api.c:51
    2624:	f8408446 	ldr	x6, [x2], #8
/home/thesis/Desktop/optee_rpi3bplus/optee_os/lib/libutee/tee_api.c:57
    2628:	f0000045 	adrp	x5, d000 <primes+0x378>
    262c:	910780a5 	add	x5, x5, #0x1e0
/home/thesis/Desktop/optee_rpi3bplus/optee_os/lib/libutee/tee_api.c:51
    2630:	52800004 	mov	w4, #0x0                   	// #0
    2634:	2a0603e9 	mov	w9, w6
/home/thesis/Desktop/optee_rpi3bplus/optee_os/lib/libutee/tee_api.c:57
    2638:	1ac42523 	lsr	w3, w9, w4
    263c:	12000c63 	and	w3, w3, #0xf
    2640:	51000463 	sub	w3, w3, #0x1
    2644:	7100187f 	cmp	w3, #0x6
/home/thesis/Desktop/optee_rpi3bplus/optee_os/lib/libutee/tee_api.c:55
    2648:	a9401c48 	ldp	x8, x7, [x2]
/home/thesis/Desktop/optee_rpi3bplus/optee_os/lib/libutee/tee_api.c:57
    264c:	540000c8 	b.hi	2664 <__utee_to_param+0x40>  // b.pmore
    2650:	386348a3 	ldrb	w3, [x5, w3, uxtw]
    2654:	1000006a 	adr	x10, 2660 <__utee_to_param+0x3c>
    2658:	8b238943 	add	x3, x10, w3, sxtb #2
    265c:	d61f0060 	br	x3
/home/thesis/Desktop/optee_rpi3bplus/optee_os/lib/libutee/tee_api.c:62
    2660:	29001c08 	stp	w8, w7, [x0]
/home/thesis/Desktop/optee_rpi3bplus/optee_os/lib/libutee/tee_api.c:63
    2664:	11001084 	add	w4, w4, #0x4
    2668:	91004042 	add	x2, x2, #0x10
    266c:	91004000 	add	x0, x0, #0x10
/home/thesis/Desktop/optee_rpi3bplus/optee_os/lib/libutee/tee_api.c:53 (discriminator 2)
    2670:	7100409f 	cmp	w4, #0x10
    2674:	54fffe21 	b.ne	2638 <__utee_to_param+0x14>  // b.any
/home/thesis/Desktop/optee_rpi3bplus/optee_os/lib/libutee/tee_api.c:75
    2678:	b4000041 	cbz	x1, 2680 <__utee_to_param+0x5c>
/home/thesis/Desktop/optee_rpi3bplus/optee_os/lib/libutee/tee_api.c:76
    267c:	b9000026 	str	w6, [x1]
/home/thesis/Desktop/optee_rpi3bplus/optee_os/lib/libutee/tee_api.c:77
    2680:	d65f03c0 	ret
/home/thesis/Desktop/optee_rpi3bplus/optee_os/lib/libutee/tee_api.c:67
    2684:	f9000008 	str	x8, [x0]
/home/thesis/Desktop/optee_rpi3bplus/optee_os/lib/libutee/tee_api.c:68
    2688:	b9000807 	str	w7, [x0, #8]
/home/thesis/Desktop/optee_rpi3bplus/optee_os/lib/libutee/tee_api.c:69
    268c:	17fffff6 	b	2664 <__utee_to_param+0x40>

0000000000002690 <TEE_OpenTASession>:
TEE_OpenTASession():
/home/thesis/Desktop/optee_rpi3bplus/optee_os/lib/libutee/tee_api.c:85
    2690:	a9b67bfd 	stp	x29, x30, [sp, #-160]!
    2694:	910003fd 	mov	x29, sp
    2698:	a90153f3 	stp	x19, x20, [sp, #16]
/home/thesis/Desktop/optee_rpi3bplus/optee_os/lib/libutee/tee_api.c:90
    269c:	910163f3 	add	x19, sp, #0x58
/home/thesis/Desktop/optee_rpi3bplus/optee_os/lib/libutee/tee_api.c:85
    26a0:	aa0003f4 	mov	x20, x0
/home/thesis/Desktop/optee_rpi3bplus/optee_os/lib/libutee/tee_api.c:90
    26a4:	aa1303e0 	mov	x0, x19
/home/thesis/Desktop/optee_rpi3bplus/optee_os/lib/libutee/tee_api.c:85
    26a8:	a9025bf5 	stp	x21, x22, [sp, #32]
    26ac:	aa0303f5 	mov	x21, x3
    26b0:	aa0403f6 	mov	x22, x4
    26b4:	f9001bf7 	str	x23, [sp, #48]
    26b8:	2a0103f7 	mov	w23, w1
    26bc:	2a0203e1 	mov	w1, w2
/home/thesis/Desktop/optee_rpi3bplus/optee_os/lib/libutee/tee_api.c:90
    26c0:	aa0303e2 	mov	x2, x3
/home/thesis/Desktop/optee_rpi3bplus/optee_os/lib/libutee/tee_api.c:85
    26c4:	f90027e5 	str	x5, [sp, #72]
/home/thesis/Desktop/optee_rpi3bplus/optee_os/lib/libutee/tee_api.c:90
    26c8:	97ffffb9 	bl	25ac <__utee_from_param>
/home/thesis/Desktop/optee_rpi3bplus/optee_os/lib/libutee/tee_api.c:91
    26cc:	f94027e4 	ldr	x4, [sp, #72]
    26d0:	910153e3 	add	x3, sp, #0x54
    26d4:	aa1303e2 	mov	x2, x19
    26d8:	2a1703e1 	mov	w1, w23
    26dc:	aa1403e0 	mov	x0, x20
    26e0:	97ffff1a 	bl	2348 <utee_open_ta_session>
    26e4:	2a0003f4 	mov	w20, w0
/home/thesis/Desktop/optee_rpi3bplus/optee_os/lib/libutee/tee_api.c:93
    26e8:	aa1303e2 	mov	x2, x19
    26ec:	d2800001 	mov	x1, #0x0                   	// #0
    26f0:	aa1503e0 	mov	x0, x21
    26f4:	97ffffcc 	bl	2624 <__utee_to_param>
/home/thesis/Desktop/optee_rpi3bplus/optee_os/lib/libutee/tee_api.c:99
    26f8:	34000054 	cbz	w20, 2700 <TEE_OpenTASession+0x70>
/home/thesis/Desktop/optee_rpi3bplus/optee_os/lib/libutee/tee_api.c:100
    26fc:	b90057ff 	str	wzr, [sp, #84]
/home/thesis/Desktop/optee_rpi3bplus/optee_os/lib/libutee/tee_api.c:102
    2700:	b94057e0 	ldr	w0, [sp, #84]
/home/thesis/Desktop/optee_rpi3bplus/optee_os/lib/libutee/tee_api.c:104
    2704:	f9401bf7 	ldr	x23, [sp, #48]
/home/thesis/Desktop/optee_rpi3bplus/optee_os/lib/libutee/tee_api.c:102
    2708:	f90002c0 	str	x0, [x22]
/home/thesis/Desktop/optee_rpi3bplus/optee_os/lib/libutee/tee_api.c:104
    270c:	2a1403e0 	mov	w0, w20
    2710:	a94153f3 	ldp	x19, x20, [sp, #16]
    2714:	a9425bf5 	ldp	x21, x22, [sp, #32]
    2718:	a8ca7bfd 	ldp	x29, x30, [sp], #160
    271c:	d65f03c0 	ret

0000000000002720 <TEE_CloseTASession>:
TEE_CloseTASession():
/home/thesis/Desktop/optee_rpi3bplus/optee_os/lib/libutee/tee_api.c:108
    2720:	b4000120 	cbz	x0, 2744 <TEE_CloseTASession+0x24>
/home/thesis/Desktop/optee_rpi3bplus/optee_os/lib/libutee/tee_api.c:107
    2724:	a9bf7bfd 	stp	x29, x30, [sp, #-16]!
    2728:	910003fd 	mov	x29, sp
/home/thesis/Desktop/optee_rpi3bplus/optee_os/lib/libutee/tee_api.c:109
    272c:	97ffff0a 	bl	2354 <utee_close_ta_session>
/home/thesis/Desktop/optee_rpi3bplus/optee_os/lib/libutee/tee_api.c:111
    2730:	34000060 	cbz	w0, 273c <TEE_CloseTASession+0x1c>
/home/thesis/Desktop/optee_rpi3bplus/optee_os/lib/libutee/tee_api.c:114
    2734:	a8c17bfd 	ldp	x29, x30, [sp], #16
/home/thesis/Desktop/optee_rpi3bplus/optee_os/lib/libutee/tee_api.c:112
    2738:	17fffe3d 	b	202c <TEE_Panic>
/home/thesis/Desktop/optee_rpi3bplus/optee_os/lib/libutee/tee_api.c:114
    273c:	a8c17bfd 	ldp	x29, x30, [sp], #16
    2740:	d65f03c0 	ret
    2744:	d65f03c0 	ret

0000000000002748 <TEE_InvokeTACommand>:
TEE_InvokeTACommand():
/home/thesis/Desktop/optee_rpi3bplus/optee_os/lib/libutee/tee_api.c:121
    2748:	a9b77bfd 	stp	x29, x30, [sp, #-144]!
    274c:	910003fd 	mov	x29, sp
    2750:	a90153f3 	stp	x19, x20, [sp, #16]
/home/thesis/Desktop/optee_rpi3bplus/optee_os/lib/libutee/tee_api.c:126
    2754:	910123f4 	add	x20, sp, #0x48
/home/thesis/Desktop/optee_rpi3bplus/optee_os/lib/libutee/tee_api.c:121
    2758:	aa0003f3 	mov	x19, x0
/home/thesis/Desktop/optee_rpi3bplus/optee_os/lib/libutee/tee_api.c:126
    275c:	aa1403e0 	mov	x0, x20
/home/thesis/Desktop/optee_rpi3bplus/optee_os/lib/libutee/tee_api.c:121
    2760:	a9025bf5 	stp	x21, x22, [sp, #32]
    2764:	aa0403f6 	mov	x22, x4
    2768:	aa0503f5 	mov	x21, x5
    276c:	a90363f7 	stp	x23, x24, [sp, #48]
    2770:	2a0103f7 	mov	w23, w1
    2774:	2a0203f8 	mov	w24, w2
/home/thesis/Desktop/optee_rpi3bplus/optee_os/lib/libutee/tee_api.c:126
    2778:	2a0303e1 	mov	w1, w3
    277c:	aa0403e2 	mov	x2, x4
    2780:	97ffff8b 	bl	25ac <__utee_from_param>
/home/thesis/Desktop/optee_rpi3bplus/optee_os/lib/libutee/tee_api.c:127
    2784:	910113e4 	add	x4, sp, #0x44
    2788:	aa1403e3 	mov	x3, x20
    278c:	2a1803e2 	mov	w2, w24
    2790:	2a1703e1 	mov	w1, w23
    2794:	aa1303e0 	mov	x0, x19
    2798:	97fffef2 	bl	2360 <utee_invoke_ta_command>
/home/thesis/Desktop/optee_rpi3bplus/optee_os/lib/libutee/tee_api.c:130
    279c:	aa1403e2 	mov	x2, x20
/home/thesis/Desktop/optee_rpi3bplus/optee_os/lib/libutee/tee_api.c:127
    27a0:	2a0003f3 	mov	w19, w0
/home/thesis/Desktop/optee_rpi3bplus/optee_os/lib/libutee/tee_api.c:130
    27a4:	d2800001 	mov	x1, #0x0                   	// #0
    27a8:	aa1603e0 	mov	x0, x22
    27ac:	97ffff9e 	bl	2624 <__utee_to_param>
/home/thesis/Desktop/optee_rpi3bplus/optee_os/lib/libutee/tee_api.c:132
    27b0:	b94047e0 	ldr	w0, [sp, #68]
    27b4:	b4000055 	cbz	x21, 27bc <TEE_InvokeTACommand+0x74>
/home/thesis/Desktop/optee_rpi3bplus/optee_os/lib/libutee/tee_api.c:133
    27b8:	b90002a0 	str	w0, [x21]
/home/thesis/Desktop/optee_rpi3bplus/optee_os/lib/libutee/tee_api.c:135
    27bc:	7100101f 	cmp	w0, #0x4
    27c0:	54000140 	b.eq	27e8 <TEE_InvokeTACommand+0xa0>  // b.none
/home/thesis/Desktop/optee_rpi3bplus/optee_os/lib/libutee/tee_api.c:138
    27c4:	7100027f 	cmp	w19, #0x0
    27c8:	129ffe60 	mov	w0, #0xffff000c            	// #-65524
    27cc:	7a401264 	ccmp	w19, w0, #0x4, ne  // ne = any
    27d0:	540000c0 	b.eq	27e8 <TEE_InvokeTACommand+0xa0>  // b.none
/home/thesis/Desktop/optee_rpi3bplus/optee_os/lib/libutee/tee_api.c:139
    27d4:	1299fb60 	mov	w0, #0xffff3024            	// #-53212
    27d8:	6b00027f 	cmp	w19, w0
    27dc:	54000060 	b.eq	27e8 <TEE_InvokeTACommand+0xa0>  // b.none
/home/thesis/Desktop/optee_rpi3bplus/optee_os/lib/libutee/tee_api.c:141
    27e0:	2a1303e0 	mov	w0, w19
    27e4:	97fffe12 	bl	202c <TEE_Panic>
/home/thesis/Desktop/optee_rpi3bplus/optee_os/lib/libutee/tee_api.c:144
    27e8:	2a1303e0 	mov	w0, w19
    27ec:	a94153f3 	ldp	x19, x20, [sp, #16]
    27f0:	a9425bf5 	ldp	x21, x22, [sp, #32]
    27f4:	a94363f7 	ldp	x23, x24, [sp, #48]
    27f8:	a8c97bfd 	ldp	x29, x30, [sp], #144
    27fc:	d65f03c0 	ret

0000000000002800 <TEE_GetCancellationFlag>:
TEE_GetCancellationFlag():
/home/thesis/Desktop/optee_rpi3bplus/optee_os/lib/libutee/tee_api.c:149
    2800:	a9be7bfd 	stp	x29, x30, [sp, #-32]!
    2804:	910003fd 	mov	x29, sp
/home/thesis/Desktop/optee_rpi3bplus/optee_os/lib/libutee/tee_api.c:151
    2808:	910073e0 	add	x0, sp, #0x1c
    280c:	97fffed8 	bl	236c <utee_get_cancellation_flag>
/home/thesis/Desktop/optee_rpi3bplus/optee_os/lib/libutee/tee_api.c:153
    2810:	34000040 	cbz	w0, 2818 <TEE_GetCancellationFlag+0x18>
/home/thesis/Desktop/optee_rpi3bplus/optee_os/lib/libutee/tee_api.c:154
    2814:	b9001fff 	str	wzr, [sp, #28]
/home/thesis/Desktop/optee_rpi3bplus/optee_os/lib/libutee/tee_api.c:155
    2818:	b9401fe0 	ldr	w0, [sp, #28]
/home/thesis/Desktop/optee_rpi3bplus/optee_os/lib/libutee/tee_api.c:156
    281c:	a8c27bfd 	ldp	x29, x30, [sp], #32
/home/thesis/Desktop/optee_rpi3bplus/optee_os/lib/libutee/tee_api.c:155
    2820:	7100001f 	cmp	w0, #0x0
/home/thesis/Desktop/optee_rpi3bplus/optee_os/lib/libutee/tee_api.c:156
    2824:	1a9f07e0 	cset	w0, ne  // ne = any
    2828:	d65f03c0 	ret

000000000000282c <TEE_UnmaskCancellation>:
TEE_UnmaskCancellation():
/home/thesis/Desktop/optee_rpi3bplus/optee_os/lib/libutee/tee_api.c:159
    282c:	a9be7bfd 	stp	x29, x30, [sp, #-32]!
    2830:	910003fd 	mov	x29, sp
/home/thesis/Desktop/optee_rpi3bplus/optee_os/lib/libutee/tee_api.c:161
    2834:	910073e0 	add	x0, sp, #0x1c
    2838:	97fffed3 	bl	2384 <utee_unmask_cancellation>
/home/thesis/Desktop/optee_rpi3bplus/optee_os/lib/libutee/tee_api.c:163
    283c:	34000040 	cbz	w0, 2844 <TEE_UnmaskCancellation+0x18>
/home/thesis/Desktop/optee_rpi3bplus/optee_os/lib/libutee/tee_api.c:164
    2840:	97fffdfb 	bl	202c <TEE_Panic>
/home/thesis/Desktop/optee_rpi3bplus/optee_os/lib/libutee/tee_api.c:165
    2844:	b9401fe0 	ldr	w0, [sp, #28]
/home/thesis/Desktop/optee_rpi3bplus/optee_os/lib/libutee/tee_api.c:166
    2848:	a8c27bfd 	ldp	x29, x30, [sp], #32
/home/thesis/Desktop/optee_rpi3bplus/optee_os/lib/libutee/tee_api.c:165
    284c:	7100001f 	cmp	w0, #0x0
/home/thesis/Desktop/optee_rpi3bplus/optee_os/lib/libutee/tee_api.c:166
    2850:	1a9f07e0 	cset	w0, ne  // ne = any
    2854:	d65f03c0 	ret

0000000000002858 <TEE_MaskCancellation>:
TEE_MaskCancellation():
/home/thesis/Desktop/optee_rpi3bplus/optee_os/lib/libutee/tee_api.c:169
    2858:	a9be7bfd 	stp	x29, x30, [sp, #-32]!
    285c:	910003fd 	mov	x29, sp
/home/thesis/Desktop/optee_rpi3bplus/optee_os/lib/libutee/tee_api.c:171
    2860:	910073e0 	add	x0, sp, #0x1c
    2864:	97fffecb 	bl	2390 <utee_mask_cancellation>
/home/thesis/Desktop/optee_rpi3bplus/optee_os/lib/libutee/tee_api.c:173
    2868:	34000040 	cbz	w0, 2870 <TEE_MaskCancellation+0x18>
/home/thesis/Desktop/optee_rpi3bplus/optee_os/lib/libutee/tee_api.c:174
    286c:	97fffdf0 	bl	202c <TEE_Panic>
/home/thesis/Desktop/optee_rpi3bplus/optee_os/lib/libutee/tee_api.c:175
    2870:	b9401fe0 	ldr	w0, [sp, #28]
/home/thesis/Desktop/optee_rpi3bplus/optee_os/lib/libutee/tee_api.c:176
    2874:	a8c27bfd 	ldp	x29, x30, [sp], #32
/home/thesis/Desktop/optee_rpi3bplus/optee_os/lib/libutee/tee_api.c:175
    2878:	7100001f 	cmp	w0, #0x0
/home/thesis/Desktop/optee_rpi3bplus/optee_os/lib/libutee/tee_api.c:176
    287c:	1a9f07e0 	cset	w0, ne  // ne = any
    2880:	d65f03c0 	ret

0000000000002884 <TEE_CheckMemoryAccessRights>:
TEE_CheckMemoryAccessRights():
/home/thesis/Desktop/optee_rpi3bplus/optee_os/lib/libutee/tee_api.c:185
    2884:	34000062 	cbz	w2, 2890 <TEE_CheckMemoryAccessRights+0xc>
/home/thesis/Desktop/optee_rpi3bplus/optee_os/lib/libutee/tee_api.c:189
    2888:	2a0203e2 	mov	w2, w2
    288c:	17fffebb 	b	2378 <utee_check_access_rights>
/home/thesis/Desktop/optee_rpi3bplus/optee_os/lib/libutee/tee_api.c:201
    2890:	52800000 	mov	w0, #0x0                   	// #0
    2894:	d65f03c0 	ret

0000000000002898 <TEE_SetInstanceData>:
TEE_SetInstanceData():
/home/thesis/Desktop/optee_rpi3bplus/optee_os/lib/libutee/tee_api.c:205
    2898:	b0000061 	adrp	x1, f000 <.got>
    289c:	f9023420 	str	x0, [x1, #1128]
/home/thesis/Desktop/optee_rpi3bplus/optee_os/lib/libutee/tee_api.c:206
    28a0:	d65f03c0 	ret

00000000000028a4 <TEE_GetInstanceData>:
TEE_GetInstanceData():
/home/thesis/Desktop/optee_rpi3bplus/optee_os/lib/libutee/tee_api.c:211
    28a4:	b0000060 	adrp	x0, f000 <.got>
    28a8:	f9423400 	ldr	x0, [x0, #1128]
    28ac:	d65f03c0 	ret

00000000000028b0 <TEE_MemMove>:
TEE_MemMove():
/home/thesis/Desktop/optee_rpi3bplus/optee_os/lib/libutee/tee_api.c:215
    28b0:	2a0203e2 	mov	w2, w2
    28b4:	14001a4c 	b	91e4 <memmove>

00000000000028b8 <TEE_MemCompare>:
TEE_MemCompare():
/home/thesis/Desktop/optee_rpi3bplus/optee_os/lib/libutee/tee_api.c:220
    28b8:	2a0203e2 	mov	w2, w2
    28bc:	14001ead 	b	a370 <consttime_memcmp>

00000000000028c0 <TEE_MemFill>:
TEE_MemFill():
/home/thesis/Desktop/optee_rpi3bplus/optee_os/lib/libutee/tee_api.c:225
    28c0:	2a0203e2 	mov	w2, w2
    28c4:	17fffa75 	b	1298 <memset>

00000000000028c8 <TEE_GetSystemTime>:
TEE_GetSystemTime():
/home/thesis/Desktop/optee_rpi3bplus/optee_os/lib/libutee/tee_api.c:231
    28c8:	a9bf7bfd 	stp	x29, x30, [sp, #-16]!
/home/thesis/Desktop/optee_rpi3bplus/optee_os/lib/libutee/tee_api.c:232
    28cc:	aa0003e1 	mov	x1, x0
    28d0:	d2800000 	mov	x0, #0x0                   	// #0
/home/thesis/Desktop/optee_rpi3bplus/optee_os/lib/libutee/tee_api.c:231
    28d4:	910003fd 	mov	x29, sp
/home/thesis/Desktop/optee_rpi3bplus/optee_os/lib/libutee/tee_api.c:232
    28d8:	97fffeb4 	bl	23a8 <utee_get_time>
/home/thesis/Desktop/optee_rpi3bplus/optee_os/lib/libutee/tee_api.c:234
    28dc:	34000060 	cbz	w0, 28e8 <TEE_GetSystemTime+0x20>
/home/thesis/Desktop/optee_rpi3bplus/optee_os/lib/libutee/tee_api.c:236
    28e0:	a8c17bfd 	ldp	x29, x30, [sp], #16
/home/thesis/Desktop/optee_rpi3bplus/optee_os/lib/libutee/tee_api.c:235
    28e4:	17fffdd2 	b	202c <TEE_Panic>
/home/thesis/Desktop/optee_rpi3bplus/optee_os/lib/libutee/tee_api.c:236
    28e8:	a8c17bfd 	ldp	x29, x30, [sp], #16
    28ec:	d65f03c0 	ret

00000000000028f0 <TEE_Wait>:
TEE_Wait():
/home/thesis/Desktop/optee_rpi3bplus/optee_os/lib/libutee/tee_api.c:239
    28f0:	a9be7bfd 	stp	x29, x30, [sp, #-32]!
/home/thesis/Desktop/optee_rpi3bplus/optee_os/lib/libutee/tee_api.c:240
    28f4:	2a0003e0 	mov	w0, w0
/home/thesis/Desktop/optee_rpi3bplus/optee_os/lib/libutee/tee_api.c:239
    28f8:	910003fd 	mov	x29, sp
    28fc:	f9000bf3 	str	x19, [sp, #16]
/home/thesis/Desktop/optee_rpi3bplus/optee_os/lib/libutee/tee_api.c:240
    2900:	97fffea7 	bl	239c <utee_wait>
/home/thesis/Desktop/optee_rpi3bplus/optee_os/lib/libutee/tee_api.c:242
    2904:	7100001f 	cmp	w0, #0x0
    2908:	129fffa1 	mov	w1, #0xffff0002            	// #-65534
/home/thesis/Desktop/optee_rpi3bplus/optee_os/lib/libutee/tee_api.c:240
    290c:	2a0003f3 	mov	w19, w0
/home/thesis/Desktop/optee_rpi3bplus/optee_os/lib/libutee/tee_api.c:242
    2910:	7a411004 	ccmp	w0, w1, #0x4, ne  // ne = any
    2914:	54000040 	b.eq	291c <TEE_Wait+0x2c>  // b.none
/home/thesis/Desktop/optee_rpi3bplus/optee_os/lib/libutee/tee_api.c:243
    2918:	97fffdc5 	bl	202c <TEE_Panic>
/home/thesis/Desktop/optee_rpi3bplus/optee_os/lib/libutee/tee_api.c:246
    291c:	2a1303e0 	mov	w0, w19
    2920:	f9400bf3 	ldr	x19, [sp, #16]
    2924:	a8c27bfd 	ldp	x29, x30, [sp], #32
    2928:	d65f03c0 	ret

000000000000292c <TEE_GetTAPersistentTime>:
TEE_GetTAPersistentTime():
/home/thesis/Desktop/optee_rpi3bplus/optee_os/lib/libutee/tee_api.c:249
    292c:	a9be7bfd 	stp	x29, x30, [sp, #-32]!
/home/thesis/Desktop/optee_rpi3bplus/optee_os/lib/libutee/tee_api.c:252
    2930:	aa0003e1 	mov	x1, x0
/home/thesis/Desktop/optee_rpi3bplus/optee_os/lib/libutee/tee_api.c:249
    2934:	910003fd 	mov	x29, sp
    2938:	a90153f3 	stp	x19, x20, [sp, #16]
    293c:	aa0003f4 	mov	x20, x0
/home/thesis/Desktop/optee_rpi3bplus/optee_os/lib/libutee/tee_api.c:252
    2940:	d2800020 	mov	x0, #0x1                   	// #1
    2944:	97fffe99 	bl	23a8 <utee_get_time>
/home/thesis/Desktop/optee_rpi3bplus/optee_os/lib/libutee/tee_api.c:254
    2948:	7100001f 	cmp	w0, #0x0
/home/thesis/Desktop/optee_rpi3bplus/optee_os/lib/libutee/tee_api.c:252
    294c:	2a0003f3 	mov	w19, w0
/home/thesis/Desktop/optee_rpi3bplus/optee_os/lib/libutee/tee_api.c:254
    2950:	1a9f07e2 	cset	w2, ne  // ne = any
    2954:	1299fe00 	mov	w0, #0xffff300f            	// #-53233
    2958:	6b00027f 	cmp	w19, w0
    295c:	1a9f1041 	csel	w1, w2, wzr, ne  // ne = any
    2960:	34000041 	cbz	w1, 2968 <TEE_GetTAPersistentTime+0x3c>
/home/thesis/Desktop/optee_rpi3bplus/optee_os/lib/libutee/tee_api.c:256
    2964:	29007e9f 	stp	wzr, wzr, [x20]
/home/thesis/Desktop/optee_rpi3bplus/optee_os/lib/libutee/tee_api.c:260
    2968:	11402e60 	add	w0, w19, #0xb, lsl #12
/home/thesis/Desktop/optee_rpi3bplus/optee_os/lib/libutee/tee_api.c:259
    296c:	7100005f 	cmp	w2, #0x0
    2970:	7a411800 	ccmp	w0, #0x1, #0x0, ne  // ne = any
    2974:	540000e9 	b.ls	2990 <TEE_GetTAPersistentTime+0x64>  // b.plast
/home/thesis/Desktop/optee_rpi3bplus/optee_os/lib/libutee/tee_api.c:261
    2978:	340000c1 	cbz	w1, 2990 <TEE_GetTAPersistentTime+0x64>
/home/thesis/Desktop/optee_rpi3bplus/optee_os/lib/libutee/tee_api.c:262
    297c:	129ffe60 	mov	w0, #0xffff000c            	// #-65524
    2980:	6b00027f 	cmp	w19, w0
    2984:	54000060 	b.eq	2990 <TEE_GetTAPersistentTime+0x64>  // b.none
/home/thesis/Desktop/optee_rpi3bplus/optee_os/lib/libutee/tee_api.c:264
    2988:	2a1303e0 	mov	w0, w19
    298c:	97fffda8 	bl	202c <TEE_Panic>
/home/thesis/Desktop/optee_rpi3bplus/optee_os/lib/libutee/tee_api.c:267
    2990:	2a1303e0 	mov	w0, w19
    2994:	a94153f3 	ldp	x19, x20, [sp, #16]
    2998:	a8c27bfd 	ldp	x29, x30, [sp], #32
    299c:	d65f03c0 	ret

00000000000029a0 <TEE_SetTAPersistentTime>:
TEE_SetTAPersistentTime():
/home/thesis/Desktop/optee_rpi3bplus/optee_os/lib/libutee/tee_api.c:270
    29a0:	a9be7bfd 	stp	x29, x30, [sp, #-32]!
    29a4:	910003fd 	mov	x29, sp
    29a8:	f9000bf3 	str	x19, [sp, #16]
/home/thesis/Desktop/optee_rpi3bplus/optee_os/lib/libutee/tee_api.c:273
    29ac:	97fffe82 	bl	23b4 <utee_set_ta_time>
/home/thesis/Desktop/optee_rpi3bplus/optee_os/lib/libutee/tee_api.c:275
    29b0:	7100001f 	cmp	w0, #0x0
    29b4:	129ffe61 	mov	w1, #0xffff000c            	// #-65524
/home/thesis/Desktop/optee_rpi3bplus/optee_os/lib/libutee/tee_api.c:273
    29b8:	2a0003f3 	mov	w19, w0
/home/thesis/Desktop/optee_rpi3bplus/optee_os/lib/libutee/tee_api.c:275
    29bc:	7a411004 	ccmp	w0, w1, #0x4, ne  // ne = any
    29c0:	540000a0 	b.eq	29d4 <TEE_SetTAPersistentTime+0x34>  // b.none
/home/thesis/Desktop/optee_rpi3bplus/optee_os/lib/libutee/tee_api.c:276
    29c4:	1299f7c1 	mov	w1, #0xffff3041            	// #-53183
    29c8:	6b01001f 	cmp	w0, w1
    29cc:	54000040 	b.eq	29d4 <TEE_SetTAPersistentTime+0x34>  // b.none
/home/thesis/Desktop/optee_rpi3bplus/optee_os/lib/libutee/tee_api.c:278
    29d0:	97fffd97 	bl	202c <TEE_Panic>
/home/thesis/Desktop/optee_rpi3bplus/optee_os/lib/libutee/tee_api.c:281
    29d4:	2a1303e0 	mov	w0, w19
    29d8:	f9400bf3 	ldr	x19, [sp, #16]
    29dc:	a8c27bfd 	ldp	x29, x30, [sp], #32
    29e0:	d65f03c0 	ret

00000000000029e4 <TEE_GetREETime>:
TEE_GetREETime():
/home/thesis/Desktop/optee_rpi3bplus/optee_os/lib/libutee/tee_api.c:284
    29e4:	a9bf7bfd 	stp	x29, x30, [sp, #-16]!
/home/thesis/Desktop/optee_rpi3bplus/optee_os/lib/libutee/tee_api.c:285
    29e8:	aa0003e1 	mov	x1, x0
    29ec:	d2800040 	mov	x0, #0x2                   	// #2
/home/thesis/Desktop/optee_rpi3bplus/optee_os/lib/libutee/tee_api.c:284
    29f0:	910003fd 	mov	x29, sp
/home/thesis/Desktop/optee_rpi3bplus/optee_os/lib/libutee/tee_api.c:285
    29f4:	97fffe6d 	bl	23a8 <utee_get_time>
/home/thesis/Desktop/optee_rpi3bplus/optee_os/lib/libutee/tee_api.c:287
    29f8:	34000060 	cbz	w0, 2a04 <TEE_GetREETime+0x20>
/home/thesis/Desktop/optee_rpi3bplus/optee_os/lib/libutee/tee_api.c:289
    29fc:	a8c17bfd 	ldp	x29, x30, [sp], #16
/home/thesis/Desktop/optee_rpi3bplus/optee_os/lib/libutee/tee_api.c:288
    2a00:	17fffd8b 	b	202c <TEE_Panic>
/home/thesis/Desktop/optee_rpi3bplus/optee_os/lib/libutee/tee_api.c:289
    2a04:	a8c17bfd 	ldp	x29, x30, [sp], #16
    2a08:	d65f03c0 	ret

0000000000002a0c <TEE_Malloc>:
TEE_Malloc():
/home/thesis/Desktop/optee_rpi3bplus/optee_os/lib/libutee/tee_api.c:293
    2a0c:	35000081 	cbnz	w1, 2a1c <TEE_Malloc+0x10>
/home/thesis/Desktop/optee_rpi3bplus/optee_os/lib/libutee/tee_api.c:294
    2a10:	2a0003e1 	mov	w1, w0
    2a14:	d2800020 	mov	x0, #0x1                   	// #1
    2a18:	17fff91d 	b	e8c <calloc>
/home/thesis/Desktop/optee_rpi3bplus/optee_os/lib/libutee/tee_api.c:295
    2a1c:	52b00002 	mov	w2, #0x80000000            	// #-2147483648
    2a20:	6b02003f 	cmp	w1, w2
    2a24:	54000061 	b.ne	2a30 <TEE_Malloc+0x24>  // b.any
/home/thesis/Desktop/optee_rpi3bplus/optee_os/lib/libutee/tee_api.c:296
    2a28:	2a0003e0 	mov	w0, w0
    2a2c:	17fff904 	b	e3c <malloc>
/home/thesis/Desktop/optee_rpi3bplus/optee_os/lib/libutee/tee_api.c:292
    2a30:	a9bf7bfd 	stp	x29, x30, [sp, #-16]!
    2a34:	2a0103e5 	mov	w5, w1
/home/thesis/Desktop/optee_rpi3bplus/optee_os/lib/libutee/tee_api.c:298
    2a38:	52800023 	mov	w3, #0x1                   	// #1
/home/thesis/Desktop/optee_rpi3bplus/optee_os/lib/libutee/tee_api.c:292
    2a3c:	910003fd 	mov	x29, sp
/home/thesis/Desktop/optee_rpi3bplus/optee_os/lib/libutee/tee_api.c:298
    2a40:	52800022 	mov	w2, #0x1                   	// #1
    2a44:	52802541 	mov	w1, #0x12a                 	// #298
    2a48:	f0000044 	adrp	x4, d000 <primes+0x378>
    2a4c:	f0000040 	adrp	x0, d000 <primes+0x378>
    2a50:	9122cc84 	add	x4, x4, #0x8b3
    2a54:	91079c00 	add	x0, x0, #0x1e7
    2a58:	94001d4d 	bl	9f8c <trace_printf>
/home/thesis/Desktop/optee_rpi3bplus/optee_os/lib/libutee/tee_api.c:301
    2a5c:	d2800000 	mov	x0, #0x0                   	// #0
    2a60:	a8c17bfd 	ldp	x29, x30, [sp], #16
    2a64:	d65f03c0 	ret

0000000000002a68 <TEE_Realloc>:
TEE_Realloc():
/home/thesis/Desktop/optee_rpi3bplus/optee_os/lib/libutee/tee_api.c:305
    2a68:	2a0103e1 	mov	w1, w1
    2a6c:	17fff921 	b	ef0 <realloc>

0000000000002a70 <TEE_Free>:
TEE_Free():
/home/thesis/Desktop/optee_rpi3bplus/optee_os/lib/libutee/tee_api.c:310
    2a70:	17fff934 	b	f40 <free>

0000000000002a74 <TEE_CacheClean>:
TEE_CacheClean():
/home/thesis/Desktop/optee_rpi3bplus/optee_os/lib/libutee/tee_api.c:316
    2a74:	d2800002 	mov	x2, #0x0                   	// #0
    2a78:	17fffeca 	b	25a0 <utee_cache_operation>

0000000000002a7c <TEE_CacheFlush>:
TEE_CacheFlush():
/home/thesis/Desktop/optee_rpi3bplus/optee_os/lib/libutee/tee_api.c:320
    2a7c:	d2800022 	mov	x2, #0x1                   	// #1
    2a80:	17fffec8 	b	25a0 <utee_cache_operation>

0000000000002a84 <TEE_CacheInvalidate>:
TEE_CacheInvalidate():
/home/thesis/Desktop/optee_rpi3bplus/optee_os/lib/libutee/tee_api.c:325
    2a84:	d2800042 	mov	x2, #0x2                   	// #2
    2a88:	17fffec6 	b	25a0 <utee_cache_operation>

0000000000002a8c <api_panic>:
api_panic():
/home/thesis/Desktop/optee_rpi3bplus/optee_os/lib/libutee/tee_api_arith_mpi.c:19
    2a8c:	a9bf7bfd 	stp	x29, x30, [sp, #-16]!
/home/thesis/Desktop/optee_rpi3bplus/optee_os/lib/libutee/tee_api_arith_mpi.c:20
    2a90:	aa0203e3 	mov	x3, x2
    2a94:	2a0103e2 	mov	w2, w1
    2a98:	aa0003e1 	mov	x1, x0
/home/thesis/Desktop/optee_rpi3bplus/optee_os/lib/libutee/tee_api_arith_mpi.c:19
    2a9c:	910003fd 	mov	x29, sp
/home/thesis/Desktop/optee_rpi3bplus/optee_os/lib/libutee/tee_api_arith_mpi.c:20
    2aa0:	f0000040 	adrp	x0, d000 <primes+0x378>
    2aa4:	91280400 	add	x0, x0, #0xa01
    2aa8:	94000656 	bl	4400 <printf>
/home/thesis/Desktop/optee_rpi3bplus/optee_os/lib/libutee/tee_api_arith_mpi.c:21
    2aac:	528c24e0 	mov	w0, #0x6127                	// #24871
    2ab0:	72a01620 	movk	w0, #0xb1, lsl #16
    2ab4:	97fffd5e 	bl	202c <TEE_Panic>
/home/thesis/Desktop/optee_rpi3bplus/optee_os/lib/libutee/tee_api_arith_mpi.c:23 (discriminator 1)
    2ab8:	14000000 	b	2ab8 <api_panic+0x2c>

0000000000002abc <mpi_panic>:
mpi_panic():
/home/thesis/Desktop/optee_rpi3bplus/optee_os/lib/libutee/tee_api_arith_mpi.c:29
    2abc:	a9bf7bfd 	stp	x29, x30, [sp, #-16]!
/home/thesis/Desktop/optee_rpi3bplus/optee_os/lib/libutee/tee_api_arith_mpi.c:30
    2ac0:	2a0203e3 	mov	w3, w2
    2ac4:	2a0103e2 	mov	w2, w1
    2ac8:	aa0003e1 	mov	x1, x0
/home/thesis/Desktop/optee_rpi3bplus/optee_os/lib/libutee/tee_api_arith_mpi.c:29
    2acc:	910003fd 	mov	x29, sp
/home/thesis/Desktop/optee_rpi3bplus/optee_os/lib/libutee/tee_api_arith_mpi.c:30
    2ad0:	f0000040 	adrp	x0, d000 <primes+0x378>
    2ad4:	91288400 	add	x0, x0, #0xa21
    2ad8:	9400064a 	bl	4400 <printf>
/home/thesis/Desktop/optee_rpi3bplus/optee_os/lib/libutee/tee_api_arith_mpi.c:31
    2adc:	528c24e0 	mov	w0, #0x6127                	// #24871
    2ae0:	72a01620 	movk	w0, #0xb1, lsl #16
    2ae4:	97fffd52 	bl	202c <TEE_Panic>
/home/thesis/Desktop/optee_rpi3bplus/optee_os/lib/libutee/tee_api_arith_mpi.c:33 (discriminator 1)
    2ae8:	14000000 	b	2ae8 <mpi_panic+0x2c>

0000000000002aec <get_mpi>:
get_mpi():
/home/thesis/Desktop/optee_rpi3bplus/optee_os/lib/libutee/tee_api_arith_mpi.c:86
    2aec:	a9bd7bfd 	stp	x29, x30, [sp, #-48]!
    2af0:	910003fd 	mov	x29, sp
    2af4:	a90153f3 	stp	x19, x20, [sp, #16]
    2af8:	aa0103f4 	mov	x20, x1
    2afc:	a9025bf5 	stp	x21, x22, [sp, #32]
    2b00:	aa0003f5 	mov	x21, x0
/home/thesis/Desktop/optee_rpi3bplus/optee_os/lib/libutee/tee_api_arith_mpi.c:101
    2b04:	940007fa 	bl	4aec <mbedtls_mpi_init_mempool>
/home/thesis/Desktop/optee_rpi3bplus/optee_os/lib/libutee/tee_api_arith_mpi.c:103
    2b08:	b4000374 	cbz	x20, 2b74 <get_mpi+0x88>
/home/thesis/Desktop/optee_rpi3bplus/optee_os/lib/libutee/tee_api_arith_mpi.c:106
    2b0c:	79400e93 	ldrh	w19, [x20, #6]
/home/thesis/Desktop/optee_rpi3bplus/optee_os/lib/libutee/tee_api_arith_mpi.c:105
    2b10:	91002296 	add	x22, x20, #0x8
/home/thesis/Desktop/optee_rpi3bplus/optee_os/lib/libutee/tee_api_arith_mpi.c:109
    2b14:	91001281 	add	x1, x20, #0x4
    2b18:	b4000073 	cbz	x19, 2b24 <get_mpi+0x38>
/home/thesis/Desktop/optee_rpi3bplus/optee_os/lib/libutee/tee_api_arith_mpi.c:109 (discriminator 1)
    2b1c:	b8737820 	ldr	w0, [x1, x19, lsl #2]
    2b20:	34000140 	cbz	w0, 2b48 <get_mpi+0x5c>
/home/thesis/Desktop/optee_rpi3bplus/optee_os/lib/libutee/tee_api_arith_mpi.c:112
    2b24:	aa1303e1 	mov	x1, x19
    2b28:	aa1503e0 	mov	x0, x21
    2b2c:	94000815 	bl	4b80 <mbedtls_mpi_grow>
    2b30:	34000100 	cbz	w0, 2b50 <get_mpi+0x64>
/home/thesis/Desktop/optee_rpi3bplus/optee_os/lib/libutee/tee_api_arith_mpi.c:112 (discriminator 1)
    2b34:	2a0003e2 	mov	w2, w0
    2b38:	52800e01 	mov	w1, #0x70                  	// #112
    2b3c:	f0000040 	adrp	x0, d000 <primes+0x378>
    2b40:	91231000 	add	x0, x0, #0x8c4
    2b44:	97ffffde 	bl	2abc <mpi_panic>
/home/thesis/Desktop/optee_rpi3bplus/optee_os/lib/libutee/tee_api_arith_mpi.c:110
    2b48:	d1000673 	sub	x19, x19, #0x1
    2b4c:	17fffff3 	b	2b18 <get_mpi+0x2c>
/home/thesis/Desktop/optee_rpi3bplus/optee_os/lib/libutee/tee_api_arith_mpi.c:113
    2b50:	b9400280 	ldr	w0, [x20]
/home/thesis/Desktop/optee_rpi3bplus/optee_os/lib/libutee/tee_api_arith_mpi.c:114
    2b54:	d37ef662 	lsl	x2, x19, #2
/home/thesis/Desktop/optee_rpi3bplus/optee_os/lib/libutee/tee_api_arith_mpi.c:113
    2b58:	790002a0 	strh	w0, [x21]
/home/thesis/Desktop/optee_rpi3bplus/optee_os/lib/libutee/tee_api_arith_mpi.c:114
    2b5c:	aa1603e1 	mov	x1, x22
/home/thesis/Desktop/optee_rpi3bplus/optee_os/lib/libutee/tee_api_arith_mpi.c:116
    2b60:	a94153f3 	ldp	x19, x20, [sp, #16]
/home/thesis/Desktop/optee_rpi3bplus/optee_os/lib/libutee/tee_api_arith_mpi.c:114
    2b64:	f9400aa0 	ldr	x0, [x21, #16]
/home/thesis/Desktop/optee_rpi3bplus/optee_os/lib/libutee/tee_api_arith_mpi.c:116
    2b68:	a9425bf5 	ldp	x21, x22, [sp, #32]
    2b6c:	a8c37bfd 	ldp	x29, x30, [sp], #48
/home/thesis/Desktop/optee_rpi3bplus/optee_os/lib/libutee/tee_api_arith_mpi.c:114
    2b70:	17fff9c2 	b	1278 <memcpy>
/home/thesis/Desktop/optee_rpi3bplus/optee_os/lib/libutee/tee_api_arith_mpi.c:116
    2b74:	a94153f3 	ldp	x19, x20, [sp, #16]
    2b78:	a9425bf5 	ldp	x21, x22, [sp, #32]
    2b7c:	a8c37bfd 	ldp	x29, x30, [sp], #48
    2b80:	d65f03c0 	ret

0000000000002b84 <copy_mpi_to_bigint>:
copy_mpi_to_bigint():
/home/thesis/Desktop/optee_rpi3bplus/optee_os/lib/libutee/tee_api_arith_mpi.c:61
    2b84:	aa0103e3 	mov	x3, x1
/home/thesis/Desktop/optee_rpi3bplus/optee_os/lib/libutee/tee_api_arith_mpi.c:63
    2b88:	a9408402 	ldp	x2, x1, [x0, #8]
    2b8c:	aa0203e4 	mov	x4, x2
/home/thesis/Desktop/optee_rpi3bplus/optee_os/lib/libutee/tee_api_arith_mpi.c:66
    2b90:	b40000e4 	cbz	x4, 2bac <copy_mpi_to_bigint+0x28>
/home/thesis/Desktop/optee_rpi3bplus/optee_os/lib/libutee/tee_api_arith_mpi.c:66 (discriminator 1)
    2b94:	8b040825 	add	x5, x1, x4, lsl #2
    2b98:	b85fc0a5 	ldur	w5, [x5, #-4]
    2b9c:	340001e5 	cbz	w5, 2bd8 <copy_mpi_to_bigint+0x54>
/home/thesis/Desktop/optee_rpi3bplus/optee_os/lib/libutee/tee_api_arith_mpi.c:69
    2ba0:	79400865 	ldrh	w5, [x3, #4]
    2ba4:	eb0400bf 	cmp	x5, x4
    2ba8:	540001c3 	b.cc	2be0 <copy_mpi_to_bigint+0x5c>  // b.lo, b.ul, b.last
/home/thesis/Desktop/optee_rpi3bplus/optee_os/lib/libutee/tee_api_arith_mpi.c:61
    2bac:	a9bf7bfd 	stp	x29, x30, [sp, #-16]!
/home/thesis/Desktop/optee_rpi3bplus/optee_os/lib/libutee/tee_api_arith_mpi.c:74
    2bb0:	d37ef442 	lsl	x2, x2, #2
/home/thesis/Desktop/optee_rpi3bplus/optee_os/lib/libutee/tee_api_arith_mpi.c:61
    2bb4:	910003fd 	mov	x29, sp
/home/thesis/Desktop/optee_rpi3bplus/optee_os/lib/libutee/tee_api_arith_mpi.c:72
    2bb8:	79000c64 	strh	w4, [x3, #6]
/home/thesis/Desktop/optee_rpi3bplus/optee_os/lib/libutee/tee_api_arith_mpi.c:73
    2bbc:	79c00004 	ldrsh	w4, [x0]
    2bc0:	aa0303e0 	mov	x0, x3
    2bc4:	b8008404 	str	w4, [x0], #8
/home/thesis/Desktop/optee_rpi3bplus/optee_os/lib/libutee/tee_api_arith_mpi.c:74
    2bc8:	97fff9ac 	bl	1278 <memcpy>
/home/thesis/Desktop/optee_rpi3bplus/optee_os/lib/libutee/tee_api_arith_mpi.c:76
    2bcc:	52800000 	mov	w0, #0x0                   	// #0
/home/thesis/Desktop/optee_rpi3bplus/optee_os/lib/libutee/tee_api_arith_mpi.c:77
    2bd0:	a8c17bfd 	ldp	x29, x30, [sp], #16
    2bd4:	d65f03c0 	ret
/home/thesis/Desktop/optee_rpi3bplus/optee_os/lib/libutee/tee_api_arith_mpi.c:67
    2bd8:	d1000484 	sub	x4, x4, #0x1
    2bdc:	17ffffed 	b	2b90 <copy_mpi_to_bigint+0xc>
/home/thesis/Desktop/optee_rpi3bplus/optee_os/lib/libutee/tee_api_arith_mpi.c:70
    2be0:	1299fe00 	mov	w0, #0xffff300f            	// #-53233
/home/thesis/Desktop/optee_rpi3bplus/optee_os/lib/libutee/tee_api_arith_mpi.c:77
    2be4:	d65f03c0 	ret

0000000000002be8 <bigint_binary>:
bigint_binary():
/home/thesis/Desktop/optee_rpi3bplus/optee_os/lib/libutee/tee_api_arith_mpi.c:321
    2be8:	a9b67bfd 	stp	x29, x30, [sp, #-160]!
    2bec:	910003fd 	mov	x29, sp
    2bf0:	a90153f3 	stp	x19, x20, [sp, #16]
/home/thesis/Desktop/optee_rpi3bplus/optee_os/lib/libutee/tee_api_arith_mpi.c:328
    2bf4:	910163f3 	add	x19, sp, #0x58
/home/thesis/Desktop/optee_rpi3bplus/optee_os/lib/libutee/tee_api_arith_mpi.c:321
    2bf8:	aa0203f4 	mov	x20, x2
    2bfc:	a9025bf5 	stp	x21, x22, [sp, #32]
    2c00:	aa0003f6 	mov	x22, x0
    2c04:	a90363f7 	stp	x23, x24, [sp, #48]
    2c08:	9101c3f8 	add	x24, sp, #0x70
    2c0c:	a9046bf9 	stp	x25, x26, [sp, #64]
    2c10:	aa0103f9 	mov	x25, x1
    2c14:	aa0303fa 	mov	x26, x3
/home/thesis/Desktop/optee_rpi3bplus/optee_os/lib/libutee/tee_api_arith_mpi.c:328
    2c18:	aa0003e1 	mov	x1, x0
    2c1c:	aa1303e0 	mov	x0, x19
    2c20:	97ffffb3 	bl	2aec <get_mpi>
/home/thesis/Desktop/optee_rpi3bplus/optee_os/lib/libutee/tee_api_arith_mpi.c:330
    2c24:	eb1902df 	cmp	x22, x25
    2c28:	54000320 	b.eq	2c8c <bigint_binary+0xa4>  // b.none
/home/thesis/Desktop/optee_rpi3bplus/optee_os/lib/libutee/tee_api_arith_mpi.c:325
    2c2c:	aa1803f5 	mov	x21, x24
/home/thesis/Desktop/optee_rpi3bplus/optee_os/lib/libutee/tee_api_arith_mpi.c:333
    2c30:	aa1903e1 	mov	x1, x25
    2c34:	aa1803e0 	mov	x0, x24
    2c38:	97ffffad 	bl	2aec <get_mpi>
/home/thesis/Desktop/optee_rpi3bplus/optee_os/lib/libutee/tee_api_arith_mpi.c:335
    2c3c:	eb1402df 	cmp	x22, x20
    2c40:	910223f7 	add	x23, sp, #0x88
    2c44:	54000280 	b.eq	2c94 <bigint_binary+0xac>  // b.none
/home/thesis/Desktop/optee_rpi3bplus/optee_os/lib/libutee/tee_api_arith_mpi.c:337
    2c48:	eb14033f 	cmp	x25, x20
    2c4c:	54000280 	b.eq	2c9c <bigint_binary+0xb4>  // b.none
/home/thesis/Desktop/optee_rpi3bplus/optee_os/lib/libutee/tee_api_arith_mpi.c:340
    2c50:	aa1403e1 	mov	x1, x20
/home/thesis/Desktop/optee_rpi3bplus/optee_os/lib/libutee/tee_api_arith_mpi.c:326
    2c54:	aa1703f4 	mov	x20, x23
/home/thesis/Desktop/optee_rpi3bplus/optee_os/lib/libutee/tee_api_arith_mpi.c:340
    2c58:	aa1703e0 	mov	x0, x23
    2c5c:	97ffffa4 	bl	2aec <get_mpi>
/home/thesis/Desktop/optee_rpi3bplus/optee_os/lib/libutee/tee_api_arith_mpi.c:342
    2c60:	aa1403e2 	mov	x2, x20
    2c64:	aa1503e1 	mov	x1, x21
    2c68:	aa1303e0 	mov	x0, x19
    2c6c:	d63f0340 	blr	x26
    2c70:	340001a0 	cbz	w0, 2ca4 <bigint_binary+0xbc>
/home/thesis/Desktop/optee_rpi3bplus/optee_os/lib/libutee/tee_api_arith_mpi.c:342 (discriminator 1)
    2c74:	2a0003e2 	mov	w2, w0
    2c78:	52802ac1 	mov	w1, #0x156                 	// #342
/home/thesis/Desktop/optee_rpi3bplus/optee_os/lib/libutee/tee_api_arith_mpi.c:344 (discriminator 1)
    2c7c:	f0000040 	adrp	x0, d000 <primes+0x378>
    2c80:	91231000 	add	x0, x0, #0x8c4
    2c84:	91002000 	add	x0, x0, #0x8
    2c88:	97ffff8d 	bl	2abc <mpi_panic>
/home/thesis/Desktop/optee_rpi3bplus/optee_os/lib/libutee/tee_api_arith_mpi.c:331
    2c8c:	aa1303f5 	mov	x21, x19
    2c90:	17ffffeb 	b	2c3c <bigint_binary+0x54>
/home/thesis/Desktop/optee_rpi3bplus/optee_os/lib/libutee/tee_api_arith_mpi.c:336
    2c94:	aa1303f4 	mov	x20, x19
    2c98:	17fffff2 	b	2c60 <bigint_binary+0x78>
/home/thesis/Desktop/optee_rpi3bplus/optee_os/lib/libutee/tee_api_arith_mpi.c:338
    2c9c:	aa1503f4 	mov	x20, x21
    2ca0:	17fffff0 	b	2c60 <bigint_binary+0x78>
/home/thesis/Desktop/optee_rpi3bplus/optee_os/lib/libutee/tee_api_arith_mpi.c:344
    2ca4:	aa1603e1 	mov	x1, x22
    2ca8:	aa1303e0 	mov	x0, x19
    2cac:	97ffffb6 	bl	2b84 <copy_mpi_to_bigint>
    2cb0:	34000080 	cbz	w0, 2cc0 <bigint_binary+0xd8>
/home/thesis/Desktop/optee_rpi3bplus/optee_os/lib/libutee/tee_api_arith_mpi.c:344 (discriminator 1)
    2cb4:	2a0003e2 	mov	w2, w0
    2cb8:	52802b01 	mov	w1, #0x158                 	// #344
    2cbc:	17fffff0 	b	2c7c <bigint_binary+0x94>
/home/thesis/Desktop/optee_rpi3bplus/optee_os/lib/libutee/tee_api_arith_mpi.c:345
    2cc0:	aa1303e0 	mov	x0, x19
    2cc4:	94000794 	bl	4b14 <mbedtls_mpi_free>
/home/thesis/Desktop/optee_rpi3bplus/optee_os/lib/libutee/tee_api_arith_mpi.c:346
    2cc8:	eb1802bf 	cmp	x21, x24
    2ccc:	54000061 	b.ne	2cd8 <bigint_binary+0xf0>  // b.any
/home/thesis/Desktop/optee_rpi3bplus/optee_os/lib/libutee/tee_api_arith_mpi.c:347
    2cd0:	aa1503e0 	mov	x0, x21
    2cd4:	94000790 	bl	4b14 <mbedtls_mpi_free>
/home/thesis/Desktop/optee_rpi3bplus/optee_os/lib/libutee/tee_api_arith_mpi.c:348
    2cd8:	eb17029f 	cmp	x20, x23
    2cdc:	54000061 	b.ne	2ce8 <bigint_binary+0x100>  // b.any
/home/thesis/Desktop/optee_rpi3bplus/optee_os/lib/libutee/tee_api_arith_mpi.c:349
    2ce0:	aa1403e0 	mov	x0, x20
    2ce4:	9400078c 	bl	4b14 <mbedtls_mpi_free>
/home/thesis/Desktop/optee_rpi3bplus/optee_os/lib/libutee/tee_api_arith_mpi.c:350
    2ce8:	a94153f3 	ldp	x19, x20, [sp, #16]
    2cec:	a9425bf5 	ldp	x21, x22, [sp, #32]
    2cf0:	a94363f7 	ldp	x23, x24, [sp, #48]
    2cf4:	a9446bf9 	ldp	x25, x26, [sp, #64]
    2cf8:	a8ca7bfd 	ldp	x29, x30, [sp], #160
    2cfc:	d65f03c0 	ret

0000000000002d00 <mpi_is_odd>:
mpi_is_odd():
/home/thesis/Desktop/optee_rpi3bplus/optee_os/lib/libutee/tee_api_arith_mpi.c:590
    2d00:	a9bf7bfd 	stp	x29, x30, [sp, #-16]!
/home/thesis/Desktop/optee_rpi3bplus/optee_os/lib/libutee/tee_api_arith_mpi.c:591
    2d04:	d2800001 	mov	x1, #0x0                   	// #0
/home/thesis/Desktop/optee_rpi3bplus/optee_os/lib/libutee/tee_api_arith_mpi.c:590
    2d08:	910003fd 	mov	x29, sp
/home/thesis/Desktop/optee_rpi3bplus/optee_os/lib/libutee/tee_api_arith_mpi.c:591
    2d0c:	940008eb 	bl	50b8 <mbedtls_mpi_get_bit>
    2d10:	7100001f 	cmp	w0, #0x0
/home/thesis/Desktop/optee_rpi3bplus/optee_os/lib/libutee/tee_api_arith_mpi.c:592
    2d14:	1a9f07e0 	cset	w0, ne  // ne = any
    2d18:	a8c17bfd 	ldp	x29, x30, [sp], #16
    2d1c:	d65f03c0 	ret

0000000000002d20 <rng_read>:
rng_read():
/home/thesis/Desktop/optee_rpi3bplus/optee_os/lib/libutee/tee_api_arith_mpi.c:757
    2d20:	a9bf7bfd 	stp	x29, x30, [sp, #-16]!
    2d24:	aa0103e0 	mov	x0, x1
/home/thesis/Desktop/optee_rpi3bplus/optee_os/lib/libutee/tee_api_arith_mpi.c:758
    2d28:	aa0203e1 	mov	x1, x2
/home/thesis/Desktop/optee_rpi3bplus/optee_os/lib/libutee/tee_api_arith_mpi.c:757
    2d2c:	910003fd 	mov	x29, sp
/home/thesis/Desktop/optee_rpi3bplus/optee_os/lib/libutee/tee_api_arith_mpi.c:758
    2d30:	97fffdda 	bl	2498 <utee_cryp_random_number_generate>
/home/thesis/Desktop/optee_rpi3bplus/optee_os/lib/libutee/tee_api_arith_mpi.c:759
    2d34:	7100001f 	cmp	w0, #0x0
/home/thesis/Desktop/optee_rpi3bplus/optee_os/lib/libutee/tee_api_arith_mpi.c:761
    2d38:	a8c17bfd 	ldp	x29, x30, [sp], #16
    2d3c:	12800020 	mov	w0, #0xfffffffe            	// #-2
    2d40:	1a9f1000 	csel	w0, w0, wzr, ne  // ne = any
    2d44:	d65f03c0 	ret

0000000000002d48 <mpi_egcd>:
mpi_egcd():
/home/thesis/Desktop/optee_rpi3bplus/optee_os/lib/libutee/tee_api_arith_mpi.c:605
    2d48:	a9ae7bfd 	stp	x29, x30, [sp, #-288]!
    2d4c:	910003fd 	mov	x29, sp
    2d50:	6d0627e8 	stp	d8, d9, [sp, #96]
    2d54:	9e670028 	fmov	d8, x1
    2d58:	9e670069 	fmov	d9, x3
    2d5c:	a90363f7 	stp	x23, x24, [sp, #48]
get_mpi():
/home/thesis/Desktop/optee_rpi3bplus/optee_os/lib/libutee/tee_api_arith_mpi.c:101
    2d60:	9101e3f7 	add	x23, sp, #0x78
mpi_egcd():
/home/thesis/Desktop/optee_rpi3bplus/optee_os/lib/libutee/tee_api_arith_mpi.c:605
    2d64:	aa0003f8 	mov	x24, x0
get_mpi():
/home/thesis/Desktop/optee_rpi3bplus/optee_os/lib/libutee/tee_api_arith_mpi.c:101
    2d68:	aa1703e0 	mov	x0, x23
mpi_egcd():
/home/thesis/Desktop/optee_rpi3bplus/optee_os/lib/libutee/tee_api_arith_mpi.c:605
    2d6c:	a90153f3 	stp	x19, x20, [sp, #16]
get_mpi():
/home/thesis/Desktop/optee_rpi3bplus/optee_os/lib/libutee/tee_api_arith_mpi.c:101
    2d70:	9102a3f4 	add	x20, sp, #0xa8
mpi_egcd():
/home/thesis/Desktop/optee_rpi3bplus/optee_os/lib/libutee/tee_api_arith_mpi.c:605
    2d74:	a9025bf5 	stp	x21, x22, [sp, #32]
get_mpi():
/home/thesis/Desktop/optee_rpi3bplus/optee_os/lib/libutee/tee_api_arith_mpi.c:101
    2d78:	910243f6 	add	x22, sp, #0x90
    2d7c:	910303f3 	add	x19, sp, #0xc0
mpi_egcd():
/home/thesis/Desktop/optee_rpi3bplus/optee_os/lib/libutee/tee_api_arith_mpi.c:605
    2d80:	a9046bf9 	stp	x25, x26, [sp, #64]
get_mpi():
/home/thesis/Desktop/optee_rpi3bplus/optee_os/lib/libutee/tee_api_arith_mpi.c:101
    2d84:	910363fa 	add	x26, sp, #0xd8
    2d88:	9103c3f9 	add	x25, sp, #0xf0
mpi_egcd():
/home/thesis/Desktop/optee_rpi3bplus/optee_os/lib/libutee/tee_api_arith_mpi.c:605
    2d8c:	a90573fb 	stp	x27, x28, [sp, #80]
    2d90:	aa0403fb 	mov	x27, x4
    2d94:	aa0203fc 	mov	x28, x2
get_mpi():
/home/thesis/Desktop/optee_rpi3bplus/optee_os/lib/libutee/tee_api_arith_mpi.c:101
    2d98:	94000755 	bl	4aec <mbedtls_mpi_init_mempool>
    2d9c:	910423f5 	add	x21, sp, #0x108
    2da0:	aa1603e0 	mov	x0, x22
    2da4:	94000752 	bl	4aec <mbedtls_mpi_init_mempool>
    2da8:	aa1403e0 	mov	x0, x20
    2dac:	94000750 	bl	4aec <mbedtls_mpi_init_mempool>
    2db0:	aa1303e0 	mov	x0, x19
    2db4:	9400074e 	bl	4aec <mbedtls_mpi_init_mempool>
    2db8:	aa1a03e0 	mov	x0, x26
    2dbc:	9400074c 	bl	4aec <mbedtls_mpi_init_mempool>
    2dc0:	aa1903e0 	mov	x0, x25
    2dc4:	9400074a 	bl	4aec <mbedtls_mpi_init_mempool>
    2dc8:	aa1503e0 	mov	x0, x21
    2dcc:	94000748 	bl	4aec <mbedtls_mpi_init_mempool>
mpi_egcd():
/home/thesis/Desktop/optee_rpi3bplus/optee_os/lib/libutee/tee_api_arith_mpi.c:624
    2dd0:	52800001 	mov	w1, #0x0                   	// #0
    2dd4:	aa1b03e0 	mov	x0, x27
    2dd8:	94000a47 	bl	56f4 <mbedtls_mpi_cmp_int>
    2ddc:	35000320 	cbnz	w0, 2e40 <mpi_egcd+0xf8>
/home/thesis/Desktop/optee_rpi3bplus/optee_os/lib/libutee/tee_api_arith_mpi.c:625
    2de0:	9e660100 	fmov	x0, d8
    2de4:	52800021 	mov	w1, #0x1                   	// #1
    2de8:	9400089a 	bl	5050 <mbedtls_mpi_lset>
    2dec:	340000e0 	cbz	w0, 2e08 <mpi_egcd+0xc0>
/home/thesis/Desktop/optee_rpi3bplus/optee_os/lib/libutee/tee_api_arith_mpi.c:625 (discriminator 1)
    2df0:	2a0003e2 	mov	w2, w0
    2df4:	52804e21 	mov	w1, #0x271                 	// #625
/home/thesis/Desktop/optee_rpi3bplus/optee_os/lib/libutee/tee_api_arith_mpi.c:626 (discriminator 1)
    2df8:	f0000040 	adrp	x0, d000 <primes+0x378>
    2dfc:	91231000 	add	x0, x0, #0x8c4
    2e00:	91005800 	add	x0, x0, #0x16
    2e04:	97ffff2e 	bl	2abc <mpi_panic>
/home/thesis/Desktop/optee_rpi3bplus/optee_os/lib/libutee/tee_api_arith_mpi.c:626
    2e08:	52800001 	mov	w1, #0x0                   	// #0
    2e0c:	aa1c03e0 	mov	x0, x28
    2e10:	94000890 	bl	5050 <mbedtls_mpi_lset>
    2e14:	34000080 	cbz	w0, 2e24 <mpi_egcd+0xdc>
/home/thesis/Desktop/optee_rpi3bplus/optee_os/lib/libutee/tee_api_arith_mpi.c:626 (discriminator 1)
    2e18:	2a0003e2 	mov	w2, w0
    2e1c:	52804e41 	mov	w1, #0x272                 	// #626
    2e20:	17fffff6 	b	2df8 <mpi_egcd+0xb0>
/home/thesis/Desktop/optee_rpi3bplus/optee_os/lib/libutee/tee_api_arith_mpi.c:627
    2e24:	9e660121 	fmov	x1, d9
    2e28:	aa1803e0 	mov	x0, x24
    2e2c:	940007db 	bl	4d98 <mbedtls_mpi_copy>
    2e30:	34002060 	cbz	w0, 323c <mpi_egcd+0x4f4>
/home/thesis/Desktop/optee_rpi3bplus/optee_os/lib/libutee/tee_api_arith_mpi.c:627 (discriminator 1)
    2e34:	2a0003e2 	mov	w2, w0
    2e38:	52804e61 	mov	w1, #0x273                 	// #627
    2e3c:	17ffffef 	b	2df8 <mpi_egcd+0xb0>
/home/thesis/Desktop/optee_rpi3bplus/optee_os/lib/libutee/tee_api_arith_mpi.c:631
    2e40:	9e660121 	fmov	x1, d9
    2e44:	aa1a03e0 	mov	x0, x26
    2e48:	940007d4 	bl	4d98 <mbedtls_mpi_copy>
    2e4c:	34000080 	cbz	w0, 2e5c <mpi_egcd+0x114>
/home/thesis/Desktop/optee_rpi3bplus/optee_os/lib/libutee/tee_api_arith_mpi.c:631 (discriminator 1)
    2e50:	2a0003e2 	mov	w2, w0
    2e54:	52804ee1 	mov	w1, #0x277                 	// #631
    2e58:	17ffffe8 	b	2df8 <mpi_egcd+0xb0>
/home/thesis/Desktop/optee_rpi3bplus/optee_os/lib/libutee/tee_api_arith_mpi.c:632
    2e5c:	aa1b03e1 	mov	x1, x27
    2e60:	aa1903e0 	mov	x0, x25
/home/thesis/Desktop/optee_rpi3bplus/optee_os/lib/libutee/tee_api_arith_mpi.c:634
    2e64:	5280001b 	mov	w27, #0x0                   	// #0
/home/thesis/Desktop/optee_rpi3bplus/optee_os/lib/libutee/tee_api_arith_mpi.c:632
    2e68:	940007cc 	bl	4d98 <mbedtls_mpi_copy>
    2e6c:	34000160 	cbz	w0, 2e98 <mpi_egcd+0x150>
/home/thesis/Desktop/optee_rpi3bplus/optee_os/lib/libutee/tee_api_arith_mpi.c:632 (discriminator 1)
    2e70:	2a0003e2 	mov	w2, w0
    2e74:	52804f01 	mov	w1, #0x278                 	// #632
    2e78:	17ffffe0 	b	2df8 <mpi_egcd+0xb0>
/home/thesis/Desktop/optee_rpi3bplus/optee_os/lib/libutee/tee_api_arith_mpi.c:638
    2e7c:	d2800021 	mov	x1, #0x1                   	// #1
    2e80:	aa1903e0 	mov	x0, x25
    2e84:	9400098d 	bl	54b8 <mbedtls_mpi_shift_r>
    2e88:	34000080 	cbz	w0, 2e98 <mpi_egcd+0x150>
/home/thesis/Desktop/optee_rpi3bplus/optee_os/lib/libutee/tee_api_arith_mpi.c:638 (discriminator 1)
    2e8c:	2a0003e2 	mov	w2, w0
    2e90:	52804fc1 	mov	w1, #0x27e                 	// #638
    2e94:	17ffffd9 	b	2df8 <mpi_egcd+0xb0>
mpi_is_even():
/home/thesis/Desktop/optee_rpi3bplus/optee_os/lib/libutee/tee_api_arith_mpi.c:596
    2e98:	aa1a03e0 	mov	x0, x26
    2e9c:	97ffff99 	bl	2d00 <mpi_is_odd>
mpi_egcd():
/home/thesis/Desktop/optee_rpi3bplus/optee_os/lib/libutee/tee_api_arith_mpi.c:635
    2ea0:	72001c1f 	tst	w0, #0xff
    2ea4:	54000100 	b.eq	2ec4 <mpi_egcd+0x17c>  // b.none
/home/thesis/Desktop/optee_rpi3bplus/optee_os/lib/libutee/tee_api_arith_mpi.c:641
    2ea8:	aa1a03e1 	mov	x1, x26
    2eac:	aa1503e0 	mov	x0, x21
    2eb0:	940007ba 	bl	4d98 <mbedtls_mpi_copy>
    2eb4:	34000200 	cbz	w0, 2ef4 <mpi_egcd+0x1ac>
/home/thesis/Desktop/optee_rpi3bplus/optee_os/lib/libutee/tee_api_arith_mpi.c:641 (discriminator 1)
    2eb8:	2a0003e2 	mov	w2, w0
    2ebc:	52805021 	mov	w1, #0x281                 	// #641
    2ec0:	17ffffce 	b	2df8 <mpi_egcd+0xb0>
mpi_is_even():
/home/thesis/Desktop/optee_rpi3bplus/optee_os/lib/libutee/tee_api_arith_mpi.c:596
    2ec4:	aa1903e0 	mov	x0, x25
    2ec8:	97ffff8e 	bl	2d00 <mpi_is_odd>
mpi_egcd():
/home/thesis/Desktop/optee_rpi3bplus/optee_os/lib/libutee/tee_api_arith_mpi.c:635
    2ecc:	72001c1f 	tst	w0, #0xff
    2ed0:	54fffec1 	b.ne	2ea8 <mpi_egcd+0x160>  // b.any
/home/thesis/Desktop/optee_rpi3bplus/optee_os/lib/libutee/tee_api_arith_mpi.c:636
    2ed4:	1100077b 	add	w27, w27, #0x1
/home/thesis/Desktop/optee_rpi3bplus/optee_os/lib/libutee/tee_api_arith_mpi.c:637
    2ed8:	d2800021 	mov	x1, #0x1                   	// #1
    2edc:	aa1a03e0 	mov	x0, x26
    2ee0:	94000976 	bl	54b8 <mbedtls_mpi_shift_r>
    2ee4:	34fffcc0 	cbz	w0, 2e7c <mpi_egcd+0x134>
/home/thesis/Desktop/optee_rpi3bplus/optee_os/lib/libutee/tee_api_arith_mpi.c:637 (discriminator 1)
    2ee8:	2a0003e2 	mov	w2, w0
    2eec:	52804fa1 	mov	w1, #0x27d                 	// #637
    2ef0:	17ffffc2 	b	2df8 <mpi_egcd+0xb0>
/home/thesis/Desktop/optee_rpi3bplus/optee_os/lib/libutee/tee_api_arith_mpi.c:642
    2ef4:	aa1903e1 	mov	x1, x25
    2ef8:	aa1803e0 	mov	x0, x24
    2efc:	940007a7 	bl	4d98 <mbedtls_mpi_copy>
    2f00:	34000080 	cbz	w0, 2f10 <mpi_egcd+0x1c8>
/home/thesis/Desktop/optee_rpi3bplus/optee_os/lib/libutee/tee_api_arith_mpi.c:642 (discriminator 1)
    2f04:	2a0003e2 	mov	w2, w0
    2f08:	52805041 	mov	w1, #0x282                 	// #642
    2f0c:	17ffffbb 	b	2df8 <mpi_egcd+0xb0>
/home/thesis/Desktop/optee_rpi3bplus/optee_os/lib/libutee/tee_api_arith_mpi.c:643
    2f10:	52800021 	mov	w1, #0x1                   	// #1
    2f14:	aa1703e0 	mov	x0, x23
    2f18:	9400084e 	bl	5050 <mbedtls_mpi_lset>
    2f1c:	34000080 	cbz	w0, 2f2c <mpi_egcd+0x1e4>
/home/thesis/Desktop/optee_rpi3bplus/optee_os/lib/libutee/tee_api_arith_mpi.c:643 (discriminator 1)
    2f20:	2a0003e2 	mov	w2, w0
    2f24:	52805061 	mov	w1, #0x283                 	// #643
    2f28:	17ffffb4 	b	2df8 <mpi_egcd+0xb0>
/home/thesis/Desktop/optee_rpi3bplus/optee_os/lib/libutee/tee_api_arith_mpi.c:644
    2f2c:	52800001 	mov	w1, #0x0                   	// #0
    2f30:	aa1603e0 	mov	x0, x22
    2f34:	94000847 	bl	5050 <mbedtls_mpi_lset>
    2f38:	34000080 	cbz	w0, 2f48 <mpi_egcd+0x200>
/home/thesis/Desktop/optee_rpi3bplus/optee_os/lib/libutee/tee_api_arith_mpi.c:644 (discriminator 1)
    2f3c:	2a0003e2 	mov	w2, w0
    2f40:	52805081 	mov	w1, #0x284                 	// #644
    2f44:	17ffffad 	b	2df8 <mpi_egcd+0xb0>
/home/thesis/Desktop/optee_rpi3bplus/optee_os/lib/libutee/tee_api_arith_mpi.c:645
    2f48:	52800001 	mov	w1, #0x0                   	// #0
    2f4c:	aa1403e0 	mov	x0, x20
    2f50:	94000840 	bl	5050 <mbedtls_mpi_lset>
    2f54:	34000080 	cbz	w0, 2f64 <mpi_egcd+0x21c>
/home/thesis/Desktop/optee_rpi3bplus/optee_os/lib/libutee/tee_api_arith_mpi.c:645 (discriminator 1)
    2f58:	2a0003e2 	mov	w2, w0
    2f5c:	528050a1 	mov	w1, #0x285                 	// #645
    2f60:	17ffffa6 	b	2df8 <mpi_egcd+0xb0>
/home/thesis/Desktop/optee_rpi3bplus/optee_os/lib/libutee/tee_api_arith_mpi.c:646
    2f64:	52800021 	mov	w1, #0x1                   	// #1
    2f68:	aa1303e0 	mov	x0, x19
    2f6c:	94000839 	bl	5050 <mbedtls_mpi_lset>
    2f70:	34001340 	cbz	w0, 31d8 <mpi_egcd+0x490>
/home/thesis/Desktop/optee_rpi3bplus/optee_os/lib/libutee/tee_api_arith_mpi.c:646 (discriminator 1)
    2f74:	2a0003e2 	mov	w2, w0
    2f78:	528050c1 	mov	w1, #0x286                 	// #646
    2f7c:	17ffff9f 	b	2df8 <mpi_egcd+0xb0>
/home/thesis/Desktop/optee_rpi3bplus/optee_os/lib/libutee/tee_api_arith_mpi.c:650
    2f80:	d2800021 	mov	x1, #0x1                   	// #1
    2f84:	aa1503e0 	mov	x0, x21
    2f88:	9400094c 	bl	54b8 <mbedtls_mpi_shift_r>
    2f8c:	34000080 	cbz	w0, 2f9c <mpi_egcd+0x254>
/home/thesis/Desktop/optee_rpi3bplus/optee_os/lib/libutee/tee_api_arith_mpi.c:650 (discriminator 1)
    2f90:	2a0003e2 	mov	w2, w0
    2f94:	52805141 	mov	w1, #0x28a                 	// #650
    2f98:	17ffff98 	b	2df8 <mpi_egcd+0xb0>
/home/thesis/Desktop/optee_rpi3bplus/optee_os/lib/libutee/tee_api_arith_mpi.c:651
    2f9c:	aa1703e0 	mov	x0, x23
    2fa0:	97ffff58 	bl	2d00 <mpi_is_odd>
    2fa4:	72001c1f 	tst	w0, #0xff
    2fa8:	54000120 	b.eq	2fcc <mpi_egcd+0x284>  // b.none
/home/thesis/Desktop/optee_rpi3bplus/optee_os/lib/libutee/tee_api_arith_mpi.c:652
    2fac:	aa1903e2 	mov	x2, x25
    2fb0:	aa1703e1 	mov	x1, x23
    2fb4:	aa1703e0 	mov	x0, x23
    2fb8:	94000a5f 	bl	5934 <mbedtls_mpi_add_mpi>
    2fbc:	340001e0 	cbz	w0, 2ff8 <mpi_egcd+0x2b0>
/home/thesis/Desktop/optee_rpi3bplus/optee_os/lib/libutee/tee_api_arith_mpi.c:652 (discriminator 1)
    2fc0:	2a0003e2 	mov	w2, w0
    2fc4:	52805181 	mov	w1, #0x28c                 	// #652
    2fc8:	17ffff8c 	b	2df8 <mpi_egcd+0xb0>
/home/thesis/Desktop/optee_rpi3bplus/optee_os/lib/libutee/tee_api_arith_mpi.c:651 (discriminator 1)
    2fcc:	aa1603e0 	mov	x0, x22
    2fd0:	97ffff4c 	bl	2d00 <mpi_is_odd>
    2fd4:	72001c1f 	tst	w0, #0xff
    2fd8:	54fffea1 	b.ne	2fac <mpi_egcd+0x264>  // b.any
/home/thesis/Desktop/optee_rpi3bplus/optee_os/lib/libutee/tee_api_arith_mpi.c:655
    2fdc:	d2800021 	mov	x1, #0x1                   	// #1
    2fe0:	aa1703e0 	mov	x0, x23
    2fe4:	94000935 	bl	54b8 <mbedtls_mpi_shift_r>
    2fe8:	34000180 	cbz	w0, 3018 <mpi_egcd+0x2d0>
/home/thesis/Desktop/optee_rpi3bplus/optee_os/lib/libutee/tee_api_arith_mpi.c:655 (discriminator 1)
    2fec:	2a0003e2 	mov	w2, w0
    2ff0:	528051e1 	mov	w1, #0x28f                 	// #655
    2ff4:	17ffff81 	b	2df8 <mpi_egcd+0xb0>
/home/thesis/Desktop/optee_rpi3bplus/optee_os/lib/libutee/tee_api_arith_mpi.c:653
    2ff8:	aa1a03e2 	mov	x2, x26
    2ffc:	aa1603e1 	mov	x1, x22
    3000:	aa1603e0 	mov	x0, x22
    3004:	94000a6e 	bl	59bc <mbedtls_mpi_sub_mpi>
    3008:	34fffea0 	cbz	w0, 2fdc <mpi_egcd+0x294>
/home/thesis/Desktop/optee_rpi3bplus/optee_os/lib/libutee/tee_api_arith_mpi.c:653 (discriminator 1)
    300c:	2a0003e2 	mov	w2, w0
    3010:	528051a1 	mov	w1, #0x28d                 	// #653
    3014:	17ffff79 	b	2df8 <mpi_egcd+0xb0>
/home/thesis/Desktop/optee_rpi3bplus/optee_os/lib/libutee/tee_api_arith_mpi.c:656
    3018:	d2800021 	mov	x1, #0x1                   	// #1
    301c:	aa1603e0 	mov	x0, x22
    3020:	94000926 	bl	54b8 <mbedtls_mpi_shift_r>
    3024:	34000080 	cbz	w0, 3034 <mpi_egcd+0x2ec>
/home/thesis/Desktop/optee_rpi3bplus/optee_os/lib/libutee/tee_api_arith_mpi.c:656 (discriminator 1)
    3028:	2a0003e2 	mov	w2, w0
    302c:	52805201 	mov	w1, #0x290                 	// #656
    3030:	17ffff72 	b	2df8 <mpi_egcd+0xb0>
mpi_is_even():
/home/thesis/Desktop/optee_rpi3bplus/optee_os/lib/libutee/tee_api_arith_mpi.c:596
    3034:	aa1503e0 	mov	x0, x21
    3038:	97ffff32 	bl	2d00 <mpi_is_odd>
mpi_egcd():
/home/thesis/Desktop/optee_rpi3bplus/optee_os/lib/libutee/tee_api_arith_mpi.c:649
    303c:	72001c1f 	tst	w0, #0xff
    3040:	54fffa00 	b.eq	2f80 <mpi_egcd+0x238>  // b.none
mpi_is_even():
/home/thesis/Desktop/optee_rpi3bplus/optee_os/lib/libutee/tee_api_arith_mpi.c:596
    3044:	aa1803e0 	mov	x0, x24
    3048:	97ffff2e 	bl	2d00 <mpi_is_odd>
mpi_egcd():
/home/thesis/Desktop/optee_rpi3bplus/optee_os/lib/libutee/tee_api_arith_mpi.c:659
    304c:	72001c1f 	tst	w0, #0xff
    3050:	540001a0 	b.eq	3084 <mpi_egcd+0x33c>  // b.none
/home/thesis/Desktop/optee_rpi3bplus/optee_os/lib/libutee/tee_api_arith_mpi.c:670
    3054:	aa1803e1 	mov	x1, x24
    3058:	aa1503e0 	mov	x0, x21
    305c:	94000970 	bl	561c <mbedtls_mpi_cmp_mpi>
    3060:	37f808c0 	tbnz	w0, #31, 3178 <mpi_egcd+0x430>
/home/thesis/Desktop/optee_rpi3bplus/optee_os/lib/libutee/tee_api_arith_mpi.c:671
    3064:	aa1803e2 	mov	x2, x24
    3068:	aa1503e1 	mov	x1, x21
    306c:	aa1503e0 	mov	x0, x21
    3070:	94000a53 	bl	59bc <mbedtls_mpi_sub_mpi>
    3074:	34000620 	cbz	w0, 3138 <mpi_egcd+0x3f0>
/home/thesis/Desktop/optee_rpi3bplus/optee_os/lib/libutee/tee_api_arith_mpi.c:671 (discriminator 1)
    3078:	2a0003e2 	mov	w2, w0
    307c:	528053e1 	mov	w1, #0x29f                 	// #671
    3080:	17ffff5e 	b	2df8 <mpi_egcd+0xb0>
/home/thesis/Desktop/optee_rpi3bplus/optee_os/lib/libutee/tee_api_arith_mpi.c:660
    3084:	d2800021 	mov	x1, #0x1                   	// #1
    3088:	aa1803e0 	mov	x0, x24
    308c:	9400090b 	bl	54b8 <mbedtls_mpi_shift_r>
    3090:	34000080 	cbz	w0, 30a0 <mpi_egcd+0x358>
/home/thesis/Desktop/optee_rpi3bplus/optee_os/lib/libutee/tee_api_arith_mpi.c:660 (discriminator 1)
    3094:	2a0003e2 	mov	w2, w0
    3098:	52805281 	mov	w1, #0x294                 	// #660
    309c:	17ffff57 	b	2df8 <mpi_egcd+0xb0>
/home/thesis/Desktop/optee_rpi3bplus/optee_os/lib/libutee/tee_api_arith_mpi.c:661
    30a0:	aa1403e0 	mov	x0, x20
    30a4:	97ffff17 	bl	2d00 <mpi_is_odd>
    30a8:	72001c1f 	tst	w0, #0xff
    30ac:	54000120 	b.eq	30d0 <mpi_egcd+0x388>  // b.none
/home/thesis/Desktop/optee_rpi3bplus/optee_os/lib/libutee/tee_api_arith_mpi.c:662
    30b0:	aa1903e2 	mov	x2, x25
    30b4:	aa1403e1 	mov	x1, x20
    30b8:	aa1403e0 	mov	x0, x20
    30bc:	94000a1e 	bl	5934 <mbedtls_mpi_add_mpi>
    30c0:	340001e0 	cbz	w0, 30fc <mpi_egcd+0x3b4>
/home/thesis/Desktop/optee_rpi3bplus/optee_os/lib/libutee/tee_api_arith_mpi.c:662 (discriminator 1)
    30c4:	2a0003e2 	mov	w2, w0
    30c8:	528052c1 	mov	w1, #0x296                 	// #662
    30cc:	17ffff4b 	b	2df8 <mpi_egcd+0xb0>
/home/thesis/Desktop/optee_rpi3bplus/optee_os/lib/libutee/tee_api_arith_mpi.c:661 (discriminator 1)
    30d0:	aa1303e0 	mov	x0, x19
    30d4:	97ffff0b 	bl	2d00 <mpi_is_odd>
    30d8:	72001c1f 	tst	w0, #0xff
    30dc:	54fffea1 	b.ne	30b0 <mpi_egcd+0x368>  // b.any
/home/thesis/Desktop/optee_rpi3bplus/optee_os/lib/libutee/tee_api_arith_mpi.c:665
    30e0:	d2800021 	mov	x1, #0x1                   	// #1
    30e4:	aa1403e0 	mov	x0, x20
    30e8:	940008f4 	bl	54b8 <mbedtls_mpi_shift_r>
    30ec:	34000180 	cbz	w0, 311c <mpi_egcd+0x3d4>
/home/thesis/Desktop/optee_rpi3bplus/optee_os/lib/libutee/tee_api_arith_mpi.c:665 (discriminator 1)
    30f0:	2a0003e2 	mov	w2, w0
    30f4:	52805321 	mov	w1, #0x299                 	// #665
    30f8:	17ffff40 	b	2df8 <mpi_egcd+0xb0>
/home/thesis/Desktop/optee_rpi3bplus/optee_os/lib/libutee/tee_api_arith_mpi.c:663
    30fc:	aa1a03e2 	mov	x2, x26
    3100:	aa1303e1 	mov	x1, x19
    3104:	aa1303e0 	mov	x0, x19
    3108:	94000a2d 	bl	59bc <mbedtls_mpi_sub_mpi>
    310c:	34fffea0 	cbz	w0, 30e0 <mpi_egcd+0x398>
/home/thesis/Desktop/optee_rpi3bplus/optee_os/lib/libutee/tee_api_arith_mpi.c:663 (discriminator 1)
    3110:	2a0003e2 	mov	w2, w0
    3114:	528052e1 	mov	w1, #0x297                 	// #663
    3118:	17ffff38 	b	2df8 <mpi_egcd+0xb0>
/home/thesis/Desktop/optee_rpi3bplus/optee_os/lib/libutee/tee_api_arith_mpi.c:666
    311c:	d2800021 	mov	x1, #0x1                   	// #1
    3120:	aa1303e0 	mov	x0, x19
    3124:	940008e5 	bl	54b8 <mbedtls_mpi_shift_r>
    3128:	34fff8e0 	cbz	w0, 3044 <mpi_egcd+0x2fc>
/home/thesis/Desktop/optee_rpi3bplus/optee_os/lib/libutee/tee_api_arith_mpi.c:666 (discriminator 1)
    312c:	2a0003e2 	mov	w2, w0
    3130:	52805341 	mov	w1, #0x29a                 	// #666
    3134:	17ffff31 	b	2df8 <mpi_egcd+0xb0>
/home/thesis/Desktop/optee_rpi3bplus/optee_os/lib/libutee/tee_api_arith_mpi.c:672
    3138:	aa1403e2 	mov	x2, x20
    313c:	aa1703e1 	mov	x1, x23
    3140:	aa1703e0 	mov	x0, x23
    3144:	94000a1e 	bl	59bc <mbedtls_mpi_sub_mpi>
    3148:	34000080 	cbz	w0, 3158 <mpi_egcd+0x410>
/home/thesis/Desktop/optee_rpi3bplus/optee_os/lib/libutee/tee_api_arith_mpi.c:672 (discriminator 1)
    314c:	2a0003e2 	mov	w2, w0
    3150:	52805401 	mov	w1, #0x2a0                 	// #672
    3154:	17ffff29 	b	2df8 <mpi_egcd+0xb0>
/home/thesis/Desktop/optee_rpi3bplus/optee_os/lib/libutee/tee_api_arith_mpi.c:673
    3158:	aa1303e2 	mov	x2, x19
    315c:	aa1603e1 	mov	x1, x22
    3160:	aa1603e0 	mov	x0, x22
    3164:	94000a16 	bl	59bc <mbedtls_mpi_sub_mpi>
    3168:	34000380 	cbz	w0, 31d8 <mpi_egcd+0x490>
/home/thesis/Desktop/optee_rpi3bplus/optee_os/lib/libutee/tee_api_arith_mpi.c:673 (discriminator 1)
    316c:	2a0003e2 	mov	w2, w0
    3170:	52805421 	mov	w1, #0x2a1                 	// #673
    3174:	17ffff21 	b	2df8 <mpi_egcd+0xb0>
/home/thesis/Desktop/optee_rpi3bplus/optee_os/lib/libutee/tee_api_arith_mpi.c:675
    3178:	aa1503e2 	mov	x2, x21
    317c:	aa1803e1 	mov	x1, x24
    3180:	aa1803e0 	mov	x0, x24
    3184:	94000a0e 	bl	59bc <mbedtls_mpi_sub_mpi>
    3188:	34000080 	cbz	w0, 3198 <mpi_egcd+0x450>
/home/thesis/Desktop/optee_rpi3bplus/optee_os/lib/libutee/tee_api_arith_mpi.c:675 (discriminator 1)
    318c:	2a0003e2 	mov	w2, w0
    3190:	52805461 	mov	w1, #0x2a3                 	// #675
    3194:	17ffff19 	b	2df8 <mpi_egcd+0xb0>
/home/thesis/Desktop/optee_rpi3bplus/optee_os/lib/libutee/tee_api_arith_mpi.c:676
    3198:	aa1703e2 	mov	x2, x23
    319c:	aa1403e1 	mov	x1, x20
    31a0:	aa1403e0 	mov	x0, x20
    31a4:	94000a06 	bl	59bc <mbedtls_mpi_sub_mpi>
    31a8:	34000080 	cbz	w0, 31b8 <mpi_egcd+0x470>
/home/thesis/Desktop/optee_rpi3bplus/optee_os/lib/libutee/tee_api_arith_mpi.c:676 (discriminator 1)
    31ac:	2a0003e2 	mov	w2, w0
    31b0:	52805481 	mov	w1, #0x2a4                 	// #676
    31b4:	17ffff11 	b	2df8 <mpi_egcd+0xb0>
/home/thesis/Desktop/optee_rpi3bplus/optee_os/lib/libutee/tee_api_arith_mpi.c:677
    31b8:	aa1603e2 	mov	x2, x22
    31bc:	aa1303e1 	mov	x1, x19
    31c0:	aa1303e0 	mov	x0, x19
    31c4:	940009fe 	bl	59bc <mbedtls_mpi_sub_mpi>
    31c8:	34000080 	cbz	w0, 31d8 <mpi_egcd+0x490>
/home/thesis/Desktop/optee_rpi3bplus/optee_os/lib/libutee/tee_api_arith_mpi.c:677 (discriminator 1)
    31cc:	2a0003e2 	mov	w2, w0
    31d0:	528054a1 	mov	w1, #0x2a5                 	// #677
    31d4:	17ffff09 	b	2df8 <mpi_egcd+0xb0>
/home/thesis/Desktop/optee_rpi3bplus/optee_os/lib/libutee/tee_api_arith_mpi.c:648
    31d8:	52800001 	mov	w1, #0x0                   	// #0
    31dc:	aa1503e0 	mov	x0, x21
    31e0:	94000945 	bl	56f4 <mbedtls_mpi_cmp_int>
    31e4:	35fff280 	cbnz	w0, 3034 <mpi_egcd+0x2ec>
/home/thesis/Desktop/optee_rpi3bplus/optee_os/lib/libutee/tee_api_arith_mpi.c:681
    31e8:	9e660100 	fmov	x0, d8
    31ec:	aa1403e1 	mov	x1, x20
    31f0:	940006ea 	bl	4d98 <mbedtls_mpi_copy>
    31f4:	34000080 	cbz	w0, 3204 <mpi_egcd+0x4bc>
/home/thesis/Desktop/optee_rpi3bplus/optee_os/lib/libutee/tee_api_arith_mpi.c:681 (discriminator 1)
    31f8:	2a0003e2 	mov	w2, w0
    31fc:	52805521 	mov	w1, #0x2a9                 	// #681
    3200:	17fffefe 	b	2df8 <mpi_egcd+0xb0>
/home/thesis/Desktop/optee_rpi3bplus/optee_os/lib/libutee/tee_api_arith_mpi.c:682
    3204:	aa1303e1 	mov	x1, x19
    3208:	aa1c03e0 	mov	x0, x28
    320c:	940006e3 	bl	4d98 <mbedtls_mpi_copy>
    3210:	34000080 	cbz	w0, 3220 <mpi_egcd+0x4d8>
/home/thesis/Desktop/optee_rpi3bplus/optee_os/lib/libutee/tee_api_arith_mpi.c:682 (discriminator 1)
    3214:	2a0003e2 	mov	w2, w0
    3218:	52805541 	mov	w1, #0x2aa                 	// #682
    321c:	17fffef7 	b	2df8 <mpi_egcd+0xb0>
/home/thesis/Desktop/optee_rpi3bplus/optee_os/lib/libutee/tee_api_arith_mpi.c:683
    3220:	2a1b03e1 	mov	w1, w27
    3224:	aa1803e0 	mov	x0, x24
    3228:	94000864 	bl	53b8 <mbedtls_mpi_shift_l>
    322c:	34000080 	cbz	w0, 323c <mpi_egcd+0x4f4>
/home/thesis/Desktop/optee_rpi3bplus/optee_os/lib/libutee/tee_api_arith_mpi.c:683 (discriminator 1)
    3230:	2a0003e2 	mov	w2, w0
    3234:	52805561 	mov	w1, #0x2ab                 	// #683
    3238:	17fffef0 	b	2df8 <mpi_egcd+0xb0>
/home/thesis/Desktop/optee_rpi3bplus/optee_os/lib/libutee/tee_api_arith_mpi.c:686
    323c:	aa1703e0 	mov	x0, x23
    3240:	94000635 	bl	4b14 <mbedtls_mpi_free>
/home/thesis/Desktop/optee_rpi3bplus/optee_os/lib/libutee/tee_api_arith_mpi.c:687
    3244:	aa1603e0 	mov	x0, x22
    3248:	94000633 	bl	4b14 <mbedtls_mpi_free>
/home/thesis/Desktop/optee_rpi3bplus/optee_os/lib/libutee/tee_api_arith_mpi.c:688
    324c:	aa1403e0 	mov	x0, x20
    3250:	94000631 	bl	4b14 <mbedtls_mpi_free>
/home/thesis/Desktop/optee_rpi3bplus/optee_os/lib/libutee/tee_api_arith_mpi.c:689
    3254:	aa1303e0 	mov	x0, x19
    3258:	9400062f 	bl	4b14 <mbedtls_mpi_free>
/home/thesis/Desktop/optee_rpi3bplus/optee_os/lib/libutee/tee_api_arith_mpi.c:690
    325c:	aa1a03e0 	mov	x0, x26
    3260:	9400062d 	bl	4b14 <mbedtls_mpi_free>
/home/thesis/Desktop/optee_rpi3bplus/optee_os/lib/libutee/tee_api_arith_mpi.c:691
    3264:	aa1903e0 	mov	x0, x25
    3268:	9400062b 	bl	4b14 <mbedtls_mpi_free>
/home/thesis/Desktop/optee_rpi3bplus/optee_os/lib/libutee/tee_api_arith_mpi.c:692
    326c:	aa1503e0 	mov	x0, x21
    3270:	94000629 	bl	4b14 <mbedtls_mpi_free>
/home/thesis/Desktop/optee_rpi3bplus/optee_os/lib/libutee/tee_api_arith_mpi.c:693
    3274:	a94153f3 	ldp	x19, x20, [sp, #16]
    3278:	a9425bf5 	ldp	x21, x22, [sp, #32]
    327c:	a94363f7 	ldp	x23, x24, [sp, #48]
    3280:	a9446bf9 	ldp	x25, x26, [sp, #64]
    3284:	a94573fb 	ldp	x27, x28, [sp, #80]
    3288:	6d4627e8 	ldp	d8, d9, [sp, #96]
    328c:	a8d27bfd 	ldp	x29, x30, [sp], #288
    3290:	d65f03c0 	ret

0000000000003294 <_TEE_MathAPI_Init>:
_TEE_MathAPI_Init():
/home/thesis/Desktop/optee_rpi3bplus/optee_os/lib/libutee/tee_api_arith_mpi.c:44
    3294:	a9bf7bfd 	stp	x29, x30, [sp, #-16]!
/home/thesis/Desktop/optee_rpi3bplus/optee_os/lib/libutee/tee_api_arith_mpi.c:47
    3298:	d2860001 	mov	x1, #0x3000                	// #12288
    329c:	d2800002 	mov	x2, #0x0                   	// #0
/home/thesis/Desktop/optee_rpi3bplus/optee_os/lib/libutee/tee_api_arith_mpi.c:44
    32a0:	910003fd 	mov	x29, sp
/home/thesis/Desktop/optee_rpi3bplus/optee_os/lib/libutee/tee_api_arith_mpi.c:47
    32a4:	90000060 	adrp	x0, f000 <.got>
    32a8:	9111c000 	add	x0, x0, #0x470
    32ac:	94001bc7 	bl	a1c8 <mempool_alloc_pool>
    32b0:	90000061 	adrp	x1, f000 <.got>
    32b4:	f9404021 	ldr	x1, [x1, #128]
    32b8:	f9000020 	str	x0, [x1]
/home/thesis/Desktop/optee_rpi3bplus/optee_os/lib/libutee/tee_api_arith_mpi.c:48
    32bc:	b5000100 	cbnz	x0, 32dc <_TEE_MathAPI_Init+0x48>
/home/thesis/Desktop/optee_rpi3bplus/optee_os/lib/libutee/tee_api_arith_mpi.c:49
    32c0:	d0000040 	adrp	x0, d000 <primes+0x378>
    32c4:	91231000 	add	x0, x0, #0x8c4
    32c8:	d0000042 	adrp	x2, d000 <primes+0x378>
    32cc:	52800621 	mov	w1, #0x31                  	// #49
    32d0:	91291842 	add	x2, x2, #0xa46
    32d4:	91007c00 	add	x0, x0, #0x1f
    32d8:	97fffded 	bl	2a8c <api_panic>
/home/thesis/Desktop/optee_rpi3bplus/optee_os/lib/libutee/tee_api_arith_mpi.c:50
    32dc:	a8c17bfd 	ldp	x29, x30, [sp], #16
    32e0:	d65f03c0 	ret

00000000000032e4 <TEE_BigIntInit>:
TEE_BigIntInit():
/home/thesis/Desktop/optee_rpi3bplus/optee_os/lib/libutee/tee_api_arith_mpi.c:120
    32e4:	11007c22 	add	w2, w1, #0x1f
/home/thesis/Desktop/optee_rpi3bplus/optee_os/lib/libutee/tee_api_arith_mpi.c:119
    32e8:	a9be7bfd 	stp	x29, x30, [sp, #-32]!
/home/thesis/Desktop/optee_rpi3bplus/optee_os/lib/libutee/tee_api_arith_mpi.c:120
    32ec:	53057c42 	lsr	w2, w2, #5
/home/thesis/Desktop/optee_rpi3bplus/optee_os/lib/libutee/tee_api_arith_mpi.c:119
    32f0:	910003fd 	mov	x29, sp
/home/thesis/Desktop/optee_rpi3bplus/optee_os/lib/libutee/tee_api_arith_mpi.c:120
    32f4:	11000842 	add	w2, w2, #0x2
/home/thesis/Desktop/optee_rpi3bplus/optee_os/lib/libutee/tee_api_arith_mpi.c:119
    32f8:	f9000bf3 	str	x19, [sp, #16]
    32fc:	2a0103f3 	mov	w19, w1
/home/thesis/Desktop/optee_rpi3bplus/optee_os/lib/libutee/tee_api_arith_mpi.c:120
    3300:	d37e6c42 	ubfiz	x2, x2, #2, #28
    3304:	52800001 	mov	w1, #0x0                   	// #0
    3308:	97fff7e4 	bl	1298 <memset>
    330c:	aa0003e3 	mov	x3, x0
/home/thesis/Desktop/optee_rpi3bplus/optee_os/lib/libutee/tee_api_arith_mpi.c:125
    3310:	52800020 	mov	w0, #0x1                   	// #1
/home/thesis/Desktop/optee_rpi3bplus/optee_os/lib/libutee/tee_api_arith_mpi.c:126
    3314:	51000a73 	sub	w19, w19, #0x2
/home/thesis/Desktop/optee_rpi3bplus/optee_os/lib/libutee/tee_api_arith_mpi.c:125
    3318:	b9000060 	str	w0, [x3]
/home/thesis/Desktop/optee_rpi3bplus/optee_os/lib/libutee/tee_api_arith_mpi.c:126
    331c:	5284e200 	mov	w0, #0x2710                	// #10000
    3320:	6b00027f 	cmp	w19, w0
    3324:	54000109 	b.ls	3344 <TEE_BigIntInit+0x60>  // b.plast
/home/thesis/Desktop/optee_rpi3bplus/optee_os/lib/libutee/tee_api_arith_mpi.c:127
    3328:	d0000040 	adrp	x0, d000 <primes+0x378>
    332c:	91231000 	add	x0, x0, #0x8c4
    3330:	d0000042 	adrp	x2, d000 <primes+0x378>
    3334:	52800fe1 	mov	w1, #0x7f                  	// #127
    3338:	91299c42 	add	x2, x2, #0xa67
    333c:	9100c400 	add	x0, x0, #0x31
    3340:	97fffdd3 	bl	2a8c <api_panic>
/home/thesis/Desktop/optee_rpi3bplus/optee_os/lib/libutee/tee_api_arith_mpi.c:128
    3344:	79000873 	strh	w19, [x3, #4]
/home/thesis/Desktop/optee_rpi3bplus/optee_os/lib/libutee/tee_api_arith_mpi.c:129
    3348:	f9400bf3 	ldr	x19, [sp, #16]
    334c:	a8c27bfd 	ldp	x29, x30, [sp], #32
    3350:	d65f03c0 	ret

0000000000003354 <TEE_BigIntConvertFromOctetString>:
TEE_BigIntConvertFromOctetString():
/home/thesis/Desktop/optee_rpi3bplus/optee_os/lib/libutee/tee_api_arith_mpi.c:134
    3354:	a9ba7bfd 	stp	x29, x30, [sp, #-96]!
    3358:	910003fd 	mov	x29, sp
    335c:	a90153f3 	stp	x19, x20, [sp, #16]
get_mpi():
/home/thesis/Desktop/optee_rpi3bplus/optee_os/lib/libutee/tee_api_arith_mpi.c:101
    3360:	910123f3 	add	x19, sp, #0x48
TEE_BigIntConvertFromOctetString():
/home/thesis/Desktop/optee_rpi3bplus/optee_os/lib/libutee/tee_api_arith_mpi.c:134
    3364:	2a0303f4 	mov	w20, w3
    3368:	a9025bf5 	stp	x21, x22, [sp, #32]
    336c:	2a0203f6 	mov	w22, w2
    3370:	aa0003f5 	mov	x21, x0
get_mpi():
/home/thesis/Desktop/optee_rpi3bplus/optee_os/lib/libutee/tee_api_arith_mpi.c:101
    3374:	aa1303e0 	mov	x0, x19
TEE_BigIntConvertFromOctetString():
/home/thesis/Desktop/optee_rpi3bplus/optee_os/lib/libutee/tee_api_arith_mpi.c:134
    3378:	f9001fe1 	str	x1, [sp, #56]
get_mpi():
/home/thesis/Desktop/optee_rpi3bplus/optee_os/lib/libutee/tee_api_arith_mpi.c:101
    337c:	940005dc 	bl	4aec <mbedtls_mpi_init_mempool>
TEE_BigIntConvertFromOctetString():
/home/thesis/Desktop/optee_rpi3bplus/optee_os/lib/libutee/tee_api_arith_mpi.c:140
    3380:	f9401fe1 	ldr	x1, [sp, #56]
    3384:	2a1603e2 	mov	w2, w22
    3388:	aa1303e0 	mov	x0, x19
    338c:	940007ac 	bl	523c <mbedtls_mpi_read_binary>
    3390:	350001e0 	cbnz	w0, 33cc <TEE_BigIntConvertFromOctetString+0x78>
/home/thesis/Desktop/optee_rpi3bplus/optee_os/lib/libutee/tee_api_arith_mpi.c:145
    3394:	36f80074 	tbz	w20, #31, 33a0 <TEE_BigIntConvertFromOctetString+0x4c>
/home/thesis/Desktop/optee_rpi3bplus/optee_os/lib/libutee/tee_api_arith_mpi.c:146
    3398:	12800000 	mov	w0, #0xffffffff            	// #-1
    339c:	790093e0 	strh	w0, [sp, #72]
/home/thesis/Desktop/optee_rpi3bplus/optee_os/lib/libutee/tee_api_arith_mpi.c:149
    33a0:	aa1503e1 	mov	x1, x21
    33a4:	aa1303e0 	mov	x0, x19
    33a8:	97fffdf7 	bl	2b84 <copy_mpi_to_bigint>
    33ac:	2a0003f4 	mov	w20, w0
/home/thesis/Desktop/optee_rpi3bplus/optee_os/lib/libutee/tee_api_arith_mpi.c:151
    33b0:	aa1303e0 	mov	x0, x19
    33b4:	940005d8 	bl	4b14 <mbedtls_mpi_free>
/home/thesis/Desktop/optee_rpi3bplus/optee_os/lib/libutee/tee_api_arith_mpi.c:154
    33b8:	2a1403e0 	mov	w0, w20
    33bc:	a94153f3 	ldp	x19, x20, [sp, #16]
    33c0:	a9425bf5 	ldp	x21, x22, [sp, #32]
    33c4:	a8c67bfd 	ldp	x29, x30, [sp], #96
    33c8:	d65f03c0 	ret
/home/thesis/Desktop/optee_rpi3bplus/optee_os/lib/libutee/tee_api_arith_mpi.c:145
    33cc:	36f80074 	tbz	w20, #31, 33d8 <TEE_BigIntConvertFromOctetString+0x84>
/home/thesis/Desktop/optee_rpi3bplus/optee_os/lib/libutee/tee_api_arith_mpi.c:146
    33d0:	12800000 	mov	w0, #0xffffffff            	// #-1
    33d4:	790093e0 	strh	w0, [sp, #72]
/home/thesis/Desktop/optee_rpi3bplus/optee_os/lib/libutee/tee_api_arith_mpi.c:141
    33d8:	1299fe14 	mov	w20, #0xffff300f            	// #-53233
    33dc:	17fffff5 	b	33b0 <TEE_BigIntConvertFromOctetString+0x5c>

00000000000033e0 <TEE_BigIntConvertToOctetString>:
TEE_BigIntConvertToOctetString():
/home/thesis/Desktop/optee_rpi3bplus/optee_os/lib/libutee/tee_api_arith_mpi.c:158
    33e0:	a9bb7bfd 	stp	x29, x30, [sp, #-80]!
    33e4:	910003fd 	mov	x29, sp
    33e8:	a9025bf5 	stp	x21, x22, [sp, #32]
    33ec:	aa0103f6 	mov	x22, x1
/home/thesis/Desktop/optee_rpi3bplus/optee_os/lib/libutee/tee_api_arith_mpi.c:163
    33f0:	aa0203e1 	mov	x1, x2
/home/thesis/Desktop/optee_rpi3bplus/optee_os/lib/libutee/tee_api_arith_mpi.c:158
    33f4:	a90153f3 	stp	x19, x20, [sp, #16]
/home/thesis/Desktop/optee_rpi3bplus/optee_os/lib/libutee/tee_api_arith_mpi.c:163
    33f8:	9100e3f3 	add	x19, sp, #0x38
/home/thesis/Desktop/optee_rpi3bplus/optee_os/lib/libutee/tee_api_arith_mpi.c:158
    33fc:	aa0003f5 	mov	x21, x0
/home/thesis/Desktop/optee_rpi3bplus/optee_os/lib/libutee/tee_api_arith_mpi.c:163
    3400:	aa1303e0 	mov	x0, x19
    3404:	97fffdba 	bl	2aec <get_mpi>
/home/thesis/Desktop/optee_rpi3bplus/optee_os/lib/libutee/tee_api_arith_mpi.c:165
    3408:	aa1303e0 	mov	x0, x19
    340c:	94000785 	bl	5220 <mbedtls_mpi_size>
    3410:	aa0003f4 	mov	x20, x0
/home/thesis/Desktop/optee_rpi3bplus/optee_os/lib/libutee/tee_api_arith_mpi.c:166
    3414:	b94002c0 	ldr	w0, [x22]
    3418:	eb14001f 	cmp	x0, x20
    341c:	540001a3 	b.cc	3450 <TEE_BigIntConvertToOctetString+0x70>  // b.lo, b.ul, b.last
/home/thesis/Desktop/optee_rpi3bplus/optee_os/lib/libutee/tee_api_arith_mpi.c:167
    3420:	aa1503e1 	mov	x1, x21
    3424:	aa1403e2 	mov	x2, x20
    3428:	aa1303e0 	mov	x0, x19
/home/thesis/Desktop/optee_rpi3bplus/optee_os/lib/libutee/tee_api_arith_mpi.c:159
    342c:	52800015 	mov	w21, #0x0                   	// #0
/home/thesis/Desktop/optee_rpi3bplus/optee_os/lib/libutee/tee_api_arith_mpi.c:167
    3430:	940007b1 	bl	52f4 <mbedtls_mpi_write_binary>
    3434:	34000100 	cbz	w0, 3454 <TEE_BigIntConvertToOctetString+0x74>
/home/thesis/Desktop/optee_rpi3bplus/optee_os/lib/libutee/tee_api_arith_mpi.c:167 (discriminator 1)
    3438:	2a0003e2 	mov	w2, w0
    343c:	d0000040 	adrp	x0, d000 <primes+0x378>
    3440:	91231000 	add	x0, x0, #0x8c4
    3444:	528014e1 	mov	w1, #0xa7                  	// #167
    3448:	91010000 	add	x0, x0, #0x40
    344c:	97fffd9c 	bl	2abc <mpi_panic>
/home/thesis/Desktop/optee_rpi3bplus/optee_os/lib/libutee/tee_api_arith_mpi.c:169
    3450:	129ffdf5 	mov	w21, #0xffff0010            	// #-65520
/home/thesis/Desktop/optee_rpi3bplus/optee_os/lib/libutee/tee_api_arith_mpi.c:171
    3454:	b90002d4 	str	w20, [x22]
/home/thesis/Desktop/optee_rpi3bplus/optee_os/lib/libutee/tee_api_arith_mpi.c:173
    3458:	aa1303e0 	mov	x0, x19
    345c:	940005ae 	bl	4b14 <mbedtls_mpi_free>
/home/thesis/Desktop/optee_rpi3bplus/optee_os/lib/libutee/tee_api_arith_mpi.c:176
    3460:	2a1503e0 	mov	w0, w21
    3464:	a94153f3 	ldp	x19, x20, [sp, #16]
    3468:	a9425bf5 	ldp	x21, x22, [sp, #32]
    346c:	a8c57bfd 	ldp	x29, x30, [sp], #80
    3470:	d65f03c0 	ret

0000000000003474 <TEE_BigIntConvertFromS32>:
TEE_BigIntConvertFromS32():
/home/thesis/Desktop/optee_rpi3bplus/optee_os/lib/libutee/tee_api_arith_mpi.c:179
    3474:	a9bb7bfd 	stp	x29, x30, [sp, #-80]!
    3478:	910003fd 	mov	x29, sp
    347c:	a90153f3 	stp	x19, x20, [sp, #16]
/home/thesis/Desktop/optee_rpi3bplus/optee_os/lib/libutee/tee_api_arith_mpi.c:182
    3480:	9100e3f3 	add	x19, sp, #0x38
/home/thesis/Desktop/optee_rpi3bplus/optee_os/lib/libutee/tee_api_arith_mpi.c:179
    3484:	aa0003f4 	mov	x20, x0
    3488:	f90013f5 	str	x21, [sp, #32]
    348c:	2a0103f5 	mov	w21, w1
/home/thesis/Desktop/optee_rpi3bplus/optee_os/lib/libutee/tee_api_arith_mpi.c:182
    3490:	aa0003e1 	mov	x1, x0
    3494:	aa1303e0 	mov	x0, x19
    3498:	97fffd95 	bl	2aec <get_mpi>
/home/thesis/Desktop/optee_rpi3bplus/optee_os/lib/libutee/tee_api_arith_mpi.c:184
    349c:	2a1503e1 	mov	w1, w21
    34a0:	aa1303e0 	mov	x0, x19
    34a4:	940006eb 	bl	5050 <mbedtls_mpi_lset>
    34a8:	340000e0 	cbz	w0, 34c4 <TEE_BigIntConvertFromS32+0x50>
/home/thesis/Desktop/optee_rpi3bplus/optee_os/lib/libutee/tee_api_arith_mpi.c:184 (discriminator 1)
    34ac:	2a0003e2 	mov	w2, w0
    34b0:	52801701 	mov	w1, #0xb8                  	// #184
/home/thesis/Desktop/optee_rpi3bplus/optee_os/lib/libutee/tee_api_arith_mpi.c:186 (discriminator 1)
    34b4:	d0000040 	adrp	x0, d000 <primes+0x378>
    34b8:	91231000 	add	x0, x0, #0x8c4
    34bc:	91017c00 	add	x0, x0, #0x5f
    34c0:	97fffd7f 	bl	2abc <mpi_panic>
/home/thesis/Desktop/optee_rpi3bplus/optee_os/lib/libutee/tee_api_arith_mpi.c:186
    34c4:	aa1403e1 	mov	x1, x20
    34c8:	aa1303e0 	mov	x0, x19
    34cc:	97fffdae 	bl	2b84 <copy_mpi_to_bigint>
    34d0:	34000080 	cbz	w0, 34e0 <TEE_BigIntConvertFromS32+0x6c>
/home/thesis/Desktop/optee_rpi3bplus/optee_os/lib/libutee/tee_api_arith_mpi.c:186 (discriminator 1)
    34d4:	2a0003e2 	mov	w2, w0
    34d8:	52801741 	mov	w1, #0xba                  	// #186
    34dc:	17fffff6 	b	34b4 <TEE_BigIntConvertFromS32+0x40>
/home/thesis/Desktop/optee_rpi3bplus/optee_os/lib/libutee/tee_api_arith_mpi.c:187
    34e0:	aa1303e0 	mov	x0, x19
    34e4:	9400058c 	bl	4b14 <mbedtls_mpi_free>
/home/thesis/Desktop/optee_rpi3bplus/optee_os/lib/libutee/tee_api_arith_mpi.c:188
    34e8:	a94153f3 	ldp	x19, x20, [sp, #16]
    34ec:	f94013f5 	ldr	x21, [sp, #32]
    34f0:	a8c57bfd 	ldp	x29, x30, [sp], #80
    34f4:	d65f03c0 	ret

00000000000034f8 <TEE_BigIntConvertToS32>:
TEE_BigIntConvertToS32():
/home/thesis/Desktop/optee_rpi3bplus/optee_os/lib/libutee/tee_api_arith_mpi.c:191
    34f8:	a9bc7bfd 	stp	x29, x30, [sp, #-64]!
    34fc:	910003fd 	mov	x29, sp
    3500:	a90153f3 	stp	x19, x20, [sp, #16]
/home/thesis/Desktop/optee_rpi3bplus/optee_os/lib/libutee/tee_api_arith_mpi.c:196
    3504:	9100a3f3 	add	x19, sp, #0x28
/home/thesis/Desktop/optee_rpi3bplus/optee_os/lib/libutee/tee_api_arith_mpi.c:191
    3508:	aa0003f4 	mov	x20, x0
/home/thesis/Desktop/optee_rpi3bplus/optee_os/lib/libutee/tee_api_arith_mpi.c:196
    350c:	aa1303e0 	mov	x0, x19
    3510:	97fffd77 	bl	2aec <get_mpi>
/home/thesis/Desktop/optee_rpi3bplus/optee_os/lib/libutee/tee_api_arith_mpi.c:198
    3514:	d2800082 	mov	x2, #0x4                   	// #4
    3518:	910093e1 	add	x1, sp, #0x24
    351c:	aa1303e0 	mov	x0, x19
    3520:	94000775 	bl	52f4 <mbedtls_mpi_write_binary>
    3524:	34000100 	cbz	w0, 3544 <TEE_BigIntConvertToS32+0x4c>
/home/thesis/Desktop/optee_rpi3bplus/optee_os/lib/libutee/tee_api_arith_mpi.c:199
    3528:	1299fe14 	mov	w20, #0xffff300f            	// #-53233
/home/thesis/Desktop/optee_rpi3bplus/optee_os/lib/libutee/tee_api_arith_mpi.c:212
    352c:	aa1303e0 	mov	x0, x19
    3530:	94000579 	bl	4b14 <mbedtls_mpi_free>
/home/thesis/Desktop/optee_rpi3bplus/optee_os/lib/libutee/tee_api_arith_mpi.c:215
    3534:	2a1403e0 	mov	w0, w20
    3538:	a94153f3 	ldp	x19, x20, [sp, #16]
    353c:	a8c47bfd 	ldp	x29, x30, [sp], #64
    3540:	d65f03c0 	ret
/home/thesis/Desktop/optee_rpi3bplus/optee_os/lib/libutee/tee_api_arith_mpi.c:203
    3544:	b94027e1 	ldr	w1, [sp, #36]
    3548:	79c053e0 	ldrsh	w0, [sp, #40]
    354c:	5ac00821 	rev	w1, w1
    3550:	7100001f 	cmp	w0, #0x0
    3554:	2a0103e0 	mov	w0, w1
    3558:	540000cd 	b.le	3570 <TEE_BigIntConvertToS32+0x78>
/home/thesis/Desktop/optee_rpi3bplus/optee_os/lib/libutee/tee_api_arith_mpi.c:204
    355c:	eb21c01f 	cmp	x0, w1, sxtw
    3560:	b9000281 	str	w1, [x20]
/home/thesis/Desktop/optee_rpi3bplus/optee_os/lib/libutee/tee_api_arith_mpi.c:207
    3564:	54fffe21 	b.ne	3528 <TEE_BigIntConvertToS32+0x30>  // b.any
/home/thesis/Desktop/optee_rpi3bplus/optee_os/lib/libutee/tee_api_arith_mpi.c:192
    3568:	52800014 	mov	w20, #0x0                   	// #0
    356c:	17fffff0 	b	352c <TEE_BigIntConvertToS32+0x34>
/home/thesis/Desktop/optee_rpi3bplus/optee_os/lib/libutee/tee_api_arith_mpi.c:207
    3570:	cb0003e0 	neg	x0, x0
    3574:	b9000280 	str	w0, [x20]
    3578:	eb20c01f 	cmp	x0, w0, sxtw
    357c:	17fffffa 	b	3564 <TEE_BigIntConvertToS32+0x6c>

0000000000003580 <TEE_BigIntCmp>:
TEE_BigIntCmp():
/home/thesis/Desktop/optee_rpi3bplus/optee_os/lib/libutee/tee_api_arith_mpi.c:218
    3580:	a9ba7bfd 	stp	x29, x30, [sp, #-96]!
    3584:	910003fd 	mov	x29, sp
    3588:	a90153f3 	stp	x19, x20, [sp, #16]
/home/thesis/Desktop/optee_rpi3bplus/optee_os/lib/libutee/tee_api_arith_mpi.c:223
    358c:	9100c3f4 	add	x20, sp, #0x30
/home/thesis/Desktop/optee_rpi3bplus/optee_os/lib/libutee/tee_api_arith_mpi.c:224
    3590:	910123f3 	add	x19, sp, #0x48
/home/thesis/Desktop/optee_rpi3bplus/optee_os/lib/libutee/tee_api_arith_mpi.c:218
    3594:	f90013f5 	str	x21, [sp, #32]
    3598:	aa0103f5 	mov	x21, x1
/home/thesis/Desktop/optee_rpi3bplus/optee_os/lib/libutee/tee_api_arith_mpi.c:223
    359c:	aa0003e1 	mov	x1, x0
    35a0:	aa1403e0 	mov	x0, x20
    35a4:	97fffd52 	bl	2aec <get_mpi>
/home/thesis/Desktop/optee_rpi3bplus/optee_os/lib/libutee/tee_api_arith_mpi.c:224
    35a8:	aa1503e1 	mov	x1, x21
    35ac:	aa1303e0 	mov	x0, x19
    35b0:	97fffd4f 	bl	2aec <get_mpi>
/home/thesis/Desktop/optee_rpi3bplus/optee_os/lib/libutee/tee_api_arith_mpi.c:226
    35b4:	aa1303e1 	mov	x1, x19
    35b8:	aa1403e0 	mov	x0, x20
    35bc:	94000818 	bl	561c <mbedtls_mpi_cmp_mpi>
    35c0:	2a0003f5 	mov	w21, w0
/home/thesis/Desktop/optee_rpi3bplus/optee_os/lib/libutee/tee_api_arith_mpi.c:228
    35c4:	aa1403e0 	mov	x0, x20
    35c8:	94000553 	bl	4b14 <mbedtls_mpi_free>
/home/thesis/Desktop/optee_rpi3bplus/optee_os/lib/libutee/tee_api_arith_mpi.c:229
    35cc:	aa1303e0 	mov	x0, x19
    35d0:	94000551 	bl	4b14 <mbedtls_mpi_free>
/home/thesis/Desktop/optee_rpi3bplus/optee_os/lib/libutee/tee_api_arith_mpi.c:232
    35d4:	2a1503e0 	mov	w0, w21
    35d8:	a94153f3 	ldp	x19, x20, [sp, #16]
    35dc:	f94013f5 	ldr	x21, [sp, #32]
    35e0:	a8c67bfd 	ldp	x29, x30, [sp], #96
    35e4:	d65f03c0 	ret

00000000000035e8 <TEE_BigIntCmpS32>:
TEE_BigIntCmpS32():
/home/thesis/Desktop/optee_rpi3bplus/optee_os/lib/libutee/tee_api_arith_mpi.c:235
    35e8:	a9bc7bfd 	stp	x29, x30, [sp, #-64]!
    35ec:	910003fd 	mov	x29, sp
    35f0:	a90153f3 	stp	x19, x20, [sp, #16]
/home/thesis/Desktop/optee_rpi3bplus/optee_os/lib/libutee/tee_api_arith_mpi.c:239
    35f4:	9100a3f3 	add	x19, sp, #0x28
/home/thesis/Desktop/optee_rpi3bplus/optee_os/lib/libutee/tee_api_arith_mpi.c:235
    35f8:	2a0103f4 	mov	w20, w1
/home/thesis/Desktop/optee_rpi3bplus/optee_os/lib/libutee/tee_api_arith_mpi.c:239
    35fc:	aa0003e1 	mov	x1, x0
    3600:	aa1303e0 	mov	x0, x19
    3604:	97fffd3a 	bl	2aec <get_mpi>
/home/thesis/Desktop/optee_rpi3bplus/optee_os/lib/libutee/tee_api_arith_mpi.c:241
    3608:	2a1403e1 	mov	w1, w20
    360c:	aa1303e0 	mov	x0, x19
    3610:	94000839 	bl	56f4 <mbedtls_mpi_cmp_int>
    3614:	2a0003f4 	mov	w20, w0
/home/thesis/Desktop/optee_rpi3bplus/optee_os/lib/libutee/tee_api_arith_mpi.c:243
    3618:	aa1303e0 	mov	x0, x19
    361c:	9400053e 	bl	4b14 <mbedtls_mpi_free>
/home/thesis/Desktop/optee_rpi3bplus/optee_os/lib/libutee/tee_api_arith_mpi.c:246
    3620:	2a1403e0 	mov	w0, w20
    3624:	a94153f3 	ldp	x19, x20, [sp, #16]
    3628:	a8c47bfd 	ldp	x29, x30, [sp], #64
    362c:	d65f03c0 	ret

0000000000003630 <bigint_binary_mod>:
bigint_binary_mod():
/home/thesis/Desktop/optee_rpi3bplus/optee_os/lib/libutee/tee_api_arith_mpi.c:356
    3630:	a9b27bfd 	stp	x29, x30, [sp, #-224]!
    3634:	910003fd 	mov	x29, sp
    3638:	a90153f3 	stp	x19, x20, [sp, #16]
    363c:	aa0203f4 	mov	x20, x2
    3640:	a9025bf5 	stp	x21, x22, [sp, #32]
    3644:	aa0103f6 	mov	x22, x1
    3648:	aa0303f5 	mov	x21, x3
/home/thesis/Desktop/optee_rpi3bplus/optee_os/lib/libutee/tee_api_arith_mpi.c:357
    364c:	52800041 	mov	w1, #0x2                   	// #2
/home/thesis/Desktop/optee_rpi3bplus/optee_os/lib/libutee/tee_api_arith_mpi.c:356
    3650:	a90363f7 	stp	x23, x24, [sp, #48]
    3654:	aa0003f7 	mov	x23, x0
/home/thesis/Desktop/optee_rpi3bplus/optee_os/lib/libutee/tee_api_arith_mpi.c:357
    3658:	aa0303e0 	mov	x0, x3
/home/thesis/Desktop/optee_rpi3bplus/optee_os/lib/libutee/tee_api_arith_mpi.c:356
    365c:	a9046bf9 	stp	x25, x26, [sp, #64]
    3660:	f9002bfb 	str	x27, [sp, #80]
    3664:	aa0403fb 	mov	x27, x4
/home/thesis/Desktop/optee_rpi3bplus/optee_os/lib/libutee/tee_api_arith_mpi.c:357
    3668:	97ffffe0 	bl	35e8 <TEE_BigIntCmpS32>
    366c:	36f80100 	tbz	w0, #31, 368c <bigint_binary_mod+0x5c>
/home/thesis/Desktop/optee_rpi3bplus/optee_os/lib/libutee/tee_api_arith_mpi.c:358
    3670:	d0000040 	adrp	x0, d000 <primes+0x378>
    3674:	91231000 	add	x0, x0, #0x8c4
    3678:	d0000042 	adrp	x2, d000 <primes+0x378>
    367c:	52802cc1 	mov	w1, #0x166                 	// #358
    3680:	9129e042 	add	x2, x2, #0xa78
    3684:	9101e000 	add	x0, x0, #0x78
    3688:	97fffd01 	bl	2a8c <api_panic>
/home/thesis/Desktop/optee_rpi3bplus/optee_os/lib/libutee/tee_api_arith_mpi.c:368
    368c:	9101a3f3 	add	x19, sp, #0x68
    3690:	aa1703e1 	mov	x1, x23
    3694:	aa1303e0 	mov	x0, x19
/home/thesis/Desktop/optee_rpi3bplus/optee_os/lib/libutee/tee_api_arith_mpi.c:369
    3698:	9102c3fa 	add	x26, sp, #0xb0
/home/thesis/Desktop/optee_rpi3bplus/optee_os/lib/libutee/tee_api_arith_mpi.c:368
    369c:	97fffd14 	bl	2aec <get_mpi>
/home/thesis/Desktop/optee_rpi3bplus/optee_os/lib/libutee/tee_api_arith_mpi.c:369
    36a0:	910203f9 	add	x25, sp, #0x80
    36a4:	aa1503e1 	mov	x1, x21
    36a8:	aa1a03e0 	mov	x0, x26
    36ac:	97fffd10 	bl	2aec <get_mpi>
/home/thesis/Desktop/optee_rpi3bplus/optee_os/lib/libutee/tee_api_arith_mpi.c:371
    36b0:	eb1602ff 	cmp	x23, x22
    36b4:	54000380 	b.eq	3724 <bigint_binary_mod+0xf4>  // b.none
/home/thesis/Desktop/optee_rpi3bplus/optee_os/lib/libutee/tee_api_arith_mpi.c:364
    36b8:	aa1903f5 	mov	x21, x25
/home/thesis/Desktop/optee_rpi3bplus/optee_os/lib/libutee/tee_api_arith_mpi.c:374
    36bc:	aa1603e1 	mov	x1, x22
    36c0:	aa1903e0 	mov	x0, x25
    36c4:	97fffd0a 	bl	2aec <get_mpi>
/home/thesis/Desktop/optee_rpi3bplus/optee_os/lib/libutee/tee_api_arith_mpi.c:376
    36c8:	eb1402ff 	cmp	x23, x20
    36cc:	910263f8 	add	x24, sp, #0x98
    36d0:	540002e0 	b.eq	372c <bigint_binary_mod+0xfc>  // b.none
/home/thesis/Desktop/optee_rpi3bplus/optee_os/lib/libutee/tee_api_arith_mpi.c:378
    36d4:	eb1402df 	cmp	x22, x20
    36d8:	540002e0 	b.eq	3734 <bigint_binary_mod+0x104>  // b.none
/home/thesis/Desktop/optee_rpi3bplus/optee_os/lib/libutee/tee_api_arith_mpi.c:381
    36dc:	aa1403e1 	mov	x1, x20
/home/thesis/Desktop/optee_rpi3bplus/optee_os/lib/libutee/tee_api_arith_mpi.c:365
    36e0:	aa1803f4 	mov	x20, x24
/home/thesis/Desktop/optee_rpi3bplus/optee_os/lib/libutee/tee_api_arith_mpi.c:381
    36e4:	aa1803e0 	mov	x0, x24
    36e8:	97fffd01 	bl	2aec <get_mpi>
get_mpi():
/home/thesis/Desktop/optee_rpi3bplus/optee_os/lib/libutee/tee_api_arith_mpi.c:101
    36ec:	910323f6 	add	x22, sp, #0xc8
    36f0:	aa1603e0 	mov	x0, x22
    36f4:	940004fe 	bl	4aec <mbedtls_mpi_init_mempool>
bigint_binary_mod():
/home/thesis/Desktop/optee_rpi3bplus/optee_os/lib/libutee/tee_api_arith_mpi.c:385
    36f8:	aa1403e2 	mov	x2, x20
    36fc:	aa1503e1 	mov	x1, x21
    3700:	aa1603e0 	mov	x0, x22
    3704:	d63f0360 	blr	x27
    3708:	340001a0 	cbz	w0, 373c <bigint_binary_mod+0x10c>
/home/thesis/Desktop/optee_rpi3bplus/optee_os/lib/libutee/tee_api_arith_mpi.c:385 (discriminator 1)
    370c:	2a0003e2 	mov	w2, w0
    3710:	52803021 	mov	w1, #0x181                 	// #385
/home/thesis/Desktop/optee_rpi3bplus/optee_os/lib/libutee/tee_api_arith_mpi.c:386 (discriminator 1)
    3714:	d0000040 	adrp	x0, d000 <primes+0x378>
    3718:	91231000 	add	x0, x0, #0x8c4
    371c:	9101e000 	add	x0, x0, #0x78
    3720:	97fffce7 	bl	2abc <mpi_panic>
/home/thesis/Desktop/optee_rpi3bplus/optee_os/lib/libutee/tee_api_arith_mpi.c:372
    3724:	aa1303f5 	mov	x21, x19
    3728:	17ffffe8 	b	36c8 <bigint_binary_mod+0x98>
/home/thesis/Desktop/optee_rpi3bplus/optee_os/lib/libutee/tee_api_arith_mpi.c:377
    372c:	aa1303f4 	mov	x20, x19
    3730:	17ffffef 	b	36ec <bigint_binary_mod+0xbc>
/home/thesis/Desktop/optee_rpi3bplus/optee_os/lib/libutee/tee_api_arith_mpi.c:379
    3734:	aa1503f4 	mov	x20, x21
    3738:	17ffffed 	b	36ec <bigint_binary_mod+0xbc>
/home/thesis/Desktop/optee_rpi3bplus/optee_os/lib/libutee/tee_api_arith_mpi.c:386
    373c:	aa1a03e2 	mov	x2, x26
    3740:	aa1603e1 	mov	x1, x22
    3744:	aa1303e0 	mov	x0, x19
    3748:	94000b15 	bl	639c <mbedtls_mpi_mod_mpi>
    374c:	34000080 	cbz	w0, 375c <bigint_binary_mod+0x12c>
/home/thesis/Desktop/optee_rpi3bplus/optee_os/lib/libutee/tee_api_arith_mpi.c:386 (discriminator 1)
    3750:	2a0003e2 	mov	w2, w0
    3754:	52803041 	mov	w1, #0x182                 	// #386
    3758:	17ffffef 	b	3714 <bigint_binary_mod+0xe4>
/home/thesis/Desktop/optee_rpi3bplus/optee_os/lib/libutee/tee_api_arith_mpi.c:388
    375c:	aa1703e1 	mov	x1, x23
    3760:	aa1303e0 	mov	x0, x19
    3764:	97fffd08 	bl	2b84 <copy_mpi_to_bigint>
    3768:	34000080 	cbz	w0, 3778 <bigint_binary_mod+0x148>
/home/thesis/Desktop/optee_rpi3bplus/optee_os/lib/libutee/tee_api_arith_mpi.c:388 (discriminator 1)
    376c:	2a0003e2 	mov	w2, w0
    3770:	52803081 	mov	w1, #0x184                 	// #388
    3774:	17ffffe8 	b	3714 <bigint_binary_mod+0xe4>
/home/thesis/Desktop/optee_rpi3bplus/optee_os/lib/libutee/tee_api_arith_mpi.c:389
    3778:	aa1303e0 	mov	x0, x19
    377c:	940004e6 	bl	4b14 <mbedtls_mpi_free>
/home/thesis/Desktop/optee_rpi3bplus/optee_os/lib/libutee/tee_api_arith_mpi.c:390
    3780:	eb1902bf 	cmp	x21, x25
    3784:	54000061 	b.ne	3790 <bigint_binary_mod+0x160>  // b.any
/home/thesis/Desktop/optee_rpi3bplus/optee_os/lib/libutee/tee_api_arith_mpi.c:391
    3788:	aa1503e0 	mov	x0, x21
    378c:	940004e2 	bl	4b14 <mbedtls_mpi_free>
/home/thesis/Desktop/optee_rpi3bplus/optee_os/lib/libutee/tee_api_arith_mpi.c:392
    3790:	eb18029f 	cmp	x20, x24
    3794:	54000061 	b.ne	37a0 <bigint_binary_mod+0x170>  // b.any
/home/thesis/Desktop/optee_rpi3bplus/optee_os/lib/libutee/tee_api_arith_mpi.c:393
    3798:	aa1403e0 	mov	x0, x20
    379c:	940004de 	bl	4b14 <mbedtls_mpi_free>
/home/thesis/Desktop/optee_rpi3bplus/optee_os/lib/libutee/tee_api_arith_mpi.c:394
    37a0:	aa1603e0 	mov	x0, x22
    37a4:	940004dc 	bl	4b14 <mbedtls_mpi_free>
/home/thesis/Desktop/optee_rpi3bplus/optee_os/lib/libutee/tee_api_arith_mpi.c:395
    37a8:	a94153f3 	ldp	x19, x20, [sp, #16]
    37ac:	a9425bf5 	ldp	x21, x22, [sp, #32]
    37b0:	a94363f7 	ldp	x23, x24, [sp, #48]
    37b4:	a9446bf9 	ldp	x25, x26, [sp, #64]
    37b8:	f9402bfb 	ldr	x27, [sp, #80]
    37bc:	a8ce7bfd 	ldp	x29, x30, [sp], #224
    37c0:	d65f03c0 	ret

00000000000037c4 <TEE_BigIntShiftRight>:
TEE_BigIntShiftRight():
/home/thesis/Desktop/optee_rpi3bplus/optee_os/lib/libutee/tee_api_arith_mpi.c:249
    37c4:	a9b77bfd 	stp	x29, x30, [sp, #-144]!
    37c8:	910003fd 	mov	x29, sp
    37cc:	a90153f3 	stp	x19, x20, [sp, #16]
/home/thesis/Desktop/optee_rpi3bplus/optee_os/lib/libutee/tee_api_arith_mpi.c:253
    37d0:	910123f3 	add	x19, sp, #0x48
/home/thesis/Desktop/optee_rpi3bplus/optee_os/lib/libutee/tee_api_arith_mpi.c:249
    37d4:	a9025bf5 	stp	x21, x22, [sp, #32]
    37d8:	aa0003f6 	mov	x22, x0
    37dc:	aa0103f5 	mov	x21, x1
/home/thesis/Desktop/optee_rpi3bplus/optee_os/lib/libutee/tee_api_arith_mpi.c:253
    37e0:	aa0003e1 	mov	x1, x0
    37e4:	aa1303e0 	mov	x0, x19
/home/thesis/Desktop/optee_rpi3bplus/optee_os/lib/libutee/tee_api_arith_mpi.c:249
    37e8:	f9001bf7 	str	x23, [sp, #48]
    37ec:	aa0203f7 	mov	x23, x2
/home/thesis/Desktop/optee_rpi3bplus/optee_os/lib/libutee/tee_api_arith_mpi.c:253
    37f0:	97fffcbf 	bl	2aec <get_mpi>
/home/thesis/Desktop/optee_rpi3bplus/optee_os/lib/libutee/tee_api_arith_mpi.c:255
    37f4:	eb1502df 	cmp	x22, x21
    37f8:	54000161 	b.ne	3824 <TEE_BigIntShiftRight+0x60>  // b.any
/home/thesis/Desktop/optee_rpi3bplus/optee_os/lib/libutee/tee_api_arith_mpi.c:256
    37fc:	aa1703e1 	mov	x1, x23
    3800:	aa1303e0 	mov	x0, x19
    3804:	9400072d 	bl	54b8 <mbedtls_mpi_shift_r>
    3808:	34000780 	cbz	w0, 38f8 <TEE_BigIntShiftRight+0x134>
/home/thesis/Desktop/optee_rpi3bplus/optee_os/lib/libutee/tee_api_arith_mpi.c:256 (discriminator 1)
    380c:	2a0003e2 	mov	w2, w0
    3810:	52802001 	mov	w1, #0x100                 	// #256
/home/thesis/Desktop/optee_rpi3bplus/optee_os/lib/libutee/tee_api_arith_mpi.c:263 (discriminator 1)
    3814:	d0000040 	adrp	x0, d000 <primes+0x378>
    3818:	91231000 	add	x0, x0, #0x8c4
    381c:	91022800 	add	x0, x0, #0x8a
    3820:	97fffca7 	bl	2abc <mpi_panic>
/home/thesis/Desktop/optee_rpi3bplus/optee_os/lib/libutee/tee_api_arith_mpi.c:260
    3824:	aa1503e1 	mov	x1, x21
    3828:	910183f4 	add	x20, sp, #0x60
    382c:	aa1403e0 	mov	x0, x20
    3830:	97fffcaf 	bl	2aec <get_mpi>
/home/thesis/Desktop/optee_rpi3bplus/optee_os/lib/libutee/tee_api_arith_mpi.c:262
    3834:	aa1303e0 	mov	x0, x19
    3838:	9400067a 	bl	5220 <mbedtls_mpi_size>
    383c:	aa0003f5 	mov	x21, x0
    3840:	aa1403e0 	mov	x0, x20
    3844:	94000677 	bl	5220 <mbedtls_mpi_size>
    3848:	eb0002bf 	cmp	x21, x0
    384c:	540001e3 	b.cc	3888 <TEE_BigIntShiftRight+0xc4>  // b.lo, b.ul, b.last
/home/thesis/Desktop/optee_rpi3bplus/optee_os/lib/libutee/tee_api_arith_mpi.c:263
    3850:	aa1403e1 	mov	x1, x20
    3854:	aa1303e0 	mov	x0, x19
    3858:	94000550 	bl	4d98 <mbedtls_mpi_copy>
    385c:	34000080 	cbz	w0, 386c <TEE_BigIntShiftRight+0xa8>
/home/thesis/Desktop/optee_rpi3bplus/optee_os/lib/libutee/tee_api_arith_mpi.c:263 (discriminator 1)
    3860:	2a0003e2 	mov	w2, w0
    3864:	528020e1 	mov	w1, #0x107                 	// #263
    3868:	17ffffeb 	b	3814 <TEE_BigIntShiftRight+0x50>
/home/thesis/Desktop/optee_rpi3bplus/optee_os/lib/libutee/tee_api_arith_mpi.c:264
    386c:	aa1703e1 	mov	x1, x23
    3870:	aa1303e0 	mov	x0, x19
    3874:	94000711 	bl	54b8 <mbedtls_mpi_shift_r>
    3878:	340003c0 	cbz	w0, 38f0 <TEE_BigIntShiftRight+0x12c>
/home/thesis/Desktop/optee_rpi3bplus/optee_os/lib/libutee/tee_api_arith_mpi.c:264 (discriminator 1)
    387c:	2a0003e2 	mov	w2, w0
    3880:	52802101 	mov	w1, #0x108                 	// #264
    3884:	17ffffe4 	b	3814 <TEE_BigIntShiftRight+0x50>
get_mpi():
/home/thesis/Desktop/optee_rpi3bplus/optee_os/lib/libutee/tee_api_arith_mpi.c:101
    3888:	9101e3f5 	add	x21, sp, #0x78
    388c:	aa1503e0 	mov	x0, x21
    3890:	94000497 	bl	4aec <mbedtls_mpi_init_mempool>
TEE_BigIntShiftRight():
/home/thesis/Desktop/optee_rpi3bplus/optee_os/lib/libutee/tee_api_arith_mpi.c:275
    3894:	aa1403e1 	mov	x1, x20
    3898:	aa1503e0 	mov	x0, x21
    389c:	9400053f 	bl	4d98 <mbedtls_mpi_copy>
    38a0:	34000080 	cbz	w0, 38b0 <TEE_BigIntShiftRight+0xec>
/home/thesis/Desktop/optee_rpi3bplus/optee_os/lib/libutee/tee_api_arith_mpi.c:275 (discriminator 1)
    38a4:	2a0003e2 	mov	w2, w0
    38a8:	52802261 	mov	w1, #0x113                 	// #275
    38ac:	17ffffda 	b	3814 <TEE_BigIntShiftRight+0x50>
/home/thesis/Desktop/optee_rpi3bplus/optee_os/lib/libutee/tee_api_arith_mpi.c:276
    38b0:	aa1703e1 	mov	x1, x23
    38b4:	aa1503e0 	mov	x0, x21
    38b8:	94000700 	bl	54b8 <mbedtls_mpi_shift_r>
    38bc:	34000080 	cbz	w0, 38cc <TEE_BigIntShiftRight+0x108>
/home/thesis/Desktop/optee_rpi3bplus/optee_os/lib/libutee/tee_api_arith_mpi.c:276 (discriminator 1)
    38c0:	2a0003e2 	mov	w2, w0
    38c4:	52802281 	mov	w1, #0x114                 	// #276
    38c8:	17ffffd3 	b	3814 <TEE_BigIntShiftRight+0x50>
/home/thesis/Desktop/optee_rpi3bplus/optee_os/lib/libutee/tee_api_arith_mpi.c:277
    38cc:	aa1503e1 	mov	x1, x21
    38d0:	aa1303e0 	mov	x0, x19
    38d4:	94000531 	bl	4d98 <mbedtls_mpi_copy>
    38d8:	34000080 	cbz	w0, 38e8 <TEE_BigIntShiftRight+0x124>
/home/thesis/Desktop/optee_rpi3bplus/optee_os/lib/libutee/tee_api_arith_mpi.c:277 (discriminator 1)
    38dc:	2a0003e2 	mov	w2, w0
    38e0:	528022a1 	mov	w1, #0x115                 	// #277
    38e4:	17ffffcc 	b	3814 <TEE_BigIntShiftRight+0x50>
/home/thesis/Desktop/optee_rpi3bplus/optee_os/lib/libutee/tee_api_arith_mpi.c:279
    38e8:	aa1503e0 	mov	x0, x21
    38ec:	9400048a 	bl	4b14 <mbedtls_mpi_free>
/home/thesis/Desktop/optee_rpi3bplus/optee_os/lib/libutee/tee_api_arith_mpi.c:282
    38f0:	aa1403e0 	mov	x0, x20
    38f4:	94000488 	bl	4b14 <mbedtls_mpi_free>
/home/thesis/Desktop/optee_rpi3bplus/optee_os/lib/libutee/tee_api_arith_mpi.c:285
    38f8:	aa1603e1 	mov	x1, x22
    38fc:	aa1303e0 	mov	x0, x19
    3900:	97fffca1 	bl	2b84 <copy_mpi_to_bigint>
    3904:	34000080 	cbz	w0, 3914 <TEE_BigIntShiftRight+0x150>
/home/thesis/Desktop/optee_rpi3bplus/optee_os/lib/libutee/tee_api_arith_mpi.c:285 (discriminator 1)
    3908:	2a0003e2 	mov	w2, w0
    390c:	528023a1 	mov	w1, #0x11d                 	// #285
    3910:	17ffffc1 	b	3814 <TEE_BigIntShiftRight+0x50>
/home/thesis/Desktop/optee_rpi3bplus/optee_os/lib/libutee/tee_api_arith_mpi.c:286
    3914:	aa1303e0 	mov	x0, x19
    3918:	9400047f 	bl	4b14 <mbedtls_mpi_free>
/home/thesis/Desktop/optee_rpi3bplus/optee_os/lib/libutee/tee_api_arith_mpi.c:287
    391c:	a94153f3 	ldp	x19, x20, [sp, #16]
    3920:	a9425bf5 	ldp	x21, x22, [sp, #32]
    3924:	f9401bf7 	ldr	x23, [sp, #48]
    3928:	a8c97bfd 	ldp	x29, x30, [sp], #144
    392c:	d65f03c0 	ret

0000000000003930 <TEE_BigIntGetBit>:
TEE_BigIntGetBit():
/home/thesis/Desktop/optee_rpi3bplus/optee_os/lib/libutee/tee_api_arith_mpi.c:290
    3930:	a9bc7bfd 	stp	x29, x30, [sp, #-64]!
    3934:	910003fd 	mov	x29, sp
    3938:	a90153f3 	stp	x19, x20, [sp, #16]
/home/thesis/Desktop/optee_rpi3bplus/optee_os/lib/libutee/tee_api_arith_mpi.c:294
    393c:	9100a3f3 	add	x19, sp, #0x28
/home/thesis/Desktop/optee_rpi3bplus/optee_os/lib/libutee/tee_api_arith_mpi.c:290
    3940:	2a0103f4 	mov	w20, w1
/home/thesis/Desktop/optee_rpi3bplus/optee_os/lib/libutee/tee_api_arith_mpi.c:294
    3944:	aa0003e1 	mov	x1, x0
    3948:	aa1303e0 	mov	x0, x19
    394c:	97fffc68 	bl	2aec <get_mpi>
/home/thesis/Desktop/optee_rpi3bplus/optee_os/lib/libutee/tee_api_arith_mpi.c:296
    3950:	2a1403e1 	mov	w1, w20
    3954:	aa1303e0 	mov	x0, x19
    3958:	940005d8 	bl	50b8 <mbedtls_mpi_get_bit>
    395c:	2a0003f4 	mov	w20, w0
/home/thesis/Desktop/optee_rpi3bplus/optee_os/lib/libutee/tee_api_arith_mpi.c:298
    3960:	aa1303e0 	mov	x0, x19
    3964:	9400046c 	bl	4b14 <mbedtls_mpi_free>
/home/thesis/Desktop/optee_rpi3bplus/optee_os/lib/libutee/tee_api_arith_mpi.c:296
    3968:	7100029f 	cmp	w20, #0x0
/home/thesis/Desktop/optee_rpi3bplus/optee_os/lib/libutee/tee_api_arith_mpi.c:301
    396c:	1a9f07e0 	cset	w0, ne  // ne = any
    3970:	a94153f3 	ldp	x19, x20, [sp, #16]
    3974:	a8c47bfd 	ldp	x29, x30, [sp], #64
    3978:	d65f03c0 	ret

000000000000397c <TEE_BigIntGetBitCount>:
TEE_BigIntGetBitCount():
/home/thesis/Desktop/optee_rpi3bplus/optee_os/lib/libutee/tee_api_arith_mpi.c:304
    397c:	a9bc7bfd 	stp	x29, x30, [sp, #-64]!
/home/thesis/Desktop/optee_rpi3bplus/optee_os/lib/libutee/tee_api_arith_mpi.c:308
    3980:	aa0003e1 	mov	x1, x0
/home/thesis/Desktop/optee_rpi3bplus/optee_os/lib/libutee/tee_api_arith_mpi.c:304
    3984:	910003fd 	mov	x29, sp
    3988:	a90153f3 	stp	x19, x20, [sp, #16]
/home/thesis/Desktop/optee_rpi3bplus/optee_os/lib/libutee/tee_api_arith_mpi.c:308
    398c:	9100a3f3 	add	x19, sp, #0x28
    3990:	aa1303e0 	mov	x0, x19
    3994:	97fffc56 	bl	2aec <get_mpi>
/home/thesis/Desktop/optee_rpi3bplus/optee_os/lib/libutee/tee_api_arith_mpi.c:310
    3998:	aa1303e0 	mov	x0, x19
    399c:	9400060a 	bl	51c4 <mbedtls_mpi_bitlen>
    39a0:	aa0003f4 	mov	x20, x0
/home/thesis/Desktop/optee_rpi3bplus/optee_os/lib/libutee/tee_api_arith_mpi.c:312
    39a4:	aa1303e0 	mov	x0, x19
    39a8:	9400045b 	bl	4b14 <mbedtls_mpi_free>
/home/thesis/Desktop/optee_rpi3bplus/optee_os/lib/libutee/tee_api_arith_mpi.c:315
    39ac:	2a1403e0 	mov	w0, w20
    39b0:	a94153f3 	ldp	x19, x20, [sp, #16]
    39b4:	a8c47bfd 	ldp	x29, x30, [sp], #64
    39b8:	d65f03c0 	ret

00000000000039bc <TEE_BigIntAdd>:
TEE_BigIntAdd():
/home/thesis/Desktop/optee_rpi3bplus/optee_os/lib/libutee/tee_api_arith_mpi.c:400
    39bc:	90000063 	adrp	x3, f000 <.got>
    39c0:	f9402463 	ldr	x3, [x3, #72]
    39c4:	17fffc89 	b	2be8 <bigint_binary>

00000000000039c8 <TEE_BigIntSub>:
TEE_BigIntSub():
/home/thesis/Desktop/optee_rpi3bplus/optee_os/lib/libutee/tee_api_arith_mpi.c:406
    39c8:	90000063 	adrp	x3, f000 <.got>
    39cc:	f9402c63 	ldr	x3, [x3, #88]
    39d0:	17fffc86 	b	2be8 <bigint_binary>

00000000000039d4 <TEE_BigIntNeg>:
TEE_BigIntNeg():
/home/thesis/Desktop/optee_rpi3bplus/optee_os/lib/libutee/tee_api_arith_mpi.c:410
    39d4:	a9ba7bfd 	stp	x29, x30, [sp, #-96]!
    39d8:	910003fd 	mov	x29, sp
    39dc:	a90153f3 	stp	x19, x20, [sp, #16]
/home/thesis/Desktop/optee_rpi3bplus/optee_os/lib/libutee/tee_api_arith_mpi.c:413
    39e0:	9100c3f3 	add	x19, sp, #0x30
/home/thesis/Desktop/optee_rpi3bplus/optee_os/lib/libutee/tee_api_arith_mpi.c:410
    39e4:	aa0003f4 	mov	x20, x0
    39e8:	a9025bf5 	stp	x21, x22, [sp, #32]
    39ec:	aa0103f6 	mov	x22, x1
/home/thesis/Desktop/optee_rpi3bplus/optee_os/lib/libutee/tee_api_arith_mpi.c:413
    39f0:	aa0003e1 	mov	x1, x0
    39f4:	aa1303e0 	mov	x0, x19
    39f8:	97fffc3d 	bl	2aec <get_mpi>
/home/thesis/Desktop/optee_rpi3bplus/optee_os/lib/libutee/tee_api_arith_mpi.c:415
    39fc:	eb16029f 	cmp	x20, x22
    3a00:	54000220 	b.eq	3a44 <TEE_BigIntNeg+0x70>  // b.none
/home/thesis/Desktop/optee_rpi3bplus/optee_os/lib/libutee/tee_api_arith_mpi.c:418
    3a04:	910123f5 	add	x21, sp, #0x48
    3a08:	aa1603e1 	mov	x1, x22
    3a0c:	aa1503e0 	mov	x0, x21
    3a10:	97fffc37 	bl	2aec <get_mpi>
/home/thesis/Desktop/optee_rpi3bplus/optee_os/lib/libutee/tee_api_arith_mpi.c:420
    3a14:	aa1503e1 	mov	x1, x21
    3a18:	aa1303e0 	mov	x0, x19
    3a1c:	940004df 	bl	4d98 <mbedtls_mpi_copy>
    3a20:	340000e0 	cbz	w0, 3a3c <TEE_BigIntNeg+0x68>
/home/thesis/Desktop/optee_rpi3bplus/optee_os/lib/libutee/tee_api_arith_mpi.c:420 (discriminator 1)
    3a24:	2a0003e2 	mov	w2, w0
    3a28:	52803481 	mov	w1, #0x1a4                 	// #420
/home/thesis/Desktop/optee_rpi3bplus/optee_os/lib/libutee/tee_api_arith_mpi.c:427 (discriminator 1)
    3a2c:	d0000040 	adrp	x0, d000 <primes+0x378>
    3a30:	91231000 	add	x0, x0, #0x8c4
    3a34:	91027c00 	add	x0, x0, #0x9f
    3a38:	97fffc21 	bl	2abc <mpi_panic>
/home/thesis/Desktop/optee_rpi3bplus/optee_os/lib/libutee/tee_api_arith_mpi.c:422
    3a3c:	aa1503e0 	mov	x0, x21
    3a40:	94000435 	bl	4b14 <mbedtls_mpi_free>
/home/thesis/Desktop/optee_rpi3bplus/optee_os/lib/libutee/tee_api_arith_mpi.c:425
    3a44:	794063e0 	ldrh	w0, [sp, #48]
/home/thesis/Desktop/optee_rpi3bplus/optee_os/lib/libutee/tee_api_arith_mpi.c:427
    3a48:	aa1403e1 	mov	x1, x20
/home/thesis/Desktop/optee_rpi3bplus/optee_os/lib/libutee/tee_api_arith_mpi.c:425
    3a4c:	4b0003e0 	neg	w0, w0
    3a50:	790063e0 	strh	w0, [sp, #48]
/home/thesis/Desktop/optee_rpi3bplus/optee_os/lib/libutee/tee_api_arith_mpi.c:427
    3a54:	aa1303e0 	mov	x0, x19
    3a58:	97fffc4b 	bl	2b84 <copy_mpi_to_bigint>
    3a5c:	34000080 	cbz	w0, 3a6c <TEE_BigIntNeg+0x98>
/home/thesis/Desktop/optee_rpi3bplus/optee_os/lib/libutee/tee_api_arith_mpi.c:427 (discriminator 1)
    3a60:	2a0003e2 	mov	w2, w0
    3a64:	52803561 	mov	w1, #0x1ab                 	// #427
    3a68:	17fffff1 	b	3a2c <TEE_BigIntNeg+0x58>
/home/thesis/Desktop/optee_rpi3bplus/optee_os/lib/libutee/tee_api_arith_mpi.c:428
    3a6c:	aa1303e0 	mov	x0, x19
    3a70:	94000429 	bl	4b14 <mbedtls_mpi_free>
/home/thesis/Desktop/optee_rpi3bplus/optee_os/lib/libutee/tee_api_arith_mpi.c:429
    3a74:	a94153f3 	ldp	x19, x20, [sp, #16]
    3a78:	a9425bf5 	ldp	x21, x22, [sp, #32]
    3a7c:	a8c67bfd 	ldp	x29, x30, [sp], #96
    3a80:	d65f03c0 	ret

0000000000003a84 <TEE_BigIntMul>:
TEE_BigIntMul():
/home/thesis/Desktop/optee_rpi3bplus/optee_os/lib/libutee/tee_api_arith_mpi.c:433
    3a84:	a9ba7bfd 	stp	x29, x30, [sp, #-96]!
    3a88:	910003fd 	mov	x29, sp
    3a8c:	a90153f3 	stp	x19, x20, [sp, #16]
    3a90:	a9025bf5 	stp	x21, x22, [sp, #32]
/home/thesis/Desktop/optee_rpi3bplus/optee_os/lib/libutee/tee_api_arith_mpi.c:440
    3a94:	90000076 	adrp	x22, f000 <.got>
    3a98:	aa1603f5 	mov	x21, x22
/home/thesis/Desktop/optee_rpi3bplus/optee_os/lib/libutee/tee_api_arith_mpi.c:433
    3a9c:	a90363f7 	stp	x23, x24, [sp, #48]
    3aa0:	aa0203f8 	mov	x24, x2
    3aa4:	aa0103f7 	mov	x23, x1
    3aa8:	f90023f9 	str	x25, [sp, #64]
    3aac:	aa0003f9 	mov	x25, x0
/home/thesis/Desktop/optee_rpi3bplus/optee_os/lib/libutee/tee_api_arith_mpi.c:434
    3ab0:	aa0103e0 	mov	x0, x1
    3ab4:	97ffffb2 	bl	397c <TEE_BigIntGetBitCount>
    3ab8:	2a0003f3 	mov	w19, w0
/home/thesis/Desktop/optee_rpi3bplus/optee_os/lib/libutee/tee_api_arith_mpi.c:435
    3abc:	aa1803e0 	mov	x0, x24
    3ac0:	97ffffaf 	bl	397c <TEE_BigIntGetBitCount>
    3ac4:	2a0003e0 	mov	w0, w0
/home/thesis/Desktop/optee_rpi3bplus/optee_os/lib/libutee/tee_api_arith_mpi.c:436
    3ac8:	91007c00 	add	x0, x0, #0x1f
    3acc:	91007e73 	add	x19, x19, #0x1f
/home/thesis/Desktop/optee_rpi3bplus/optee_os/lib/libutee/tee_api_arith_mpi.c:437
    3ad0:	f9002bff 	str	xzr, [sp, #80]
/home/thesis/Desktop/optee_rpi3bplus/optee_os/lib/libutee/tee_api_arith_mpi.c:436
    3ad4:	d345fc00 	lsr	x0, x0, #5
/home/thesis/Desktop/optee_rpi3bplus/optee_os/lib/libutee/tee_api_arith_mpi.c:437
    3ad8:	b9005bff 	str	wzr, [sp, #88]
/home/thesis/Desktop/optee_rpi3bplus/optee_os/lib/libutee/tee_api_arith_mpi.c:436
    3adc:	8b531413 	add	x19, x0, x19, lsr #5
/home/thesis/Desktop/optee_rpi3bplus/optee_os/lib/libutee/tee_api_arith_mpi.c:440
    3ae0:	f94042c0 	ldr	x0, [x22, #128]
/home/thesis/Desktop/optee_rpi3bplus/optee_os/lib/libutee/tee_api_arith_mpi.c:436
    3ae4:	91001273 	add	x19, x19, #0x4
/home/thesis/Desktop/optee_rpi3bplus/optee_os/lib/libutee/tee_api_arith_mpi.c:440
    3ae8:	d37ef661 	lsl	x1, x19, #2
    3aec:	f9400000 	ldr	x0, [x0]
    3af0:	940019d0 	bl	a230 <mempool_alloc>
    3af4:	aa0003f4 	mov	x20, x0
/home/thesis/Desktop/optee_rpi3bplus/optee_os/lib/libutee/tee_api_arith_mpi.c:441
    3af8:	b5000060 	cbnz	x0, 3b04 <TEE_BigIntMul+0x80>
/home/thesis/Desktop/optee_rpi3bplus/optee_os/lib/libutee/tee_api_arith_mpi.c:442
    3afc:	129ffe60 	mov	w0, #0xffff000c            	// #-65524
    3b00:	97fff94b 	bl	202c <TEE_Panic>
/home/thesis/Desktop/optee_rpi3bplus/optee_os/lib/libutee/tee_api_arith_mpi.c:444
    3b04:	2a1303e1 	mov	w1, w19
    3b08:	aa1403e0 	mov	x0, x20
/home/thesis/Desktop/optee_rpi3bplus/optee_os/lib/libutee/tee_api_arith_mpi.c:445
    3b0c:	910143f3 	add	x19, sp, #0x50
/home/thesis/Desktop/optee_rpi3bplus/optee_os/lib/libutee/tee_api_arith_mpi.c:444
    3b10:	97fffdf5 	bl	32e4 <TEE_BigIntInit>
/home/thesis/Desktop/optee_rpi3bplus/optee_os/lib/libutee/tee_api_arith_mpi.c:445
    3b14:	aa1303e0 	mov	x0, x19
    3b18:	52800061 	mov	w1, #0x3                   	// #3
    3b1c:	97fffdf2 	bl	32e4 <TEE_BigIntInit>
/home/thesis/Desktop/optee_rpi3bplus/optee_os/lib/libutee/tee_api_arith_mpi.c:447
    3b20:	f94022a3 	ldr	x3, [x21, #64]
    3b24:	aa1803e2 	mov	x2, x24
    3b28:	aa1703e1 	mov	x1, x23
    3b2c:	aa1403e0 	mov	x0, x20
    3b30:	97fffc2e 	bl	2be8 <bigint_binary>
/home/thesis/Desktop/optee_rpi3bplus/optee_os/lib/libutee/tee_api_arith_mpi.c:449
    3b34:	aa1303e2 	mov	x2, x19
    3b38:	aa1403e1 	mov	x1, x20
    3b3c:	aa1903e0 	mov	x0, x25
    3b40:	97ffff9f 	bl	39bc <TEE_BigIntAdd>
/home/thesis/Desktop/optee_rpi3bplus/optee_os/lib/libutee/tee_api_arith_mpi.c:451
    3b44:	f94042b5 	ldr	x21, [x21, #128]
    3b48:	aa1403e1 	mov	x1, x20
    3b4c:	f94002a0 	ldr	x0, [x21]
    3b50:	940019f7 	bl	a32c <mempool_free>
/home/thesis/Desktop/optee_rpi3bplus/optee_os/lib/libutee/tee_api_arith_mpi.c:452
    3b54:	a94153f3 	ldp	x19, x20, [sp, #16]
    3b58:	a9425bf5 	ldp	x21, x22, [sp, #32]
    3b5c:	a94363f7 	ldp	x23, x24, [sp, #48]
    3b60:	f94023f9 	ldr	x25, [sp, #64]
    3b64:	a8c67bfd 	ldp	x29, x30, [sp], #96
    3b68:	d65f03c0 	ret

0000000000003b6c <TEE_BigIntSquare>:
TEE_BigIntSquare():
/home/thesis/Desktop/optee_rpi3bplus/optee_os/lib/libutee/tee_api_arith_mpi.c:456
    3b6c:	aa0103e2 	mov	x2, x1
    3b70:	17ffffc5 	b	3a84 <TEE_BigIntMul>

0000000000003b74 <TEE_BigIntDiv>:
TEE_BigIntDiv():
/home/thesis/Desktop/optee_rpi3bplus/optee_os/lib/libutee/tee_api_arith_mpi.c:461
    3b74:	a9b47bfd 	stp	x29, x30, [sp, #-192]!
    3b78:	910003fd 	mov	x29, sp
    3b7c:	a9025bf5 	stp	x21, x22, [sp, #32]
/home/thesis/Desktop/optee_rpi3bplus/optee_os/lib/libutee/tee_api_arith_mpi.c:469
    3b80:	910183f6 	add	x22, sp, #0x60
/home/thesis/Desktop/optee_rpi3bplus/optee_os/lib/libutee/tee_api_arith_mpi.c:470
    3b84:	9101e3f5 	add	x21, sp, #0x78
/home/thesis/Desktop/optee_rpi3bplus/optee_os/lib/libutee/tee_api_arith_mpi.c:461
    3b88:	a90153f3 	stp	x19, x20, [sp, #16]
    3b8c:	aa0303f3 	mov	x19, x3
    3b90:	a90363f7 	stp	x23, x24, [sp, #48]
    3b94:	aa0003f8 	mov	x24, x0
    3b98:	aa0103f7 	mov	x23, x1
/home/thesis/Desktop/optee_rpi3bplus/optee_os/lib/libutee/tee_api_arith_mpi.c:469
    3b9c:	aa0003e1 	mov	x1, x0
    3ba0:	aa1603e0 	mov	x0, x22
/home/thesis/Desktop/optee_rpi3bplus/optee_os/lib/libutee/tee_api_arith_mpi.c:461
    3ba4:	a9046bf9 	stp	x25, x26, [sp, #64]
    3ba8:	aa0203f9 	mov	x25, x2
    3bac:	f9002bfb 	str	x27, [sp, #80]
/home/thesis/Desktop/optee_rpi3bplus/optee_os/lib/libutee/tee_api_arith_mpi.c:469
    3bb0:	97fffbcf 	bl	2aec <get_mpi>
/home/thesis/Desktop/optee_rpi3bplus/optee_os/lib/libutee/tee_api_arith_mpi.c:470
    3bb4:	aa1703e1 	mov	x1, x23
    3bb8:	aa1503e0 	mov	x0, x21
    3bbc:	97fffbcc 	bl	2aec <get_mpi>
/home/thesis/Desktop/optee_rpi3bplus/optee_os/lib/libutee/tee_api_arith_mpi.c:472
    3bc0:	910243fb 	add	x27, sp, #0x90
    3bc4:	eb19031f 	cmp	x24, x25
    3bc8:	540003c0 	b.eq	3c40 <TEE_BigIntDiv+0xcc>  // b.none
/home/thesis/Desktop/optee_rpi3bplus/optee_os/lib/libutee/tee_api_arith_mpi.c:474
    3bcc:	eb1902ff 	cmp	x23, x25
    3bd0:	540003c0 	b.eq	3c48 <TEE_BigIntDiv+0xd4>  // b.none
/home/thesis/Desktop/optee_rpi3bplus/optee_os/lib/libutee/tee_api_arith_mpi.c:466
    3bd4:	aa1b03f4 	mov	x20, x27
/home/thesis/Desktop/optee_rpi3bplus/optee_os/lib/libutee/tee_api_arith_mpi.c:477
    3bd8:	aa1903e1 	mov	x1, x25
    3bdc:	aa1b03e0 	mov	x0, x27
    3be0:	97fffbc3 	bl	2aec <get_mpi>
/home/thesis/Desktop/optee_rpi3bplus/optee_os/lib/libutee/tee_api_arith_mpi.c:479
    3be4:	eb13031f 	cmp	x24, x19
    3be8:	9102a3fa 	add	x26, sp, #0xa8
    3bec:	54000320 	b.eq	3c50 <TEE_BigIntDiv+0xdc>  // b.none
/home/thesis/Desktop/optee_rpi3bplus/optee_os/lib/libutee/tee_api_arith_mpi.c:481
    3bf0:	eb1302ff 	cmp	x23, x19
    3bf4:	54000320 	b.eq	3c58 <TEE_BigIntDiv+0xe4>  // b.none
/home/thesis/Desktop/optee_rpi3bplus/optee_os/lib/libutee/tee_api_arith_mpi.c:483
    3bf8:	eb13033f 	cmp	x25, x19
    3bfc:	54000320 	b.eq	3c60 <TEE_BigIntDiv+0xec>  // b.none
/home/thesis/Desktop/optee_rpi3bplus/optee_os/lib/libutee/tee_api_arith_mpi.c:486
    3c00:	aa1303e1 	mov	x1, x19
/home/thesis/Desktop/optee_rpi3bplus/optee_os/lib/libutee/tee_api_arith_mpi.c:467
    3c04:	aa1a03f3 	mov	x19, x26
/home/thesis/Desktop/optee_rpi3bplus/optee_os/lib/libutee/tee_api_arith_mpi.c:486
    3c08:	aa1a03e0 	mov	x0, x26
    3c0c:	97fffbb8 	bl	2aec <get_mpi>
/home/thesis/Desktop/optee_rpi3bplus/optee_os/lib/libutee/tee_api_arith_mpi.c:488
    3c10:	aa1303e3 	mov	x3, x19
    3c14:	aa1403e2 	mov	x2, x20
    3c18:	aa1503e1 	mov	x1, x21
    3c1c:	aa1603e0 	mov	x0, x22
    3c20:	94000884 	bl	5e30 <mbedtls_mpi_div_mpi>
    3c24:	34000220 	cbz	w0, 3c68 <TEE_BigIntDiv+0xf4>
/home/thesis/Desktop/optee_rpi3bplus/optee_os/lib/libutee/tee_api_arith_mpi.c:488 (discriminator 1)
    3c28:	2a0003e2 	mov	w2, w0
    3c2c:	52803d01 	mov	w1, #0x1e8                 	// #488
/home/thesis/Desktop/optee_rpi3bplus/optee_os/lib/libutee/tee_api_arith_mpi.c:490 (discriminator 1)
    3c30:	d0000040 	adrp	x0, d000 <primes+0x378>
    3c34:	91231000 	add	x0, x0, #0x8c4
    3c38:	9102b400 	add	x0, x0, #0xad
    3c3c:	97fffba0 	bl	2abc <mpi_panic>
/home/thesis/Desktop/optee_rpi3bplus/optee_os/lib/libutee/tee_api_arith_mpi.c:473
    3c40:	aa1603f4 	mov	x20, x22
    3c44:	17ffffe8 	b	3be4 <TEE_BigIntDiv+0x70>
/home/thesis/Desktop/optee_rpi3bplus/optee_os/lib/libutee/tee_api_arith_mpi.c:475
    3c48:	aa1503f4 	mov	x20, x21
    3c4c:	17ffffe6 	b	3be4 <TEE_BigIntDiv+0x70>
/home/thesis/Desktop/optee_rpi3bplus/optee_os/lib/libutee/tee_api_arith_mpi.c:480
    3c50:	aa1603f3 	mov	x19, x22
    3c54:	17ffffef 	b	3c10 <TEE_BigIntDiv+0x9c>
/home/thesis/Desktop/optee_rpi3bplus/optee_os/lib/libutee/tee_api_arith_mpi.c:482
    3c58:	aa1503f3 	mov	x19, x21
    3c5c:	17ffffed 	b	3c10 <TEE_BigIntDiv+0x9c>
/home/thesis/Desktop/optee_rpi3bplus/optee_os/lib/libutee/tee_api_arith_mpi.c:484
    3c60:	aa1403f3 	mov	x19, x20
    3c64:	17ffffeb 	b	3c10 <TEE_BigIntDiv+0x9c>
/home/thesis/Desktop/optee_rpi3bplus/optee_os/lib/libutee/tee_api_arith_mpi.c:490
    3c68:	aa1803e1 	mov	x1, x24
    3c6c:	aa1603e0 	mov	x0, x22
    3c70:	97fffbc5 	bl	2b84 <copy_mpi_to_bigint>
    3c74:	34000080 	cbz	w0, 3c84 <TEE_BigIntDiv+0x110>
/home/thesis/Desktop/optee_rpi3bplus/optee_os/lib/libutee/tee_api_arith_mpi.c:490 (discriminator 1)
    3c78:	2a0003e2 	mov	w2, w0
    3c7c:	52803d41 	mov	w1, #0x1ea                 	// #490
    3c80:	17ffffec 	b	3c30 <TEE_BigIntDiv+0xbc>
/home/thesis/Desktop/optee_rpi3bplus/optee_os/lib/libutee/tee_api_arith_mpi.c:491
    3c84:	aa1703e1 	mov	x1, x23
    3c88:	aa1503e0 	mov	x0, x21
    3c8c:	97fffbbe 	bl	2b84 <copy_mpi_to_bigint>
    3c90:	34000080 	cbz	w0, 3ca0 <TEE_BigIntDiv+0x12c>
/home/thesis/Desktop/optee_rpi3bplus/optee_os/lib/libutee/tee_api_arith_mpi.c:491 (discriminator 1)
    3c94:	2a0003e2 	mov	w2, w0
    3c98:	52803d61 	mov	w1, #0x1eb                 	// #491
    3c9c:	17ffffe5 	b	3c30 <TEE_BigIntDiv+0xbc>
/home/thesis/Desktop/optee_rpi3bplus/optee_os/lib/libutee/tee_api_arith_mpi.c:492
    3ca0:	aa1603e0 	mov	x0, x22
    3ca4:	9400039c 	bl	4b14 <mbedtls_mpi_free>
/home/thesis/Desktop/optee_rpi3bplus/optee_os/lib/libutee/tee_api_arith_mpi.c:493
    3ca8:	aa1503e0 	mov	x0, x21
    3cac:	9400039a 	bl	4b14 <mbedtls_mpi_free>
/home/thesis/Desktop/optee_rpi3bplus/optee_os/lib/libutee/tee_api_arith_mpi.c:494
    3cb0:	eb1b029f 	cmp	x20, x27
    3cb4:	54000061 	b.ne	3cc0 <TEE_BigIntDiv+0x14c>  // b.any
/home/thesis/Desktop/optee_rpi3bplus/optee_os/lib/libutee/tee_api_arith_mpi.c:495
    3cb8:	aa1403e0 	mov	x0, x20
    3cbc:	94000396 	bl	4b14 <mbedtls_mpi_free>
/home/thesis/Desktop/optee_rpi3bplus/optee_os/lib/libutee/tee_api_arith_mpi.c:496
    3cc0:	eb1a027f 	cmp	x19, x26
    3cc4:	54000061 	b.ne	3cd0 <TEE_BigIntDiv+0x15c>  // b.any
/home/thesis/Desktop/optee_rpi3bplus/optee_os/lib/libutee/tee_api_arith_mpi.c:497
    3cc8:	aa1303e0 	mov	x0, x19
    3ccc:	94000392 	bl	4b14 <mbedtls_mpi_free>
/home/thesis/Desktop/optee_rpi3bplus/optee_os/lib/libutee/tee_api_arith_mpi.c:498
    3cd0:	a94153f3 	ldp	x19, x20, [sp, #16]
    3cd4:	a9425bf5 	ldp	x21, x22, [sp, #32]
    3cd8:	a94363f7 	ldp	x23, x24, [sp, #48]
    3cdc:	a9446bf9 	ldp	x25, x26, [sp, #64]
    3ce0:	f9402bfb 	ldr	x27, [sp, #80]
    3ce4:	a8cc7bfd 	ldp	x29, x30, [sp], #192
    3ce8:	d65f03c0 	ret

0000000000003cec <TEE_BigIntMod>:
TEE_BigIntMod():
/home/thesis/Desktop/optee_rpi3bplus/optee_os/lib/libutee/tee_api_arith_mpi.c:501
    3cec:	a9bd7bfd 	stp	x29, x30, [sp, #-48]!
    3cf0:	910003fd 	mov	x29, sp
    3cf4:	a90153f3 	stp	x19, x20, [sp, #16]
    3cf8:	aa0003f3 	mov	x19, x0
    3cfc:	aa0103f4 	mov	x20, x1
/home/thesis/Desktop/optee_rpi3bplus/optee_os/lib/libutee/tee_api_arith_mpi.c:502
    3d00:	aa0203e0 	mov	x0, x2
    3d04:	52800041 	mov	w1, #0x2                   	// #2
    3d08:	f90017e2 	str	x2, [sp, #40]
    3d0c:	97fffe37 	bl	35e8 <TEE_BigIntCmpS32>
    3d10:	f94017e2 	ldr	x2, [sp, #40]
    3d14:	36f80100 	tbz	w0, #31, 3d34 <TEE_BigIntMod+0x48>
/home/thesis/Desktop/optee_rpi3bplus/optee_os/lib/libutee/tee_api_arith_mpi.c:503
    3d18:	d0000040 	adrp	x0, d000 <primes+0x378>
    3d1c:	91231000 	add	x0, x0, #0x8c4
    3d20:	d0000042 	adrp	x2, d000 <primes+0x378>
    3d24:	52803ee1 	mov	w1, #0x1f7                 	// #503
    3d28:	9129e042 	add	x2, x2, #0xa78
    3d2c:	9102ec00 	add	x0, x0, #0xbb
    3d30:	97fffb57 	bl	2a8c <api_panic>
/home/thesis/Desktop/optee_rpi3bplus/optee_os/lib/libutee/tee_api_arith_mpi.c:505
    3d34:	90000063 	adrp	x3, f000 <.got>
    3d38:	aa1403e1 	mov	x1, x20
    3d3c:	aa1303e0 	mov	x0, x19
    3d40:	f9403463 	ldr	x3, [x3, #104]
/home/thesis/Desktop/optee_rpi3bplus/optee_os/lib/libutee/tee_api_arith_mpi.c:506
    3d44:	a94153f3 	ldp	x19, x20, [sp, #16]
    3d48:	a8c37bfd 	ldp	x29, x30, [sp], #48
/home/thesis/Desktop/optee_rpi3bplus/optee_os/lib/libutee/tee_api_arith_mpi.c:505
    3d4c:	17fffba7 	b	2be8 <bigint_binary>

0000000000003d50 <TEE_BigIntAddMod>:
TEE_BigIntAddMod():
/home/thesis/Desktop/optee_rpi3bplus/optee_os/lib/libutee/tee_api_arith_mpi.c:511
    3d50:	90000064 	adrp	x4, f000 <.got>
    3d54:	f9402484 	ldr	x4, [x4, #72]
    3d58:	17fffe36 	b	3630 <bigint_binary_mod>

0000000000003d5c <TEE_BigIntSubMod>:
TEE_BigIntSubMod():
/home/thesis/Desktop/optee_rpi3bplus/optee_os/lib/libutee/tee_api_arith_mpi.c:517
    3d5c:	90000064 	adrp	x4, f000 <.got>
    3d60:	f9402c84 	ldr	x4, [x4, #88]
    3d64:	17fffe33 	b	3630 <bigint_binary_mod>

0000000000003d68 <TEE_BigIntMulMod>:
TEE_BigIntMulMod():
/home/thesis/Desktop/optee_rpi3bplus/optee_os/lib/libutee/tee_api_arith_mpi.c:523
    3d68:	90000064 	adrp	x4, f000 <.got>
    3d6c:	f9402084 	ldr	x4, [x4, #64]
    3d70:	17fffe30 	b	3630 <bigint_binary_mod>

0000000000003d74 <TEE_BigIntSquareMod>:
TEE_BigIntSquareMod():
/home/thesis/Desktop/optee_rpi3bplus/optee_os/lib/libutee/tee_api_arith_mpi.c:529
    3d74:	aa0203e3 	mov	x3, x2
    3d78:	aa0103e2 	mov	x2, x1
    3d7c:	17fffffb 	b	3d68 <TEE_BigIntMulMod>

0000000000003d80 <TEE_BigIntInvMod>:
TEE_BigIntInvMod():
/home/thesis/Desktop/optee_rpi3bplus/optee_os/lib/libutee/tee_api_arith_mpi.c:534
    3d80:	a9b77bfd 	stp	x29, x30, [sp, #-144]!
    3d84:	910003fd 	mov	x29, sp
    3d88:	a90153f3 	stp	x19, x20, [sp, #16]
    3d8c:	aa0103f4 	mov	x20, x1
/home/thesis/Desktop/optee_rpi3bplus/optee_os/lib/libutee/tee_api_arith_mpi.c:535
    3d90:	52800041 	mov	w1, #0x2                   	// #2
/home/thesis/Desktop/optee_rpi3bplus/optee_os/lib/libutee/tee_api_arith_mpi.c:534
    3d94:	a9025bf5 	stp	x21, x22, [sp, #32]
    3d98:	aa0203f5 	mov	x21, x2
    3d9c:	f9001bf7 	str	x23, [sp, #48]
    3da0:	aa0003f7 	mov	x23, x0
/home/thesis/Desktop/optee_rpi3bplus/optee_os/lib/libutee/tee_api_arith_mpi.c:535
    3da4:	aa0203e0 	mov	x0, x2
    3da8:	97fffe10 	bl	35e8 <TEE_BigIntCmpS32>
    3dac:	36f80100 	tbz	w0, #31, 3dcc <TEE_BigIntInvMod+0x4c>
/home/thesis/Desktop/optee_rpi3bplus/optee_os/lib/libutee/tee_api_arith_mpi.c:536
    3db0:	d0000040 	adrp	x0, d000 <primes+0x378>
    3db4:	91231000 	add	x0, x0, #0x8c4
    3db8:	d0000042 	adrp	x2, d000 <primes+0x378>
    3dbc:	52804301 	mov	w1, #0x218                 	// #536
    3dc0:	912a3442 	add	x2, x2, #0xa8d
    3dc4:	91032400 	add	x0, x0, #0xc9
    3dc8:	97fffb31 	bl	2a8c <api_panic>
/home/thesis/Desktop/optee_rpi3bplus/optee_os/lib/libutee/tee_api_arith_mpi.c:535 (discriminator 1)
    3dcc:	52800001 	mov	w1, #0x0                   	// #0
    3dd0:	aa1403e0 	mov	x0, x20
    3dd4:	97fffe05 	bl	35e8 <TEE_BigIntCmpS32>
    3dd8:	34fffec0 	cbz	w0, 3db0 <TEE_BigIntInvMod+0x30>
/home/thesis/Desktop/optee_rpi3bplus/optee_os/lib/libutee/tee_api_arith_mpi.c:543
    3ddc:	910123f3 	add	x19, sp, #0x48
    3de0:	aa1703e1 	mov	x1, x23
    3de4:	aa1303e0 	mov	x0, x19
/home/thesis/Desktop/optee_rpi3bplus/optee_os/lib/libutee/tee_api_arith_mpi.c:544
    3de8:	9101e3f6 	add	x22, sp, #0x78
/home/thesis/Desktop/optee_rpi3bplus/optee_os/lib/libutee/tee_api_arith_mpi.c:543
    3dec:	97fffb40 	bl	2aec <get_mpi>
/home/thesis/Desktop/optee_rpi3bplus/optee_os/lib/libutee/tee_api_arith_mpi.c:544
    3df0:	aa1503e1 	mov	x1, x21
    3df4:	aa1603e0 	mov	x0, x22
    3df8:	97fffb3d 	bl	2aec <get_mpi>
/home/thesis/Desktop/optee_rpi3bplus/optee_os/lib/libutee/tee_api_arith_mpi.c:546
    3dfc:	910183f5 	add	x21, sp, #0x60
    3e00:	eb17029f 	cmp	x20, x23
    3e04:	54000200 	b.eq	3e44 <TEE_BigIntInvMod+0xc4>  // b.none
/home/thesis/Desktop/optee_rpi3bplus/optee_os/lib/libutee/tee_api_arith_mpi.c:549
    3e08:	aa1403e1 	mov	x1, x20
/home/thesis/Desktop/optee_rpi3bplus/optee_os/lib/libutee/tee_api_arith_mpi.c:541
    3e0c:	aa1503f4 	mov	x20, x21
/home/thesis/Desktop/optee_rpi3bplus/optee_os/lib/libutee/tee_api_arith_mpi.c:549
    3e10:	aa1503e0 	mov	x0, x21
    3e14:	97fffb36 	bl	2aec <get_mpi>
/home/thesis/Desktop/optee_rpi3bplus/optee_os/lib/libutee/tee_api_arith_mpi.c:551
    3e18:	aa1603e2 	mov	x2, x22
    3e1c:	aa1403e1 	mov	x1, x20
    3e20:	aa1303e0 	mov	x0, x19
    3e24:	94000dc4 	bl	7534 <mbedtls_mpi_inv_mod>
    3e28:	34000120 	cbz	w0, 3e4c <TEE_BigIntInvMod+0xcc>
/home/thesis/Desktop/optee_rpi3bplus/optee_os/lib/libutee/tee_api_arith_mpi.c:551 (discriminator 1)
    3e2c:	2a0003e2 	mov	w2, w0
    3e30:	528044e1 	mov	w1, #0x227                 	// #551
/home/thesis/Desktop/optee_rpi3bplus/optee_os/lib/libutee/tee_api_arith_mpi.c:553 (discriminator 1)
    3e34:	d0000040 	adrp	x0, d000 <primes+0x378>
    3e38:	91231000 	add	x0, x0, #0x8c4
    3e3c:	91032400 	add	x0, x0, #0xc9
    3e40:	97fffb1f 	bl	2abc <mpi_panic>
/home/thesis/Desktop/optee_rpi3bplus/optee_os/lib/libutee/tee_api_arith_mpi.c:547
    3e44:	aa1303f4 	mov	x20, x19
    3e48:	17fffff4 	b	3e18 <TEE_BigIntInvMod+0x98>
/home/thesis/Desktop/optee_rpi3bplus/optee_os/lib/libutee/tee_api_arith_mpi.c:553
    3e4c:	aa1703e1 	mov	x1, x23
    3e50:	aa1303e0 	mov	x0, x19
    3e54:	97fffb4c 	bl	2b84 <copy_mpi_to_bigint>
    3e58:	34000080 	cbz	w0, 3e68 <TEE_BigIntInvMod+0xe8>
/home/thesis/Desktop/optee_rpi3bplus/optee_os/lib/libutee/tee_api_arith_mpi.c:553 (discriminator 1)
    3e5c:	2a0003e2 	mov	w2, w0
    3e60:	52804521 	mov	w1, #0x229                 	// #553
    3e64:	17fffff4 	b	3e34 <TEE_BigIntInvMod+0xb4>
/home/thesis/Desktop/optee_rpi3bplus/optee_os/lib/libutee/tee_api_arith_mpi.c:554
    3e68:	aa1303e0 	mov	x0, x19
    3e6c:	9400032a 	bl	4b14 <mbedtls_mpi_free>
/home/thesis/Desktop/optee_rpi3bplus/optee_os/lib/libutee/tee_api_arith_mpi.c:555
    3e70:	aa1603e0 	mov	x0, x22
    3e74:	94000328 	bl	4b14 <mbedtls_mpi_free>
/home/thesis/Desktop/optee_rpi3bplus/optee_os/lib/libutee/tee_api_arith_mpi.c:556
    3e78:	eb15029f 	cmp	x20, x21
    3e7c:	54000061 	b.ne	3e88 <TEE_BigIntInvMod+0x108>  // b.any
/home/thesis/Desktop/optee_rpi3bplus/optee_os/lib/libutee/tee_api_arith_mpi.c:557
    3e80:	aa1403e0 	mov	x0, x20
    3e84:	94000324 	bl	4b14 <mbedtls_mpi_free>
/home/thesis/Desktop/optee_rpi3bplus/optee_os/lib/libutee/tee_api_arith_mpi.c:558
    3e88:	a94153f3 	ldp	x19, x20, [sp, #16]
    3e8c:	a9425bf5 	ldp	x21, x22, [sp, #32]
    3e90:	f9401bf7 	ldr	x23, [sp, #48]
    3e94:	a8c97bfd 	ldp	x29, x30, [sp], #144
    3e98:	d65f03c0 	ret

0000000000003e9c <TEE_BigIntRelativePrime>:
TEE_BigIntRelativePrime():
/home/thesis/Desktop/optee_rpi3bplus/optee_os/lib/libutee/tee_api_arith_mpi.c:561
    3e9c:	a9b77bfd 	stp	x29, x30, [sp, #-144]!
    3ea0:	910003fd 	mov	x29, sp
    3ea4:	a90153f3 	stp	x19, x20, [sp, #16]
/home/thesis/Desktop/optee_rpi3bplus/optee_os/lib/libutee/tee_api_arith_mpi.c:568
    3ea8:	910123f4 	add	x20, sp, #0x48
/home/thesis/Desktop/optee_rpi3bplus/optee_os/lib/libutee/tee_api_arith_mpi.c:561
    3eac:	aa0003f3 	mov	x19, x0
    3eb0:	a9025bf5 	stp	x21, x22, [sp, #32]
    3eb4:	aa0103f5 	mov	x21, x1
/home/thesis/Desktop/optee_rpi3bplus/optee_os/lib/libutee/tee_api_arith_mpi.c:568
    3eb8:	aa0003e1 	mov	x1, x0
    3ebc:	aa1403e0 	mov	x0, x20
/home/thesis/Desktop/optee_rpi3bplus/optee_os/lib/libutee/tee_api_arith_mpi.c:561
    3ec0:	f9001bf7 	str	x23, [sp, #48]
/home/thesis/Desktop/optee_rpi3bplus/optee_os/lib/libutee/tee_api_arith_mpi.c:568
    3ec4:	97fffb0a 	bl	2aec <get_mpi>
/home/thesis/Desktop/optee_rpi3bplus/optee_os/lib/libutee/tee_api_arith_mpi.c:570
    3ec8:	eb15027f 	cmp	x19, x21
    3ecc:	910183f3 	add	x19, sp, #0x60
    3ed0:	54000260 	b.eq	3f1c <TEE_BigIntRelativePrime+0x80>  // b.none
/home/thesis/Desktop/optee_rpi3bplus/optee_os/lib/libutee/tee_api_arith_mpi.c:565
    3ed4:	aa1303f6 	mov	x22, x19
/home/thesis/Desktop/optee_rpi3bplus/optee_os/lib/libutee/tee_api_arith_mpi.c:573
    3ed8:	aa1503e1 	mov	x1, x21
    3edc:	aa1303e0 	mov	x0, x19
    3ee0:	97fffb03 	bl	2aec <get_mpi>
get_mpi():
/home/thesis/Desktop/optee_rpi3bplus/optee_os/lib/libutee/tee_api_arith_mpi.c:101
    3ee4:	9101e3f5 	add	x21, sp, #0x78
    3ee8:	aa1503e0 	mov	x0, x21
    3eec:	94000300 	bl	4aec <mbedtls_mpi_init_mempool>
TEE_BigIntRelativePrime():
/home/thesis/Desktop/optee_rpi3bplus/optee_os/lib/libutee/tee_api_arith_mpi.c:577
    3ef0:	aa1303e2 	mov	x2, x19
    3ef4:	aa1403e1 	mov	x1, x20
    3ef8:	aa1503e0 	mov	x0, x21
    3efc:	94000c5c 	bl	706c <mbedtls_mpi_gcd>
    3f00:	34000120 	cbz	w0, 3f24 <TEE_BigIntRelativePrime+0x88>
/home/thesis/Desktop/optee_rpi3bplus/optee_os/lib/libutee/tee_api_arith_mpi.c:577 (discriminator 1)
    3f04:	2a0003e2 	mov	w2, w0
    3f08:	d0000040 	adrp	x0, d000 <primes+0x378>
    3f0c:	91231000 	add	x0, x0, #0x8c4
    3f10:	52804821 	mov	w1, #0x241                 	// #577
    3f14:	91036800 	add	x0, x0, #0xda
    3f18:	97fffae9 	bl	2abc <mpi_panic>
/home/thesis/Desktop/optee_rpi3bplus/optee_os/lib/libutee/tee_api_arith_mpi.c:571
    3f1c:	aa1403f6 	mov	x22, x20
    3f20:	17fffff1 	b	3ee4 <TEE_BigIntRelativePrime+0x48>
/home/thesis/Desktop/optee_rpi3bplus/optee_os/lib/libutee/tee_api_arith_mpi.c:579
    3f24:	52800021 	mov	w1, #0x1                   	// #1
    3f28:	aa1503e0 	mov	x0, x21
    3f2c:	940005f2 	bl	56f4 <mbedtls_mpi_cmp_int>
    3f30:	7100001f 	cmp	w0, #0x0
    3f34:	1a9f17f7 	cset	w23, eq  // eq = none
/home/thesis/Desktop/optee_rpi3bplus/optee_os/lib/libutee/tee_api_arith_mpi.c:581
    3f38:	aa1503e0 	mov	x0, x21
    3f3c:	940002f6 	bl	4b14 <mbedtls_mpi_free>
/home/thesis/Desktop/optee_rpi3bplus/optee_os/lib/libutee/tee_api_arith_mpi.c:582
    3f40:	aa1403e0 	mov	x0, x20
    3f44:	940002f4 	bl	4b14 <mbedtls_mpi_free>
/home/thesis/Desktop/optee_rpi3bplus/optee_os/lib/libutee/tee_api_arith_mpi.c:583
    3f48:	eb1302df 	cmp	x22, x19
    3f4c:	54000061 	b.ne	3f58 <TEE_BigIntRelativePrime+0xbc>  // b.any
/home/thesis/Desktop/optee_rpi3bplus/optee_os/lib/libutee/tee_api_arith_mpi.c:584
    3f50:	aa1603e0 	mov	x0, x22
    3f54:	940002f0 	bl	4b14 <mbedtls_mpi_free>
/home/thesis/Desktop/optee_rpi3bplus/optee_os/lib/libutee/tee_api_arith_mpi.c:587
    3f58:	2a1703e0 	mov	w0, w23
    3f5c:	a94153f3 	ldp	x19, x20, [sp, #16]
    3f60:	a9425bf5 	ldp	x21, x22, [sp, #32]
    3f64:	f9401bf7 	ldr	x23, [sp, #48]
    3f68:	a8c97bfd 	ldp	x29, x30, [sp], #144
    3f6c:	d65f03c0 	ret

0000000000003f70 <TEE_BigIntComputeExtendedGcd>:
TEE_BigIntComputeExtendedGcd():
/home/thesis/Desktop/optee_rpi3bplus/optee_os/lib/libutee/tee_api_arith_mpi.c:698
    3f70:	a9b17bfd 	stp	x29, x30, [sp, #-240]!
    3f74:	910003fd 	mov	x29, sp
    3f78:	a9025bf5 	stp	x21, x22, [sp, #32]
/home/thesis/Desktop/optee_rpi3bplus/optee_os/lib/libutee/tee_api_arith_mpi.c:704
    3f7c:	9101e3f5 	add	x21, sp, #0x78
/home/thesis/Desktop/optee_rpi3bplus/optee_os/lib/libutee/tee_api_arith_mpi.c:698
    3f80:	aa0303f6 	mov	x22, x3
    3f84:	a90153f3 	stp	x19, x20, [sp, #16]
    3f88:	aa0403f3 	mov	x19, x4
/home/thesis/Desktop/optee_rpi3bplus/optee_os/lib/libutee/tee_api_arith_mpi.c:705
    3f8c:	910243f4 	add	x20, sp, #0x90
/home/thesis/Desktop/optee_rpi3bplus/optee_os/lib/libutee/tee_api_arith_mpi.c:698
    3f90:	a90363f7 	stp	x23, x24, [sp, #48]
    3f94:	9102a3f8 	add	x24, sp, #0xa8
    3f98:	a9046bf9 	stp	x25, x26, [sp, #64]
    3f9c:	aa0203fa 	mov	x26, x2
    3fa0:	aa0003f9 	mov	x25, x0
    3fa4:	a90573fb 	stp	x27, x28, [sp, #80]
    3fa8:	aa0103fb 	mov	x27, x1
/home/thesis/Desktop/optee_rpi3bplus/optee_os/lib/libutee/tee_api_arith_mpi.c:704
    3fac:	aa0003e1 	mov	x1, x0
    3fb0:	aa1503e0 	mov	x0, x21
    3fb4:	97ffface 	bl	2aec <get_mpi>
/home/thesis/Desktop/optee_rpi3bplus/optee_os/lib/libutee/tee_api_arith_mpi.c:705
    3fb8:	aa1603e1 	mov	x1, x22
    3fbc:	aa1403e0 	mov	x0, x20
    3fc0:	97fffacb 	bl	2aec <get_mpi>
/home/thesis/Desktop/optee_rpi3bplus/optee_os/lib/libutee/tee_api_arith_mpi.c:707
    3fc4:	eb1302df 	cmp	x22, x19
    3fc8:	54000260 	b.eq	4014 <TEE_BigIntComputeExtendedGcd+0xa4>  // b.none
/home/thesis/Desktop/optee_rpi3bplus/optee_os/lib/libutee/tee_api_arith_mpi.c:710
    3fcc:	aa1303e1 	mov	x1, x19
/home/thesis/Desktop/optee_rpi3bplus/optee_os/lib/libutee/tee_api_arith_mpi.c:702
    3fd0:	aa1803f3 	mov	x19, x24
/home/thesis/Desktop/optee_rpi3bplus/optee_os/lib/libutee/tee_api_arith_mpi.c:710
    3fd4:	aa1803e0 	mov	x0, x24
    3fd8:	97fffac5 	bl	2aec <get_mpi>
/home/thesis/Desktop/optee_rpi3bplus/optee_os/lib/libutee/tee_api_arith_mpi.c:712
    3fdc:	aa1a0360 	orr	x0, x27, x26
    3fe0:	b50001e0 	cbnz	x0, 401c <TEE_BigIntComputeExtendedGcd+0xac>
/home/thesis/Desktop/optee_rpi3bplus/optee_os/lib/libutee/tee_api_arith_mpi.c:713
    3fe4:	b4000b79 	cbz	x25, 4150 <TEE_BigIntComputeExtendedGcd+0x1e0>
/home/thesis/Desktop/optee_rpi3bplus/optee_os/lib/libutee/tee_api_arith_mpi.c:714
    3fe8:	aa1303e2 	mov	x2, x19
    3fec:	aa1403e1 	mov	x1, x20
    3ff0:	aa1503e0 	mov	x0, x21
    3ff4:	94000c1e 	bl	706c <mbedtls_mpi_gcd>
    3ff8:	34000ac0 	cbz	w0, 4150 <TEE_BigIntComputeExtendedGcd+0x1e0>
/home/thesis/Desktop/optee_rpi3bplus/optee_os/lib/libutee/tee_api_arith_mpi.c:714 (discriminator 1)
    3ffc:	2a0003e2 	mov	w2, w0
    4000:	52805961 	mov	w1, #0x2cb                 	// #715
/home/thesis/Desktop/optee_rpi3bplus/optee_os/lib/libutee/tee_api_arith_mpi.c:731 (discriminator 1)
    4004:	b0000040 	adrp	x0, d000 <primes+0x378>
    4008:	91231000 	add	x0, x0, #0x8c4
    400c:	9103c800 	add	x0, x0, #0xf2
    4010:	97fffaab 	bl	2abc <mpi_panic>
/home/thesis/Desktop/optee_rpi3bplus/optee_os/lib/libutee/tee_api_arith_mpi.c:708
    4014:	aa1403f3 	mov	x19, x20
    4018:	17fffff1 	b	3fdc <TEE_BigIntComputeExtendedGcd+0x6c>
/home/thesis/Desktop/optee_rpi3bplus/optee_os/lib/libutee/tee_api_arith_mpi.c:720
    401c:	39c00260 	ldrsb	w0, [x19]
/home/thesis/Desktop/optee_rpi3bplus/optee_os/lib/libutee/tee_api_arith_mpi.c:726
    4020:	910303f7 	add	x23, sp, #0xc0
/home/thesis/Desktop/optee_rpi3bplus/optee_os/lib/libutee/tee_api_arith_mpi.c:719
    4024:	39c243fc 	ldrsb	w28, [sp, #144]
/home/thesis/Desktop/optee_rpi3bplus/optee_os/lib/libutee/tee_api_arith_mpi.c:726
    4028:	aa1b03e1 	mov	x1, x27
/home/thesis/Desktop/optee_rpi3bplus/optee_os/lib/libutee/tee_api_arith_mpi.c:720
    402c:	b9006fe0 	str	w0, [sp, #108]
/home/thesis/Desktop/optee_rpi3bplus/optee_os/lib/libutee/tee_api_arith_mpi.c:723
    4030:	52800020 	mov	w0, #0x1                   	// #1
    4034:	790123e0 	strh	w0, [sp, #144]
/home/thesis/Desktop/optee_rpi3bplus/optee_os/lib/libutee/tee_api_arith_mpi.c:727
    4038:	910363f6 	add	x22, sp, #0xd8
/home/thesis/Desktop/optee_rpi3bplus/optee_os/lib/libutee/tee_api_arith_mpi.c:724
    403c:	79000260 	strh	w0, [x19]
/home/thesis/Desktop/optee_rpi3bplus/optee_os/lib/libutee/tee_api_arith_mpi.c:726
    4040:	aa1703e0 	mov	x0, x23
    4044:	97fffaaa 	bl	2aec <get_mpi>
/home/thesis/Desktop/optee_rpi3bplus/optee_os/lib/libutee/tee_api_arith_mpi.c:727
    4048:	aa1a03e1 	mov	x1, x26
    404c:	aa1603e0 	mov	x0, x22
    4050:	97fffaa7 	bl	2aec <get_mpi>
/home/thesis/Desktop/optee_rpi3bplus/optee_os/lib/libutee/tee_api_arith_mpi.c:729
    4054:	aa1303e1 	mov	x1, x19
    4058:	aa1403e0 	mov	x0, x20
    405c:	94000549 	bl	5580 <mbedtls_mpi_cmp_abs>
/home/thesis/Desktop/optee_rpi3bplus/optee_os/lib/libutee/tee_api_arith_mpi.c:730
    4060:	7100001f 	cmp	w0, #0x0
    4064:	540002c1 	b.ne	40bc <TEE_BigIntComputeExtendedGcd+0x14c>  // b.any
/home/thesis/Desktop/optee_rpi3bplus/optee_os/lib/libutee/tee_api_arith_mpi.c:731
    4068:	aa1403e1 	mov	x1, x20
    406c:	aa1503e0 	mov	x0, x21
    4070:	9400034a 	bl	4d98 <mbedtls_mpi_copy>
    4074:	34000080 	cbz	w0, 4084 <TEE_BigIntComputeExtendedGcd+0x114>
/home/thesis/Desktop/optee_rpi3bplus/optee_os/lib/libutee/tee_api_arith_mpi.c:731 (discriminator 1)
    4078:	2a0003e2 	mov	w2, w0
    407c:	52805b61 	mov	w1, #0x2db                 	// #731
    4080:	17ffffe1 	b	4004 <TEE_BigIntComputeExtendedGcd+0x94>
/home/thesis/Desktop/optee_rpi3bplus/optee_os/lib/libutee/tee_api_arith_mpi.c:732
    4084:	52800021 	mov	w1, #0x1                   	// #1
    4088:	aa1703e0 	mov	x0, x23
    408c:	940003f1 	bl	5050 <mbedtls_mpi_lset>
    4090:	34000080 	cbz	w0, 40a0 <TEE_BigIntComputeExtendedGcd+0x130>
/home/thesis/Desktop/optee_rpi3bplus/optee_os/lib/libutee/tee_api_arith_mpi.c:732 (discriminator 1)
    4094:	2a0003e2 	mov	w2, w0
    4098:	52805b81 	mov	w1, #0x2dc                 	// #732
    409c:	17ffffda 	b	4004 <TEE_BigIntComputeExtendedGcd+0x94>
/home/thesis/Desktop/optee_rpi3bplus/optee_os/lib/libutee/tee_api_arith_mpi.c:733
    40a0:	52800001 	mov	w1, #0x0                   	// #0
    40a4:	aa1603e0 	mov	x0, x22
    40a8:	940003ea 	bl	5050 <mbedtls_mpi_lset>
    40ac:	34000160 	cbz	w0, 40d8 <TEE_BigIntComputeExtendedGcd+0x168>
/home/thesis/Desktop/optee_rpi3bplus/optee_os/lib/libutee/tee_api_arith_mpi.c:733 (discriminator 1)
    40b0:	2a0003e2 	mov	w2, w0
    40b4:	52805ba1 	mov	w1, #0x2dd                 	// #733
    40b8:	17ffffd3 	b	4004 <TEE_BigIntComputeExtendedGcd+0x94>
/home/thesis/Desktop/optee_rpi3bplus/optee_os/lib/libutee/tee_api_arith_mpi.c:734
    40bc:	540002ad 	b.le	4110 <TEE_BigIntComputeExtendedGcd+0x1a0>
/home/thesis/Desktop/optee_rpi3bplus/optee_os/lib/libutee/tee_api_arith_mpi.c:735
    40c0:	aa1303e4 	mov	x4, x19
    40c4:	aa1403e3 	mov	x3, x20
    40c8:	aa1603e2 	mov	x2, x22
    40cc:	aa1703e1 	mov	x1, x23
/home/thesis/Desktop/optee_rpi3bplus/optee_os/lib/libutee/tee_api_arith_mpi.c:737
    40d0:	aa1503e0 	mov	x0, x21
    40d4:	97fffb1d 	bl	2d48 <mpi_egcd>
/home/thesis/Desktop/optee_rpi3bplus/optee_os/lib/libutee/tee_api_arith_mpi.c:740
    40d8:	794183e0 	ldrh	w0, [sp, #192]
/home/thesis/Desktop/optee_rpi3bplus/optee_os/lib/libutee/tee_api_arith_mpi.c:741
    40dc:	b9406fe1 	ldr	w1, [sp, #108]
/home/thesis/Desktop/optee_rpi3bplus/optee_os/lib/libutee/tee_api_arith_mpi.c:740
    40e0:	1b007f9c 	mul	w28, w28, w0
/home/thesis/Desktop/optee_rpi3bplus/optee_os/lib/libutee/tee_api_arith_mpi.c:741
    40e4:	7941b3e0 	ldrh	w0, [sp, #216]
/home/thesis/Desktop/optee_rpi3bplus/optee_os/lib/libutee/tee_api_arith_mpi.c:740
    40e8:	790183fc 	strh	w28, [sp, #192]
/home/thesis/Desktop/optee_rpi3bplus/optee_os/lib/libutee/tee_api_arith_mpi.c:741
    40ec:	1b007c20 	mul	w0, w1, w0
/home/thesis/Desktop/optee_rpi3bplus/optee_os/lib/libutee/tee_api_arith_mpi.c:743
    40f0:	aa1b03e1 	mov	x1, x27
/home/thesis/Desktop/optee_rpi3bplus/optee_os/lib/libutee/tee_api_arith_mpi.c:741
    40f4:	7901b3e0 	strh	w0, [sp, #216]
/home/thesis/Desktop/optee_rpi3bplus/optee_os/lib/libutee/tee_api_arith_mpi.c:743
    40f8:	aa1703e0 	mov	x0, x23
    40fc:	97fffaa2 	bl	2b84 <copy_mpi_to_bigint>
    4100:	34000120 	cbz	w0, 4124 <TEE_BigIntComputeExtendedGcd+0x1b4>
/home/thesis/Desktop/optee_rpi3bplus/optee_os/lib/libutee/tee_api_arith_mpi.c:743 (discriminator 1)
    4104:	2a0003e2 	mov	w2, w0
    4108:	52805ce1 	mov	w1, #0x2e7                 	// #743
    410c:	17ffffbe 	b	4004 <TEE_BigIntComputeExtendedGcd+0x94>
/home/thesis/Desktop/optee_rpi3bplus/optee_os/lib/libutee/tee_api_arith_mpi.c:737
    4110:	aa1403e4 	mov	x4, x20
    4114:	aa1303e3 	mov	x3, x19
    4118:	aa1703e2 	mov	x2, x23
    411c:	aa1603e1 	mov	x1, x22
    4120:	17ffffec 	b	40d0 <TEE_BigIntComputeExtendedGcd+0x160>
/home/thesis/Desktop/optee_rpi3bplus/optee_os/lib/libutee/tee_api_arith_mpi.c:744
    4124:	aa1a03e1 	mov	x1, x26
    4128:	aa1603e0 	mov	x0, x22
    412c:	97fffa96 	bl	2b84 <copy_mpi_to_bigint>
    4130:	34000080 	cbz	w0, 4140 <TEE_BigIntComputeExtendedGcd+0x1d0>
/home/thesis/Desktop/optee_rpi3bplus/optee_os/lib/libutee/tee_api_arith_mpi.c:744 (discriminator 1)
    4134:	2a0003e2 	mov	w2, w0
    4138:	52805d01 	mov	w1, #0x2e8                 	// #744
    413c:	17ffffb2 	b	4004 <TEE_BigIntComputeExtendedGcd+0x94>
/home/thesis/Desktop/optee_rpi3bplus/optee_os/lib/libutee/tee_api_arith_mpi.c:745
    4140:	aa1703e0 	mov	x0, x23
    4144:	94000274 	bl	4b14 <mbedtls_mpi_free>
/home/thesis/Desktop/optee_rpi3bplus/optee_os/lib/libutee/tee_api_arith_mpi.c:746
    4148:	aa1603e0 	mov	x0, x22
    414c:	94000272 	bl	4b14 <mbedtls_mpi_free>
/home/thesis/Desktop/optee_rpi3bplus/optee_os/lib/libutee/tee_api_arith_mpi.c:749
    4150:	aa1903e1 	mov	x1, x25
    4154:	aa1503e0 	mov	x0, x21
    4158:	97fffa8b 	bl	2b84 <copy_mpi_to_bigint>
    415c:	34000080 	cbz	w0, 416c <TEE_BigIntComputeExtendedGcd+0x1fc>
/home/thesis/Desktop/optee_rpi3bplus/optee_os/lib/libutee/tee_api_arith_mpi.c:749 (discriminator 1)
    4160:	2a0003e2 	mov	w2, w0
    4164:	52805da1 	mov	w1, #0x2ed                 	// #749
    4168:	17ffffa7 	b	4004 <TEE_BigIntComputeExtendedGcd+0x94>
/home/thesis/Desktop/optee_rpi3bplus/optee_os/lib/libutee/tee_api_arith_mpi.c:750
    416c:	aa1503e0 	mov	x0, x21
    4170:	94000269 	bl	4b14 <mbedtls_mpi_free>
/home/thesis/Desktop/optee_rpi3bplus/optee_os/lib/libutee/tee_api_arith_mpi.c:751
    4174:	aa1403e0 	mov	x0, x20
    4178:	94000267 	bl	4b14 <mbedtls_mpi_free>
/home/thesis/Desktop/optee_rpi3bplus/optee_os/lib/libutee/tee_api_arith_mpi.c:752
    417c:	eb18027f 	cmp	x19, x24
    4180:	54000061 	b.ne	418c <TEE_BigIntComputeExtendedGcd+0x21c>  // b.any
/home/thesis/Desktop/optee_rpi3bplus/optee_os/lib/libutee/tee_api_arith_mpi.c:753
    4184:	aa1303e0 	mov	x0, x19
    4188:	94000263 	bl	4b14 <mbedtls_mpi_free>
/home/thesis/Desktop/optee_rpi3bplus/optee_os/lib/libutee/tee_api_arith_mpi.c:754
    418c:	a94153f3 	ldp	x19, x20, [sp, #16]
    4190:	a9425bf5 	ldp	x21, x22, [sp, #32]
    4194:	a94363f7 	ldp	x23, x24, [sp, #48]
    4198:	a9446bf9 	ldp	x25, x26, [sp, #64]
    419c:	a94573fb 	ldp	x27, x28, [sp, #80]
    41a0:	a8cf7bfd 	ldp	x29, x30, [sp], #240
    41a4:	d65f03c0 	ret

00000000000041a8 <TEE_BigIntIsProbablePrime>:
TEE_BigIntIsProbablePrime():
/home/thesis/Desktop/optee_rpi3bplus/optee_os/lib/libutee/tee_api_arith_mpi.c:765
    41a8:	a9bc7bfd 	stp	x29, x30, [sp, #-64]!
/home/thesis/Desktop/optee_rpi3bplus/optee_os/lib/libutee/tee_api_arith_mpi.c:769
    41ac:	aa0003e1 	mov	x1, x0
/home/thesis/Desktop/optee_rpi3bplus/optee_os/lib/libutee/tee_api_arith_mpi.c:765
    41b0:	910003fd 	mov	x29, sp
    41b4:	a90153f3 	stp	x19, x20, [sp, #16]
/home/thesis/Desktop/optee_rpi3bplus/optee_os/lib/libutee/tee_api_arith_mpi.c:769
    41b8:	9100a3f3 	add	x19, sp, #0x28
    41bc:	aa1303e0 	mov	x0, x19
    41c0:	97fffa4b 	bl	2aec <get_mpi>
/home/thesis/Desktop/optee_rpi3bplus/optee_os/lib/libutee/tee_api_arith_mpi.c:771
    41c4:	d0ffffe1 	adrp	x1, 2000 <TEE_SeekObjectData+0xac>
    41c8:	91348021 	add	x1, x1, #0xd20
    41cc:	d2800002 	mov	x2, #0x0                   	// #0
    41d0:	aa1303e0 	mov	x0, x19
    41d4:	94000e10 	bl	7a14 <mbedtls_mpi_is_prime>
    41d8:	2a0003f4 	mov	w20, w0
/home/thesis/Desktop/optee_rpi3bplus/optee_os/lib/libutee/tee_api_arith_mpi.c:773
    41dc:	aa1303e0 	mov	x0, x19
    41e0:	9400024d 	bl	4b14 <mbedtls_mpi_free>
/home/thesis/Desktop/optee_rpi3bplus/optee_os/lib/libutee/tee_api_arith_mpi.c:775
    41e4:	7100029f 	cmp	w20, #0x0
/home/thesis/Desktop/optee_rpi3bplus/optee_os/lib/libutee/tee_api_arith_mpi.c:779
    41e8:	1a9f17e0 	cset	w0, eq  // eq = none
    41ec:	a94153f3 	ldp	x19, x20, [sp, #16]
    41f0:	a8c47bfd 	ldp	x29, x30, [sp], #64
    41f4:	d65f03c0 	ret

00000000000041f8 <TEE_BigIntInitFMM>:
TEE_BigIntInitFMM():
/home/thesis/Desktop/optee_rpi3bplus/optee_os/lib/libutee/tee_api_arith_mpi.c:791
    41f8:	17fffc3b 	b	32e4 <TEE_BigIntInit>

00000000000041fc <TEE_BigIntInitFMMContext>:
TEE_BigIntInitFMMContext():
/home/thesis/Desktop/optee_rpi3bplus/optee_os/lib/libutee/tee_api_arith_mpi.c:798
    41fc:	d65f03c0 	ret

0000000000004200 <TEE_BigIntFMMSizeInU32>:
TEE_BigIntFMMSizeInU32():
/home/thesis/Desktop/optee_rpi3bplus/optee_os/lib/libutee/tee_api_arith_mpi.c:802
    4200:	11007c00 	add	w0, w0, #0x1f
    4204:	53057c00 	lsr	w0, w0, #5
/home/thesis/Desktop/optee_rpi3bplus/optee_os/lib/libutee/tee_api_arith_mpi.c:803
    4208:	11000800 	add	w0, w0, #0x2
    420c:	d65f03c0 	ret

0000000000004210 <TEE_BigIntFMMContextSizeInU32>:
TEE_BigIntFMMContextSizeInU32():
/home/thesis/Desktop/optee_rpi3bplus/optee_os/lib/libutee/tee_api_arith_mpi.c:809
    4210:	52800020 	mov	w0, #0x1                   	// #1
    4214:	d65f03c0 	ret

0000000000004218 <TEE_BigIntConvertToFMM>:
TEE_BigIntConvertToFMM():
/home/thesis/Desktop/optee_rpi3bplus/optee_os/lib/libutee/tee_api_arith_mpi.c:815
    4218:	17fffeb5 	b	3cec <TEE_BigIntMod>

000000000000421c <TEE_BigIntConvertFromFMM>:
TEE_BigIntConvertFromFMM():
/home/thesis/Desktop/optee_rpi3bplus/optee_os/lib/libutee/tee_api_arith_mpi.c:821
    421c:	a9ba7bfd 	stp	x29, x30, [sp, #-96]!
    4220:	910003fd 	mov	x29, sp
    4224:	a90153f3 	stp	x19, x20, [sp, #16]
/home/thesis/Desktop/optee_rpi3bplus/optee_os/lib/libutee/tee_api_arith_mpi.c:825
    4228:	9100c3f3 	add	x19, sp, #0x30
/home/thesis/Desktop/optee_rpi3bplus/optee_os/lib/libutee/tee_api_arith_mpi.c:826
    422c:	910123f4 	add	x20, sp, #0x48
/home/thesis/Desktop/optee_rpi3bplus/optee_os/lib/libutee/tee_api_arith_mpi.c:821
    4230:	a9025bf5 	stp	x21, x22, [sp, #32]
    4234:	aa0103f6 	mov	x22, x1
    4238:	aa0003f5 	mov	x21, x0
/home/thesis/Desktop/optee_rpi3bplus/optee_os/lib/libutee/tee_api_arith_mpi.c:825
    423c:	aa0003e1 	mov	x1, x0
    4240:	aa1303e0 	mov	x0, x19
    4244:	97fffa2a 	bl	2aec <get_mpi>
/home/thesis/Desktop/optee_rpi3bplus/optee_os/lib/libutee/tee_api_arith_mpi.c:826
    4248:	aa1603e1 	mov	x1, x22
    424c:	aa1403e0 	mov	x0, x20
    4250:	97fffa27 	bl	2aec <get_mpi>
/home/thesis/Desktop/optee_rpi3bplus/optee_os/lib/libutee/tee_api_arith_mpi.c:828
    4254:	aa1403e1 	mov	x1, x20
    4258:	aa1303e0 	mov	x0, x19
    425c:	940002cf 	bl	4d98 <mbedtls_mpi_copy>
    4260:	340000e0 	cbz	w0, 427c <TEE_BigIntConvertFromFMM+0x60>
/home/thesis/Desktop/optee_rpi3bplus/optee_os/lib/libutee/tee_api_arith_mpi.c:828 (discriminator 1)
    4264:	2a0003e2 	mov	w2, w0
    4268:	52806781 	mov	w1, #0x33c                 	// #828
/home/thesis/Desktop/optee_rpi3bplus/optee_os/lib/libutee/tee_api_arith_mpi.c:830 (discriminator 1)
    426c:	b0000040 	adrp	x0, d000 <primes+0x378>
    4270:	91231000 	add	x0, x0, #0x8c4
    4274:	91043c00 	add	x0, x0, #0x10f
    4278:	97fffa11 	bl	2abc <mpi_panic>
/home/thesis/Desktop/optee_rpi3bplus/optee_os/lib/libutee/tee_api_arith_mpi.c:830
    427c:	aa1503e1 	mov	x1, x21
    4280:	aa1303e0 	mov	x0, x19
    4284:	97fffa40 	bl	2b84 <copy_mpi_to_bigint>
    4288:	34000080 	cbz	w0, 4298 <TEE_BigIntConvertFromFMM+0x7c>
/home/thesis/Desktop/optee_rpi3bplus/optee_os/lib/libutee/tee_api_arith_mpi.c:830 (discriminator 1)
    428c:	2a0003e2 	mov	w2, w0
    4290:	528067c1 	mov	w1, #0x33e                 	// #830
    4294:	17fffff6 	b	426c <TEE_BigIntConvertFromFMM+0x50>
/home/thesis/Desktop/optee_rpi3bplus/optee_os/lib/libutee/tee_api_arith_mpi.c:831
    4298:	aa1303e0 	mov	x0, x19
    429c:	9400021e 	bl	4b14 <mbedtls_mpi_free>
/home/thesis/Desktop/optee_rpi3bplus/optee_os/lib/libutee/tee_api_arith_mpi.c:832
    42a0:	aa1403e0 	mov	x0, x20
    42a4:	9400021c 	bl	4b14 <mbedtls_mpi_free>
/home/thesis/Desktop/optee_rpi3bplus/optee_os/lib/libutee/tee_api_arith_mpi.c:833
    42a8:	a94153f3 	ldp	x19, x20, [sp, #16]
    42ac:	a9425bf5 	ldp	x21, x22, [sp, #32]
    42b0:	a8c67bfd 	ldp	x29, x30, [sp], #96
    42b4:	d65f03c0 	ret

00000000000042b8 <TEE_BigIntComputeFMM>:
TEE_BigIntComputeFMM():
/home/thesis/Desktop/optee_rpi3bplus/optee_os/lib/libutee/tee_api_arith_mpi.c:838
    42b8:	a9b37bfd 	stp	x29, x30, [sp, #-208]!
    42bc:	910003fd 	mov	x29, sp
    42c0:	a90153f3 	stp	x19, x20, [sp, #16]
/home/thesis/Desktop/optee_rpi3bplus/optee_os/lib/libutee/tee_api_arith_mpi.c:845
    42c4:	910163f3 	add	x19, sp, #0x58
/home/thesis/Desktop/optee_rpi3bplus/optee_os/lib/libutee/tee_api_arith_mpi.c:838
    42c8:	aa0103f4 	mov	x20, x1
/home/thesis/Desktop/optee_rpi3bplus/optee_os/lib/libutee/tee_api_arith_mpi.c:845
    42cc:	aa0003e1 	mov	x1, x0
/home/thesis/Desktop/optee_rpi3bplus/optee_os/lib/libutee/tee_api_arith_mpi.c:838
    42d0:	a9025bf5 	stp	x21, x22, [sp, #32]
/home/thesis/Desktop/optee_rpi3bplus/optee_os/lib/libutee/tee_api_arith_mpi.c:846
    42d4:	9101c3f5 	add	x21, sp, #0x70
/home/thesis/Desktop/optee_rpi3bplus/optee_os/lib/libutee/tee_api_arith_mpi.c:838
    42d8:	a90363f7 	stp	x23, x24, [sp, #48]
    42dc:	aa0003f8 	mov	x24, x0
/home/thesis/Desktop/optee_rpi3bplus/optee_os/lib/libutee/tee_api_arith_mpi.c:845
    42e0:	aa1303e0 	mov	x0, x19
/home/thesis/Desktop/optee_rpi3bplus/optee_os/lib/libutee/tee_api_arith_mpi.c:838
    42e4:	a9040be3 	stp	x3, x2, [sp, #64]
/home/thesis/Desktop/optee_rpi3bplus/optee_os/lib/libutee/tee_api_arith_mpi.c:845
    42e8:	97fffa01 	bl	2aec <get_mpi>
/home/thesis/Desktop/optee_rpi3bplus/optee_os/lib/libutee/tee_api_arith_mpi.c:846
    42ec:	aa1403e1 	mov	x1, x20
    42f0:	aa1503e0 	mov	x0, x21
    42f4:	97fff9fe 	bl	2aec <get_mpi>
/home/thesis/Desktop/optee_rpi3bplus/optee_os/lib/libutee/tee_api_arith_mpi.c:847
    42f8:	f94027e2 	ldr	x2, [sp, #72]
    42fc:	910223f6 	add	x22, sp, #0x88
    4300:	aa1603e0 	mov	x0, x22
/home/thesis/Desktop/optee_rpi3bplus/optee_os/lib/libutee/tee_api_arith_mpi.c:848
    4304:	910283f7 	add	x23, sp, #0xa0
/home/thesis/Desktop/optee_rpi3bplus/optee_os/lib/libutee/tee_api_arith_mpi.c:847
    4308:	aa0203e1 	mov	x1, x2
get_mpi():
/home/thesis/Desktop/optee_rpi3bplus/optee_os/lib/libutee/tee_api_arith_mpi.c:101
    430c:	9102e3f4 	add	x20, sp, #0xb8
TEE_BigIntComputeFMM():
/home/thesis/Desktop/optee_rpi3bplus/optee_os/lib/libutee/tee_api_arith_mpi.c:847
    4310:	97fff9f7 	bl	2aec <get_mpi>
/home/thesis/Desktop/optee_rpi3bplus/optee_os/lib/libutee/tee_api_arith_mpi.c:848
    4314:	f94023e3 	ldr	x3, [sp, #64]
    4318:	aa1703e0 	mov	x0, x23
    431c:	aa0303e1 	mov	x1, x3
    4320:	97fff9f3 	bl	2aec <get_mpi>
get_mpi():
/home/thesis/Desktop/optee_rpi3bplus/optee_os/lib/libutee/tee_api_arith_mpi.c:101
    4324:	aa1403e0 	mov	x0, x20
    4328:	940001f1 	bl	4aec <mbedtls_mpi_init_mempool>
TEE_BigIntComputeFMM():
/home/thesis/Desktop/optee_rpi3bplus/optee_os/lib/libutee/tee_api_arith_mpi.c:851
    432c:	aa1603e2 	mov	x2, x22
    4330:	aa1503e1 	mov	x1, x21
    4334:	aa1403e0 	mov	x0, x20
    4338:	940005e4 	bl	5ac8 <mbedtls_mpi_mul_mpi>
    433c:	340000e0 	cbz	w0, 4358 <TEE_BigIntComputeFMM+0xa0>
/home/thesis/Desktop/optee_rpi3bplus/optee_os/lib/libutee/tee_api_arith_mpi.c:851 (discriminator 1)
    4340:	2a0003e2 	mov	w2, w0
    4344:	52806a61 	mov	w1, #0x353                 	// #851
/home/thesis/Desktop/optee_rpi3bplus/optee_os/lib/libutee/tee_api_arith_mpi.c:852 (discriminator 1)
    4348:	b0000040 	adrp	x0, d000 <primes+0x378>
    434c:	91231000 	add	x0, x0, #0x8c4
    4350:	9104a000 	add	x0, x0, #0x128
    4354:	97fff9da 	bl	2abc <mpi_panic>
/home/thesis/Desktop/optee_rpi3bplus/optee_os/lib/libutee/tee_api_arith_mpi.c:852
    4358:	aa1703e2 	mov	x2, x23
    435c:	aa1403e1 	mov	x1, x20
    4360:	aa1303e0 	mov	x0, x19
    4364:	9400080e 	bl	639c <mbedtls_mpi_mod_mpi>
    4368:	34000080 	cbz	w0, 4378 <TEE_BigIntComputeFMM+0xc0>
/home/thesis/Desktop/optee_rpi3bplus/optee_os/lib/libutee/tee_api_arith_mpi.c:852 (discriminator 1)
    436c:	2a0003e2 	mov	w2, w0
    4370:	52806a81 	mov	w1, #0x354                 	// #852
    4374:	17fffff5 	b	4348 <TEE_BigIntComputeFMM+0x90>
/home/thesis/Desktop/optee_rpi3bplus/optee_os/lib/libutee/tee_api_arith_mpi.c:854
    4378:	aa1403e0 	mov	x0, x20
    437c:	940001e6 	bl	4b14 <mbedtls_mpi_free>
/home/thesis/Desktop/optee_rpi3bplus/optee_os/lib/libutee/tee_api_arith_mpi.c:855
    4380:	aa1703e0 	mov	x0, x23
    4384:	940001e4 	bl	4b14 <mbedtls_mpi_free>
/home/thesis/Desktop/optee_rpi3bplus/optee_os/lib/libutee/tee_api_arith_mpi.c:856
    4388:	aa1603e0 	mov	x0, x22
    438c:	940001e2 	bl	4b14 <mbedtls_mpi_free>
/home/thesis/Desktop/optee_rpi3bplus/optee_os/lib/libutee/tee_api_arith_mpi.c:857
    4390:	aa1503e0 	mov	x0, x21
    4394:	940001e0 	bl	4b14 <mbedtls_mpi_free>
/home/thesis/Desktop/optee_rpi3bplus/optee_os/lib/libutee/tee_api_arith_mpi.c:858
    4398:	aa1803e1 	mov	x1, x24
    439c:	aa1303e0 	mov	x0, x19
    43a0:	97fff9f9 	bl	2b84 <copy_mpi_to_bigint>
    43a4:	34000080 	cbz	w0, 43b4 <TEE_BigIntComputeFMM+0xfc>
/home/thesis/Desktop/optee_rpi3bplus/optee_os/lib/libutee/tee_api_arith_mpi.c:858 (discriminator 1)
    43a8:	2a0003e2 	mov	w2, w0
    43ac:	52806b41 	mov	w1, #0x35a                 	// #858
    43b0:	17ffffe6 	b	4348 <TEE_BigIntComputeFMM+0x90>
/home/thesis/Desktop/optee_rpi3bplus/optee_os/lib/libutee/tee_api_arith_mpi.c:859
    43b4:	aa1303e0 	mov	x0, x19
    43b8:	940001d7 	bl	4b14 <mbedtls_mpi_free>
/home/thesis/Desktop/optee_rpi3bplus/optee_os/lib/libutee/tee_api_arith_mpi.c:860
    43bc:	a94153f3 	ldp	x19, x20, [sp, #16]
    43c0:	a9425bf5 	ldp	x21, x22, [sp, #32]
    43c4:	a94363f7 	ldp	x23, x24, [sp, #48]
    43c8:	a8cd7bfd 	ldp	x29, x30, [sp], #208
    43cc:	d65f03c0 	ret

00000000000043d0 <trace_ext_puts>:
trace_ext_puts():
/home/thesis/Desktop/optee_rpi3bplus/optee_os/lib/libutee/trace_ext.c:17
    43d0:	a9be7bfd 	stp	x29, x30, [sp, #-32]!
    43d4:	910003fd 	mov	x29, sp
    43d8:	f9000bf3 	str	x19, [sp, #16]
    43dc:	aa0003f3 	mov	x19, x0
/home/thesis/Desktop/optee_rpi3bplus/optee_os/lib/libutee/trace_ext.c:18
    43e0:	97fff3b5 	bl	12b4 <strlen>
    43e4:	aa0003e1 	mov	x1, x0
    43e8:	aa1303e0 	mov	x0, x19
/home/thesis/Desktop/optee_rpi3bplus/optee_os/lib/libutee/trace_ext.c:19
    43ec:	f9400bf3 	ldr	x19, [sp, #16]
    43f0:	a8c27bfd 	ldp	x29, x30, [sp], #32
/home/thesis/Desktop/optee_rpi3bplus/optee_os/lib/libutee/trace_ext.c:18
    43f4:	17fff7c9 	b	2318 <utee_log>

00000000000043f8 <trace_ext_get_thread_id>:
trace_ext_get_thread_id():
/home/thesis/Desktop/optee_rpi3bplus/optee_os/lib/libutee/trace_ext.c:24
    43f8:	12800000 	mov	w0, #0xffffffff            	// #-1
    43fc:	d65f03c0 	ret

0000000000004400 <printf>:
printf():
/home/thesis/Desktop/optee_rpi3bplus/optee_os/lib/libutee/trace_ext.c:32
    4400:	d10883ff 	sub	sp, sp, #0x220
    4404:	a9007bfd 	stp	x29, x30, [sp]
    4408:	910003fd 	mov	x29, sp
    440c:	a90153f3 	stp	x19, x20, [sp, #16]
    4410:	aa0003f3 	mov	x19, x0
    4414:	3d805be0 	str	q0, [sp, #352]
    4418:	3d805fe1 	str	q1, [sp, #368]
    441c:	3d8063e2 	str	q2, [sp, #384]
    4420:	3d8067e3 	str	q3, [sp, #400]
    4424:	3d806be4 	str	q4, [sp, #416]
    4428:	3d806fe5 	str	q5, [sp, #432]
    442c:	3d8073e6 	str	q6, [sp, #448]
    4430:	3d8077e7 	str	q7, [sp, #464]
    4434:	a91e8be1 	stp	x1, x2, [sp, #488]
    4438:	a91f93e3 	stp	x3, x4, [sp, #504]
    443c:	f90107e5 	str	x5, [sp, #520]
    4440:	f9010be6 	str	x6, [sp, #528]
    4444:	f9010fe7 	str	x7, [sp, #536]
/home/thesis/Desktop/optee_rpi3bplus/optee_os/lib/libutee/trace_ext.c:37
    4448:	940016cd 	bl	9f7c <trace_get_level>
    444c:	7100001f 	cmp	w0, #0x0
    4450:	5400038d 	b.le	44c0 <printf+0xc0>
/home/thesis/Desktop/optee_rpi3bplus/optee_os/lib/libutee/trace_ext.c:40
    4454:	910883e0 	add	x0, sp, #0x220
    4458:	a90403e0 	stp	x0, x0, [sp, #64]
    445c:	910783e0 	add	x0, sp, #0x1e0
    4460:	f9002be0 	str	x0, [sp, #80]
    4464:	128006e0 	mov	w0, #0xffffffc8            	// #-56
    4468:	b9005be0 	str	w0, [sp, #88]
    446c:	12800fe0 	mov	w0, #0xffffff80            	// #-128
    4470:	b9005fe0 	str	w0, [sp, #92]
/home/thesis/Desktop/optee_rpi3bplus/optee_os/lib/libutee/trace_ext.c:41
    4474:	910183f4 	add	x20, sp, #0x60
    4478:	a94407e0 	ldp	x0, x1, [sp, #64]
    447c:	a90207e0 	stp	x0, x1, [sp, #32]
    4480:	aa1303e2 	mov	x2, x19
    4484:	a94507e0 	ldp	x0, x1, [sp, #80]
    4488:	910083e3 	add	x3, sp, #0x20
    448c:	a90307e0 	stp	x0, x1, [sp, #48]
    4490:	aa1403e0 	mov	x0, x20
    4494:	d2802001 	mov	x1, #0x100                 	// #256
    4498:	9400132d 	bl	914c <vsnprintf>
    449c:	2a0003f3 	mov	w19, w0
/home/thesis/Desktop/optee_rpi3bplus/optee_os/lib/libutee/trace_ext.c:44
    44a0:	37f80060 	tbnz	w0, #31, 44ac <printf+0xac>
/home/thesis/Desktop/optee_rpi3bplus/optee_os/lib/libutee/trace_ext.c:47
    44a4:	aa1403e0 	mov	x0, x20
    44a8:	97ffffca 	bl	43d0 <trace_ext_puts>
/home/thesis/Desktop/optee_rpi3bplus/optee_os/lib/libutee/trace_ext.c:50
    44ac:	2a1303e0 	mov	w0, w19
    44b0:	a9407bfd 	ldp	x29, x30, [sp]
    44b4:	a94153f3 	ldp	x19, x20, [sp, #16]
    44b8:	910883ff 	add	sp, sp, #0x220
    44bc:	d65f03c0 	ret
/home/thesis/Desktop/optee_rpi3bplus/optee_os/lib/libutee/trace_ext.c:38
    44c0:	52800013 	mov	w19, #0x0                   	// #0
    44c4:	17fffffa 	b	44ac <printf+0xac>

00000000000044c8 <puts>:
puts():
/home/thesis/Desktop/optee_rpi3bplus/optee_os/lib/libutee/trace_ext.c:53
    44c8:	a9be7bfd 	stp	x29, x30, [sp, #-32]!
    44cc:	910003fd 	mov	x29, sp
    44d0:	f9000bf3 	str	x19, [sp, #16]
    44d4:	aa0003f3 	mov	x19, x0
/home/thesis/Desktop/optee_rpi3bplus/optee_os/lib/libutee/trace_ext.c:54
    44d8:	940016a9 	bl	9f7c <trace_get_level>
    44dc:	7100001f 	cmp	w0, #0x0
    44e0:	540000cd 	b.le	44f8 <puts+0x30>
/home/thesis/Desktop/optee_rpi3bplus/optee_os/lib/libutee/trace_ext.c:55
    44e4:	aa1303e0 	mov	x0, x19
    44e8:	97ffffba 	bl	43d0 <trace_ext_puts>
/home/thesis/Desktop/optee_rpi3bplus/optee_os/lib/libutee/trace_ext.c:56
    44ec:	b0000040 	adrp	x0, d000 <primes+0x378>
    44f0:	913c4c00 	add	x0, x0, #0xf13
    44f4:	97ffffb7 	bl	43d0 <trace_ext_puts>
/home/thesis/Desktop/optee_rpi3bplus/optee_os/lib/libutee/trace_ext.c:59
    44f8:	52800020 	mov	w0, #0x1                   	// #1
    44fc:	f9400bf3 	ldr	x19, [sp, #16]
    4500:	a8c27bfd 	ldp	x29, x30, [sp], #32
    4504:	d65f03c0 	ret

0000000000004508 <putchar>:
putchar():
/home/thesis/Desktop/optee_rpi3bplus/optee_os/lib/libutee/trace_ext.c:62
    4508:	a9bd7bfd 	stp	x29, x30, [sp, #-48]!
    450c:	910003fd 	mov	x29, sp
    4510:	f9000bf3 	str	x19, [sp, #16]
    4514:	2a0003f3 	mov	w19, w0
/home/thesis/Desktop/optee_rpi3bplus/optee_os/lib/libutee/trace_ext.c:63
    4518:	3900a3e0 	strb	w0, [sp, #40]
    451c:	3900a7ff 	strb	wzr, [sp, #41]
/home/thesis/Desktop/optee_rpi3bplus/optee_os/lib/libutee/trace_ext.c:65
    4520:	94001697 	bl	9f7c <trace_get_level>
    4524:	7100001f 	cmp	w0, #0x0
    4528:	5400006d 	b.le	4534 <putchar+0x2c>
/home/thesis/Desktop/optee_rpi3bplus/optee_os/lib/libutee/trace_ext.c:66
    452c:	9100a3e0 	add	x0, sp, #0x28
    4530:	97ffffa8 	bl	43d0 <trace_ext_puts>
/home/thesis/Desktop/optee_rpi3bplus/optee_os/lib/libutee/trace_ext.c:73
    4534:	12001e60 	and	w0, w19, #0xff
    4538:	f9400bf3 	ldr	x19, [sp, #16]
    453c:	a8c37bfd 	ldp	x29, x30, [sp], #48
    4540:	d65f03c0 	ret

0000000000004544 <mpi_get_digit>:
mpi_get_digit():
/home/thesis/Desktop/optee_rpi3bplus/optee_os/lib/libmbedtls/mbedtls/library/bignum.c:489
    4544:	12001c42 	and	w2, w2, #0xff
/home/thesis/Desktop/optee_rpi3bplus/optee_os/lib/libmbedtls/mbedtls/library/bignum.c:492
    4548:	5100c043 	sub	w3, w2, #0x30
    454c:	12001c64 	and	w4, w3, #0xff
    4550:	7100249f 	cmp	w4, #0x9
    4554:	540000e8 	b.hi	4570 <mpi_get_digit+0x2c>  // b.pmore
/home/thesis/Desktop/optee_rpi3bplus/optee_os/lib/libmbedtls/mbedtls/library/bignum.c:492 (discriminator 1)
    4558:	b9000003 	str	w3, [x0]
/home/thesis/Desktop/optee_rpi3bplus/optee_os/lib/libmbedtls/mbedtls/library/bignum.c:496
    455c:	b9400000 	ldr	w0, [x0]
/home/thesis/Desktop/optee_rpi3bplus/optee_os/lib/libmbedtls/mbedtls/library/bignum.c:497
    4560:	6b01001f 	cmp	w0, w1
/home/thesis/Desktop/optee_rpi3bplus/optee_os/lib/libmbedtls/mbedtls/library/bignum.c:500
    4564:	128000a0 	mov	w0, #0xfffffffa            	// #-6
    4568:	1a9f2000 	csel	w0, w0, wzr, cs  // cs = hs, nlast
    456c:	d65f03c0 	ret
/home/thesis/Desktop/optee_rpi3bplus/optee_os/lib/libmbedtls/mbedtls/library/bignum.c:493
    4570:	51010443 	sub	w3, w2, #0x41
    4574:	12001c63 	and	w3, w3, #0xff
    4578:	7100147f 	cmp	w3, #0x5
    457c:	54000088 	b.hi	458c <mpi_get_digit+0x48>  // b.pmore
/home/thesis/Desktop/optee_rpi3bplus/optee_os/lib/libmbedtls/mbedtls/library/bignum.c:493 (discriminator 1)
    4580:	5100dc42 	sub	w2, w2, #0x37
/home/thesis/Desktop/optee_rpi3bplus/optee_os/lib/libmbedtls/mbedtls/library/bignum.c:494
    4584:	b9000002 	str	w2, [x0]
    4588:	17fffff5 	b	455c <mpi_get_digit+0x18>
    458c:	51018443 	sub	w3, w2, #0x61
    4590:	51015c42 	sub	w2, w2, #0x57
    4594:	12001c63 	and	w3, w3, #0xff
    4598:	7100187f 	cmp	w3, #0x6
    459c:	52801fe3 	mov	w3, #0xff                  	// #255
    45a0:	1a833042 	csel	w2, w2, w3, cc  // cc = lo, ul, last
    45a4:	17fffff8 	b	4584 <mpi_get_digit+0x40>

00000000000045a8 <mpi_sub_hlp>:
mpi_sub_hlp():
/home/thesis/Desktop/optee_rpi3bplus/optee_os/lib/libmbedtls/mbedtls/library/bignum.c:1089
    45a8:	52800005 	mov	w5, #0x0                   	// #0
    45ac:	d2800003 	mov	x3, #0x0                   	// #0
/home/thesis/Desktop/optee_rpi3bplus/optee_os/lib/libmbedtls/mbedtls/library/bignum.c:1089 (discriminator 1)
    45b0:	eb00007f 	cmp	x3, x0
    45b4:	54000081 	b.ne	45c4 <mpi_sub_hlp+0x1c>  // b.any
    45b8:	8b030843 	add	x3, x2, x3, lsl #2
/home/thesis/Desktop/optee_rpi3bplus/optee_os/lib/libmbedtls/mbedtls/library/bignum.c:1095
    45bc:	350001c5 	cbnz	w5, 45f4 <mpi_sub_hlp+0x4c>
/home/thesis/Desktop/optee_rpi3bplus/optee_os/lib/libmbedtls/mbedtls/library/bignum.c:1100
    45c0:	d65f03c0 	ret
/home/thesis/Desktop/optee_rpi3bplus/optee_os/lib/libmbedtls/mbedtls/library/bignum.c:1091 (discriminator 3)
    45c4:	b8637844 	ldr	w4, [x2, x3, lsl #2]
    45c8:	6b05009f 	cmp	w4, w5
    45cc:	4b050084 	sub	w4, w4, w5
    45d0:	b8237844 	str	w4, [x2, x3, lsl #2]
    45d4:	1a9f27e7 	cset	w7, cc  // cc = lo, ul, last
/home/thesis/Desktop/optee_rpi3bplus/optee_os/lib/libmbedtls/mbedtls/library/bignum.c:1092 (discriminator 3)
    45d8:	b8637826 	ldr	w6, [x1, x3, lsl #2]
    45dc:	6b06009f 	cmp	w4, w6
    45e0:	4b060084 	sub	w4, w4, w6
    45e4:	1a8724e5 	cinc	w5, w7, cc  // cc = lo, ul, last
    45e8:	b8237844 	str	w4, [x2, x3, lsl #2]
/home/thesis/Desktop/optee_rpi3bplus/optee_os/lib/libmbedtls/mbedtls/library/bignum.c:1089 (discriminator 3)
    45ec:	91000463 	add	x3, x3, #0x1
    45f0:	17fffff0 	b	45b0 <mpi_sub_hlp+0x8>
/home/thesis/Desktop/optee_rpi3bplus/optee_os/lib/libmbedtls/mbedtls/library/bignum.c:1097
    45f4:	b9400060 	ldr	w0, [x3]
    45f8:	6b050005 	subs	w5, w0, w5
    45fc:	b8004465 	str	w5, [x3], #4
/home/thesis/Desktop/optee_rpi3bplus/optee_os/lib/libmbedtls/mbedtls/library/bignum.c:1098
    4600:	1a9f27e5 	cset	w5, cc  // cc = lo, ul, last
    4604:	17ffffee 	b	45bc <mpi_sub_hlp+0x14>

0000000000004608 <mpi_mul_hlp>:
mpi_mul_hlp():
/home/thesis/Desktop/optee_rpi3bplus/optee_os/lib/libmbedtls/mbedtls/library/bignum.c:1284
    4608:	aa0203e4 	mov	x4, x2
    460c:	aa0103e6 	mov	x6, x1
    4610:	aa0003e8 	mov	x8, x0
/home/thesis/Desktop/optee_rpi3bplus/optee_os/lib/libmbedtls/mbedtls/library/bignum.c:1267
    4614:	52800005 	mov	w5, #0x0                   	// #0
/home/thesis/Desktop/optee_rpi3bplus/optee_os/lib/libmbedtls/mbedtls/library/bignum.c:1284 (discriminator 1)
    4618:	f1003d1f 	cmp	x8, #0xf
    461c:	b940008a 	ldr	w10, [x4]
    4620:	54000dc8 	b.hi	47d8 <mpi_mul_hlp+0x1d0>  // b.pmore
    4624:	d344fc07 	lsr	x7, x0, #4
    4628:	928001e4 	mov	x4, #0xfffffffffffffff0    	// #-16
    462c:	9b0400e0 	madd	x0, x7, x4, x0
    4630:	d37ae4e7 	lsl	x7, x7, #6
    4634:	8b070026 	add	x6, x1, x7
    4638:	8b070044 	add	x4, x2, x7
/home/thesis/Desktop/optee_rpi3bplus/optee_os/lib/libmbedtls/mbedtls/library/bignum.c:1299
    463c:	f1001c1f 	cmp	x0, #0x7
    4640:	54000b69 	b.ls	47ac <mpi_mul_hlp+0x1a4>  // b.plast
/home/thesis/Desktop/optee_rpi3bplus/optee_os/lib/libmbedtls/mbedtls/library/bignum.c:1302
    4644:	b8676821 	ldr	w1, [x1, x7]
/home/thesis/Desktop/optee_rpi3bplus/optee_os/lib/libmbedtls/mbedtls/library/bignum.c:1299
    4648:	d1002000 	sub	x0, x0, #0x8
/home/thesis/Desktop/optee_rpi3bplus/optee_os/lib/libmbedtls/mbedtls/library/bignum.c:1306
    464c:	910080c6 	add	x6, x6, #0x20
    4650:	91008084 	add	x4, x4, #0x20
/home/thesis/Desktop/optee_rpi3bplus/optee_os/lib/libmbedtls/mbedtls/library/bignum.c:1302
    4654:	9ba17c61 	umull	x1, w3, w1
    4658:	d360fc28 	lsr	x8, x1, #32
    465c:	0b0100a1 	add	w1, w5, w1
    4660:	6b0100bf 	cmp	w5, w1
    4664:	0b010141 	add	w1, w10, w1
    4668:	b8276841 	str	w1, [x2, x7]
    466c:	1a889508 	cinc	w8, w8, hi  // hi = pmore
    4670:	6b01015f 	cmp	w10, w1
    4674:	b85e40c1 	ldur	w1, [x6, #-28]
    4678:	1a889508 	cinc	w8, w8, hi  // hi = pmore
    467c:	b85e4082 	ldur	w2, [x4, #-28]
    4680:	9ba17c61 	umull	x1, w3, w1
    4684:	d360fc25 	lsr	x5, x1, #32
    4688:	0b010101 	add	w1, w8, w1
    468c:	6b01011f 	cmp	w8, w1
    4690:	0b020021 	add	w1, w1, w2
    4694:	b81e4081 	stur	w1, [x4, #-28]
    4698:	1a8594a5 	cinc	w5, w5, hi  // hi = pmore
    469c:	6b01005f 	cmp	w2, w1
/home/thesis/Desktop/optee_rpi3bplus/optee_os/lib/libmbedtls/mbedtls/library/bignum.c:1303
    46a0:	b85e80c1 	ldur	w1, [x6, #-24]
/home/thesis/Desktop/optee_rpi3bplus/optee_os/lib/libmbedtls/mbedtls/library/bignum.c:1302
    46a4:	1a8594a5 	cinc	w5, w5, hi  // hi = pmore
/home/thesis/Desktop/optee_rpi3bplus/optee_os/lib/libmbedtls/mbedtls/library/bignum.c:1303
    46a8:	9ba17c61 	umull	x1, w3, w1
    46ac:	d360fc22 	lsr	x2, x1, #32
    46b0:	0b0100a1 	add	w1, w5, w1
    46b4:	6b0100bf 	cmp	w5, w1
    46b8:	b85e8085 	ldur	w5, [x4, #-24]
    46bc:	1a829442 	cinc	w2, w2, hi  // hi = pmore
    46c0:	0b050021 	add	w1, w1, w5
    46c4:	b81e8081 	stur	w1, [x4, #-24]
    46c8:	6b0100bf 	cmp	w5, w1
    46cc:	b85ec0c1 	ldur	w1, [x6, #-20]
    46d0:	1a829442 	cinc	w2, w2, hi  // hi = pmore
    46d4:	9ba17c61 	umull	x1, w3, w1
    46d8:	d360fc25 	lsr	x5, x1, #32
    46dc:	0b010041 	add	w1, w2, w1
    46e0:	6b01005f 	cmp	w2, w1
    46e4:	b85ec082 	ldur	w2, [x4, #-20]
    46e8:	1a8594a5 	cinc	w5, w5, hi  // hi = pmore
    46ec:	0b020021 	add	w1, w1, w2
    46f0:	b81ec081 	stur	w1, [x4, #-20]
    46f4:	6b01005f 	cmp	w2, w1
/home/thesis/Desktop/optee_rpi3bplus/optee_os/lib/libmbedtls/mbedtls/library/bignum.c:1305
    46f8:	b85f00c1 	ldur	w1, [x6, #-16]
/home/thesis/Desktop/optee_rpi3bplus/optee_os/lib/libmbedtls/mbedtls/library/bignum.c:1303
    46fc:	1a8594a5 	cinc	w5, w5, hi  // hi = pmore
/home/thesis/Desktop/optee_rpi3bplus/optee_os/lib/libmbedtls/mbedtls/library/bignum.c:1305
    4700:	9ba17c61 	umull	x1, w3, w1
    4704:	d360fc22 	lsr	x2, x1, #32
    4708:	0b0100a1 	add	w1, w5, w1
    470c:	6b0100bf 	cmp	w5, w1
    4710:	b85f0085 	ldur	w5, [x4, #-16]
    4714:	1a829442 	cinc	w2, w2, hi  // hi = pmore
    4718:	0b050021 	add	w1, w1, w5
    471c:	b81f0081 	stur	w1, [x4, #-16]
    4720:	6b0100bf 	cmp	w5, w1
    4724:	b85f40c1 	ldur	w1, [x6, #-12]
    4728:	1a829442 	cinc	w2, w2, hi  // hi = pmore
    472c:	9ba17c61 	umull	x1, w3, w1
    4730:	d360fc25 	lsr	x5, x1, #32
    4734:	0b010041 	add	w1, w2, w1
    4738:	6b01005f 	cmp	w2, w1
    473c:	b85f4082 	ldur	w2, [x4, #-12]
    4740:	1a8594a5 	cinc	w5, w5, hi  // hi = pmore
    4744:	0b020021 	add	w1, w1, w2
    4748:	b81f4081 	stur	w1, [x4, #-12]
    474c:	6b01005f 	cmp	w2, w1
/home/thesis/Desktop/optee_rpi3bplus/optee_os/lib/libmbedtls/mbedtls/library/bignum.c:1306
    4750:	b85f80c1 	ldur	w1, [x6, #-8]
/home/thesis/Desktop/optee_rpi3bplus/optee_os/lib/libmbedtls/mbedtls/library/bignum.c:1305
    4754:	1a8594a5 	cinc	w5, w5, hi  // hi = pmore
/home/thesis/Desktop/optee_rpi3bplus/optee_os/lib/libmbedtls/mbedtls/library/bignum.c:1306
    4758:	9ba17c61 	umull	x1, w3, w1
    475c:	d360fc22 	lsr	x2, x1, #32
    4760:	0b0100a1 	add	w1, w5, w1
    4764:	6b0100bf 	cmp	w5, w1
    4768:	b85f8085 	ldur	w5, [x4, #-8]
    476c:	1a829442 	cinc	w2, w2, hi  // hi = pmore
    4770:	0b050021 	add	w1, w1, w5
    4774:	b81f8081 	stur	w1, [x4, #-8]
    4778:	6b0100bf 	cmp	w5, w1
    477c:	b85fc0c1 	ldur	w1, [x6, #-4]
    4780:	1a829442 	cinc	w2, w2, hi  // hi = pmore
    4784:	9ba17c61 	umull	x1, w3, w1
    4788:	d360fc25 	lsr	x5, x1, #32
    478c:	0b010041 	add	w1, w2, w1
    4790:	6b01005f 	cmp	w2, w1
    4794:	b85fc082 	ldur	w2, [x4, #-4]
    4798:	1a8594a5 	cinc	w5, w5, hi  // hi = pmore
    479c:	0b020021 	add	w1, w1, w2
    47a0:	b81fc081 	stur	w1, [x4, #-4]
    47a4:	6b01005f 	cmp	w2, w1
    47a8:	1a8594a5 	cinc	w5, w5, hi  // hi = pmore
/home/thesis/Desktop/optee_rpi3bplus/optee_os/lib/libmbedtls/mbedtls/library/bignum.c:1306 (discriminator 1)
    47ac:	d2800001 	mov	x1, #0x0                   	// #0
    47b0:	b8617888 	ldr	w8, [x4, x1, lsl #2]
/home/thesis/Desktop/optee_rpi3bplus/optee_os/lib/libmbedtls/mbedtls/library/bignum.c:1310 (discriminator 1)
    47b4:	eb00003f 	cmp	x1, x0
    47b8:	54001761 	b.ne	4aa4 <mpi_mul_hlp+0x49c>  // b.any
    47bc:	8b010884 	add	x4, x4, x1, lsl #2
/home/thesis/Desktop/optee_rpi3bplus/optee_os/lib/libmbedtls/mbedtls/library/bignum.c:1321 (discriminator 1)
    47c0:	b9400080 	ldr	w0, [x4]
    47c4:	0b0000a0 	add	w0, w5, w0
    47c8:	b8004480 	str	w0, [x4], #4
/home/thesis/Desktop/optee_rpi3bplus/optee_os/lib/libmbedtls/mbedtls/library/bignum.c:1323 (discriminator 1)
    47cc:	6b05001f 	cmp	w0, w5
    47d0:	54001823 	b.cc	4ad4 <mpi_mul_hlp+0x4cc>  // b.lo, b.ul, b.last
/home/thesis/Desktop/optee_rpi3bplus/optee_os/lib/libmbedtls/mbedtls/library/bignum.c:1324
    47d4:	d65f03c0 	ret
/home/thesis/Desktop/optee_rpi3bplus/optee_os/lib/libmbedtls/mbedtls/library/bignum.c:1287 (discriminator 2)
    47d8:	b94000c7 	ldr	w7, [x6]
    47dc:	910100c6 	add	x6, x6, #0x40
    47e0:	91010084 	add	x4, x4, #0x40
/home/thesis/Desktop/optee_rpi3bplus/optee_os/lib/libmbedtls/mbedtls/library/bignum.c:1284 (discriminator 2)
    47e4:	d1004108 	sub	x8, x8, #0x10
/home/thesis/Desktop/optee_rpi3bplus/optee_os/lib/libmbedtls/mbedtls/library/bignum.c:1287 (discriminator 2)
    47e8:	9ba77c67 	umull	x7, w3, w7
    47ec:	d360fce9 	lsr	x9, x7, #32
    47f0:	0b0700a7 	add	w7, w5, w7
    47f4:	6b0700bf 	cmp	w5, w7
    47f8:	0b0a00e5 	add	w5, w7, w10
    47fc:	b81c0085 	stur	w5, [x4, #-64]
    4800:	1a899529 	cinc	w9, w9, hi  // hi = pmore
    4804:	6b0a00bf 	cmp	w5, w10
    4808:	b85c40c5 	ldur	w5, [x6, #-60]
    480c:	1a892529 	cinc	w9, w9, cc  // cc = lo, ul, last
    4810:	9ba57c65 	umull	x5, w3, w5
    4814:	d360fca7 	lsr	x7, x5, #32
    4818:	0b050125 	add	w5, w9, w5
    481c:	6b05013f 	cmp	w9, w5
    4820:	b85c4089 	ldur	w9, [x4, #-60]
    4824:	1a8794e7 	cinc	w7, w7, hi  // hi = pmore
    4828:	0b050125 	add	w5, w9, w5
    482c:	b81c4085 	stur	w5, [x4, #-60]
    4830:	6b05013f 	cmp	w9, w5
/home/thesis/Desktop/optee_rpi3bplus/optee_os/lib/libmbedtls/mbedtls/library/bignum.c:1288 (discriminator 2)
    4834:	b85c80c5 	ldur	w5, [x6, #-56]
/home/thesis/Desktop/optee_rpi3bplus/optee_os/lib/libmbedtls/mbedtls/library/bignum.c:1287 (discriminator 2)
    4838:	1a8794e7 	cinc	w7, w7, hi  // hi = pmore
/home/thesis/Desktop/optee_rpi3bplus/optee_os/lib/libmbedtls/mbedtls/library/bignum.c:1288 (discriminator 2)
    483c:	9ba57c65 	umull	x5, w3, w5
    4840:	d360fca9 	lsr	x9, x5, #32
    4844:	0b0500e5 	add	w5, w7, w5
    4848:	6b0500ff 	cmp	w7, w5
    484c:	b85c8087 	ldur	w7, [x4, #-56]
    4850:	1a899529 	cinc	w9, w9, hi  // hi = pmore
    4854:	0b0500e5 	add	w5, w7, w5
    4858:	b81c8085 	stur	w5, [x4, #-56]
    485c:	6b0500ff 	cmp	w7, w5
    4860:	b85cc0c5 	ldur	w5, [x6, #-52]
    4864:	1a899529 	cinc	w9, w9, hi  // hi = pmore
    4868:	9ba57c65 	umull	x5, w3, w5
    486c:	d360fca7 	lsr	x7, x5, #32
    4870:	0b050125 	add	w5, w9, w5
    4874:	6b05013f 	cmp	w9, w5
    4878:	b85cc089 	ldur	w9, [x4, #-52]
    487c:	1a8794e7 	cinc	w7, w7, hi  // hi = pmore
    4880:	0b050125 	add	w5, w9, w5
    4884:	b81cc085 	stur	w5, [x4, #-52]
    4888:	6b05013f 	cmp	w9, w5
/home/thesis/Desktop/optee_rpi3bplus/optee_os/lib/libmbedtls/mbedtls/library/bignum.c:1289 (discriminator 2)
    488c:	b85d00c5 	ldur	w5, [x6, #-48]
/home/thesis/Desktop/optee_rpi3bplus/optee_os/lib/libmbedtls/mbedtls/library/bignum.c:1288 (discriminator 2)
    4890:	1a8794e7 	cinc	w7, w7, hi  // hi = pmore
/home/thesis/Desktop/optee_rpi3bplus/optee_os/lib/libmbedtls/mbedtls/library/bignum.c:1289 (discriminator 2)
    4894:	9ba57c65 	umull	x5, w3, w5
    4898:	d360fca9 	lsr	x9, x5, #32
    489c:	0b0500e5 	add	w5, w7, w5
    48a0:	6b0500ff 	cmp	w7, w5
    48a4:	b85d0087 	ldur	w7, [x4, #-48]
    48a8:	1a899529 	cinc	w9, w9, hi  // hi = pmore
    48ac:	0b0500e5 	add	w5, w7, w5
    48b0:	b81d0085 	stur	w5, [x4, #-48]
    48b4:	6b0500ff 	cmp	w7, w5
    48b8:	b85d40c5 	ldur	w5, [x6, #-44]
    48bc:	1a899529 	cinc	w9, w9, hi  // hi = pmore
    48c0:	9ba57c65 	umull	x5, w3, w5
    48c4:	d360fca7 	lsr	x7, x5, #32
    48c8:	0b050125 	add	w5, w9, w5
    48cc:	6b05013f 	cmp	w9, w5
    48d0:	b85d4089 	ldur	w9, [x4, #-44]
    48d4:	1a8794e7 	cinc	w7, w7, hi  // hi = pmore
    48d8:	0b050125 	add	w5, w9, w5
    48dc:	b81d4085 	stur	w5, [x4, #-44]
    48e0:	6b05013f 	cmp	w9, w5
/home/thesis/Desktop/optee_rpi3bplus/optee_os/lib/libmbedtls/mbedtls/library/bignum.c:1290 (discriminator 2)
    48e4:	b85d80c5 	ldur	w5, [x6, #-40]
/home/thesis/Desktop/optee_rpi3bplus/optee_os/lib/libmbedtls/mbedtls/library/bignum.c:1289 (discriminator 2)
    48e8:	1a8794e7 	cinc	w7, w7, hi  // hi = pmore
/home/thesis/Desktop/optee_rpi3bplus/optee_os/lib/libmbedtls/mbedtls/library/bignum.c:1290 (discriminator 2)
    48ec:	9ba57c65 	umull	x5, w3, w5
    48f0:	d360fca9 	lsr	x9, x5, #32
    48f4:	0b0500e5 	add	w5, w7, w5
    48f8:	6b0500ff 	cmp	w7, w5
    48fc:	b85d8087 	ldur	w7, [x4, #-40]
    4900:	1a899529 	cinc	w9, w9, hi  // hi = pmore
    4904:	0b0500e5 	add	w5, w7, w5
    4908:	b81d8085 	stur	w5, [x4, #-40]
    490c:	6b0500ff 	cmp	w7, w5
    4910:	b85dc0c5 	ldur	w5, [x6, #-36]
    4914:	1a899529 	cinc	w9, w9, hi  // hi = pmore
    4918:	9ba57c65 	umull	x5, w3, w5
    491c:	d360fca7 	lsr	x7, x5, #32
    4920:	0b050125 	add	w5, w9, w5
    4924:	6b05013f 	cmp	w9, w5
    4928:	b85dc089 	ldur	w9, [x4, #-36]
    492c:	1a8794e7 	cinc	w7, w7, hi  // hi = pmore
    4930:	0b050125 	add	w5, w9, w5
    4934:	b81dc085 	stur	w5, [x4, #-36]
    4938:	6b05013f 	cmp	w9, w5
/home/thesis/Desktop/optee_rpi3bplus/optee_os/lib/libmbedtls/mbedtls/library/bignum.c:1292 (discriminator 2)
    493c:	b85e00c5 	ldur	w5, [x6, #-32]
/home/thesis/Desktop/optee_rpi3bplus/optee_os/lib/libmbedtls/mbedtls/library/bignum.c:1290 (discriminator 2)
    4940:	1a8794e7 	cinc	w7, w7, hi  // hi = pmore
/home/thesis/Desktop/optee_rpi3bplus/optee_os/lib/libmbedtls/mbedtls/library/bignum.c:1292 (discriminator 2)
    4944:	9ba57c65 	umull	x5, w3, w5
    4948:	d360fca9 	lsr	x9, x5, #32
    494c:	0b0500e5 	add	w5, w7, w5
    4950:	6b0500ff 	cmp	w7, w5
    4954:	b85e0087 	ldur	w7, [x4, #-32]
    4958:	1a899529 	cinc	w9, w9, hi  // hi = pmore
    495c:	0b0500e5 	add	w5, w7, w5
    4960:	b81e0085 	stur	w5, [x4, #-32]
    4964:	6b0500ff 	cmp	w7, w5
    4968:	b85e40c5 	ldur	w5, [x6, #-28]
    496c:	1a899529 	cinc	w9, w9, hi  // hi = pmore
    4970:	9ba57c65 	umull	x5, w3, w5
    4974:	d360fca7 	lsr	x7, x5, #32
    4978:	0b050125 	add	w5, w9, w5
    497c:	6b05013f 	cmp	w9, w5
    4980:	b85e4089 	ldur	w9, [x4, #-28]
    4984:	1a8794e7 	cinc	w7, w7, hi  // hi = pmore
    4988:	0b050125 	add	w5, w9, w5
    498c:	b81e4085 	stur	w5, [x4, #-28]
    4990:	6b05013f 	cmp	w9, w5
/home/thesis/Desktop/optee_rpi3bplus/optee_os/lib/libmbedtls/mbedtls/library/bignum.c:1293 (discriminator 2)
    4994:	b85e80c5 	ldur	w5, [x6, #-24]
/home/thesis/Desktop/optee_rpi3bplus/optee_os/lib/libmbedtls/mbedtls/library/bignum.c:1292 (discriminator 2)
    4998:	1a8794e7 	cinc	w7, w7, hi  // hi = pmore
/home/thesis/Desktop/optee_rpi3bplus/optee_os/lib/libmbedtls/mbedtls/library/bignum.c:1293 (discriminator 2)
    499c:	9ba57c65 	umull	x5, w3, w5
    49a0:	d360fca9 	lsr	x9, x5, #32
    49a4:	0b0500e5 	add	w5, w7, w5
    49a8:	6b0500ff 	cmp	w7, w5
    49ac:	b85e8087 	ldur	w7, [x4, #-24]
    49b0:	1a899529 	cinc	w9, w9, hi  // hi = pmore
    49b4:	0b0500e5 	add	w5, w7, w5
    49b8:	b81e8085 	stur	w5, [x4, #-24]
    49bc:	6b0500ff 	cmp	w7, w5
    49c0:	b85ec0c5 	ldur	w5, [x6, #-20]
    49c4:	1a899529 	cinc	w9, w9, hi  // hi = pmore
    49c8:	9ba57c65 	umull	x5, w3, w5
    49cc:	d360fca7 	lsr	x7, x5, #32
    49d0:	0b050125 	add	w5, w9, w5
    49d4:	6b05013f 	cmp	w9, w5
    49d8:	b85ec089 	ldur	w9, [x4, #-20]
    49dc:	1a8794e7 	cinc	w7, w7, hi  // hi = pmore
    49e0:	0b050125 	add	w5, w9, w5
    49e4:	b81ec085 	stur	w5, [x4, #-20]
    49e8:	6b05013f 	cmp	w9, w5
/home/thesis/Desktop/optee_rpi3bplus/optee_os/lib/libmbedtls/mbedtls/library/bignum.c:1294 (discriminator 2)
    49ec:	b85f00c5 	ldur	w5, [x6, #-16]
/home/thesis/Desktop/optee_rpi3bplus/optee_os/lib/libmbedtls/mbedtls/library/bignum.c:1293 (discriminator 2)
    49f0:	1a8794e7 	cinc	w7, w7, hi  // hi = pmore
/home/thesis/Desktop/optee_rpi3bplus/optee_os/lib/libmbedtls/mbedtls/library/bignum.c:1294 (discriminator 2)
    49f4:	9ba57c65 	umull	x5, w3, w5
    49f8:	d360fca9 	lsr	x9, x5, #32
    49fc:	0b0500e5 	add	w5, w7, w5
    4a00:	6b0500ff 	cmp	w7, w5
    4a04:	b85f0087 	ldur	w7, [x4, #-16]
    4a08:	1a899529 	cinc	w9, w9, hi  // hi = pmore
    4a0c:	0b0500e5 	add	w5, w7, w5
    4a10:	b81f0085 	stur	w5, [x4, #-16]
    4a14:	6b0500ff 	cmp	w7, w5
    4a18:	b85f40c5 	ldur	w5, [x6, #-12]
    4a1c:	1a899529 	cinc	w9, w9, hi  // hi = pmore
    4a20:	9ba57c65 	umull	x5, w3, w5
    4a24:	d360fca7 	lsr	x7, x5, #32
    4a28:	0b050125 	add	w5, w9, w5
    4a2c:	6b05013f 	cmp	w9, w5
    4a30:	b85f4089 	ldur	w9, [x4, #-12]
    4a34:	1a8794e7 	cinc	w7, w7, hi  // hi = pmore
    4a38:	0b050125 	add	w5, w9, w5
    4a3c:	b81f4085 	stur	w5, [x4, #-12]
    4a40:	6b05013f 	cmp	w9, w5
/home/thesis/Desktop/optee_rpi3bplus/optee_os/lib/libmbedtls/mbedtls/library/bignum.c:1295 (discriminator 2)
    4a44:	b85f80c5 	ldur	w5, [x6, #-8]
/home/thesis/Desktop/optee_rpi3bplus/optee_os/lib/libmbedtls/mbedtls/library/bignum.c:1294 (discriminator 2)
    4a48:	1a8794e7 	cinc	w7, w7, hi  // hi = pmore
/home/thesis/Desktop/optee_rpi3bplus/optee_os/lib/libmbedtls/mbedtls/library/bignum.c:1295 (discriminator 2)
    4a4c:	9ba57c65 	umull	x5, w3, w5
    4a50:	d360fca9 	lsr	x9, x5, #32
    4a54:	0b0500e5 	add	w5, w7, w5
    4a58:	6b0500ff 	cmp	w7, w5
    4a5c:	b85f8087 	ldur	w7, [x4, #-8]
    4a60:	1a899529 	cinc	w9, w9, hi  // hi = pmore
    4a64:	0b0500e5 	add	w5, w7, w5
    4a68:	b81f8085 	stur	w5, [x4, #-8]
    4a6c:	6b0500ff 	cmp	w7, w5
    4a70:	b85fc0c7 	ldur	w7, [x6, #-4]
    4a74:	1a899529 	cinc	w9, w9, hi  // hi = pmore
    4a78:	9ba77c67 	umull	x7, w3, w7
    4a7c:	d360fce5 	lsr	x5, x7, #32
    4a80:	0b070127 	add	w7, w9, w7
    4a84:	6b07013f 	cmp	w9, w7
    4a88:	b85fc089 	ldur	w9, [x4, #-4]
    4a8c:	1a8594a5 	cinc	w5, w5, hi  // hi = pmore
    4a90:	0b070127 	add	w7, w9, w7
    4a94:	b81fc087 	stur	w7, [x4, #-4]
    4a98:	6b07013f 	cmp	w9, w7
    4a9c:	1a8594a5 	cinc	w5, w5, hi  // hi = pmore
    4aa0:	17fffede 	b	4618 <mpi_mul_hlp+0x10>
/home/thesis/Desktop/optee_rpi3bplus/optee_os/lib/libmbedtls/mbedtls/library/bignum.c:1313 (discriminator 2)
    4aa4:	b86178c2 	ldr	w2, [x6, x1, lsl #2]
    4aa8:	9ba27c62 	umull	x2, w3, w2
    4aac:	d360fc47 	lsr	x7, x2, #32
    4ab0:	0b0200a2 	add	w2, w5, w2
    4ab4:	6b0200bf 	cmp	w5, w2
    4ab8:	0b020102 	add	w2, w8, w2
    4abc:	1a8794e5 	cinc	w5, w7, hi  // hi = pmore
    4ac0:	6b02011f 	cmp	w8, w2
    4ac4:	1a8594a5 	cinc	w5, w5, hi  // hi = pmore
    4ac8:	b8217882 	str	w2, [x4, x1, lsl #2]
    4acc:	91000421 	add	x1, x1, #0x1
    4ad0:	17ffff38 	b	47b0 <mpi_mul_hlp+0x1a8>
/home/thesis/Desktop/optee_rpi3bplus/optee_os/lib/libmbedtls/mbedtls/library/bignum.c:1321
    4ad4:	52800025 	mov	w5, #0x1                   	// #1
    4ad8:	17ffff3a 	b	47c0 <mpi_mul_hlp+0x1b8>

0000000000004adc <mbedtls_mpi_init>:
mpi_init():
/home/thesis/Desktop/optee_rpi3bplus/optee_os/lib/libmbedtls/mbedtls/library/bignum.c:98
    4adc:	52800021 	mov	w1, #0x1                   	// #1
    4ae0:	b9000001 	str	w1, [x0]
/home/thesis/Desktop/optee_rpi3bplus/optee_os/lib/libmbedtls/mbedtls/library/bignum.c:101
    4ae4:	a900fc1f 	stp	xzr, xzr, [x0, #8]
mbedtls_mpi_init():
/home/thesis/Desktop/optee_rpi3bplus/optee_os/lib/libmbedtls/mbedtls/library/bignum.c:107
    4ae8:	d65f03c0 	ret

0000000000004aec <mbedtls_mpi_init_mempool>:
mbedtls_mpi_init_mempool():
/home/thesis/Desktop/optee_rpi3bplus/optee_os/lib/libmbedtls/mbedtls/library/bignum.c:111
    4aec:	f0000041 	adrp	x1, f000 <.got>
mpi_init():
/home/thesis/Desktop/optee_rpi3bplus/optee_os/lib/libmbedtls/mbedtls/library/bignum.c:98
    4af0:	52800022 	mov	w2, #0x1                   	// #1
/home/thesis/Desktop/optee_rpi3bplus/optee_os/lib/libmbedtls/mbedtls/library/bignum.c:101
    4af4:	a900fc1f 	stp	xzr, xzr, [x0, #8]
mbedtls_mpi_init_mempool():
/home/thesis/Desktop/optee_rpi3bplus/optee_os/lib/libmbedtls/mbedtls/library/bignum.c:111
    4af8:	f9404021 	ldr	x1, [x1, #128]
    4afc:	f9400021 	ldr	x1, [x1]
mpi_init():
/home/thesis/Desktop/optee_rpi3bplus/optee_os/lib/libmbedtls/mbedtls/library/bignum.c:98
    4b00:	79000002 	strh	w2, [x0]
mbedtls_mpi_init_mempool():
/home/thesis/Desktop/optee_rpi3bplus/optee_os/lib/libmbedtls/mbedtls/library/bignum.c:111
    4b04:	f100003f 	cmp	x1, #0x0
    4b08:	1a9f07e1 	cset	w1, ne  // ne = any
mpi_init():
/home/thesis/Desktop/optee_rpi3bplus/optee_os/lib/libmbedtls/mbedtls/library/bignum.c:99
    4b0c:	79000401 	strh	w1, [x0, #2]
mbedtls_mpi_init_mempool():
/home/thesis/Desktop/optee_rpi3bplus/optee_os/lib/libmbedtls/mbedtls/library/bignum.c:112
    4b10:	d65f03c0 	ret

0000000000004b14 <mbedtls_mpi_free>:
mbedtls_mpi_free():
/home/thesis/Desktop/optee_rpi3bplus/optee_os/lib/libmbedtls/mbedtls/library/bignum.c:119
    4b14:	b4000340 	cbz	x0, 4b7c <mbedtls_mpi_free+0x68>
/home/thesis/Desktop/optee_rpi3bplus/optee_os/lib/libmbedtls/mbedtls/library/bignum.c:118
    4b18:	a9be7bfd 	stp	x29, x30, [sp, #-32]!
    4b1c:	910003fd 	mov	x29, sp
    4b20:	f9000bf3 	str	x19, [sp, #16]
    4b24:	aa0003f3 	mov	x19, x0
/home/thesis/Desktop/optee_rpi3bplus/optee_os/lib/libmbedtls/mbedtls/library/bignum.c:122
    4b28:	f9400800 	ldr	x0, [x0, #16]
    4b2c:	b4000160 	cbz	x0, 4b58 <mbedtls_mpi_free+0x44>
mbedtls_mpi_zeroize():
/home/thesis/Desktop/optee_rpi3bplus/optee_os/lib/libmbedtls/mbedtls/library/bignum.c:88
    4b30:	f9400661 	ldr	x1, [x19, #8]
    4b34:	d37ef421 	lsl	x1, x1, #2
    4b38:	94000d75 	bl	810c <mbedtls_platform_zeroize>
mbedtls_mpi_free():
/home/thesis/Desktop/optee_rpi3bplus/optee_os/lib/libmbedtls/mbedtls/library/bignum.c:125
    4b3c:	79c00660 	ldrsh	w0, [x19, #2]
    4b40:	34000180 	cbz	w0, 4b70 <mbedtls_mpi_free+0x5c>
/home/thesis/Desktop/optee_rpi3bplus/optee_os/lib/libmbedtls/mbedtls/library/bignum.c:126
    4b44:	f0000040 	adrp	x0, f000 <.got>
    4b48:	f9400a61 	ldr	x1, [x19, #16]
    4b4c:	f9404000 	ldr	x0, [x0, #128]
    4b50:	f9400000 	ldr	x0, [x0]
    4b54:	940015f6 	bl	a32c <mempool_free>
/home/thesis/Desktop/optee_rpi3bplus/optee_os/lib/libmbedtls/mbedtls/library/bignum.c:131
    4b58:	52800020 	mov	w0, #0x1                   	// #1
    4b5c:	79000260 	strh	w0, [x19]
/home/thesis/Desktop/optee_rpi3bplus/optee_os/lib/libmbedtls/mbedtls/library/bignum.c:133
    4b60:	a900fe7f 	stp	xzr, xzr, [x19, #8]
/home/thesis/Desktop/optee_rpi3bplus/optee_os/lib/libmbedtls/mbedtls/library/bignum.c:134
    4b64:	f9400bf3 	ldr	x19, [sp, #16]
    4b68:	a8c27bfd 	ldp	x29, x30, [sp], #32
    4b6c:	d65f03c0 	ret
/home/thesis/Desktop/optee_rpi3bplus/optee_os/lib/libmbedtls/mbedtls/library/bignum.c:128
    4b70:	f9400a60 	ldr	x0, [x19, #16]
    4b74:	97fff0f3 	bl	f40 <free>
    4b78:	17fffff8 	b	4b58 <mbedtls_mpi_free+0x44>
    4b7c:	d65f03c0 	ret

0000000000004b80 <mbedtls_mpi_grow>:
mbedtls_mpi_grow():
/home/thesis/Desktop/optee_rpi3bplus/optee_os/lib/libmbedtls/mbedtls/library/bignum.c:144
    4b80:	d284e202 	mov	x2, #0x2710                	// #10000
    4b84:	eb02003f 	cmp	x1, x2
    4b88:	54000069 	b.ls	4b94 <mbedtls_mpi_grow+0x14>  // b.plast
/home/thesis/Desktop/optee_rpi3bplus/optee_os/lib/libmbedtls/mbedtls/library/bignum.c:145
    4b8c:	128001e0 	mov	w0, #0xfffffff0            	// #-16
/home/thesis/Desktop/optee_rpi3bplus/optee_os/lib/libmbedtls/mbedtls/library/bignum.c:178
    4b90:	d65f03c0 	ret
/home/thesis/Desktop/optee_rpi3bplus/optee_os/lib/libmbedtls/mbedtls/library/bignum.c:147
    4b94:	f9400402 	ldr	x2, [x0, #8]
    4b98:	eb01005f 	cmp	x2, x1
    4b9c:	540006a2 	b.cs	4c70 <mbedtls_mpi_grow+0xf0>  // b.hs, b.nlast
/home/thesis/Desktop/optee_rpi3bplus/optee_os/lib/libmbedtls/mbedtls/library/bignum.c:140
    4ba0:	a9bc7bfd 	stp	x29, x30, [sp, #-64]!
    4ba4:	910003fd 	mov	x29, sp
    4ba8:	a90153f3 	stp	x19, x20, [sp, #16]
    4bac:	aa0003f3 	mov	x19, x0
/home/thesis/Desktop/optee_rpi3bplus/optee_os/lib/libmbedtls/mbedtls/library/bignum.c:149
    4bb0:	79c00400 	ldrsh	w0, [x0, #2]
/home/thesis/Desktop/optee_rpi3bplus/optee_os/lib/libmbedtls/mbedtls/library/bignum.c:140
    4bb4:	f90013f5 	str	x21, [sp, #32]
    4bb8:	aa0103f4 	mov	x20, x1
/home/thesis/Desktop/optee_rpi3bplus/optee_os/lib/libmbedtls/mbedtls/library/bignum.c:149
    4bbc:	34000400 	cbz	w0, 4c3c <mbedtls_mpi_grow+0xbc>
/home/thesis/Desktop/optee_rpi3bplus/optee_os/lib/libmbedtls/mbedtls/library/bignum.c:151
    4bc0:	f0000040 	adrp	x0, f000 <.got>
    4bc4:	d37ef422 	lsl	x2, x1, #2
    4bc8:	aa0203e1 	mov	x1, x2
    4bcc:	f9001fe2 	str	x2, [sp, #56]
    4bd0:	f9404000 	ldr	x0, [x0, #128]
    4bd4:	f9400000 	ldr	x0, [x0]
    4bd8:	94001596 	bl	a230 <mempool_alloc>
    4bdc:	aa0003f5 	mov	x21, x0
/home/thesis/Desktop/optee_rpi3bplus/optee_os/lib/libmbedtls/mbedtls/library/bignum.c:152
    4be0:	b4000380 	cbz	x0, 4c50 <mbedtls_mpi_grow+0xd0>
/home/thesis/Desktop/optee_rpi3bplus/optee_os/lib/libmbedtls/mbedtls/library/bignum.c:154
    4be4:	f9401fe2 	ldr	x2, [sp, #56]
    4be8:	52800001 	mov	w1, #0x0                   	// #0
    4bec:	97fff1ab 	bl	1298 <memset>
/home/thesis/Desktop/optee_rpi3bplus/optee_os/lib/libmbedtls/mbedtls/library/bignum.c:163
    4bf0:	f9400a61 	ldr	x1, [x19, #16]
    4bf4:	b40001e1 	cbz	x1, 4c30 <mbedtls_mpi_grow+0xb0>
/home/thesis/Desktop/optee_rpi3bplus/optee_os/lib/libmbedtls/mbedtls/library/bignum.c:165
    4bf8:	f9400662 	ldr	x2, [x19, #8]
    4bfc:	aa1503e0 	mov	x0, x21
    4c00:	d37ef442 	lsl	x2, x2, #2
    4c04:	97fff19d 	bl	1278 <memcpy>
mbedtls_mpi_zeroize():
/home/thesis/Desktop/optee_rpi3bplus/optee_os/lib/libmbedtls/mbedtls/library/bignum.c:88
    4c08:	a9408261 	ldp	x1, x0, [x19, #8]
    4c0c:	d37ef421 	lsl	x1, x1, #2
    4c10:	94000d3f 	bl	810c <mbedtls_platform_zeroize>
mbedtls_mpi_grow():
/home/thesis/Desktop/optee_rpi3bplus/optee_os/lib/libmbedtls/mbedtls/library/bignum.c:167
    4c14:	79c00660 	ldrsh	w0, [x19, #2]
    4c18:	34000260 	cbz	w0, 4c64 <mbedtls_mpi_grow+0xe4>
/home/thesis/Desktop/optee_rpi3bplus/optee_os/lib/libmbedtls/mbedtls/library/bignum.c:168
    4c1c:	f0000040 	adrp	x0, f000 <.got>
    4c20:	f9400a61 	ldr	x1, [x19, #16]
    4c24:	f9404000 	ldr	x0, [x0, #128]
    4c28:	f9400000 	ldr	x0, [x0]
    4c2c:	940015c0 	bl	a32c <mempool_free>
/home/thesis/Desktop/optee_rpi3bplus/optee_os/lib/libmbedtls/mbedtls/library/bignum.c:177
    4c30:	52800000 	mov	w0, #0x0                   	// #0
/home/thesis/Desktop/optee_rpi3bplus/optee_os/lib/libmbedtls/mbedtls/library/bignum.c:174
    4c34:	a900d674 	stp	x20, x21, [x19, #8]
    4c38:	14000007 	b	4c54 <mbedtls_mpi_grow+0xd4>
/home/thesis/Desktop/optee_rpi3bplus/optee_os/lib/libmbedtls/mbedtls/library/bignum.c:158
    4c3c:	d2800081 	mov	x1, #0x4                   	// #4
    4c40:	aa1403e0 	mov	x0, x20
    4c44:	97fff092 	bl	e8c <calloc>
    4c48:	aa0003f5 	mov	x21, x0
/home/thesis/Desktop/optee_rpi3bplus/optee_os/lib/libmbedtls/mbedtls/library/bignum.c:159
    4c4c:	b5fffd20 	cbnz	x0, 4bf0 <mbedtls_mpi_grow+0x70>
/home/thesis/Desktop/optee_rpi3bplus/optee_os/lib/libmbedtls/mbedtls/library/bignum.c:145
    4c50:	128001e0 	mov	w0, #0xfffffff0            	// #-16
/home/thesis/Desktop/optee_rpi3bplus/optee_os/lib/libmbedtls/mbedtls/library/bignum.c:178
    4c54:	a94153f3 	ldp	x19, x20, [sp, #16]
    4c58:	f94013f5 	ldr	x21, [sp, #32]
    4c5c:	a8c47bfd 	ldp	x29, x30, [sp], #64
    4c60:	d65f03c0 	ret
/home/thesis/Desktop/optee_rpi3bplus/optee_os/lib/libmbedtls/mbedtls/library/bignum.c:170
    4c64:	f9400a60 	ldr	x0, [x19, #16]
    4c68:	97fff0b6 	bl	f40 <free>
    4c6c:	17fffff1 	b	4c30 <mbedtls_mpi_grow+0xb0>
/home/thesis/Desktop/optee_rpi3bplus/optee_os/lib/libmbedtls/mbedtls/library/bignum.c:177
    4c70:	52800000 	mov	w0, #0x0                   	// #0
    4c74:	d65f03c0 	ret

0000000000004c78 <mbedtls_mpi_shrink>:
mbedtls_mpi_shrink():
/home/thesis/Desktop/optee_rpi3bplus/optee_os/lib/libmbedtls/mbedtls/library/bignum.c:190
    4c78:	d284e203 	mov	x3, #0x2710                	// #10000
    4c7c:	eb03003f 	cmp	x1, x3
    4c80:	54000069 	b.ls	4c8c <mbedtls_mpi_shrink+0x14>  // b.plast
/home/thesis/Desktop/optee_rpi3bplus/optee_os/lib/libmbedtls/mbedtls/library/bignum.c:191
    4c84:	128001e0 	mov	w0, #0xfffffff0            	// #-16
/home/thesis/Desktop/optee_rpi3bplus/optee_os/lib/libmbedtls/mbedtls/library/bignum.c:233
    4c88:	d65f03c0 	ret
/home/thesis/Desktop/optee_rpi3bplus/optee_os/lib/libmbedtls/mbedtls/library/bignum.c:185
    4c8c:	a9bd7bfd 	stp	x29, x30, [sp, #-48]!
    4c90:	aa0103e2 	mov	x2, x1
    4c94:	910003fd 	mov	x29, sp
/home/thesis/Desktop/optee_rpi3bplus/optee_os/lib/libmbedtls/mbedtls/library/bignum.c:194
    4c98:	f9400403 	ldr	x3, [x0, #8]
/home/thesis/Desktop/optee_rpi3bplus/optee_os/lib/libmbedtls/mbedtls/library/bignum.c:185
    4c9c:	a90153f3 	stp	x19, x20, [sp, #16]
    4ca0:	a9025bf5 	stp	x21, x22, [sp, #32]
/home/thesis/Desktop/optee_rpi3bplus/optee_os/lib/libmbedtls/mbedtls/library/bignum.c:194
    4ca4:	eb01007f 	cmp	x3, x1
    4ca8:	aa0003f5 	mov	x21, x0
    4cac:	540000a8 	b.hi	4cc0 <mbedtls_mpi_shrink+0x48>  // b.pmore
/home/thesis/Desktop/optee_rpi3bplus/optee_os/lib/libmbedtls/mbedtls/library/bignum.c:233
    4cb0:	a94153f3 	ldp	x19, x20, [sp, #16]
    4cb4:	a9425bf5 	ldp	x21, x22, [sp, #32]
    4cb8:	a8c37bfd 	ldp	x29, x30, [sp], #48
/home/thesis/Desktop/optee_rpi3bplus/optee_os/lib/libmbedtls/mbedtls/library/bignum.c:195
    4cbc:	17ffffb1 	b	4b80 <mbedtls_mpi_grow>
/home/thesis/Desktop/optee_rpi3bplus/optee_os/lib/libmbedtls/mbedtls/library/bignum.c:197
    4cc0:	d1000461 	sub	x1, x3, #0x1
/home/thesis/Desktop/optee_rpi3bplus/optee_os/lib/libmbedtls/mbedtls/library/bignum.c:197 (discriminator 1)
    4cc4:	b5000481 	cbnz	x1, 4d54 <mbedtls_mpi_shrink+0xdc>
/home/thesis/Desktop/optee_rpi3bplus/optee_os/lib/libmbedtls/mbedtls/library/bignum.c:200
    4cc8:	91000421 	add	x1, x1, #0x1
    4ccc:	aa0203e0 	mov	x0, x2
/home/thesis/Desktop/optee_rpi3bplus/optee_os/lib/libmbedtls/mbedtls/library/bignum.c:202
    4cd0:	eb01005f 	cmp	x2, x1
    4cd4:	9a812054 	csel	x20, x2, x1, cs  // cs = hs, nlast
/home/thesis/Desktop/optee_rpi3bplus/optee_os/lib/libmbedtls/mbedtls/library/bignum.c:205
    4cd8:	79c006a1 	ldrsh	w1, [x21, #2]
    4cdc:	34000461 	cbz	w1, 4d68 <mbedtls_mpi_shrink+0xf0>
/home/thesis/Desktop/optee_rpi3bplus/optee_os/lib/libmbedtls/mbedtls/library/bignum.c:207
    4ce0:	f0000040 	adrp	x0, f000 <.got>
    4ce4:	d37ef453 	lsl	x19, x2, #2
    4ce8:	aa1303e1 	mov	x1, x19
    4cec:	f9404000 	ldr	x0, [x0, #128]
    4cf0:	f9400000 	ldr	x0, [x0]
    4cf4:	9400154f 	bl	a230 <mempool_alloc>
    4cf8:	aa0003f6 	mov	x22, x0
/home/thesis/Desktop/optee_rpi3bplus/optee_os/lib/libmbedtls/mbedtls/library/bignum.c:208
    4cfc:	b40003e0 	cbz	x0, 4d78 <mbedtls_mpi_shrink+0x100>
/home/thesis/Desktop/optee_rpi3bplus/optee_os/lib/libmbedtls/mbedtls/library/bignum.c:210
    4d00:	aa1303e2 	mov	x2, x19
    4d04:	52800001 	mov	w1, #0x0                   	// #0
    4d08:	97fff164 	bl	1298 <memset>
/home/thesis/Desktop/optee_rpi3bplus/optee_os/lib/libmbedtls/mbedtls/library/bignum.c:219
    4d0c:	f9400aa1 	ldr	x1, [x21, #16]
    4d10:	b40001c1 	cbz	x1, 4d48 <mbedtls_mpi_shrink+0xd0>
/home/thesis/Desktop/optee_rpi3bplus/optee_os/lib/libmbedtls/mbedtls/library/bignum.c:221
    4d14:	d37ef682 	lsl	x2, x20, #2
    4d18:	aa1603e0 	mov	x0, x22
    4d1c:	97fff157 	bl	1278 <memcpy>
mbedtls_mpi_zeroize():
/home/thesis/Desktop/optee_rpi3bplus/optee_os/lib/libmbedtls/mbedtls/library/bignum.c:88
    4d20:	a94082a1 	ldp	x1, x0, [x21, #8]
    4d24:	d37ef421 	lsl	x1, x1, #2
    4d28:	94000cf9 	bl	810c <mbedtls_platform_zeroize>
mbedtls_mpi_shrink():
/home/thesis/Desktop/optee_rpi3bplus/optee_os/lib/libmbedtls/mbedtls/library/bignum.c:223
    4d2c:	79c006a0 	ldrsh	w0, [x21, #2]
    4d30:	340002e0 	cbz	w0, 4d8c <mbedtls_mpi_shrink+0x114>
/home/thesis/Desktop/optee_rpi3bplus/optee_os/lib/libmbedtls/mbedtls/library/bignum.c:224
    4d34:	f0000040 	adrp	x0, f000 <.got>
    4d38:	f9400aa1 	ldr	x1, [x21, #16]
    4d3c:	f9404000 	ldr	x0, [x0, #128]
    4d40:	f9400000 	ldr	x0, [x0]
    4d44:	9400157a 	bl	a32c <mempool_free>
/home/thesis/Desktop/optee_rpi3bplus/optee_os/lib/libmbedtls/mbedtls/library/bignum.c:232
    4d48:	52800000 	mov	w0, #0x0                   	// #0
/home/thesis/Desktop/optee_rpi3bplus/optee_os/lib/libmbedtls/mbedtls/library/bignum.c:230
    4d4c:	a900dab4 	stp	x20, x22, [x21, #8]
/home/thesis/Desktop/optee_rpi3bplus/optee_os/lib/libmbedtls/mbedtls/library/bignum.c:232
    4d50:	1400000b 	b	4d7c <mbedtls_mpi_shrink+0x104>
/home/thesis/Desktop/optee_rpi3bplus/optee_os/lib/libmbedtls/mbedtls/library/bignum.c:198
    4d54:	f9400aa0 	ldr	x0, [x21, #16]
    4d58:	b8617800 	ldr	w0, [x0, x1, lsl #2]
    4d5c:	35fffb60 	cbnz	w0, 4cc8 <mbedtls_mpi_shrink+0x50>
/home/thesis/Desktop/optee_rpi3bplus/optee_os/lib/libmbedtls/mbedtls/library/bignum.c:197 (discriminator 2)
    4d60:	d1000421 	sub	x1, x1, #0x1
    4d64:	17ffffd8 	b	4cc4 <mbedtls_mpi_shrink+0x4c>
/home/thesis/Desktop/optee_rpi3bplus/optee_os/lib/libmbedtls/mbedtls/library/bignum.c:214
    4d68:	d2800081 	mov	x1, #0x4                   	// #4
    4d6c:	97fff048 	bl	e8c <calloc>
    4d70:	aa0003f6 	mov	x22, x0
/home/thesis/Desktop/optee_rpi3bplus/optee_os/lib/libmbedtls/mbedtls/library/bignum.c:215
    4d74:	b5fffcc0 	cbnz	x0, 4d0c <mbedtls_mpi_shrink+0x94>
/home/thesis/Desktop/optee_rpi3bplus/optee_os/lib/libmbedtls/mbedtls/library/bignum.c:191
    4d78:	128001e0 	mov	w0, #0xfffffff0            	// #-16
/home/thesis/Desktop/optee_rpi3bplus/optee_os/lib/libmbedtls/mbedtls/library/bignum.c:233
    4d7c:	a94153f3 	ldp	x19, x20, [sp, #16]
    4d80:	a9425bf5 	ldp	x21, x22, [sp, #32]
    4d84:	a8c37bfd 	ldp	x29, x30, [sp], #48
    4d88:	d65f03c0 	ret
/home/thesis/Desktop/optee_rpi3bplus/optee_os/lib/libmbedtls/mbedtls/library/bignum.c:226
    4d8c:	f9400aa0 	ldr	x0, [x21, #16]
    4d90:	97fff06c 	bl	f40 <free>
    4d94:	17ffffed 	b	4d48 <mbedtls_mpi_shrink+0xd0>

0000000000004d98 <mbedtls_mpi_copy>:
mbedtls_mpi_copy():
/home/thesis/Desktop/optee_rpi3bplus/optee_os/lib/libmbedtls/mbedtls/library/bignum.c:245
    4d98:	eb01001f 	cmp	x0, x1
    4d9c:	54000540 	b.eq	4e44 <mbedtls_mpi_copy+0xac>  // b.none
/home/thesis/Desktop/optee_rpi3bplus/optee_os/lib/libmbedtls/mbedtls/library/bignum.c:239
    4da0:	a9bd7bfd 	stp	x29, x30, [sp, #-48]!
    4da4:	910003fd 	mov	x29, sp
    4da8:	f90013f5 	str	x21, [sp, #32]
    4dac:	aa0103f5 	mov	x21, x1
/home/thesis/Desktop/optee_rpi3bplus/optee_os/lib/libmbedtls/mbedtls/library/bignum.c:248
    4db0:	f9400821 	ldr	x1, [x1, #16]
/home/thesis/Desktop/optee_rpi3bplus/optee_os/lib/libmbedtls/mbedtls/library/bignum.c:239
    4db4:	a90153f3 	stp	x19, x20, [sp, #16]
/home/thesis/Desktop/optee_rpi3bplus/optee_os/lib/libmbedtls/mbedtls/library/bignum.c:248
    4db8:	b5000081 	cbnz	x1, 4dc8 <mbedtls_mpi_copy+0x30>
/home/thesis/Desktop/optee_rpi3bplus/optee_os/lib/libmbedtls/mbedtls/library/bignum.c:250
    4dbc:	97ffff56 	bl	4b14 <mbedtls_mpi_free>
/home/thesis/Desktop/optee_rpi3bplus/optee_os/lib/libmbedtls/mbedtls/library/bignum.c:270
    4dc0:	52800000 	mov	w0, #0x0                   	// #0
    4dc4:	14000011 	b	4e08 <mbedtls_mpi_copy+0x70>
/home/thesis/Desktop/optee_rpi3bplus/optee_os/lib/libmbedtls/mbedtls/library/bignum.c:254
    4dc8:	f94006b3 	ldr	x19, [x21, #8]
    4dcc:	aa0003f4 	mov	x20, x0
/home/thesis/Desktop/optee_rpi3bplus/optee_os/lib/libmbedtls/mbedtls/library/bignum.c:254 (discriminator 2)
    4dd0:	d1000673 	sub	x19, x19, #0x1
    4dd4:	b4000073 	cbz	x19, 4de0 <mbedtls_mpi_copy+0x48>
/home/thesis/Desktop/optee_rpi3bplus/optee_os/lib/libmbedtls/mbedtls/library/bignum.c:255
    4dd8:	b8737820 	ldr	w0, [x1, x19, lsl #2]
    4ddc:	34ffffa0 	cbz	w0, 4dd0 <mbedtls_mpi_copy+0x38>
/home/thesis/Desktop/optee_rpi3bplus/optee_os/lib/libmbedtls/mbedtls/library/bignum.c:259
    4de0:	79c002a0 	ldrsh	w0, [x21]
/home/thesis/Desktop/optee_rpi3bplus/optee_os/lib/libmbedtls/mbedtls/library/bignum.c:257
    4de4:	91000673 	add	x19, x19, #0x1
/home/thesis/Desktop/optee_rpi3bplus/optee_os/lib/libmbedtls/mbedtls/library/bignum.c:261
    4de8:	f9400682 	ldr	x2, [x20, #8]
/home/thesis/Desktop/optee_rpi3bplus/optee_os/lib/libmbedtls/mbedtls/library/bignum.c:259
    4dec:	79000280 	strh	w0, [x20]
/home/thesis/Desktop/optee_rpi3bplus/optee_os/lib/libmbedtls/mbedtls/library/bignum.c:261
    4df0:	eb13005f 	cmp	x2, x19
    4df4:	54000122 	b.cs	4e18 <mbedtls_mpi_copy+0x80>  // b.hs, b.nlast
/home/thesis/Desktop/optee_rpi3bplus/optee_os/lib/libmbedtls/mbedtls/library/bignum.c:263
    4df8:	aa1303e1 	mov	x1, x19
    4dfc:	aa1403e0 	mov	x0, x20
    4e00:	97ffff60 	bl	4b80 <mbedtls_mpi_grow>
    4e04:	34000160 	cbz	w0, 4e30 <mbedtls_mpi_copy+0x98>
/home/thesis/Desktop/optee_rpi3bplus/optee_os/lib/libmbedtls/mbedtls/library/bignum.c:275
    4e08:	a94153f3 	ldp	x19, x20, [sp, #16]
    4e0c:	f94013f5 	ldr	x21, [sp, #32]
    4e10:	a8c37bfd 	ldp	x29, x30, [sp], #48
    4e14:	d65f03c0 	ret
/home/thesis/Desktop/optee_rpi3bplus/optee_os/lib/libmbedtls/mbedtls/library/bignum.c:267
    4e18:	f9400a80 	ldr	x0, [x20, #16]
    4e1c:	cb130042 	sub	x2, x2, x19
    4e20:	52800001 	mov	w1, #0x0                   	// #0
    4e24:	d37ef442 	lsl	x2, x2, #2
    4e28:	8b130800 	add	x0, x0, x19, lsl #2
    4e2c:	97fff11b 	bl	1298 <memset>
/home/thesis/Desktop/optee_rpi3bplus/optee_os/lib/libmbedtls/mbedtls/library/bignum.c:270
    4e30:	f9400a80 	ldr	x0, [x20, #16]
    4e34:	d37ef662 	lsl	x2, x19, #2
    4e38:	f9400aa1 	ldr	x1, [x21, #16]
    4e3c:	97fff10f 	bl	1278 <memcpy>
    4e40:	17ffffe0 	b	4dc0 <mbedtls_mpi_copy+0x28>
/home/thesis/Desktop/optee_rpi3bplus/optee_os/lib/libmbedtls/mbedtls/library/bignum.c:246
    4e44:	52800000 	mov	w0, #0x0                   	// #0
/home/thesis/Desktop/optee_rpi3bplus/optee_os/lib/libmbedtls/mbedtls/library/bignum.c:275
    4e48:	d65f03c0 	ret

0000000000004e4c <mbedtls_mpi_swap>:
mbedtls_mpi_swap():
/home/thesis/Desktop/optee_rpi3bplus/optee_os/lib/libmbedtls/mbedtls/library/bignum.c:281
    4e4c:	a9bb7bfd 	stp	x29, x30, [sp, #-80]!
    4e50:	910003fd 	mov	x29, sp
    4e54:	a90153f3 	stp	x19, x20, [sp, #16]
/home/thesis/Desktop/optee_rpi3bplus/optee_os/lib/libmbedtls/mbedtls/library/bignum.c:286
    4e58:	9100e3f3 	add	x19, sp, #0x38
    4e5c:	d2800314 	mov	x20, #0x18                  	// #24
    4e60:	aa1403e2 	mov	x2, x20
/home/thesis/Desktop/optee_rpi3bplus/optee_os/lib/libmbedtls/mbedtls/library/bignum.c:281
    4e64:	a9025bf5 	stp	x21, x22, [sp, #32]
    4e68:	aa0103f5 	mov	x21, x1
    4e6c:	aa0003f6 	mov	x22, x0
/home/thesis/Desktop/optee_rpi3bplus/optee_os/lib/libmbedtls/mbedtls/library/bignum.c:286
    4e70:	aa0003e1 	mov	x1, x0
    4e74:	aa1303e0 	mov	x0, x19
    4e78:	97fff100 	bl	1278 <memcpy>
/home/thesis/Desktop/optee_rpi3bplus/optee_os/lib/libmbedtls/mbedtls/library/bignum.c:287
    4e7c:	aa1403e2 	mov	x2, x20
    4e80:	aa1503e1 	mov	x1, x21
    4e84:	aa1603e0 	mov	x0, x22
    4e88:	97fff0fc 	bl	1278 <memcpy>
/home/thesis/Desktop/optee_rpi3bplus/optee_os/lib/libmbedtls/mbedtls/library/bignum.c:288
    4e8c:	aa1403e2 	mov	x2, x20
    4e90:	aa1303e1 	mov	x1, x19
    4e94:	aa1503e0 	mov	x0, x21
    4e98:	97fff0f8 	bl	1278 <memcpy>
/home/thesis/Desktop/optee_rpi3bplus/optee_os/lib/libmbedtls/mbedtls/library/bignum.c:289
    4e9c:	a94153f3 	ldp	x19, x20, [sp, #16]
    4ea0:	a9425bf5 	ldp	x21, x22, [sp, #32]
    4ea4:	a8c57bfd 	ldp	x29, x30, [sp], #80
    4ea8:	d65f03c0 	ret

0000000000004eac <mbedtls_mpi_safe_cond_assign>:
mbedtls_mpi_safe_cond_assign():
/home/thesis/Desktop/optee_rpi3bplus/optee_os/lib/libmbedtls/mbedtls/library/bignum.c:297
    4eac:	a9bd7bfd 	stp	x29, x30, [sp, #-48]!
    4eb0:	910003fd 	mov	x29, sp
    4eb4:	f90013f5 	str	x21, [sp, #32]
    4eb8:	aa0103f5 	mov	x21, x1
/home/thesis/Desktop/optee_rpi3bplus/optee_os/lib/libmbedtls/mbedtls/library/bignum.c:306
    4ebc:	f9400421 	ldr	x1, [x1, #8]
/home/thesis/Desktop/optee_rpi3bplus/optee_os/lib/libmbedtls/mbedtls/library/bignum.c:297
    4ec0:	a90153f3 	stp	x19, x20, [sp, #16]
    4ec4:	aa0003f4 	mov	x20, x0
    4ec8:	12001c53 	and	w19, w2, #0xff
/home/thesis/Desktop/optee_rpi3bplus/optee_os/lib/libmbedtls/mbedtls/library/bignum.c:306
    4ecc:	97ffff2d 	bl	4b80 <mbedtls_mpi_grow>
    4ed0:	35000240 	cbnz	w0, 4f18 <mbedtls_mpi_safe_cond_assign+0x6c>
/home/thesis/Desktop/optee_rpi3bplus/optee_os/lib/libmbedtls/mbedtls/library/bignum.c:304
    4ed4:	4b1303e2 	neg	w2, w19
/home/thesis/Desktop/optee_rpi3bplus/optee_os/lib/libmbedtls/mbedtls/library/bignum.c:308
    4ed8:	794002a4 	ldrh	w4, [x21]
/home/thesis/Desktop/optee_rpi3bplus/optee_os/lib/libmbedtls/mbedtls/library/bignum.c:304
    4edc:	2a020262 	orr	w2, w19, w2
/home/thesis/Desktop/optee_rpi3bplus/optee_os/lib/libmbedtls/mbedtls/library/bignum.c:308
    4ee0:	79400281 	ldrh	w1, [x20]
    4ee4:	52800023 	mov	w3, #0x1                   	// #1
/home/thesis/Desktop/optee_rpi3bplus/optee_os/lib/libmbedtls/mbedtls/library/bignum.c:304
    4ee8:	d3471c42 	ubfx	x2, x2, #7, #1
/home/thesis/Desktop/optee_rpi3bplus/optee_os/lib/libmbedtls/mbedtls/library/bignum.c:308
    4eec:	4b020063 	sub	w3, w3, w2
/home/thesis/Desktop/optee_rpi3bplus/optee_os/lib/libmbedtls/mbedtls/library/bignum.c:310
    4ef0:	f94006a8 	ldr	x8, [x21, #8]
/home/thesis/Desktop/optee_rpi3bplus/optee_os/lib/libmbedtls/mbedtls/library/bignum.c:308
    4ef4:	1b047c44 	mul	w4, w2, w4
    4ef8:	1b011061 	madd	w1, w3, w1, w4
    4efc:	79000281 	strh	w1, [x20]
/home/thesis/Desktop/optee_rpi3bplus/optee_os/lib/libmbedtls/mbedtls/library/bignum.c:310
    4f00:	d2800001 	mov	x1, #0x0                   	// #0
/home/thesis/Desktop/optee_rpi3bplus/optee_os/lib/libmbedtls/mbedtls/library/bignum.c:310 (discriminator 1)
    4f04:	eb01011f 	cmp	x8, x1
    4f08:	54000101 	b.ne	4f28 <mbedtls_mpi_safe_cond_assign+0x7c>  // b.any
/home/thesis/Desktop/optee_rpi3bplus/optee_os/lib/libmbedtls/mbedtls/library/bignum.c:313
    4f0c:	f9400686 	ldr	x6, [x20, #8]
/home/thesis/Desktop/optee_rpi3bplus/optee_os/lib/libmbedtls/mbedtls/library/bignum.c:313 (discriminator 1)
    4f10:	eb0100df 	cmp	x6, x1
    4f14:	540001e8 	b.hi	4f50 <mbedtls_mpi_safe_cond_assign+0xa4>  // b.pmore
/home/thesis/Desktop/optee_rpi3bplus/optee_os/lib/libmbedtls/mbedtls/library/bignum.c:318
    4f18:	a94153f3 	ldp	x19, x20, [sp, #16]
    4f1c:	f94013f5 	ldr	x21, [sp, #32]
    4f20:	a8c37bfd 	ldp	x29, x30, [sp], #48
    4f24:	d65f03c0 	ret
/home/thesis/Desktop/optee_rpi3bplus/optee_os/lib/libmbedtls/mbedtls/library/bignum.c:311 (discriminator 3)
    4f28:	f9400a87 	ldr	x7, [x20, #16]
    4f2c:	d37ef424 	lsl	x4, x1, #2
    4f30:	f9400aa5 	ldr	x5, [x21, #16]
/home/thesis/Desktop/optee_rpi3bplus/optee_os/lib/libmbedtls/mbedtls/library/bignum.c:310 (discriminator 3)
    4f34:	91000421 	add	x1, x1, #0x1
/home/thesis/Desktop/optee_rpi3bplus/optee_os/lib/libmbedtls/mbedtls/library/bignum.c:311 (discriminator 3)
    4f38:	b86468e6 	ldr	w6, [x7, x4]
    4f3c:	b86468a5 	ldr	w5, [x5, x4]
    4f40:	1b067c66 	mul	w6, w3, w6
    4f44:	1b051845 	madd	w5, w2, w5, w6
    4f48:	b82468e5 	str	w5, [x7, x4]
    4f4c:	17ffffee 	b	4f04 <mbedtls_mpi_safe_cond_assign+0x58>
/home/thesis/Desktop/optee_rpi3bplus/optee_os/lib/libmbedtls/mbedtls/library/bignum.c:314 (discriminator 2)
    4f50:	f9400a85 	ldr	x5, [x20, #16]
    4f54:	d37ef424 	lsl	x4, x1, #2
/home/thesis/Desktop/optee_rpi3bplus/optee_os/lib/libmbedtls/mbedtls/library/bignum.c:313 (discriminator 2)
    4f58:	91000421 	add	x1, x1, #0x1
/home/thesis/Desktop/optee_rpi3bplus/optee_os/lib/libmbedtls/mbedtls/library/bignum.c:314 (discriminator 2)
    4f5c:	b86468a2 	ldr	w2, [x5, x4]
    4f60:	1b037c42 	mul	w2, w2, w3
    4f64:	b82468a2 	str	w2, [x5, x4]
    4f68:	17ffffea 	b	4f10 <mbedtls_mpi_safe_cond_assign+0x64>

0000000000004f6c <mbedtls_mpi_safe_cond_swap>:
mbedtls_mpi_safe_cond_swap():
/home/thesis/Desktop/optee_rpi3bplus/optee_os/lib/libmbedtls/mbedtls/library/bignum.c:334
    4f6c:	eb01001f 	cmp	x0, x1
    4f70:	54000061 	b.ne	4f7c <mbedtls_mpi_safe_cond_swap+0x10>  // b.any
/home/thesis/Desktop/optee_rpi3bplus/optee_os/lib/libmbedtls/mbedtls/library/bignum.c:335
    4f74:	52800000 	mov	w0, #0x0                   	// #0
/home/thesis/Desktop/optee_rpi3bplus/optee_os/lib/libmbedtls/mbedtls/library/bignum.c:357
    4f78:	d65f03c0 	ret
/home/thesis/Desktop/optee_rpi3bplus/optee_os/lib/libmbedtls/mbedtls/library/bignum.c:327
    4f7c:	a9bd7bfd 	stp	x29, x30, [sp, #-48]!
    4f80:	910003fd 	mov	x29, sp
    4f84:	a90153f3 	stp	x19, x20, [sp, #16]
    4f88:	aa0103f4 	mov	x20, x1
/home/thesis/Desktop/optee_rpi3bplus/optee_os/lib/libmbedtls/mbedtls/library/bignum.c:338
    4f8c:	12001c53 	and	w19, w2, #0xff
/home/thesis/Desktop/optee_rpi3bplus/optee_os/lib/libmbedtls/mbedtls/library/bignum.c:340
    4f90:	f9400421 	ldr	x1, [x1, #8]
/home/thesis/Desktop/optee_rpi3bplus/optee_os/lib/libmbedtls/mbedtls/library/bignum.c:327
    4f94:	f90013f5 	str	x21, [sp, #32]
    4f98:	aa0003f5 	mov	x21, x0
/home/thesis/Desktop/optee_rpi3bplus/optee_os/lib/libmbedtls/mbedtls/library/bignum.c:340
    4f9c:	97fffef9 	bl	4b80 <mbedtls_mpi_grow>
    4fa0:	35000340 	cbnz	w0, 5008 <mbedtls_mpi_safe_cond_swap+0x9c>
/home/thesis/Desktop/optee_rpi3bplus/optee_os/lib/libmbedtls/mbedtls/library/bignum.c:341
    4fa4:	f94006a1 	ldr	x1, [x21, #8]
    4fa8:	aa1403e0 	mov	x0, x20
    4fac:	97fffef5 	bl	4b80 <mbedtls_mpi_grow>
    4fb0:	350002c0 	cbnz	w0, 5008 <mbedtls_mpi_safe_cond_swap+0x9c>
/home/thesis/Desktop/optee_rpi3bplus/optee_os/lib/libmbedtls/mbedtls/library/bignum.c:338
    4fb4:	4b1303e2 	neg	w2, w19
/home/thesis/Desktop/optee_rpi3bplus/optee_os/lib/libmbedtls/mbedtls/library/bignum.c:344
    4fb8:	794002a3 	ldrh	w3, [x21]
/home/thesis/Desktop/optee_rpi3bplus/optee_os/lib/libmbedtls/mbedtls/library/bignum.c:338
    4fbc:	2a020262 	orr	w2, w19, w2
/home/thesis/Desktop/optee_rpi3bplus/optee_os/lib/libmbedtls/mbedtls/library/bignum.c:344
    4fc0:	52800020 	mov	w0, #0x1                   	// #1
    4fc4:	79400284 	ldrh	w4, [x20]
/home/thesis/Desktop/optee_rpi3bplus/optee_os/lib/libmbedtls/mbedtls/library/bignum.c:338
    4fc8:	d3471c42 	ubfx	x2, x2, #7, #1
/home/thesis/Desktop/optee_rpi3bplus/optee_os/lib/libmbedtls/mbedtls/library/bignum.c:344
    4fcc:	4b020000 	sub	w0, w0, w2
    4fd0:	12003c45 	and	w5, w2, #0xffff
    4fd4:	12003c01 	and	w1, w0, #0xffff
/home/thesis/Desktop/optee_rpi3bplus/optee_os/lib/libmbedtls/mbedtls/library/bignum.c:348
    4fd8:	f94006a8 	ldr	x8, [x21, #8]
/home/thesis/Desktop/optee_rpi3bplus/optee_os/lib/libmbedtls/mbedtls/library/bignum.c:344
    4fdc:	1b017c66 	mul	w6, w3, w1
    4fe0:	1b0418a4 	madd	w4, w5, w4, w6
    4fe4:	790002a4 	strh	w4, [x21]
/home/thesis/Desktop/optee_rpi3bplus/optee_os/lib/libmbedtls/mbedtls/library/bignum.c:345
    4fe8:	1b057c63 	mul	w3, w3, w5
    4fec:	79400284 	ldrh	w4, [x20]
    4ff0:	1b040c21 	madd	w1, w1, w4, w3
/home/thesis/Desktop/optee_rpi3bplus/optee_os/lib/libmbedtls/mbedtls/library/bignum.c:348
    4ff4:	d2800003 	mov	x3, #0x0                   	// #0
/home/thesis/Desktop/optee_rpi3bplus/optee_os/lib/libmbedtls/mbedtls/library/bignum.c:345
    4ff8:	79000281 	strh	w1, [x20]
/home/thesis/Desktop/optee_rpi3bplus/optee_os/lib/libmbedtls/mbedtls/library/bignum.c:348 (discriminator 1)
    4ffc:	eb03011f 	cmp	x8, x3
    5000:	540000c1 	b.ne	5018 <mbedtls_mpi_safe_cond_swap+0xac>  // b.any
/home/thesis/Desktop/optee_rpi3bplus/optee_os/lib/libmbedtls/mbedtls/library/bignum.c:335
    5004:	52800000 	mov	w0, #0x0                   	// #0
/home/thesis/Desktop/optee_rpi3bplus/optee_os/lib/libmbedtls/mbedtls/library/bignum.c:357
    5008:	a94153f3 	ldp	x19, x20, [sp, #16]
    500c:	f94013f5 	ldr	x21, [sp, #32]
    5010:	a8c37bfd 	ldp	x29, x30, [sp], #48
    5014:	d65f03c0 	ret
/home/thesis/Desktop/optee_rpi3bplus/optee_os/lib/libmbedtls/mbedtls/library/bignum.c:350 (discriminator 3)
    5018:	f9400aa7 	ldr	x7, [x21, #16]
    501c:	d37ef461 	lsl	x1, x3, #2
/home/thesis/Desktop/optee_rpi3bplus/optee_os/lib/libmbedtls/mbedtls/library/bignum.c:351 (discriminator 3)
    5020:	f9400a85 	ldr	x5, [x20, #16]
/home/thesis/Desktop/optee_rpi3bplus/optee_os/lib/libmbedtls/mbedtls/library/bignum.c:348 (discriminator 3)
    5024:	91000463 	add	x3, x3, #0x1
/home/thesis/Desktop/optee_rpi3bplus/optee_os/lib/libmbedtls/mbedtls/library/bignum.c:350 (discriminator 3)
    5028:	b86168e4 	ldr	w4, [x7, x1]
/home/thesis/Desktop/optee_rpi3bplus/optee_os/lib/libmbedtls/mbedtls/library/bignum.c:351 (discriminator 3)
    502c:	b86168a6 	ldr	w6, [x5, x1]
    5030:	1b047c09 	mul	w9, w0, w4
/home/thesis/Desktop/optee_rpi3bplus/optee_os/lib/libmbedtls/mbedtls/library/bignum.c:352 (discriminator 3)
    5034:	1b047c44 	mul	w4, w2, w4
/home/thesis/Desktop/optee_rpi3bplus/optee_os/lib/libmbedtls/mbedtls/library/bignum.c:351 (discriminator 3)
    5038:	1b062446 	madd	w6, w2, w6, w9
    503c:	b82168e6 	str	w6, [x7, x1]
/home/thesis/Desktop/optee_rpi3bplus/optee_os/lib/libmbedtls/mbedtls/library/bignum.c:352 (discriminator 3)
    5040:	b86168a6 	ldr	w6, [x5, x1]
    5044:	1b061004 	madd	w4, w0, w6, w4
    5048:	b82168a4 	str	w4, [x5, x1]
    504c:	17ffffec 	b	4ffc <mbedtls_mpi_safe_cond_swap+0x90>

0000000000005050 <mbedtls_mpi_lset>:
mbedtls_mpi_lset():
/home/thesis/Desktop/optee_rpi3bplus/optee_os/lib/libmbedtls/mbedtls/library/bignum.c:363
    5050:	a9bd7bfd 	stp	x29, x30, [sp, #-48]!
    5054:	910003fd 	mov	x29, sp
    5058:	a90153f3 	stp	x19, x20, [sp, #16]
    505c:	aa0003f3 	mov	x19, x0
    5060:	2a0103f4 	mov	w20, w1
/home/thesis/Desktop/optee_rpi3bplus/optee_os/lib/libmbedtls/mbedtls/library/bignum.c:367
    5064:	d2800021 	mov	x1, #0x1                   	// #1
/home/thesis/Desktop/optee_rpi3bplus/optee_os/lib/libmbedtls/mbedtls/library/bignum.c:363
    5068:	f90013f5 	str	x21, [sp, #32]
/home/thesis/Desktop/optee_rpi3bplus/optee_os/lib/libmbedtls/mbedtls/library/bignum.c:367
    506c:	97fffec5 	bl	4b80 <mbedtls_mpi_grow>
    5070:	2a0003f5 	mov	w21, w0
    5074:	35000180 	cbnz	w0, 50a4 <mbedtls_mpi_lset+0x54>
/home/thesis/Desktop/optee_rpi3bplus/optee_os/lib/libmbedtls/mbedtls/library/bignum.c:368
    5078:	a9408262 	ldp	x2, x0, [x19, #8]
    507c:	52800001 	mov	w1, #0x0                   	// #0
    5080:	d37ef442 	lsl	x2, x2, #2
    5084:	97fff085 	bl	1298 <memset>
/home/thesis/Desktop/optee_rpi3bplus/optee_os/lib/libmbedtls/mbedtls/library/bignum.c:370
    5088:	f9400a60 	ldr	x0, [x19, #16]
    508c:	7100029f 	cmp	w20, #0x0
    5090:	5a94a681 	cneg	w1, w20, lt  // lt = tstop
    5094:	b9000001 	str	w1, [x0]
/home/thesis/Desktop/optee_rpi3bplus/optee_os/lib/libmbedtls/mbedtls/library/bignum.c:371
    5098:	52800020 	mov	w0, #0x1                   	// #1
    509c:	5a80a400 	cneg	w0, w0, lt  // lt = tstop
    50a0:	79000260 	strh	w0, [x19]
/home/thesis/Desktop/optee_rpi3bplus/optee_os/lib/libmbedtls/mbedtls/library/bignum.c:376
    50a4:	2a1503e0 	mov	w0, w21
    50a8:	a94153f3 	ldp	x19, x20, [sp, #16]
    50ac:	f94013f5 	ldr	x21, [sp, #32]
    50b0:	a8c37bfd 	ldp	x29, x30, [sp], #48
    50b4:	d65f03c0 	ret

00000000000050b8 <mbedtls_mpi_get_bit>:
mbedtls_mpi_get_bit():
/home/thesis/Desktop/optee_rpi3bplus/optee_os/lib/libmbedtls/mbedtls/library/bignum.c:385
    50b8:	f9400402 	ldr	x2, [x0, #8]
    50bc:	eb02143f 	cmp	x1, x2, lsl #5
    50c0:	540000e2 	b.cs	50dc <mbedtls_mpi_get_bit+0x24>  // b.hs, b.nlast
/home/thesis/Desktop/optee_rpi3bplus/optee_os/lib/libmbedtls/mbedtls/library/bignum.c:388
    50c4:	f9400800 	ldr	x0, [x0, #16]
    50c8:	d345fc22 	lsr	x2, x1, #5
    50cc:	b8627800 	ldr	w0, [x0, x2, lsl #2]
    50d0:	1ac12400 	lsr	w0, w0, w1
    50d4:	12000000 	and	w0, w0, #0x1
/home/thesis/Desktop/optee_rpi3bplus/optee_os/lib/libmbedtls/mbedtls/library/bignum.c:389
    50d8:	d65f03c0 	ret
/home/thesis/Desktop/optee_rpi3bplus/optee_os/lib/libmbedtls/mbedtls/library/bignum.c:386
    50dc:	52800000 	mov	w0, #0x0                   	// #0
    50e0:	17fffffe 	b	50d8 <mbedtls_mpi_get_bit+0x20>

00000000000050e4 <mbedtls_mpi_set_bit>:
mbedtls_mpi_set_bit():
/home/thesis/Desktop/optee_rpi3bplus/optee_os/lib/libmbedtls/mbedtls/library/bignum.c:399
    50e4:	a9bd7bfd 	stp	x29, x30, [sp, #-48]!
    50e8:	910003fd 	mov	x29, sp
    50ec:	a90153f3 	stp	x19, x20, [sp, #16]
    50f0:	a9025bf5 	stp	x21, x22, [sp, #32]
    50f4:	12001c55 	and	w21, w2, #0xff
/home/thesis/Desktop/optee_rpi3bplus/optee_os/lib/libmbedtls/mbedtls/library/bignum.c:405
    50f8:	710006bf 	cmp	w21, #0x1
    50fc:	54000368 	b.hi	5168 <mbedtls_mpi_set_bit+0x84>  // b.pmore
    5100:	aa0103f3 	mov	x19, x1
/home/thesis/Desktop/optee_rpi3bplus/optee_os/lib/libmbedtls/mbedtls/library/bignum.c:408
    5104:	d345fc34 	lsr	x20, x1, #5
    5108:	f9400401 	ldr	x1, [x0, #8]
    510c:	aa0003f6 	mov	x22, x0
    5110:	eb01167f 	cmp	x19, x1, lsl #5
    5114:	540001a2 	b.cs	5148 <mbedtls_mpi_set_bit+0x64>  // b.hs, b.nlast
/home/thesis/Desktop/optee_rpi3bplus/optee_os/lib/libmbedtls/mbedtls/library/bignum.c:416
    5118:	f9400ac3 	ldr	x3, [x22, #16]
    511c:	d37ef694 	lsl	x20, x20, #2
/home/thesis/Desktop/optee_rpi3bplus/optee_os/lib/libmbedtls/mbedtls/library/bignum.c:402
    5120:	92401273 	and	x19, x19, #0x1f
/home/thesis/Desktop/optee_rpi3bplus/optee_os/lib/libmbedtls/mbedtls/library/bignum.c:416
    5124:	52800020 	mov	w0, #0x1                   	// #1
    5128:	1ad32001 	lsl	w1, w0, w19
    512c:	b8746860 	ldr	w0, [x3, x20]
/home/thesis/Desktop/optee_rpi3bplus/optee_os/lib/libmbedtls/mbedtls/library/bignum.c:417
    5130:	1ad322b3 	lsl	w19, w21, w19
/home/thesis/Desktop/optee_rpi3bplus/optee_os/lib/libmbedtls/mbedtls/library/bignum.c:416
    5134:	0a210000 	bic	w0, w0, w1
/home/thesis/Desktop/optee_rpi3bplus/optee_os/lib/libmbedtls/mbedtls/library/bignum.c:417
    5138:	2a130000 	orr	w0, w0, w19
    513c:	b8346860 	str	w0, [x3, x20]
/home/thesis/Desktop/optee_rpi3bplus/optee_os/lib/libmbedtls/mbedtls/library/bignum.c:411
    5140:	52800000 	mov	w0, #0x0                   	// #0
    5144:	14000005 	b	5158 <mbedtls_mpi_set_bit+0x74>
/home/thesis/Desktop/optee_rpi3bplus/optee_os/lib/libmbedtls/mbedtls/library/bignum.c:410
    5148:	34ffffd5 	cbz	w21, 5140 <mbedtls_mpi_set_bit+0x5c>
/home/thesis/Desktop/optee_rpi3bplus/optee_os/lib/libmbedtls/mbedtls/library/bignum.c:413
    514c:	91000681 	add	x1, x20, #0x1
    5150:	97fffe8c 	bl	4b80 <mbedtls_mpi_grow>
    5154:	34fffe20 	cbz	w0, 5118 <mbedtls_mpi_set_bit+0x34>
/home/thesis/Desktop/optee_rpi3bplus/optee_os/lib/libmbedtls/mbedtls/library/bignum.c:422
    5158:	a94153f3 	ldp	x19, x20, [sp, #16]
    515c:	a9425bf5 	ldp	x21, x22, [sp, #32]
    5160:	a8c37bfd 	ldp	x29, x30, [sp], #48
    5164:	d65f03c0 	ret
/home/thesis/Desktop/optee_rpi3bplus/optee_os/lib/libmbedtls/mbedtls/library/bignum.c:406
    5168:	12800060 	mov	w0, #0xfffffffc            	// #-4
    516c:	17fffffb 	b	5158 <mbedtls_mpi_set_bit+0x74>

0000000000005170 <mbedtls_mpi_lsb>:
mbedtls_mpi_lsb():
/home/thesis/Desktop/optee_rpi3bplus/optee_os/lib/libmbedtls/mbedtls/library/bignum.c:432
    5170:	f9400405 	ldr	x5, [x0, #8]
/home/thesis/Desktop/optee_rpi3bplus/optee_os/lib/libmbedtls/mbedtls/library/bignum.c:428
    5174:	aa0003e4 	mov	x4, x0
/home/thesis/Desktop/optee_rpi3bplus/optee_os/lib/libmbedtls/mbedtls/library/bignum.c:429
    5178:	d2800003 	mov	x3, #0x0                   	// #0
/home/thesis/Desktop/optee_rpi3bplus/optee_os/lib/libmbedtls/mbedtls/library/bignum.c:432
    517c:	d2800002 	mov	x2, #0x0                   	// #0
/home/thesis/Desktop/optee_rpi3bplus/optee_os/lib/libmbedtls/mbedtls/library/bignum.c:432 (discriminator 1)
    5180:	eb0200bf 	cmp	x5, x2
    5184:	54000061 	b.ne	5190 <mbedtls_mpi_lsb+0x20>  // b.any
/home/thesis/Desktop/optee_rpi3bplus/optee_os/lib/libmbedtls/mbedtls/library/bignum.c:437
    5188:	d2800000 	mov	x0, #0x0                   	// #0
/home/thesis/Desktop/optee_rpi3bplus/optee_os/lib/libmbedtls/mbedtls/library/bignum.c:438
    518c:	d65f03c0 	ret
/home/thesis/Desktop/optee_rpi3bplus/optee_os/lib/libmbedtls/mbedtls/library/bignum.c:434
    5190:	f9400880 	ldr	x0, [x4, #16]
/home/thesis/Desktop/optee_rpi3bplus/optee_os/lib/libmbedtls/mbedtls/library/bignum.c:433
    5194:	d2800001 	mov	x1, #0x0                   	// #0
/home/thesis/Desktop/optee_rpi3bplus/optee_os/lib/libmbedtls/mbedtls/library/bignum.c:434
    5198:	b8627806 	ldr	w6, [x0, x2, lsl #2]
    519c:	8b010060 	add	x0, x3, x1
    51a0:	1ac124c7 	lsr	w7, w6, w1
    51a4:	3707ff47 	tbnz	w7, #0, 518c <mbedtls_mpi_lsb+0x1c>
/home/thesis/Desktop/optee_rpi3bplus/optee_os/lib/libmbedtls/mbedtls/library/bignum.c:433 (discriminator 2)
    51a8:	91000421 	add	x1, x1, #0x1
    51ac:	8b010060 	add	x0, x3, x1
    51b0:	f100803f 	cmp	x1, #0x20
    51b4:	54ffff41 	b.ne	519c <mbedtls_mpi_lsb+0x2c>  // b.any
/home/thesis/Desktop/optee_rpi3bplus/optee_os/lib/libmbedtls/mbedtls/library/bignum.c:432 (discriminator 2)
    51b8:	91000442 	add	x2, x2, #0x1
/home/thesis/Desktop/optee_rpi3bplus/optee_os/lib/libmbedtls/mbedtls/library/bignum.c:433 (discriminator 2)
    51bc:	aa0003e3 	mov	x3, x0
    51c0:	17fffff0 	b	5180 <mbedtls_mpi_lsb+0x10>

00000000000051c4 <mbedtls_mpi_bitlen>:
mbedtls_mpi_bitlen():
/home/thesis/Desktop/optee_rpi3bplus/optee_os/lib/libmbedtls/mbedtls/library/bignum.c:465
    51c4:	f9400401 	ldr	x1, [x0, #8]
    51c8:	b4000201 	cbz	x1, 5208 <mbedtls_mpi_bitlen+0x44>
/home/thesis/Desktop/optee_rpi3bplus/optee_os/lib/libmbedtls/mbedtls/library/bignum.c:468
    51cc:	f9400800 	ldr	x0, [x0, #16]
    51d0:	d1000421 	sub	x1, x1, #0x1
/home/thesis/Desktop/optee_rpi3bplus/optee_os/lib/libmbedtls/mbedtls/library/bignum.c:468 (discriminator 1)
    51d4:	b50001e1 	cbnz	x1, 5210 <mbedtls_mpi_bitlen+0x4c>
/home/thesis/Desktop/optee_rpi3bplus/optee_os/lib/libmbedtls/mbedtls/library/bignum.c:472
    51d8:	b8617803 	ldr	w3, [x0, x1, lsl #2]
mbedtls_clz():
/home/thesis/Desktop/optee_rpi3bplus/optee_os/lib/libmbedtls/mbedtls/library/bignum.c:446
    51dc:	52b00002 	mov	w2, #0x80000000            	// #-2147483648
/home/thesis/Desktop/optee_rpi3bplus/optee_os/lib/libmbedtls/mbedtls/library/bignum.c:448
    51e0:	d2800000 	mov	x0, #0x0                   	// #0
/home/thesis/Desktop/optee_rpi3bplus/optee_os/lib/libmbedtls/mbedtls/library/bignum.c:450
    51e4:	6a02007f 	tst	w3, w2
    51e8:	540000a1 	b.ne	51fc <mbedtls_mpi_bitlen+0x38>  // b.any
/home/thesis/Desktop/optee_rpi3bplus/optee_os/lib/libmbedtls/mbedtls/library/bignum.c:448
    51ec:	91000400 	add	x0, x0, #0x1
/home/thesis/Desktop/optee_rpi3bplus/optee_os/lib/libmbedtls/mbedtls/library/bignum.c:452
    51f0:	53017c42 	lsr	w2, w2, #1
/home/thesis/Desktop/optee_rpi3bplus/optee_os/lib/libmbedtls/mbedtls/library/bignum.c:448
    51f4:	f100801f 	cmp	x0, #0x20
    51f8:	54ffff61 	b.ne	51e4 <mbedtls_mpi_bitlen+0x20>  // b.any
mbedtls_mpi_bitlen():
/home/thesis/Desktop/optee_rpi3bplus/optee_os/lib/libmbedtls/mbedtls/library/bignum.c:474
    51fc:	91000421 	add	x1, x1, #0x1
    5200:	d37be821 	lsl	x1, x1, #5
    5204:	cb000021 	sub	x1, x1, x0
/home/thesis/Desktop/optee_rpi3bplus/optee_os/lib/libmbedtls/mbedtls/library/bignum.c:475
    5208:	aa0103e0 	mov	x0, x1
    520c:	d65f03c0 	ret
/home/thesis/Desktop/optee_rpi3bplus/optee_os/lib/libmbedtls/mbedtls/library/bignum.c:469
    5210:	b8617802 	ldr	w2, [x0, x1, lsl #2]
    5214:	35fffe22 	cbnz	w2, 51d8 <mbedtls_mpi_bitlen+0x14>
/home/thesis/Desktop/optee_rpi3bplus/optee_os/lib/libmbedtls/mbedtls/library/bignum.c:468 (discriminator 2)
    5218:	d1000421 	sub	x1, x1, #0x1
    521c:	17ffffee 	b	51d4 <mbedtls_mpi_bitlen+0x10>

0000000000005220 <mbedtls_mpi_size>:
mbedtls_mpi_size():
/home/thesis/Desktop/optee_rpi3bplus/optee_os/lib/libmbedtls/mbedtls/library/bignum.c:481
    5220:	a9bf7bfd 	stp	x29, x30, [sp, #-16]!
    5224:	910003fd 	mov	x29, sp
/home/thesis/Desktop/optee_rpi3bplus/optee_os/lib/libmbedtls/mbedtls/library/bignum.c:482
    5228:	97ffffe7 	bl	51c4 <mbedtls_mpi_bitlen>
    522c:	91001c00 	add	x0, x0, #0x7
/home/thesis/Desktop/optee_rpi3bplus/optee_os/lib/libmbedtls/mbedtls/library/bignum.c:483
    5230:	a8c17bfd 	ldp	x29, x30, [sp], #16
    5234:	d343fc00 	lsr	x0, x0, #3
    5238:	d65f03c0 	ret

000000000000523c <mbedtls_mpi_read_binary>:
mbedtls_mpi_read_binary():
/home/thesis/Desktop/optee_rpi3bplus/optee_os/lib/libmbedtls/mbedtls/library/bignum.c:769
    523c:	a9bc7bfd 	stp	x29, x30, [sp, #-64]!
/home/thesis/Desktop/optee_rpi3bplus/optee_os/lib/libmbedtls/mbedtls/library/bignum.c:772
    5240:	f240045f 	tst	x2, #0x3
/home/thesis/Desktop/optee_rpi3bplus/optee_os/lib/libmbedtls/mbedtls/library/bignum.c:769
    5244:	910003fd 	mov	x29, sp
    5248:	a9025bf5 	stp	x21, x22, [sp, #32]
    524c:	aa0103f6 	mov	x22, x1
/home/thesis/Desktop/optee_rpi3bplus/optee_os/lib/libmbedtls/mbedtls/library/bignum.c:772
    5250:	d342fc55 	lsr	x21, x2, #2
/home/thesis/Desktop/optee_rpi3bplus/optee_os/lib/libmbedtls/mbedtls/library/bignum.c:778
    5254:	f9400401 	ldr	x1, [x0, #8]
/home/thesis/Desktop/optee_rpi3bplus/optee_os/lib/libmbedtls/mbedtls/library/bignum.c:769
    5258:	a90153f3 	stp	x19, x20, [sp, #16]
/home/thesis/Desktop/optee_rpi3bplus/optee_os/lib/libmbedtls/mbedtls/library/bignum.c:772
    525c:	9a9506b5 	cinc	x21, x21, ne  // ne = any
/home/thesis/Desktop/optee_rpi3bplus/optee_os/lib/libmbedtls/mbedtls/library/bignum.c:769
    5260:	f9001bf7 	str	x23, [sp, #48]
    5264:	aa0003f3 	mov	x19, x0
    5268:	aa0203f4 	mov	x20, x2
/home/thesis/Desktop/optee_rpi3bplus/optee_os/lib/libmbedtls/mbedtls/library/bignum.c:778
    526c:	eb15003f 	cmp	x1, x21
    5270:	54000241 	b.ne	52b8 <mbedtls_mpi_read_binary+0x7c>  // b.any
/home/thesis/Desktop/optee_rpi3bplus/optee_os/lib/libmbedtls/mbedtls/library/bignum.c:787
    5274:	52800001 	mov	w1, #0x0                   	// #0
    5278:	aa1303e0 	mov	x0, x19
    527c:	97ffff75 	bl	5050 <mbedtls_mpi_lset>
    5280:	35000300 	cbnz	w0, 52e0 <mbedtls_mpi_read_binary+0xa4>
/home/thesis/Desktop/optee_rpi3bplus/optee_os/lib/libmbedtls/mbedtls/library/bignum.c:789
    5284:	d2800001 	mov	x1, #0x0                   	// #0
    5288:	b40002d4 	cbz	x20, 52e0 <mbedtls_mpi_read_binary+0xa4>
/home/thesis/Desktop/optee_rpi3bplus/optee_os/lib/libmbedtls/mbedtls/library/bignum.c:790
    528c:	d1000694 	sub	x20, x20, #0x1
    5290:	927ef424 	and	x4, x1, #0xfffffffffffffffc
    5294:	f9400a65 	ldr	x5, [x19, #16]
    5298:	531d0423 	ubfiz	w3, w1, #3, #2
    529c:	38746ac2 	ldrb	w2, [x22, x20]
/home/thesis/Desktop/optee_rpi3bplus/optee_os/lib/libmbedtls/mbedtls/library/bignum.c:789
    52a0:	91000421 	add	x1, x1, #0x1
/home/thesis/Desktop/optee_rpi3bplus/optee_os/lib/libmbedtls/mbedtls/library/bignum.c:790
    52a4:	1ac32043 	lsl	w3, w2, w3
    52a8:	b86468a2 	ldr	w2, [x5, x4]
    52ac:	2a030042 	orr	w2, w2, w3
    52b0:	b82468a2 	str	w2, [x5, x4]
    52b4:	17fffff5 	b	5288 <mbedtls_mpi_read_binary+0x4c>
/home/thesis/Desktop/optee_rpi3bplus/optee_os/lib/libmbedtls/mbedtls/library/bignum.c:780
    52b8:	79c00417 	ldrsh	w23, [x0, #2]
/home/thesis/Desktop/optee_rpi3bplus/optee_os/lib/libmbedtls/mbedtls/library/bignum.c:782
    52bc:	97fffe16 	bl	4b14 <mbedtls_mpi_free>
mpi_init():
/home/thesis/Desktop/optee_rpi3bplus/optee_os/lib/libmbedtls/mbedtls/library/bignum.c:98
    52c0:	52800020 	mov	w0, #0x1                   	// #1
    52c4:	79000260 	strh	w0, [x19]
/home/thesis/Desktop/optee_rpi3bplus/optee_os/lib/libmbedtls/mbedtls/library/bignum.c:99
    52c8:	79000677 	strh	w23, [x19, #2]
mbedtls_mpi_read_binary():
/home/thesis/Desktop/optee_rpi3bplus/optee_os/lib/libmbedtls/mbedtls/library/bignum.c:784
    52cc:	aa1503e1 	mov	x1, x21
mpi_init():
/home/thesis/Desktop/optee_rpi3bplus/optee_os/lib/libmbedtls/mbedtls/library/bignum.c:101
    52d0:	a900fe7f 	stp	xzr, xzr, [x19, #8]
mbedtls_mpi_read_binary():
/home/thesis/Desktop/optee_rpi3bplus/optee_os/lib/libmbedtls/mbedtls/library/bignum.c:784
    52d4:	aa1303e0 	mov	x0, x19
    52d8:	97fffe2a 	bl	4b80 <mbedtls_mpi_grow>
    52dc:	34fffcc0 	cbz	w0, 5274 <mbedtls_mpi_read_binary+0x38>
/home/thesis/Desktop/optee_rpi3bplus/optee_os/lib/libmbedtls/mbedtls/library/bignum.c:795
    52e0:	a94153f3 	ldp	x19, x20, [sp, #16]
    52e4:	a9425bf5 	ldp	x21, x22, [sp, #32]
    52e8:	f9401bf7 	ldr	x23, [sp, #48]
    52ec:	a8c47bfd 	ldp	x29, x30, [sp], #64
    52f0:	d65f03c0 	ret

00000000000052f4 <mbedtls_mpi_write_binary>:
mbedtls_mpi_write_binary():
/home/thesis/Desktop/optee_rpi3bplus/optee_os/lib/libmbedtls/mbedtls/library/bignum.c:802
    52f4:	a9bd7bfd 	stp	x29, x30, [sp, #-48]!
    52f8:	910003fd 	mov	x29, sp
    52fc:	a90153f3 	stp	x19, x20, [sp, #16]
    5300:	aa0003f4 	mov	x20, x0
    5304:	aa0103e0 	mov	x0, x1
/home/thesis/Desktop/optee_rpi3bplus/optee_os/lib/libmbedtls/mbedtls/library/bignum.c:811
    5308:	f9400693 	ldr	x19, [x20, #8]
/home/thesis/Desktop/optee_rpi3bplus/optee_os/lib/libmbedtls/mbedtls/library/bignum.c:802
    530c:	f90013f5 	str	x21, [sp, #32]
/home/thesis/Desktop/optee_rpi3bplus/optee_os/lib/libmbedtls/mbedtls/library/bignum.c:811
    5310:	d37ef673 	lsl	x19, x19, #2
/home/thesis/Desktop/optee_rpi3bplus/optee_os/lib/libmbedtls/mbedtls/library/bignum.c:813
    5314:	eb02027f 	cmp	x19, x2
    5318:	54000382 	b.cs	5388 <mbedtls_mpi_write_binary+0x94>  // b.hs, b.nlast
/home/thesis/Desktop/optee_rpi3bplus/optee_os/lib/libmbedtls/mbedtls/library/bignum.c:821
    531c:	cb130042 	sub	x2, x2, x19
    5320:	8b020035 	add	x21, x1, x2
/home/thesis/Desktop/optee_rpi3bplus/optee_os/lib/libmbedtls/mbedtls/library/bignum.c:822
    5324:	52800001 	mov	w1, #0x0                   	// #0
    5328:	97ffefdc 	bl	1298 <memset>
/home/thesis/Desktop/optee_rpi3bplus/optee_os/lib/libmbedtls/mbedtls/library/bignum.c:821
    532c:	aa1503e0 	mov	x0, x21
    5330:	aa1303e2 	mov	x2, x19
/home/thesis/Desktop/optee_rpi3bplus/optee_os/lib/libmbedtls/mbedtls/library/bignum.c:837
    5334:	8b020000 	add	x0, x0, x2
    5338:	d2800001 	mov	x1, #0x0                   	// #0
    533c:	d1000400 	sub	x0, x0, #0x1
/home/thesis/Desktop/optee_rpi3bplus/optee_os/lib/libmbedtls/mbedtls/library/bignum.c:837 (discriminator 1)
    5340:	eb01005f 	cmp	x2, x1
    5344:	54000261 	b.ne	5390 <mbedtls_mpi_write_binary+0x9c>  // b.any
/home/thesis/Desktop/optee_rpi3bplus/optee_os/lib/libmbedtls/mbedtls/library/bignum.c:840
    5348:	52800000 	mov	w0, #0x0                   	// #0
/home/thesis/Desktop/optee_rpi3bplus/optee_os/lib/libmbedtls/mbedtls/library/bignum.c:841
    534c:	a94153f3 	ldp	x19, x20, [sp, #16]
    5350:	f94013f5 	ldr	x21, [sp, #32]
    5354:	a8c37bfd 	ldp	x29, x30, [sp], #48
    5358:	d65f03c0 	ret
/home/thesis/Desktop/optee_rpi3bplus/optee_os/lib/libmbedtls/mbedtls/library/bignum.c:832
    535c:	f9400a85 	ldr	x5, [x20, #16]
    5360:	927ef424 	and	x4, x1, #0xfffffffffffffffc
    5364:	531d0423 	ubfiz	w3, w1, #3, #2
    5368:	b86468a4 	ldr	w4, [x5, x4]
    536c:	1ac32483 	lsr	w3, w4, w3
    5370:	12001c63 	and	w3, w3, #0xff
    5374:	350001e3 	cbnz	w3, 53b0 <mbedtls_mpi_write_binary+0xbc>
/home/thesis/Desktop/optee_rpi3bplus/optee_os/lib/libmbedtls/mbedtls/library/bignum.c:830 (discriminator 2)
    5378:	91000421 	add	x1, x1, #0x1
/home/thesis/Desktop/optee_rpi3bplus/optee_os/lib/libmbedtls/mbedtls/library/bignum.c:830 (discriminator 1)
    537c:	eb13003f 	cmp	x1, x19
    5380:	54fffee1 	b.ne	535c <mbedtls_mpi_write_binary+0x68>  // b.any
    5384:	17ffffec 	b	5334 <mbedtls_mpi_write_binary+0x40>
    5388:	aa0203e1 	mov	x1, x2
    538c:	17fffffc 	b	537c <mbedtls_mpi_write_binary+0x88>
/home/thesis/Desktop/optee_rpi3bplus/optee_os/lib/libmbedtls/mbedtls/library/bignum.c:838 (discriminator 3)
    5390:	f9400a85 	ldr	x5, [x20, #16]
    5394:	927ef423 	and	x3, x1, #0xfffffffffffffffc
    5398:	531d0424 	ubfiz	w4, w1, #3, #2
/home/thesis/Desktop/optee_rpi3bplus/optee_os/lib/libmbedtls/mbedtls/library/bignum.c:837 (discriminator 3)
    539c:	91000421 	add	x1, x1, #0x1
/home/thesis/Desktop/optee_rpi3bplus/optee_os/lib/libmbedtls/mbedtls/library/bignum.c:838 (discriminator 3)
    53a0:	b86368a3 	ldr	w3, [x5, x3]
    53a4:	1ac42463 	lsr	w3, w3, w4
    53a8:	39000003 	strb	w3, [x0]
    53ac:	17ffffe4 	b	533c <mbedtls_mpi_write_binary+0x48>
/home/thesis/Desktop/optee_rpi3bplus/optee_os/lib/libmbedtls/mbedtls/library/bignum.c:833
    53b0:	128000e0 	mov	w0, #0xfffffff8            	// #-8
    53b4:	17ffffe6 	b	534c <mbedtls_mpi_write_binary+0x58>

00000000000053b8 <mbedtls_mpi_shift_l>:
mbedtls_mpi_shift_l():
/home/thesis/Desktop/optee_rpi3bplus/optee_os/lib/libmbedtls/mbedtls/library/bignum.c:847
    53b8:	a9bd7bfd 	stp	x29, x30, [sp, #-48]!
    53bc:	910003fd 	mov	x29, sp
    53c0:	a90153f3 	stp	x19, x20, [sp, #16]
    53c4:	aa0003f3 	mov	x19, x0
/home/thesis/Desktop/optee_rpi3bplus/optee_os/lib/libmbedtls/mbedtls/library/bignum.c:853
    53c8:	d345fc34 	lsr	x20, x1, #5
/home/thesis/Desktop/optee_rpi3bplus/optee_os/lib/libmbedtls/mbedtls/library/bignum.c:847
    53cc:	a9025bf5 	stp	x21, x22, [sp, #32]
    53d0:	aa0103f5 	mov	x21, x1
/home/thesis/Desktop/optee_rpi3bplus/optee_os/lib/libmbedtls/mbedtls/library/bignum.c:854
    53d4:	92401036 	and	x22, x1, #0x1f
/home/thesis/Desktop/optee_rpi3bplus/optee_os/lib/libmbedtls/mbedtls/library/bignum.c:856
    53d8:	97ffff7b 	bl	51c4 <mbedtls_mpi_bitlen>
    53dc:	8b150000 	add	x0, x0, x21
/home/thesis/Desktop/optee_rpi3bplus/optee_os/lib/libmbedtls/mbedtls/library/bignum.c:858
    53e0:	f9400661 	ldr	x1, [x19, #8]
    53e4:	eb01141f 	cmp	x0, x1, lsl #5
    53e8:	540000c8 	b.hi	5400 <mbedtls_mpi_shift_l+0x48>  // b.pmore
/home/thesis/Desktop/optee_rpi3bplus/optee_os/lib/libmbedtls/mbedtls/library/bignum.c:866
    53ec:	f1007ebf 	cmp	x21, #0x1f
    53f0:	540001c8 	b.hi	5428 <mbedtls_mpi_shift_l+0x70>  // b.pmore
/home/thesis/Desktop/optee_rpi3bplus/optee_os/lib/libmbedtls/mbedtls/library/bignum.c:878
    53f4:	b5000456 	cbnz	x22, 547c <mbedtls_mpi_shift_l+0xc4>
/home/thesis/Desktop/optee_rpi3bplus/optee_os/lib/libmbedtls/mbedtls/library/bignum.c:861
    53f8:	52800000 	mov	w0, #0x0                   	// #0
    53fc:	14000007 	b	5418 <mbedtls_mpi_shift_l+0x60>
/home/thesis/Desktop/optee_rpi3bplus/optee_os/lib/libmbedtls/mbedtls/library/bignum.c:859
    5400:	f240101f 	tst	x0, #0x1f
    5404:	d345fc00 	lsr	x0, x0, #5
    5408:	9a800401 	cinc	x1, x0, ne  // ne = any
    540c:	aa1303e0 	mov	x0, x19
    5410:	97fffddc 	bl	4b80 <mbedtls_mpi_grow>
    5414:	34fffec0 	cbz	w0, 53ec <mbedtls_mpi_shift_l+0x34>
/home/thesis/Desktop/optee_rpi3bplus/optee_os/lib/libmbedtls/mbedtls/library/bignum.c:892
    5418:	a94153f3 	ldp	x19, x20, [sp, #16]
    541c:	a9425bf5 	ldp	x21, x22, [sp, #32]
    5420:	a8c37bfd 	ldp	x29, x30, [sp], #48
    5424:	d65f03c0 	ret
/home/thesis/Desktop/optee_rpi3bplus/optee_os/lib/libmbedtls/mbedtls/library/bignum.c:868
    5428:	f9400660 	ldr	x0, [x19, #8]
    542c:	92800062 	mov	x2, #0xfffffffffffffffc    	// #-4
    5430:	9b027e82 	mul	x2, x20, x2
    5434:	d37ef401 	lsl	x1, x0, #2
    5438:	d1001021 	sub	x1, x1, #0x4
/home/thesis/Desktop/optee_rpi3bplus/optee_os/lib/libmbedtls/mbedtls/library/bignum.c:868 (discriminator 1)
    543c:	eb14001f 	cmp	x0, x20
    5440:	54000108 	b.hi	5460 <mbedtls_mpi_shift_l+0xa8>  // b.pmore
    5444:	d37ef400 	lsl	x0, x0, #2
    5448:	d1001000 	sub	x0, x0, #0x4
/home/thesis/Desktop/optee_rpi3bplus/optee_os/lib/libmbedtls/mbedtls/library/bignum.c:871 (discriminator 2)
    544c:	b100101f 	cmn	x0, #0x4
    5450:	54fffd20 	b.eq	53f4 <mbedtls_mpi_shift_l+0x3c>  // b.none
/home/thesis/Desktop/optee_rpi3bplus/optee_os/lib/libmbedtls/mbedtls/library/bignum.c:872 (discriminator 2)
    5454:	f9400a61 	ldr	x1, [x19, #16]
    5458:	b820683f 	str	wzr, [x1, x0]
    545c:	17fffffb 	b	5448 <mbedtls_mpi_shift_l+0x90>
/home/thesis/Desktop/optee_rpi3bplus/optee_os/lib/libmbedtls/mbedtls/library/bignum.c:869 (discriminator 3)
    5460:	f9400a63 	ldr	x3, [x19, #16]
/home/thesis/Desktop/optee_rpi3bplus/optee_os/lib/libmbedtls/mbedtls/library/bignum.c:868 (discriminator 3)
    5464:	d1000400 	sub	x0, x0, #0x1
/home/thesis/Desktop/optee_rpi3bplus/optee_os/lib/libmbedtls/mbedtls/library/bignum.c:869 (discriminator 3)
    5468:	8b010064 	add	x4, x3, x1
    546c:	b8626884 	ldr	w4, [x4, x2]
    5470:	b8216864 	str	w4, [x3, x1]
    5474:	d1001021 	sub	x1, x1, #0x4
    5478:	17fffff1 	b	543c <mbedtls_mpi_shift_l+0x84>
/home/thesis/Desktop/optee_rpi3bplus/optee_os/lib/libmbedtls/mbedtls/library/bignum.c:880
    547c:	f9400666 	ldr	x6, [x19, #8]
/home/thesis/Desktop/optee_rpi3bplus/optee_os/lib/libmbedtls/mbedtls/library/bignum.c:882
    5480:	52800400 	mov	w0, #0x20                  	// #32
    5484:	4b160000 	sub	w0, w0, w22
/home/thesis/Desktop/optee_rpi3bplus/optee_os/lib/libmbedtls/mbedtls/library/bignum.c:850
    5488:	52800002 	mov	w2, #0x0                   	// #0
/home/thesis/Desktop/optee_rpi3bplus/optee_os/lib/libmbedtls/mbedtls/library/bignum.c:880 (discriminator 1)
    548c:	eb1400df 	cmp	x6, x20
    5490:	54fffb49 	b.ls	53f8 <mbedtls_mpi_shift_l+0x40>  // b.plast
/home/thesis/Desktop/optee_rpi3bplus/optee_os/lib/libmbedtls/mbedtls/library/bignum.c:882 (discriminator 3)
    5494:	f9400a65 	ldr	x5, [x19, #16]
    5498:	d37ef684 	lsl	x4, x20, #2
/home/thesis/Desktop/optee_rpi3bplus/optee_os/lib/libmbedtls/mbedtls/library/bignum.c:880 (discriminator 3)
    549c:	91000694 	add	x20, x20, #0x1
/home/thesis/Desktop/optee_rpi3bplus/optee_os/lib/libmbedtls/mbedtls/library/bignum.c:882 (discriminator 3)
    54a0:	b86468a3 	ldr	w3, [x5, x4]
/home/thesis/Desktop/optee_rpi3bplus/optee_os/lib/libmbedtls/mbedtls/library/bignum.c:883 (discriminator 3)
    54a4:	1ad62061 	lsl	w1, w3, w22
/home/thesis/Desktop/optee_rpi3bplus/optee_os/lib/libmbedtls/mbedtls/library/bignum.c:884 (discriminator 3)
    54a8:	2a020021 	orr	w1, w1, w2
/home/thesis/Desktop/optee_rpi3bplus/optee_os/lib/libmbedtls/mbedtls/library/bignum.c:882 (discriminator 3)
    54ac:	1ac02462 	lsr	w2, w3, w0
/home/thesis/Desktop/optee_rpi3bplus/optee_os/lib/libmbedtls/mbedtls/library/bignum.c:884 (discriminator 3)
    54b0:	b82468a1 	str	w1, [x5, x4]
/home/thesis/Desktop/optee_rpi3bplus/optee_os/lib/libmbedtls/mbedtls/library/bignum.c:885 (discriminator 3)
    54b4:	17fffff6 	b	548c <mbedtls_mpi_shift_l+0xd4>

00000000000054b8 <mbedtls_mpi_shift_r>:
mbedtls_mpi_shift_r():
/home/thesis/Desktop/optee_rpi3bplus/optee_os/lib/libmbedtls/mbedtls/library/bignum.c:906
    54b8:	f9400402 	ldr	x2, [x0, #8]
/home/thesis/Desktop/optee_rpi3bplus/optee_os/lib/libmbedtls/mbedtls/library/bignum.c:903
    54bc:	d345fc25 	lsr	x5, x1, #5
/home/thesis/Desktop/optee_rpi3bplus/optee_os/lib/libmbedtls/mbedtls/library/bignum.c:904
    54c0:	92401023 	and	x3, x1, #0x1f
/home/thesis/Desktop/optee_rpi3bplus/optee_os/lib/libmbedtls/mbedtls/library/bignum.c:906
    54c4:	eb05005f 	cmp	x2, x5
    54c8:	54000063 	b.cc	54d4 <mbedtls_mpi_shift_r+0x1c>  // b.lo, b.ul, b.last
/home/thesis/Desktop/optee_rpi3bplus/optee_os/lib/libmbedtls/mbedtls/library/bignum.c:906 (discriminator 1)
    54cc:	54000081 	b.ne	54dc <mbedtls_mpi_shift_r+0x24>  // b.any
/home/thesis/Desktop/optee_rpi3bplus/optee_os/lib/libmbedtls/mbedtls/library/bignum.c:906 (discriminator 2)
    54d0:	b4000503 	cbz	x3, 5570 <mbedtls_mpi_shift_r+0xb8>
/home/thesis/Desktop/optee_rpi3bplus/optee_os/lib/libmbedtls/mbedtls/library/bignum.c:907
    54d4:	52800001 	mov	w1, #0x0                   	// #0
    54d8:	17fffede 	b	5050 <mbedtls_mpi_lset>
/home/thesis/Desktop/optee_rpi3bplus/optee_os/lib/libmbedtls/mbedtls/library/bignum.c:912
    54dc:	f1007c3f 	cmp	x1, #0x1f
    54e0:	54000109 	b.ls	5500 <mbedtls_mpi_shift_r+0x48>  // b.plast
    54e4:	d37ef4a6 	lsl	x6, x5, #2
    54e8:	d2800004 	mov	x4, #0x0                   	// #0
/home/thesis/Desktop/optee_rpi3bplus/optee_os/lib/libmbedtls/mbedtls/library/bignum.c:914 (discriminator 1)
    54ec:	cb050041 	sub	x1, x2, x5
    54f0:	eb04003f 	cmp	x1, x4
    54f4:	540000c8 	b.hi	550c <mbedtls_mpi_shift_r+0x54>  // b.pmore
/home/thesis/Desktop/optee_rpi3bplus/optee_os/lib/libmbedtls/mbedtls/library/bignum.c:917 (discriminator 1)
    54f8:	eb01005f 	cmp	x2, x1
    54fc:	54000148 	b.hi	5524 <mbedtls_mpi_shift_r+0x6c>  // b.pmore
/home/thesis/Desktop/optee_rpi3bplus/optee_os/lib/libmbedtls/mbedtls/library/bignum.c:924
    5500:	b5000303 	cbnz	x3, 5560 <mbedtls_mpi_shift_r+0xa8>
/home/thesis/Desktop/optee_rpi3bplus/optee_os/lib/libmbedtls/mbedtls/library/bignum.c:936
    5504:	52800000 	mov	w0, #0x0                   	// #0
    5508:	d65f03c0 	ret
/home/thesis/Desktop/optee_rpi3bplus/optee_os/lib/libmbedtls/mbedtls/library/bignum.c:915 (discriminator 3)
    550c:	f9400801 	ldr	x1, [x0, #16]
    5510:	b8666827 	ldr	w7, [x1, x6]
    5514:	910010c6 	add	x6, x6, #0x4
    5518:	b8247827 	str	w7, [x1, x4, lsl #2]
/home/thesis/Desktop/optee_rpi3bplus/optee_os/lib/libmbedtls/mbedtls/library/bignum.c:914 (discriminator 3)
    551c:	91000484 	add	x4, x4, #0x1
    5520:	17fffff3 	b	54ec <mbedtls_mpi_shift_r+0x34>
/home/thesis/Desktop/optee_rpi3bplus/optee_os/lib/libmbedtls/mbedtls/library/bignum.c:918 (discriminator 2)
    5524:	f9400804 	ldr	x4, [x0, #16]
    5528:	b821789f 	str	wzr, [x4, x1, lsl #2]
/home/thesis/Desktop/optee_rpi3bplus/optee_os/lib/libmbedtls/mbedtls/library/bignum.c:917 (discriminator 2)
    552c:	91000421 	add	x1, x1, #0x1
    5530:	17fffff2 	b	54f8 <mbedtls_mpi_shift_r+0x40>
/home/thesis/Desktop/optee_rpi3bplus/optee_os/lib/libmbedtls/mbedtls/library/bignum.c:928 (discriminator 3)
    5534:	f9400808 	ldr	x8, [x0, #16]
    5538:	d37ef447 	lsl	x7, x2, #2
    553c:	b8676906 	ldr	w6, [x8, x7]
/home/thesis/Desktop/optee_rpi3bplus/optee_os/lib/libmbedtls/mbedtls/library/bignum.c:929 (discriminator 3)
    5540:	1ac324c4 	lsr	w4, w6, w3
/home/thesis/Desktop/optee_rpi3bplus/optee_os/lib/libmbedtls/mbedtls/library/bignum.c:930 (discriminator 3)
    5544:	2a050084 	orr	w4, w4, w5
/home/thesis/Desktop/optee_rpi3bplus/optee_os/lib/libmbedtls/mbedtls/library/bignum.c:928 (discriminator 3)
    5548:	1ac120c5 	lsl	w5, w6, w1
/home/thesis/Desktop/optee_rpi3bplus/optee_os/lib/libmbedtls/mbedtls/library/bignum.c:930 (discriminator 3)
    554c:	b8276904 	str	w4, [x8, x7]
/home/thesis/Desktop/optee_rpi3bplus/optee_os/lib/libmbedtls/mbedtls/library/bignum.c:931 (discriminator 3)
    5550:	d1000442 	sub	x2, x2, #0x1
/home/thesis/Desktop/optee_rpi3bplus/optee_os/lib/libmbedtls/mbedtls/library/bignum.c:926 (discriminator 1)
    5554:	b100045f 	cmn	x2, #0x1
    5558:	54fffee1 	b.ne	5534 <mbedtls_mpi_shift_r+0x7c>  // b.any
    555c:	17ffffea 	b	5504 <mbedtls_mpi_shift_r+0x4c>
/home/thesis/Desktop/optee_rpi3bplus/optee_os/lib/libmbedtls/mbedtls/library/bignum.c:928
    5560:	52800401 	mov	w1, #0x20                  	// #32
/home/thesis/Desktop/optee_rpi3bplus/optee_os/lib/libmbedtls/mbedtls/library/bignum.c:900
    5564:	52800005 	mov	w5, #0x0                   	// #0
/home/thesis/Desktop/optee_rpi3bplus/optee_os/lib/libmbedtls/mbedtls/library/bignum.c:928
    5568:	4b030021 	sub	w1, w1, w3
    556c:	17fffff9 	b	5550 <mbedtls_mpi_shift_r+0x98>
/home/thesis/Desktop/optee_rpi3bplus/optee_os/lib/libmbedtls/mbedtls/library/bignum.c:912
    5570:	f1007c3f 	cmp	x1, #0x1f
    5574:	54fffc89 	b.ls	5504 <mbedtls_mpi_shift_r+0x4c>  // b.plast
    5578:	d2800001 	mov	x1, #0x0                   	// #0
    557c:	17ffffdf 	b	54f8 <mbedtls_mpi_shift_r+0x40>

0000000000005580 <mbedtls_mpi_cmp_abs>:
mbedtls_mpi_cmp_abs():
/home/thesis/Desktop/optee_rpi3bplus/optee_os/lib/libmbedtls/mbedtls/library/bignum.c:947
    5580:	f9400402 	ldr	x2, [x0, #8]
/home/thesis/Desktop/optee_rpi3bplus/optee_os/lib/libmbedtls/mbedtls/library/bignum.c:947 (discriminator 1)
    5584:	b50000c2 	cbnz	x2, 559c <mbedtls_mpi_cmp_abs+0x1c>
/home/thesis/Desktop/optee_rpi3bplus/optee_os/lib/libmbedtls/mbedtls/library/bignum.c:951
    5588:	f9400423 	ldr	x3, [x1, #8]
/home/thesis/Desktop/optee_rpi3bplus/optee_os/lib/libmbedtls/mbedtls/library/bignum.c:951 (discriminator 1)
    558c:	b5000143 	cbnz	x3, 55b4 <mbedtls_mpi_cmp_abs+0x34>
/home/thesis/Desktop/optee_rpi3bplus/optee_os/lib/libmbedtls/mbedtls/library/bignum.c:955
    5590:	f100005f 	cmp	x2, #0x0
    5594:	1a9f07e0 	cset	w0, ne  // ne = any
/home/thesis/Desktop/optee_rpi3bplus/optee_os/lib/libmbedtls/mbedtls/library/bignum.c:968
    5598:	d65f03c0 	ret
/home/thesis/Desktop/optee_rpi3bplus/optee_os/lib/libmbedtls/mbedtls/library/bignum.c:948
    559c:	f9400803 	ldr	x3, [x0, #16]
    55a0:	8b020863 	add	x3, x3, x2, lsl #2
    55a4:	b85fc063 	ldur	w3, [x3, #-4]
    55a8:	35ffff03 	cbnz	w3, 5588 <mbedtls_mpi_cmp_abs+0x8>
/home/thesis/Desktop/optee_rpi3bplus/optee_os/lib/libmbedtls/mbedtls/library/bignum.c:947 (discriminator 2)
    55ac:	d1000442 	sub	x2, x2, #0x1
    55b0:	17fffff5 	b	5584 <mbedtls_mpi_cmp_abs+0x4>
/home/thesis/Desktop/optee_rpi3bplus/optee_os/lib/libmbedtls/mbedtls/library/bignum.c:952
    55b4:	f9400824 	ldr	x4, [x1, #16]
    55b8:	8b030885 	add	x5, x4, x3, lsl #2
    55bc:	b85fc0a5 	ldur	w5, [x5, #-4]
    55c0:	340000a5 	cbz	w5, 55d4 <mbedtls_mpi_cmp_abs+0x54>
/home/thesis/Desktop/optee_rpi3bplus/optee_os/lib/libmbedtls/mbedtls/library/bignum.c:958
    55c4:	eb03005f 	cmp	x2, x3
    55c8:	540000a9 	b.ls	55dc <mbedtls_mpi_cmp_abs+0x5c>  // b.plast
    55cc:	52800020 	mov	w0, #0x1                   	// #1
    55d0:	17fffff2 	b	5598 <mbedtls_mpi_cmp_abs+0x18>
/home/thesis/Desktop/optee_rpi3bplus/optee_os/lib/libmbedtls/mbedtls/library/bignum.c:951 (discriminator 2)
    55d4:	d1000463 	sub	x3, x3, #0x1
    55d8:	17ffffed 	b	558c <mbedtls_mpi_cmp_abs+0xc>
/home/thesis/Desktop/optee_rpi3bplus/optee_os/lib/libmbedtls/mbedtls/library/bignum.c:959
    55dc:	540001c3 	b.cc	5614 <mbedtls_mpi_cmp_abs+0x94>  // b.lo, b.ul, b.last
    55e0:	d1000442 	sub	x2, x2, #0x1
/home/thesis/Desktop/optee_rpi3bplus/optee_os/lib/libmbedtls/mbedtls/library/bignum.c:961 (discriminator 1)
    55e4:	b100045f 	cmn	x2, #0x1
    55e8:	54000061 	b.ne	55f4 <mbedtls_mpi_cmp_abs+0x74>  // b.any
/home/thesis/Desktop/optee_rpi3bplus/optee_os/lib/libmbedtls/mbedtls/library/bignum.c:956
    55ec:	52800000 	mov	w0, #0x0                   	// #0
    55f0:	17ffffea 	b	5598 <mbedtls_mpi_cmp_abs+0x18>
/home/thesis/Desktop/optee_rpi3bplus/optee_os/lib/libmbedtls/mbedtls/library/bignum.c:963
    55f4:	f9400803 	ldr	x3, [x0, #16]
    55f8:	d37ef441 	lsl	x1, x2, #2
    55fc:	b8616863 	ldr	w3, [x3, x1]
    5600:	b8616881 	ldr	w1, [x4, x1]
    5604:	6b01007f 	cmp	w3, w1
    5608:	54fffe28 	b.hi	55cc <mbedtls_mpi_cmp_abs+0x4c>  // b.pmore
/home/thesis/Desktop/optee_rpi3bplus/optee_os/lib/libmbedtls/mbedtls/library/bignum.c:964
    560c:	d1000442 	sub	x2, x2, #0x1
    5610:	54fffea2 	b.cs	55e4 <mbedtls_mpi_cmp_abs+0x64>  // b.hs, b.nlast
/home/thesis/Desktop/optee_rpi3bplus/optee_os/lib/libmbedtls/mbedtls/library/bignum.c:959
    5614:	12800000 	mov	w0, #0xffffffff            	// #-1
    5618:	17ffffe0 	b	5598 <mbedtls_mpi_cmp_abs+0x18>

000000000000561c <mbedtls_mpi_cmp_mpi>:
mbedtls_mpi_cmp_mpi():
/home/thesis/Desktop/optee_rpi3bplus/optee_os/lib/libmbedtls/mbedtls/library/bignum.c:979
    561c:	f9400403 	ldr	x3, [x0, #8]
/home/thesis/Desktop/optee_rpi3bplus/optee_os/lib/libmbedtls/mbedtls/library/bignum.c:979 (discriminator 1)
    5620:	b5000103 	cbnz	x3, 5640 <mbedtls_mpi_cmp_mpi+0x24>
/home/thesis/Desktop/optee_rpi3bplus/optee_os/lib/libmbedtls/mbedtls/library/bignum.c:983
    5624:	f9400422 	ldr	x2, [x1, #8]
/home/thesis/Desktop/optee_rpi3bplus/optee_os/lib/libmbedtls/mbedtls/library/bignum.c:983 (discriminator 1)
    5628:	b5000182 	cbnz	x2, 5658 <mbedtls_mpi_cmp_mpi+0x3c>
/home/thesis/Desktop/optee_rpi3bplus/optee_os/lib/libmbedtls/mbedtls/library/bignum.c:987
    562c:	b4000603 	cbz	x3, 56ec <mbedtls_mpi_cmp_mpi+0xd0>
/home/thesis/Desktop/optee_rpi3bplus/optee_os/lib/libmbedtls/mbedtls/library/bignum.c:990
    5630:	eb02007f 	cmp	x3, x2
    5634:	540001e9 	b.ls	5670 <mbedtls_mpi_cmp_mpi+0x54>  // b.plast
/home/thesis/Desktop/optee_rpi3bplus/optee_os/lib/libmbedtls/mbedtls/library/bignum.c:990 (discriminator 1)
    5638:	79c00000 	ldrsh	w0, [x0]
/home/thesis/Desktop/optee_rpi3bplus/optee_os/lib/libmbedtls/mbedtls/library/bignum.c:1003
    563c:	d65f03c0 	ret
/home/thesis/Desktop/optee_rpi3bplus/optee_os/lib/libmbedtls/mbedtls/library/bignum.c:980
    5640:	f9400802 	ldr	x2, [x0, #16]
    5644:	8b030842 	add	x2, x2, x3, lsl #2
    5648:	b85fc042 	ldur	w2, [x2, #-4]
    564c:	35fffec2 	cbnz	w2, 5624 <mbedtls_mpi_cmp_mpi+0x8>
/home/thesis/Desktop/optee_rpi3bplus/optee_os/lib/libmbedtls/mbedtls/library/bignum.c:979 (discriminator 2)
    5650:	d1000463 	sub	x3, x3, #0x1
    5654:	17fffff3 	b	5620 <mbedtls_mpi_cmp_mpi+0x4>
/home/thesis/Desktop/optee_rpi3bplus/optee_os/lib/libmbedtls/mbedtls/library/bignum.c:984
    5658:	f9400824 	ldr	x4, [x1, #16]
    565c:	8b020884 	add	x4, x4, x2, lsl #2
    5660:	b85fc084 	ldur	w4, [x4, #-4]
    5664:	35fffe64 	cbnz	w4, 5630 <mbedtls_mpi_cmp_mpi+0x14>
/home/thesis/Desktop/optee_rpi3bplus/optee_os/lib/libmbedtls/mbedtls/library/bignum.c:983 (discriminator 2)
    5668:	d1000442 	sub	x2, x2, #0x1
    566c:	17ffffef 	b	5628 <mbedtls_mpi_cmp_mpi+0xc>
/home/thesis/Desktop/optee_rpi3bplus/optee_os/lib/libmbedtls/mbedtls/library/bignum.c:991
    5670:	79c00024 	ldrsh	w4, [x1]
    5674:	54000062 	b.cs	5680 <mbedtls_mpi_cmp_mpi+0x64>  // b.hs, b.nlast
/home/thesis/Desktop/optee_rpi3bplus/optee_os/lib/libmbedtls/mbedtls/library/bignum.c:991 (discriminator 1)
    5678:	4b0403e0 	neg	w0, w4
    567c:	17fffff0 	b	563c <mbedtls_mpi_cmp_mpi+0x20>
/home/thesis/Desktop/optee_rpi3bplus/optee_os/lib/libmbedtls/mbedtls/library/bignum.c:993
    5680:	79c00002 	ldrsh	w2, [x0]
    5684:	7100005f 	cmp	w2, #0x0
    5688:	5400008d 	b.le	5698 <mbedtls_mpi_cmp_mpi+0x7c>
/home/thesis/Desktop/optee_rpi3bplus/optee_os/lib/libmbedtls/mbedtls/library/bignum.c:993 (discriminator 1)
    568c:	36f802a4 	tbz	w4, #31, 56e0 <mbedtls_mpi_cmp_mpi+0xc4>
/home/thesis/Desktop/optee_rpi3bplus/optee_os/lib/libmbedtls/mbedtls/library/bignum.c:993
    5690:	52800020 	mov	w0, #0x1                   	// #1
    5694:	17ffffea 	b	563c <mbedtls_mpi_cmp_mpi+0x20>
/home/thesis/Desktop/optee_rpi3bplus/optee_os/lib/libmbedtls/mbedtls/library/bignum.c:994
    5698:	7100009f 	cmp	w4, #0x0
    569c:	5400022d 	b.le	56e0 <mbedtls_mpi_cmp_mpi+0xc4>
/home/thesis/Desktop/optee_rpi3bplus/optee_os/lib/libmbedtls/mbedtls/library/bignum.c:994 (discriminator 1)
    56a0:	34000202 	cbz	w2, 56e0 <mbedtls_mpi_cmp_mpi+0xc4>
/home/thesis/Desktop/optee_rpi3bplus/optee_os/lib/libmbedtls/mbedtls/library/bignum.c:994
    56a4:	12800000 	mov	w0, #0xffffffff            	// #-1
    56a8:	17ffffe5 	b	563c <mbedtls_mpi_cmp_mpi+0x20>
/home/thesis/Desktop/optee_rpi3bplus/optee_os/lib/libmbedtls/mbedtls/library/bignum.c:998
    56ac:	f9400805 	ldr	x5, [x0, #16]
    56b0:	d37ef464 	lsl	x4, x3, #2
    56b4:	f9400826 	ldr	x6, [x1, #16]
    56b8:	b86468a5 	ldr	w5, [x5, x4]
    56bc:	b86468c4 	ldr	w4, [x6, x4]
    56c0:	6b0400bf 	cmp	w5, w4
    56c4:	54000069 	b.ls	56d0 <mbedtls_mpi_cmp_mpi+0xb4>  // b.plast
/home/thesis/Desktop/optee_rpi3bplus/optee_os/lib/libmbedtls/mbedtls/library/bignum.c:998 (discriminator 1)
    56c8:	2a0203e0 	mov	w0, w2
    56cc:	17ffffdc 	b	563c <mbedtls_mpi_cmp_mpi+0x20>
/home/thesis/Desktop/optee_rpi3bplus/optee_os/lib/libmbedtls/mbedtls/library/bignum.c:999
    56d0:	d1000463 	sub	x3, x3, #0x1
    56d4:	54000082 	b.cs	56e4 <mbedtls_mpi_cmp_mpi+0xc8>  // b.hs, b.nlast
/home/thesis/Desktop/optee_rpi3bplus/optee_os/lib/libmbedtls/mbedtls/library/bignum.c:999 (discriminator 1)
    56d8:	4b0203e0 	neg	w0, w2
    56dc:	17ffffd8 	b	563c <mbedtls_mpi_cmp_mpi+0x20>
    56e0:	d1000463 	sub	x3, x3, #0x1
/home/thesis/Desktop/optee_rpi3bplus/optee_os/lib/libmbedtls/mbedtls/library/bignum.c:996 (discriminator 1)
    56e4:	b100047f 	cmn	x3, #0x1
    56e8:	54fffe21 	b.ne	56ac <mbedtls_mpi_cmp_mpi+0x90>  // b.any
/home/thesis/Desktop/optee_rpi3bplus/optee_os/lib/libmbedtls/mbedtls/library/bignum.c:988
    56ec:	52800000 	mov	w0, #0x0                   	// #0
    56f0:	17ffffd3 	b	563c <mbedtls_mpi_cmp_mpi+0x20>

00000000000056f4 <mbedtls_mpi_cmp_int>:
mbedtls_mpi_cmp_int():
/home/thesis/Desktop/optee_rpi3bplus/optee_os/lib/libmbedtls/mbedtls/library/bignum.c:1009
    56f4:	a9bd7bfd 	stp	x29, x30, [sp, #-48]!
/home/thesis/Desktop/optee_rpi3bplus/optee_os/lib/libmbedtls/mbedtls/library/bignum.c:1014
    56f8:	7100003f 	cmp	w1, #0x0
    56fc:	5a81a422 	cneg	w2, w1, lt  // lt = tstop
/home/thesis/Desktop/optee_rpi3bplus/optee_os/lib/libmbedtls/mbedtls/library/bignum.c:1009
    5700:	910003fd 	mov	x29, sp
/home/thesis/Desktop/optee_rpi3bplus/optee_os/lib/libmbedtls/mbedtls/library/bignum.c:1014
    5704:	b90013e2 	str	w2, [sp, #16]
/home/thesis/Desktop/optee_rpi3bplus/optee_os/lib/libmbedtls/mbedtls/library/bignum.c:1015
    5708:	52800022 	mov	w2, #0x1                   	// #1
    570c:	5a82a442 	cneg	w2, w2, lt  // lt = tstop
/home/thesis/Desktop/optee_rpi3bplus/optee_os/lib/libmbedtls/mbedtls/library/bignum.c:1016
    5710:	d2800021 	mov	x1, #0x1                   	// #1
    5714:	f90013e1 	str	x1, [sp, #32]
/home/thesis/Desktop/optee_rpi3bplus/optee_os/lib/libmbedtls/mbedtls/library/bignum.c:1017
    5718:	910043e1 	add	x1, sp, #0x10
/home/thesis/Desktop/optee_rpi3bplus/optee_os/lib/libmbedtls/mbedtls/library/bignum.c:1015
    571c:	790033e2 	strh	w2, [sp, #24]
/home/thesis/Desktop/optee_rpi3bplus/optee_os/lib/libmbedtls/mbedtls/library/bignum.c:1017
    5720:	f90017e1 	str	x1, [sp, #40]
/home/thesis/Desktop/optee_rpi3bplus/optee_os/lib/libmbedtls/mbedtls/library/bignum.c:1019
    5724:	910063e1 	add	x1, sp, #0x18
    5728:	97ffffbd 	bl	561c <mbedtls_mpi_cmp_mpi>
/home/thesis/Desktop/optee_rpi3bplus/optee_os/lib/libmbedtls/mbedtls/library/bignum.c:1020
    572c:	a8c37bfd 	ldp	x29, x30, [sp], #48
    5730:	d65f03c0 	ret

0000000000005734 <mbedtls_mpi_add_abs>:
mbedtls_mpi_add_abs():
/home/thesis/Desktop/optee_rpi3bplus/optee_os/lib/libmbedtls/mbedtls/library/bignum.c:1026
    5734:	a9bc7bfd 	stp	x29, x30, [sp, #-64]!
/home/thesis/Desktop/optee_rpi3bplus/optee_os/lib/libmbedtls/mbedtls/library/bignum.c:1034
    5738:	eb02001f 	cmp	x0, x2
/home/thesis/Desktop/optee_rpi3bplus/optee_os/lib/libmbedtls/mbedtls/library/bignum.c:1026
    573c:	910003fd 	mov	x29, sp
    5740:	a90153f3 	stp	x19, x20, [sp, #16]
    5744:	aa0103f4 	mov	x20, x1
    5748:	a9025bf5 	stp	x21, x22, [sp, #32]
    574c:	aa0003f5 	mov	x21, x0
    5750:	f9001bf7 	str	x23, [sp, #48]
/home/thesis/Desktop/optee_rpi3bplus/optee_os/lib/libmbedtls/mbedtls/library/bignum.c:1034
    5754:	540000a0 	b.eq	5768 <mbedtls_mpi_add_abs+0x34>  // b.none
    5758:	aa0203f3 	mov	x19, x2
/home/thesis/Desktop/optee_rpi3bplus/optee_os/lib/libmbedtls/mbedtls/library/bignum.c:1039
    575c:	eb01001f 	cmp	x0, x1
    5760:	54000481 	b.ne	57f0 <mbedtls_mpi_add_abs+0xbc>  // b.any
/home/thesis/Desktop/optee_rpi3bplus/optee_os/lib/libmbedtls/mbedtls/library/bignum.c:1026
    5764:	aa1303f4 	mov	x20, x19
/home/thesis/Desktop/optee_rpi3bplus/optee_os/lib/libmbedtls/mbedtls/library/bignum.c:1047
    5768:	f9400693 	ldr	x19, [x20, #8]
/home/thesis/Desktop/optee_rpi3bplus/optee_os/lib/libmbedtls/mbedtls/library/bignum.c:1045
    576c:	52800020 	mov	w0, #0x1                   	// #1
    5770:	790002a0 	strh	w0, [x21]
/home/thesis/Desktop/optee_rpi3bplus/optee_os/lib/libmbedtls/mbedtls/library/bignum.c:1047 (discriminator 1)
    5774:	b5000513 	cbnz	x19, 5814 <mbedtls_mpi_add_abs+0xe0>
/home/thesis/Desktop/optee_rpi3bplus/optee_os/lib/libmbedtls/mbedtls/library/bignum.c:1051
    5778:	aa1303e1 	mov	x1, x19
    577c:	aa1503e0 	mov	x0, x21
    5780:	97fffd00 	bl	4b80 <mbedtls_mpi_grow>
    5784:	2a0003f6 	mov	w22, w0
    5788:	350003a0 	cbnz	w0, 57fc <mbedtls_mpi_add_abs+0xc8>
/home/thesis/Desktop/optee_rpi3bplus/optee_os/lib/libmbedtls/mbedtls/library/bignum.c:1053
    578c:	f9400aa0 	ldr	x0, [x21, #16]
/home/thesis/Desktop/optee_rpi3bplus/optee_os/lib/libmbedtls/mbedtls/library/bignum.c:1058
    5790:	d2800002 	mov	x2, #0x0                   	// #0
/home/thesis/Desktop/optee_rpi3bplus/optee_os/lib/libmbedtls/mbedtls/library/bignum.c:1053
    5794:	f9400a84 	ldr	x4, [x20, #16]
    5798:	52800014 	mov	w20, #0x0                   	// #0
/home/thesis/Desktop/optee_rpi3bplus/optee_os/lib/libmbedtls/mbedtls/library/bignum.c:1058 (discriminator 1)
    579c:	eb02027f 	cmp	x19, x2
    57a0:	54000461 	b.ne	582c <mbedtls_mpi_add_abs+0xf8>  // b.any
    57a4:	8b130800 	add	x0, x0, x19, lsl #2
/home/thesis/Desktop/optee_rpi3bplus/optee_os/lib/libmbedtls/mbedtls/library/bignum.c:1065
    57a8:	340002b4 	cbz	w20, 57fc <mbedtls_mpi_add_abs+0xc8>
/home/thesis/Desktop/optee_rpi3bplus/optee_os/lib/libmbedtls/mbedtls/library/bignum.c:1067
    57ac:	f94006a1 	ldr	x1, [x21, #8]
    57b0:	91000677 	add	x23, x19, #0x1
    57b4:	eb13003f 	cmp	x1, x19
    57b8:	540000e8 	b.hi	57d4 <mbedtls_mpi_add_abs+0xa0>  // b.pmore
/home/thesis/Desktop/optee_rpi3bplus/optee_os/lib/libmbedtls/mbedtls/library/bignum.c:1069
    57bc:	aa1703e1 	mov	x1, x23
    57c0:	aa1503e0 	mov	x0, x21
    57c4:	97fffcef 	bl	4b80 <mbedtls_mpi_grow>
    57c8:	35000480 	cbnz	w0, 5858 <mbedtls_mpi_add_abs+0x124>
/home/thesis/Desktop/optee_rpi3bplus/optee_os/lib/libmbedtls/mbedtls/library/bignum.c:1070
    57cc:	f9400aa0 	ldr	x0, [x21, #16]
    57d0:	8b130800 	add	x0, x0, x19, lsl #2
/home/thesis/Desktop/optee_rpi3bplus/optee_os/lib/libmbedtls/mbedtls/library/bignum.c:1073
    57d4:	b9400001 	ldr	w1, [x0]
    57d8:	aa1703f3 	mov	x19, x23
    57dc:	0b010281 	add	w1, w20, w1
    57e0:	b8004401 	str	w1, [x0], #4
    57e4:	6b14003f 	cmp	w1, w20
    57e8:	1a9f27f4 	cset	w20, cc  // cc = lo, ul, last
    57ec:	17ffffef 	b	57a8 <mbedtls_mpi_add_abs+0x74>
/home/thesis/Desktop/optee_rpi3bplus/optee_os/lib/libmbedtls/mbedtls/library/bignum.c:1040
    57f0:	97fffd6a 	bl	4d98 <mbedtls_mpi_copy>
    57f4:	2a0003f6 	mov	w22, w0
    57f8:	34fffb60 	cbz	w0, 5764 <mbedtls_mpi_add_abs+0x30>
/home/thesis/Desktop/optee_rpi3bplus/optee_os/lib/libmbedtls/mbedtls/library/bignum.c:1079
    57fc:	2a1603e0 	mov	w0, w22
    5800:	a94153f3 	ldp	x19, x20, [sp, #16]
    5804:	a9425bf5 	ldp	x21, x22, [sp, #32]
    5808:	f9401bf7 	ldr	x23, [sp, #48]
    580c:	a8c47bfd 	ldp	x29, x30, [sp], #64
    5810:	d65f03c0 	ret
/home/thesis/Desktop/optee_rpi3bplus/optee_os/lib/libmbedtls/mbedtls/library/bignum.c:1048
    5814:	f9400a80 	ldr	x0, [x20, #16]
    5818:	8b130800 	add	x0, x0, x19, lsl #2
    581c:	b85fc000 	ldur	w0, [x0, #-4]
    5820:	35fffac0 	cbnz	w0, 5778 <mbedtls_mpi_add_abs+0x44>
/home/thesis/Desktop/optee_rpi3bplus/optee_os/lib/libmbedtls/mbedtls/library/bignum.c:1047 (discriminator 2)
    5824:	d1000673 	sub	x19, x19, #0x1
    5828:	17ffffd3 	b	5774 <mbedtls_mpi_add_abs+0x40>
/home/thesis/Desktop/optee_rpi3bplus/optee_os/lib/libmbedtls/mbedtls/library/bignum.c:1061 (discriminator 3)
    582c:	b8627801 	ldr	w1, [x0, x2, lsl #2]
/home/thesis/Desktop/optee_rpi3bplus/optee_os/lib/libmbedtls/mbedtls/library/bignum.c:1060 (discriminator 3)
    5830:	b8627883 	ldr	w3, [x4, x2, lsl #2]
/home/thesis/Desktop/optee_rpi3bplus/optee_os/lib/libmbedtls/mbedtls/library/bignum.c:1061 (discriminator 3)
    5834:	0b010281 	add	w1, w20, w1
    5838:	6b14003f 	cmp	w1, w20
/home/thesis/Desktop/optee_rpi3bplus/optee_os/lib/libmbedtls/mbedtls/library/bignum.c:1062 (discriminator 3)
    583c:	0b030021 	add	w1, w1, w3
/home/thesis/Desktop/optee_rpi3bplus/optee_os/lib/libmbedtls/mbedtls/library/bignum.c:1061 (discriminator 3)
    5840:	1a9f27f4 	cset	w20, cc  // cc = lo, ul, last
/home/thesis/Desktop/optee_rpi3bplus/optee_os/lib/libmbedtls/mbedtls/library/bignum.c:1062 (discriminator 3)
    5844:	6b03003f 	cmp	w1, w3
    5848:	1a942694 	cinc	w20, w20, cc  // cc = lo, ul, last
    584c:	b8227801 	str	w1, [x0, x2, lsl #2]
/home/thesis/Desktop/optee_rpi3bplus/optee_os/lib/libmbedtls/mbedtls/library/bignum.c:1058 (discriminator 3)
    5850:	91000442 	add	x2, x2, #0x1
    5854:	17ffffd2 	b	579c <mbedtls_mpi_add_abs+0x68>
/home/thesis/Desktop/optee_rpi3bplus/optee_os/lib/libmbedtls/mbedtls/library/bignum.c:1069
    5858:	2a0003f6 	mov	w22, w0
/home/thesis/Desktop/optee_rpi3bplus/optee_os/lib/libmbedtls/mbedtls/library/bignum.c:1078
    585c:	17ffffe8 	b	57fc <mbedtls_mpi_add_abs+0xc8>

0000000000005860 <mbedtls_mpi_sub_abs>:
mbedtls_mpi_sub_abs():
/home/thesis/Desktop/optee_rpi3bplus/optee_os/lib/libmbedtls/mbedtls/library/bignum.c:1106
    5860:	a9ba7bfd 	stp	x29, x30, [sp, #-96]!
    5864:	910003fd 	mov	x29, sp
    5868:	f9001bf7 	str	x23, [sp, #48]
    586c:	aa0103f7 	mov	x23, x1
/home/thesis/Desktop/optee_rpi3bplus/optee_os/lib/libmbedtls/mbedtls/library/bignum.c:1114
    5870:	aa0203e1 	mov	x1, x2
/home/thesis/Desktop/optee_rpi3bplus/optee_os/lib/libmbedtls/mbedtls/library/bignum.c:1106
    5874:	a90153f3 	stp	x19, x20, [sp, #16]
    5878:	aa0203f4 	mov	x20, x2
    587c:	a9025bf5 	stp	x21, x22, [sp, #32]
    5880:	aa0003f5 	mov	x21, x0
/home/thesis/Desktop/optee_rpi3bplus/optee_os/lib/libmbedtls/mbedtls/library/bignum.c:1114
    5884:	aa1703e0 	mov	x0, x23
    5888:	97ffff3e 	bl	5580 <mbedtls_mpi_cmp_abs>
    588c:	37f80500 	tbnz	w0, #31, 592c <mbedtls_mpi_sub_abs+0xcc>
/home/thesis/Desktop/optee_rpi3bplus/optee_os/lib/libmbedtls/mbedtls/library/bignum.c:1117
    5890:	910123f6 	add	x22, sp, #0x48
    5894:	aa1603e0 	mov	x0, x22
    5898:	97fffc95 	bl	4aec <mbedtls_mpi_init_mempool>
/home/thesis/Desktop/optee_rpi3bplus/optee_os/lib/libmbedtls/mbedtls/library/bignum.c:1119
    589c:	eb15029f 	cmp	x20, x21
    58a0:	540000e1 	b.ne	58bc <mbedtls_mpi_sub_abs+0x5c>  // b.any
/home/thesis/Desktop/optee_rpi3bplus/optee_os/lib/libmbedtls/mbedtls/library/bignum.c:1121
    58a4:	aa1403e1 	mov	x1, x20
    58a8:	aa1603e0 	mov	x0, x22
    58ac:	97fffd3b 	bl	4d98 <mbedtls_mpi_copy>
    58b0:	2a0003f3 	mov	w19, w0
    58b4:	35000220 	cbnz	w0, 58f8 <mbedtls_mpi_sub_abs+0x98>
/home/thesis/Desktop/optee_rpi3bplus/optee_os/lib/libmbedtls/mbedtls/library/bignum.c:1122
    58b8:	aa1603f4 	mov	x20, x22
/home/thesis/Desktop/optee_rpi3bplus/optee_os/lib/libmbedtls/mbedtls/library/bignum.c:1125
    58bc:	eb1502ff 	cmp	x23, x21
    58c0:	54000121 	b.ne	58e4 <mbedtls_mpi_sub_abs+0x84>  // b.any
/home/thesis/Desktop/optee_rpi3bplus/optee_os/lib/libmbedtls/mbedtls/library/bignum.c:1131
    58c4:	52800020 	mov	w0, #0x1                   	// #1
    58c8:	790002a0 	strh	w0, [x21]
/home/thesis/Desktop/optee_rpi3bplus/optee_os/lib/libmbedtls/mbedtls/library/bignum.c:1135
    58cc:	a9408680 	ldp	x0, x1, [x20, #8]
/home/thesis/Desktop/optee_rpi3bplus/optee_os/lib/libmbedtls/mbedtls/library/bignum.c:1135 (discriminator 1)
    58d0:	b5000240 	cbnz	x0, 5918 <mbedtls_mpi_sub_abs+0xb8>
/home/thesis/Desktop/optee_rpi3bplus/optee_os/lib/libmbedtls/mbedtls/library/bignum.c:1139
    58d4:	f9400aa2 	ldr	x2, [x21, #16]
/home/thesis/Desktop/optee_rpi3bplus/optee_os/lib/libmbedtls/mbedtls/library/bignum.c:1133
    58d8:	52800013 	mov	w19, #0x0                   	// #0
/home/thesis/Desktop/optee_rpi3bplus/optee_os/lib/libmbedtls/mbedtls/library/bignum.c:1139
    58dc:	97fffb33 	bl	45a8 <mpi_sub_hlp>
    58e0:	14000006 	b	58f8 <mbedtls_mpi_sub_abs+0x98>
/home/thesis/Desktop/optee_rpi3bplus/optee_os/lib/libmbedtls/mbedtls/library/bignum.c:1126
    58e4:	aa1703e1 	mov	x1, x23
    58e8:	aa1503e0 	mov	x0, x21
    58ec:	97fffd2b 	bl	4d98 <mbedtls_mpi_copy>
    58f0:	2a0003f3 	mov	w19, w0
    58f4:	34fffe80 	cbz	w0, 58c4 <mbedtls_mpi_sub_abs+0x64>
/home/thesis/Desktop/optee_rpi3bplus/optee_os/lib/libmbedtls/mbedtls/library/bignum.c:1143
    58f8:	aa1603e0 	mov	x0, x22
    58fc:	97fffc86 	bl	4b14 <mbedtls_mpi_free>
/home/thesis/Desktop/optee_rpi3bplus/optee_os/lib/libmbedtls/mbedtls/library/bignum.c:1146
    5900:	2a1303e0 	mov	w0, w19
    5904:	a94153f3 	ldp	x19, x20, [sp, #16]
    5908:	a9425bf5 	ldp	x21, x22, [sp, #32]
    590c:	f9401bf7 	ldr	x23, [sp, #48]
    5910:	a8c67bfd 	ldp	x29, x30, [sp], #96
    5914:	d65f03c0 	ret
/home/thesis/Desktop/optee_rpi3bplus/optee_os/lib/libmbedtls/mbedtls/library/bignum.c:1136
    5918:	8b000822 	add	x2, x1, x0, lsl #2
    591c:	b85fc042 	ldur	w2, [x2, #-4]
    5920:	35fffda2 	cbnz	w2, 58d4 <mbedtls_mpi_sub_abs+0x74>
/home/thesis/Desktop/optee_rpi3bplus/optee_os/lib/libmbedtls/mbedtls/library/bignum.c:1135 (discriminator 2)
    5924:	d1000400 	sub	x0, x0, #0x1
    5928:	17ffffea 	b	58d0 <mbedtls_mpi_sub_abs+0x70>
/home/thesis/Desktop/optee_rpi3bplus/optee_os/lib/libmbedtls/mbedtls/library/bignum.c:1115
    592c:	12800133 	mov	w19, #0xfffffff6            	// #-10
    5930:	17fffff4 	b	5900 <mbedtls_mpi_sub_abs+0xa0>

0000000000005934 <mbedtls_mpi_add_mpi>:
mbedtls_mpi_add_mpi():
/home/thesis/Desktop/optee_rpi3bplus/optee_os/lib/libmbedtls/mbedtls/library/bignum.c:1152
    5934:	a9bd7bfd 	stp	x29, x30, [sp, #-48]!
    5938:	910003fd 	mov	x29, sp
/home/thesis/Desktop/optee_rpi3bplus/optee_os/lib/libmbedtls/mbedtls/library/bignum.c:1159
    593c:	79c00043 	ldrsh	w3, [x2]
/home/thesis/Desktop/optee_rpi3bplus/optee_os/lib/libmbedtls/mbedtls/library/bignum.c:1152
    5940:	a90153f3 	stp	x19, x20, [sp, #16]
    5944:	aa0003f4 	mov	x20, x0
/home/thesis/Desktop/optee_rpi3bplus/optee_os/lib/libmbedtls/mbedtls/library/bignum.c:1158
    5948:	79c00033 	ldrsh	w19, [x1]
/home/thesis/Desktop/optee_rpi3bplus/optee_os/lib/libmbedtls/mbedtls/library/bignum.c:1152
    594c:	a9025bf5 	stp	x21, x22, [sp, #32]
/home/thesis/Desktop/optee_rpi3bplus/optee_os/lib/libmbedtls/mbedtls/library/bignum.c:1159
    5950:	1b137c63 	mul	w3, w3, w19
    5954:	36f80303 	tbz	w3, #31, 59b4 <mbedtls_mpi_add_mpi+0x80>
    5958:	aa0103f6 	mov	x22, x1
    595c:	aa0203f5 	mov	x21, x2
/home/thesis/Desktop/optee_rpi3bplus/optee_os/lib/libmbedtls/mbedtls/library/bignum.c:1161
    5960:	aa0203e1 	mov	x1, x2
    5964:	aa1603e0 	mov	x0, x22
    5968:	97ffff06 	bl	5580 <mbedtls_mpi_cmp_abs>
    596c:	37f80140 	tbnz	w0, #31, 5994 <mbedtls_mpi_add_mpi+0x60>
/home/thesis/Desktop/optee_rpi3bplus/optee_os/lib/libmbedtls/mbedtls/library/bignum.c:1163
    5970:	aa1503e2 	mov	x2, x21
    5974:	aa1603e1 	mov	x1, x22
    5978:	aa1403e0 	mov	x0, x20
    597c:	97ffffb9 	bl	5860 <mbedtls_mpi_sub_abs>
/home/thesis/Desktop/optee_rpi3bplus/optee_os/lib/libmbedtls/mbedtls/library/bignum.c:1174
    5980:	34000160 	cbz	w0, 59ac <mbedtls_mpi_add_mpi+0x78>
/home/thesis/Desktop/optee_rpi3bplus/optee_os/lib/libmbedtls/mbedtls/library/bignum.c:1181
    5984:	a94153f3 	ldp	x19, x20, [sp, #16]
    5988:	a9425bf5 	ldp	x21, x22, [sp, #32]
    598c:	a8c37bfd 	ldp	x29, x30, [sp], #48
    5990:	d65f03c0 	ret
/home/thesis/Desktop/optee_rpi3bplus/optee_os/lib/libmbedtls/mbedtls/library/bignum.c:1168
    5994:	aa1603e2 	mov	x2, x22
    5998:	aa1503e1 	mov	x1, x21
    599c:	aa1403e0 	mov	x0, x20
    59a0:	97ffffb0 	bl	5860 <mbedtls_mpi_sub_abs>
    59a4:	35ffff00 	cbnz	w0, 5984 <mbedtls_mpi_add_mpi+0x50>
/home/thesis/Desktop/optee_rpi3bplus/optee_os/lib/libmbedtls/mbedtls/library/bignum.c:1169
    59a8:	4b1303f3 	neg	w19, w19
/home/thesis/Desktop/optee_rpi3bplus/optee_os/lib/libmbedtls/mbedtls/library/bignum.c:1175
    59ac:	79000293 	strh	w19, [x20]
/home/thesis/Desktop/optee_rpi3bplus/optee_os/lib/libmbedtls/mbedtls/library/bignum.c:1180
    59b0:	17fffff5 	b	5984 <mbedtls_mpi_add_mpi+0x50>
/home/thesis/Desktop/optee_rpi3bplus/optee_os/lib/libmbedtls/mbedtls/library/bignum.c:1174
    59b4:	97ffff60 	bl	5734 <mbedtls_mpi_add_abs>
    59b8:	17fffff2 	b	5980 <mbedtls_mpi_add_mpi+0x4c>

00000000000059bc <mbedtls_mpi_sub_mpi>:
mbedtls_mpi_sub_mpi():
/home/thesis/Desktop/optee_rpi3bplus/optee_os/lib/libmbedtls/mbedtls/library/bignum.c:1187
    59bc:	a9bd7bfd 	stp	x29, x30, [sp, #-48]!
    59c0:	910003fd 	mov	x29, sp
/home/thesis/Desktop/optee_rpi3bplus/optee_os/lib/libmbedtls/mbedtls/library/bignum.c:1194
    59c4:	79c00043 	ldrsh	w3, [x2]
/home/thesis/Desktop/optee_rpi3bplus/optee_os/lib/libmbedtls/mbedtls/library/bignum.c:1187
    59c8:	a90153f3 	stp	x19, x20, [sp, #16]
    59cc:	aa0003f4 	mov	x20, x0
/home/thesis/Desktop/optee_rpi3bplus/optee_os/lib/libmbedtls/mbedtls/library/bignum.c:1193
    59d0:	79c00033 	ldrsh	w19, [x1]
/home/thesis/Desktop/optee_rpi3bplus/optee_os/lib/libmbedtls/mbedtls/library/bignum.c:1187
    59d4:	a9025bf5 	stp	x21, x22, [sp, #32]
/home/thesis/Desktop/optee_rpi3bplus/optee_os/lib/libmbedtls/mbedtls/library/bignum.c:1194
    59d8:	1b137c63 	mul	w3, w3, w19
    59dc:	7100007f 	cmp	w3, #0x0
    59e0:	5400030d 	b.le	5a40 <mbedtls_mpi_sub_mpi+0x84>
    59e4:	aa0103f6 	mov	x22, x1
    59e8:	aa0203f5 	mov	x21, x2
/home/thesis/Desktop/optee_rpi3bplus/optee_os/lib/libmbedtls/mbedtls/library/bignum.c:1196
    59ec:	aa0203e1 	mov	x1, x2
    59f0:	aa1603e0 	mov	x0, x22
    59f4:	97fffee3 	bl	5580 <mbedtls_mpi_cmp_abs>
    59f8:	37f80140 	tbnz	w0, #31, 5a20 <mbedtls_mpi_sub_mpi+0x64>
/home/thesis/Desktop/optee_rpi3bplus/optee_os/lib/libmbedtls/mbedtls/library/bignum.c:1198
    59fc:	aa1503e2 	mov	x2, x21
    5a00:	aa1603e1 	mov	x1, x22
    5a04:	aa1403e0 	mov	x0, x20
    5a08:	97ffff96 	bl	5860 <mbedtls_mpi_sub_abs>
/home/thesis/Desktop/optee_rpi3bplus/optee_os/lib/libmbedtls/mbedtls/library/bignum.c:1209
    5a0c:	34000160 	cbz	w0, 5a38 <mbedtls_mpi_sub_mpi+0x7c>
/home/thesis/Desktop/optee_rpi3bplus/optee_os/lib/libmbedtls/mbedtls/library/bignum.c:1216
    5a10:	a94153f3 	ldp	x19, x20, [sp, #16]
    5a14:	a9425bf5 	ldp	x21, x22, [sp, #32]
    5a18:	a8c37bfd 	ldp	x29, x30, [sp], #48
    5a1c:	d65f03c0 	ret
/home/thesis/Desktop/optee_rpi3bplus/optee_os/lib/libmbedtls/mbedtls/library/bignum.c:1203
    5a20:	aa1603e2 	mov	x2, x22
    5a24:	aa1503e1 	mov	x1, x21
    5a28:	aa1403e0 	mov	x0, x20
    5a2c:	97ffff8d 	bl	5860 <mbedtls_mpi_sub_abs>
    5a30:	35ffff00 	cbnz	w0, 5a10 <mbedtls_mpi_sub_mpi+0x54>
/home/thesis/Desktop/optee_rpi3bplus/optee_os/lib/libmbedtls/mbedtls/library/bignum.c:1204
    5a34:	4b1303f3 	neg	w19, w19
/home/thesis/Desktop/optee_rpi3bplus/optee_os/lib/libmbedtls/mbedtls/library/bignum.c:1210
    5a38:	79000293 	strh	w19, [x20]
/home/thesis/Desktop/optee_rpi3bplus/optee_os/lib/libmbedtls/mbedtls/library/bignum.c:1215
    5a3c:	17fffff5 	b	5a10 <mbedtls_mpi_sub_mpi+0x54>
/home/thesis/Desktop/optee_rpi3bplus/optee_os/lib/libmbedtls/mbedtls/library/bignum.c:1209
    5a40:	97ffff3d 	bl	5734 <mbedtls_mpi_add_abs>
    5a44:	17fffff2 	b	5a0c <mbedtls_mpi_sub_mpi+0x50>

0000000000005a48 <mbedtls_mpi_add_int>:
mbedtls_mpi_add_int():
/home/thesis/Desktop/optee_rpi3bplus/optee_os/lib/libmbedtls/mbedtls/library/bignum.c:1222
    5a48:	a9bd7bfd 	stp	x29, x30, [sp, #-48]!
/home/thesis/Desktop/optee_rpi3bplus/optee_os/lib/libmbedtls/mbedtls/library/bignum.c:1228
    5a4c:	7100005f 	cmp	w2, #0x0
    5a50:	5a82a443 	cneg	w3, w2, lt  // lt = tstop
/home/thesis/Desktop/optee_rpi3bplus/optee_os/lib/libmbedtls/mbedtls/library/bignum.c:1222
    5a54:	910003fd 	mov	x29, sp
/home/thesis/Desktop/optee_rpi3bplus/optee_os/lib/libmbedtls/mbedtls/library/bignum.c:1228
    5a58:	b90013e3 	str	w3, [sp, #16]
/home/thesis/Desktop/optee_rpi3bplus/optee_os/lib/libmbedtls/mbedtls/library/bignum.c:1229
    5a5c:	52800023 	mov	w3, #0x1                   	// #1
    5a60:	5a83a463 	cneg	w3, w3, lt  // lt = tstop
/home/thesis/Desktop/optee_rpi3bplus/optee_os/lib/libmbedtls/mbedtls/library/bignum.c:1230
    5a64:	d2800022 	mov	x2, #0x1                   	// #1
    5a68:	f90013e2 	str	x2, [sp, #32]
/home/thesis/Desktop/optee_rpi3bplus/optee_os/lib/libmbedtls/mbedtls/library/bignum.c:1231
    5a6c:	910043e2 	add	x2, sp, #0x10
/home/thesis/Desktop/optee_rpi3bplus/optee_os/lib/libmbedtls/mbedtls/library/bignum.c:1229
    5a70:	790033e3 	strh	w3, [sp, #24]
/home/thesis/Desktop/optee_rpi3bplus/optee_os/lib/libmbedtls/mbedtls/library/bignum.c:1231
    5a74:	f90017e2 	str	x2, [sp, #40]
/home/thesis/Desktop/optee_rpi3bplus/optee_os/lib/libmbedtls/mbedtls/library/bignum.c:1233
    5a78:	910063e2 	add	x2, sp, #0x18
    5a7c:	97ffffae 	bl	5934 <mbedtls_mpi_add_mpi>
/home/thesis/Desktop/optee_rpi3bplus/optee_os/lib/libmbedtls/mbedtls/library/bignum.c:1234
    5a80:	a8c37bfd 	ldp	x29, x30, [sp], #48
    5a84:	d65f03c0 	ret

0000000000005a88 <mbedtls_mpi_sub_int>:
mbedtls_mpi_sub_int():
/home/thesis/Desktop/optee_rpi3bplus/optee_os/lib/libmbedtls/mbedtls/library/bignum.c:1240
    5a88:	a9bd7bfd 	stp	x29, x30, [sp, #-48]!
/home/thesis/Desktop/optee_rpi3bplus/optee_os/lib/libmbedtls/mbedtls/library/bignum.c:1246
    5a8c:	7100005f 	cmp	w2, #0x0
    5a90:	5a82a443 	cneg	w3, w2, lt  // lt = tstop
/home/thesis/Desktop/optee_rpi3bplus/optee_os/lib/libmbedtls/mbedtls/library/bignum.c:1240
    5a94:	910003fd 	mov	x29, sp
/home/thesis/Desktop/optee_rpi3bplus/optee_os/lib/libmbedtls/mbedtls/library/bignum.c:1246
    5a98:	b90013e3 	str	w3, [sp, #16]
/home/thesis/Desktop/optee_rpi3bplus/optee_os/lib/libmbedtls/mbedtls/library/bignum.c:1247
    5a9c:	52800023 	mov	w3, #0x1                   	// #1
    5aa0:	5a83a463 	cneg	w3, w3, lt  // lt = tstop
/home/thesis/Desktop/optee_rpi3bplus/optee_os/lib/libmbedtls/mbedtls/library/bignum.c:1248
    5aa4:	d2800022 	mov	x2, #0x1                   	// #1
    5aa8:	f90013e2 	str	x2, [sp, #32]
/home/thesis/Desktop/optee_rpi3bplus/optee_os/lib/libmbedtls/mbedtls/library/bignum.c:1249
    5aac:	910043e2 	add	x2, sp, #0x10
/home/thesis/Desktop/optee_rpi3bplus/optee_os/lib/libmbedtls/mbedtls/library/bignum.c:1247
    5ab0:	790033e3 	strh	w3, [sp, #24]
/home/thesis/Desktop/optee_rpi3bplus/optee_os/lib/libmbedtls/mbedtls/library/bignum.c:1249
    5ab4:	f90017e2 	str	x2, [sp, #40]
/home/thesis/Desktop/optee_rpi3bplus/optee_os/lib/libmbedtls/mbedtls/library/bignum.c:1251
    5ab8:	910063e2 	add	x2, sp, #0x18
    5abc:	97ffffc0 	bl	59bc <mbedtls_mpi_sub_mpi>
/home/thesis/Desktop/optee_rpi3bplus/optee_os/lib/libmbedtls/mbedtls/library/bignum.c:1252
    5ac0:	a8c37bfd 	ldp	x29, x30, [sp], #48
    5ac4:	d65f03c0 	ret

0000000000005ac8 <mbedtls_mpi_mul_mpi>:
mbedtls_mpi_mul_mpi():
/home/thesis/Desktop/optee_rpi3bplus/optee_os/lib/libmbedtls/mbedtls/library/bignum.c:1330
    5ac8:	a9b87bfd 	stp	x29, x30, [sp, #-128]!
    5acc:	910003fd 	mov	x29, sp
    5ad0:	a9046bf9 	stp	x25, x26, [sp, #64]
/home/thesis/Desktop/optee_rpi3bplus/optee_os/lib/libmbedtls/mbedtls/library/bignum.c:1338
    5ad4:	910143f9 	add	x25, sp, #0x50
    5ad8:	9101a3fa 	add	x26, sp, #0x68
/home/thesis/Desktop/optee_rpi3bplus/optee_os/lib/libmbedtls/mbedtls/library/bignum.c:1330
    5adc:	a90153f3 	stp	x19, x20, [sp, #16]
    5ae0:	a9025bf5 	stp	x21, x22, [sp, #32]
    5ae4:	aa0003f5 	mov	x21, x0
    5ae8:	aa0203f6 	mov	x22, x2
/home/thesis/Desktop/optee_rpi3bplus/optee_os/lib/libmbedtls/mbedtls/library/bignum.c:1338
    5aec:	aa1903e0 	mov	x0, x25
/home/thesis/Desktop/optee_rpi3bplus/optee_os/lib/libmbedtls/mbedtls/library/bignum.c:1330
    5af0:	a90363f7 	stp	x23, x24, [sp, #48]
    5af4:	aa0103f7 	mov	x23, x1
/home/thesis/Desktop/optee_rpi3bplus/optee_os/lib/libmbedtls/mbedtls/library/bignum.c:1338
    5af8:	97fffbfd 	bl	4aec <mbedtls_mpi_init_mempool>
    5afc:	aa1a03e0 	mov	x0, x26
    5b00:	97fffbfb 	bl	4aec <mbedtls_mpi_init_mempool>
/home/thesis/Desktop/optee_rpi3bplus/optee_os/lib/libmbedtls/mbedtls/library/bignum.c:1340
    5b04:	eb1702bf 	cmp	x21, x23
    5b08:	540000e1 	b.ne	5b24 <mbedtls_mpi_mul_mpi+0x5c>  // b.any
/home/thesis/Desktop/optee_rpi3bplus/optee_os/lib/libmbedtls/mbedtls/library/bignum.c:1340 (discriminator 1)
    5b0c:	aa1503e1 	mov	x1, x21
    5b10:	aa1903e0 	mov	x0, x25
    5b14:	97fffca1 	bl	4d98 <mbedtls_mpi_copy>
    5b18:	2a0003f4 	mov	w20, w0
    5b1c:	35000300 	cbnz	w0, 5b7c <mbedtls_mpi_mul_mpi+0xb4>
/home/thesis/Desktop/optee_rpi3bplus/optee_os/lib/libmbedtls/mbedtls/library/bignum.c:1340
    5b20:	aa1903f7 	mov	x23, x25
/home/thesis/Desktop/optee_rpi3bplus/optee_os/lib/libmbedtls/mbedtls/library/bignum.c:1341
    5b24:	eb1602bf 	cmp	x21, x22
    5b28:	540000e1 	b.ne	5b44 <mbedtls_mpi_mul_mpi+0x7c>  // b.any
/home/thesis/Desktop/optee_rpi3bplus/optee_os/lib/libmbedtls/mbedtls/library/bignum.c:1341 (discriminator 1)
    5b2c:	aa1503e1 	mov	x1, x21
    5b30:	aa1a03e0 	mov	x0, x26
    5b34:	97fffc99 	bl	4d98 <mbedtls_mpi_copy>
    5b38:	2a0003f4 	mov	w20, w0
    5b3c:	35000200 	cbnz	w0, 5b7c <mbedtls_mpi_mul_mpi+0xb4>
/home/thesis/Desktop/optee_rpi3bplus/optee_os/lib/libmbedtls/mbedtls/library/bignum.c:1341
    5b40:	aa1a03f6 	mov	x22, x26
/home/thesis/Desktop/optee_rpi3bplus/optee_os/lib/libmbedtls/mbedtls/library/bignum.c:1343
    5b44:	f94006f8 	ldr	x24, [x23, #8]
/home/thesis/Desktop/optee_rpi3bplus/optee_os/lib/libmbedtls/mbedtls/library/bignum.c:1343 (discriminator 1)
    5b48:	b5000318 	cbnz	x24, 5ba8 <mbedtls_mpi_mul_mpi+0xe0>
/home/thesis/Desktop/optee_rpi3bplus/optee_os/lib/libmbedtls/mbedtls/library/bignum.c:1347
    5b4c:	f94006d3 	ldr	x19, [x22, #8]
/home/thesis/Desktop/optee_rpi3bplus/optee_os/lib/libmbedtls/mbedtls/library/bignum.c:1347 (discriminator 1)
    5b50:	b5000393 	cbnz	x19, 5bc0 <mbedtls_mpi_mul_mpi+0xf8>
/home/thesis/Desktop/optee_rpi3bplus/optee_os/lib/libmbedtls/mbedtls/library/bignum.c:1351
    5b54:	8b130301 	add	x1, x24, x19
    5b58:	aa1503e0 	mov	x0, x21
    5b5c:	97fffc09 	bl	4b80 <mbedtls_mpi_grow>
    5b60:	2a0003f4 	mov	w20, w0
    5b64:	350000c0 	cbnz	w0, 5b7c <mbedtls_mpi_mul_mpi+0xb4>
/home/thesis/Desktop/optee_rpi3bplus/optee_os/lib/libmbedtls/mbedtls/library/bignum.c:1352
    5b68:	52800001 	mov	w1, #0x0                   	// #0
    5b6c:	aa1503e0 	mov	x0, x21
    5b70:	97fffd38 	bl	5050 <mbedtls_mpi_lset>
    5b74:	2a0003f4 	mov	w20, w0
    5b78:	34000400 	cbz	w0, 5bf8 <mbedtls_mpi_mul_mpi+0x130>
/home/thesis/Desktop/optee_rpi3bplus/optee_os/lib/libmbedtls/mbedtls/library/bignum.c:1361
    5b7c:	aa1a03e0 	mov	x0, x26
    5b80:	97fffbe5 	bl	4b14 <mbedtls_mpi_free>
    5b84:	aa1903e0 	mov	x0, x25
    5b88:	97fffbe3 	bl	4b14 <mbedtls_mpi_free>
/home/thesis/Desktop/optee_rpi3bplus/optee_os/lib/libmbedtls/mbedtls/library/bignum.c:1364
    5b8c:	2a1403e0 	mov	w0, w20
    5b90:	a94153f3 	ldp	x19, x20, [sp, #16]
    5b94:	a9425bf5 	ldp	x21, x22, [sp, #32]
    5b98:	a94363f7 	ldp	x23, x24, [sp, #48]
    5b9c:	a9446bf9 	ldp	x25, x26, [sp, #64]
    5ba0:	a8c87bfd 	ldp	x29, x30, [sp], #128
    5ba4:	d65f03c0 	ret
/home/thesis/Desktop/optee_rpi3bplus/optee_os/lib/libmbedtls/mbedtls/library/bignum.c:1344
    5ba8:	f9400ae0 	ldr	x0, [x23, #16]
    5bac:	8b180800 	add	x0, x0, x24, lsl #2
    5bb0:	b85fc000 	ldur	w0, [x0, #-4]
    5bb4:	35fffcc0 	cbnz	w0, 5b4c <mbedtls_mpi_mul_mpi+0x84>
/home/thesis/Desktop/optee_rpi3bplus/optee_os/lib/libmbedtls/mbedtls/library/bignum.c:1343 (discriminator 2)
    5bb8:	d1000718 	sub	x24, x24, #0x1
    5bbc:	17ffffe3 	b	5b48 <mbedtls_mpi_mul_mpi+0x80>
/home/thesis/Desktop/optee_rpi3bplus/optee_os/lib/libmbedtls/mbedtls/library/bignum.c:1348
    5bc0:	f9400ac0 	ldr	x0, [x22, #16]
    5bc4:	8b130800 	add	x0, x0, x19, lsl #2
    5bc8:	b85fc000 	ldur	w0, [x0, #-4]
    5bcc:	35fffc40 	cbnz	w0, 5b54 <mbedtls_mpi_mul_mpi+0x8c>
/home/thesis/Desktop/optee_rpi3bplus/optee_os/lib/libmbedtls/mbedtls/library/bignum.c:1347 (discriminator 2)
    5bd0:	d1000673 	sub	x19, x19, #0x1
    5bd4:	17ffffdf 	b	5b50 <mbedtls_mpi_mul_mpi+0x88>
/home/thesis/Desktop/optee_rpi3bplus/optee_os/lib/libmbedtls/mbedtls/library/bignum.c:1355 (discriminator 2)
    5bd8:	f9400ac1 	ldr	x1, [x22, #16]
    5bdc:	d37ef662 	lsl	x2, x19, #2
    5be0:	f9400aa0 	ldr	x0, [x21, #16]
    5be4:	b8626823 	ldr	w3, [x1, x2]
    5be8:	f9400ae1 	ldr	x1, [x23, #16]
    5bec:	8b020002 	add	x2, x0, x2
    5bf0:	aa1803e0 	mov	x0, x24
    5bf4:	97fffa85 	bl	4608 <mpi_mul_hlp>
    5bf8:	d1000673 	sub	x19, x19, #0x1
/home/thesis/Desktop/optee_rpi3bplus/optee_os/lib/libmbedtls/mbedtls/library/bignum.c:1354 (discriminator 1)
    5bfc:	b100067f 	cmn	x19, #0x1
    5c00:	54fffec1 	b.ne	5bd8 <mbedtls_mpi_mul_mpi+0x110>  // b.any
/home/thesis/Desktop/optee_rpi3bplus/optee_os/lib/libmbedtls/mbedtls/library/bignum.c:1357
    5c04:	794002e0 	ldrh	w0, [x23]
    5c08:	794002c1 	ldrh	w1, [x22]
    5c0c:	1b017c00 	mul	w0, w0, w1
    5c10:	790002a0 	strh	w0, [x21]
    5c14:	17ffffda 	b	5b7c <mbedtls_mpi_mul_mpi+0xb4>

0000000000005c18 <mbedtls_mpi_mul_int>:
mbedtls_mpi_mul_int():
/home/thesis/Desktop/optee_rpi3bplus/optee_os/lib/libmbedtls/mbedtls/library/bignum.c:1370
    5c18:	a9bd7bfd 	stp	x29, x30, [sp, #-48]!
/home/thesis/Desktop/optee_rpi3bplus/optee_os/lib/libmbedtls/mbedtls/library/bignum.c:1376
    5c1c:	52800023 	mov	w3, #0x1                   	// #1
/home/thesis/Desktop/optee_rpi3bplus/optee_os/lib/libmbedtls/mbedtls/library/bignum.c:1370
    5c20:	910003fd 	mov	x29, sp
/home/thesis/Desktop/optee_rpi3bplus/optee_os/lib/libmbedtls/mbedtls/library/bignum.c:1376
    5c24:	790033e3 	strh	w3, [sp, #24]
/home/thesis/Desktop/optee_rpi3bplus/optee_os/lib/libmbedtls/mbedtls/library/bignum.c:1377
    5c28:	d2800023 	mov	x3, #0x1                   	// #1
    5c2c:	f90013e3 	str	x3, [sp, #32]
/home/thesis/Desktop/optee_rpi3bplus/optee_os/lib/libmbedtls/mbedtls/library/bignum.c:1378
    5c30:	910043e3 	add	x3, sp, #0x10
/home/thesis/Desktop/optee_rpi3bplus/optee_os/lib/libmbedtls/mbedtls/library/bignum.c:1379
    5c34:	b90013e2 	str	w2, [sp, #16]
/home/thesis/Desktop/optee_rpi3bplus/optee_os/lib/libmbedtls/mbedtls/library/bignum.c:1381
    5c38:	910063e2 	add	x2, sp, #0x18
/home/thesis/Desktop/optee_rpi3bplus/optee_os/lib/libmbedtls/mbedtls/library/bignum.c:1378
    5c3c:	f90017e3 	str	x3, [sp, #40]
/home/thesis/Desktop/optee_rpi3bplus/optee_os/lib/libmbedtls/mbedtls/library/bignum.c:1381
    5c40:	97ffffa2 	bl	5ac8 <mbedtls_mpi_mul_mpi>
/home/thesis/Desktop/optee_rpi3bplus/optee_os/lib/libmbedtls/mbedtls/library/bignum.c:1382
    5c44:	a8c37bfd 	ldp	x29, x30, [sp], #48
    5c48:	d65f03c0 	ret

0000000000005c4c <mbedtls_mpi_read_string>:
mbedtls_mpi_read_string():
/home/thesis/Desktop/optee_rpi3bplus/optee_os/lib/libmbedtls/mbedtls/library/bignum.c:506
    5c4c:	a9b87bfd 	stp	x29, x30, [sp, #-128]!
/home/thesis/Desktop/optee_rpi3bplus/optee_os/lib/libmbedtls/mbedtls/library/bignum.c:514
    5c50:	51000823 	sub	w3, w1, #0x2
    5c54:	7100387f 	cmp	w3, #0xe
/home/thesis/Desktop/optee_rpi3bplus/optee_os/lib/libmbedtls/mbedtls/library/bignum.c:506
    5c58:	910003fd 	mov	x29, sp
    5c5c:	a90153f3 	stp	x19, x20, [sp, #16]
    5c60:	a9025bf5 	stp	x21, x22, [sp, #32]
    5c64:	a90363f7 	stp	x23, x24, [sp, #48]
    5c68:	a9046bf9 	stp	x25, x26, [sp, #64]
    5c6c:	f9002bfb 	str	x27, [sp, #80]
/home/thesis/Desktop/optee_rpi3bplus/optee_os/lib/libmbedtls/mbedtls/library/bignum.c:514
    5c70:	54000149 	b.ls	5c98 <mbedtls_mpi_read_string+0x4c>  // b.plast
/home/thesis/Desktop/optee_rpi3bplus/optee_os/lib/libmbedtls/mbedtls/library/bignum.c:515
    5c74:	12800073 	mov	w19, #0xfffffffc            	// #-4
/home/thesis/Desktop/optee_rpi3bplus/optee_os/lib/libmbedtls/mbedtls/library/bignum.c:574
    5c78:	2a1303e0 	mov	w0, w19
    5c7c:	a94153f3 	ldp	x19, x20, [sp, #16]
    5c80:	a9425bf5 	ldp	x21, x22, [sp, #32]
    5c84:	a94363f7 	ldp	x23, x24, [sp, #48]
    5c88:	a9446bf9 	ldp	x25, x26, [sp, #64]
    5c8c:	f9402bfb 	ldr	x27, [sp, #80]
    5c90:	a8c87bfd 	ldp	x29, x30, [sp], #128
    5c94:	d65f03c0 	ret
/home/thesis/Desktop/optee_rpi3bplus/optee_os/lib/libmbedtls/mbedtls/library/bignum.c:517
    5c98:	9101a3f8 	add	x24, sp, #0x68
    5c9c:	aa0203f6 	mov	x22, x2
    5ca0:	2a0103f7 	mov	w23, w1
    5ca4:	aa0003f4 	mov	x20, x0
    5ca8:	aa1803e0 	mov	x0, x24
    5cac:	97fffb90 	bl	4aec <mbedtls_mpi_init_mempool>
/home/thesis/Desktop/optee_rpi3bplus/optee_os/lib/libmbedtls/mbedtls/library/bignum.c:519
    5cb0:	aa1603e0 	mov	x0, x22
    5cb4:	97ffed80 	bl	12b4 <strlen>
/home/thesis/Desktop/optee_rpi3bplus/optee_os/lib/libmbedtls/mbedtls/library/bignum.c:521
    5cb8:	710042ff 	cmp	w23, #0x10
/home/thesis/Desktop/optee_rpi3bplus/optee_os/lib/libmbedtls/mbedtls/library/bignum.c:519
    5cbc:	aa0003f5 	mov	x21, x0
/home/thesis/Desktop/optee_rpi3bplus/optee_os/lib/libmbedtls/mbedtls/library/bignum.c:521
    5cc0:	54000621 	b.ne	5d84 <mbedtls_mpi_read_string+0x138>  // b.any
/home/thesis/Desktop/optee_rpi3bplus/optee_os/lib/libmbedtls/mbedtls/library/bignum.c:523
    5cc4:	92f80000 	mov	x0, #0x3fffffffffffffff    	// #4611686018427387903
    5cc8:	eb0002bf 	cmp	x21, x0
    5ccc:	54fffd48 	b.hi	5c74 <mbedtls_mpi_read_string+0x28>  // b.pmore
/home/thesis/Desktop/optee_rpi3bplus/optee_os/lib/libmbedtls/mbedtls/library/bignum.c:526
    5cd0:	d37ef6a1 	lsl	x1, x21, #2
/home/thesis/Desktop/optee_rpi3bplus/optee_os/lib/libmbedtls/mbedtls/library/bignum.c:528
    5cd4:	aa1403e0 	mov	x0, x20
/home/thesis/Desktop/optee_rpi3bplus/optee_os/lib/libmbedtls/mbedtls/library/bignum.c:526
    5cd8:	f27e083f 	tst	x1, #0x1c
    5cdc:	d345fc21 	lsr	x1, x1, #5
/home/thesis/Desktop/optee_rpi3bplus/optee_os/lib/libmbedtls/mbedtls/library/bignum.c:528
    5ce0:	9a810421 	cinc	x1, x1, ne  // ne = any
    5ce4:	97fffba7 	bl	4b80 <mbedtls_mpi_grow>
    5ce8:	2a0003f3 	mov	w19, w0
    5cec:	35000240 	cbnz	w0, 5d34 <mbedtls_mpi_read_string+0xe8>
/home/thesis/Desktop/optee_rpi3bplus/optee_os/lib/libmbedtls/mbedtls/library/bignum.c:529
    5cf0:	52800001 	mov	w1, #0x0                   	// #0
    5cf4:	aa1403e0 	mov	x0, x20
    5cf8:	97fffcd6 	bl	5050 <mbedtls_mpi_lset>
    5cfc:	2a0003f3 	mov	w19, w0
    5d00:	350001a0 	cbnz	w0, 5d34 <mbedtls_mpi_read_string+0xe8>
/home/thesis/Desktop/optee_rpi3bplus/optee_os/lib/libmbedtls/mbedtls/library/bignum.c:539
    5d04:	910193e6 	add	x6, sp, #0x64
/home/thesis/Desktop/optee_rpi3bplus/optee_os/lib/libmbedtls/mbedtls/library/bignum.c:531
    5d08:	d2800005 	mov	x5, #0x0                   	// #0
/home/thesis/Desktop/optee_rpi3bplus/optee_os/lib/libmbedtls/mbedtls/library/bignum.c:531 (discriminator 1)
    5d0c:	b5000075 	cbnz	x21, 5d18 <mbedtls_mpi_read_string+0xcc>
/home/thesis/Desktop/optee_rpi3bplus/optee_os/lib/libmbedtls/mbedtls/library/bignum.c:539
    5d10:	52800013 	mov	w19, #0x0                   	// #0
    5d14:	14000008 	b	5d34 <mbedtls_mpi_read_string+0xe8>
/home/thesis/Desktop/optee_rpi3bplus/optee_os/lib/libmbedtls/mbedtls/library/bignum.c:533
    5d18:	f10006bf 	cmp	x21, #0x1
    5d1c:	54000121 	b.ne	5d40 <mbedtls_mpi_read_string+0xf4>  // b.any
/home/thesis/Desktop/optee_rpi3bplus/optee_os/lib/libmbedtls/mbedtls/library/bignum.c:533 (discriminator 1)
    5d20:	394002c0 	ldrb	w0, [x22]
    5d24:	7100b41f 	cmp	w0, #0x2d
    5d28:	540000c1 	b.ne	5d40 <mbedtls_mpi_read_string+0xf4>  // b.any
/home/thesis/Desktop/optee_rpi3bplus/optee_os/lib/libmbedtls/mbedtls/library/bignum.c:535
    5d2c:	12800000 	mov	w0, #0xffffffff            	// #-1
    5d30:	79000280 	strh	w0, [x20]
/home/thesis/Desktop/optee_rpi3bplus/optee_os/lib/libmbedtls/mbedtls/library/bignum.c:571
    5d34:	aa1803e0 	mov	x0, x24
    5d38:	97fffb77 	bl	4b14 <mbedtls_mpi_free>
/home/thesis/Desktop/optee_rpi3bplus/optee_os/lib/libmbedtls/mbedtls/library/bignum.c:573
    5d3c:	17ffffcf 	b	5c78 <mbedtls_mpi_read_string+0x2c>
/home/thesis/Desktop/optee_rpi3bplus/optee_os/lib/libmbedtls/mbedtls/library/bignum.c:539
    5d40:	d10006b5 	sub	x21, x21, #0x1
    5d44:	52800201 	mov	w1, #0x10                  	// #16
    5d48:	aa0603e0 	mov	x0, x6
    5d4c:	38756ac2 	ldrb	w2, [x22, x21]
    5d50:	97fff9fd 	bl	4544 <mpi_get_digit>
    5d54:	350006a0 	cbnz	w0, 5e28 <mbedtls_mpi_read_string+0x1dc>
/home/thesis/Desktop/optee_rpi3bplus/optee_os/lib/libmbedtls/mbedtls/library/bignum.c:540 (discriminator 2)
    5d58:	d343fca0 	lsr	x0, x5, #3
    5d5c:	b94067e1 	ldr	w1, [sp, #100]
    5d60:	f9400a83 	ldr	x3, [x20, #16]
    5d64:	d37ef400 	lsl	x0, x0, #2
    5d68:	531e08a2 	ubfiz	w2, w5, #2, #3
/home/thesis/Desktop/optee_rpi3bplus/optee_os/lib/libmbedtls/mbedtls/library/bignum.c:531 (discriminator 2)
    5d6c:	910004a5 	add	x5, x5, #0x1
/home/thesis/Desktop/optee_rpi3bplus/optee_os/lib/libmbedtls/mbedtls/library/bignum.c:540 (discriminator 2)
    5d70:	1ac22022 	lsl	w2, w1, w2
    5d74:	b8606861 	ldr	w1, [x3, x0]
    5d78:	2a020021 	orr	w1, w1, w2
    5d7c:	b8206861 	str	w1, [x3, x0]
    5d80:	17ffffe3 	b	5d0c <mbedtls_mpi_read_string+0xc0>
/home/thesis/Desktop/optee_rpi3bplus/optee_os/lib/libmbedtls/mbedtls/library/bignum.c:545
    5d84:	52800001 	mov	w1, #0x0                   	// #0
    5d88:	aa1403e0 	mov	x0, x20
    5d8c:	97fffcb1 	bl	5050 <mbedtls_mpi_lset>
    5d90:	2a0003f3 	mov	w19, w0
    5d94:	35fffd00 	cbnz	w0, 5d34 <mbedtls_mpi_read_string+0xe8>
/home/thesis/Desktop/optee_rpi3bplus/optee_os/lib/libmbedtls/mbedtls/library/bignum.c:555
    5d98:	910193fa 	add	x26, sp, #0x64
/home/thesis/Desktop/optee_rpi3bplus/optee_os/lib/libmbedtls/mbedtls/library/bignum.c:547
    5d9c:	d2800019 	mov	x25, #0x0                   	// #0
/home/thesis/Desktop/optee_rpi3bplus/optee_os/lib/libmbedtls/mbedtls/library/bignum.c:551
    5da0:	1280001b 	mov	w27, #0xffffffff            	// #-1
/home/thesis/Desktop/optee_rpi3bplus/optee_os/lib/libmbedtls/mbedtls/library/bignum.c:547 (discriminator 1)
    5da4:	eb15033f 	cmp	x25, x21
    5da8:	54fffb40 	b.eq	5d10 <mbedtls_mpi_read_string+0xc4>  // b.none
/home/thesis/Desktop/optee_rpi3bplus/optee_os/lib/libmbedtls/mbedtls/library/bignum.c:549
    5dac:	b50000f9 	cbnz	x25, 5dc8 <mbedtls_mpi_read_string+0x17c>
/home/thesis/Desktop/optee_rpi3bplus/optee_os/lib/libmbedtls/mbedtls/library/bignum.c:549 (discriminator 1)
    5db0:	394002c0 	ldrb	w0, [x22]
    5db4:	7100b41f 	cmp	w0, #0x2d
    5db8:	54000081 	b.ne	5dc8 <mbedtls_mpi_read_string+0x17c>  // b.any
/home/thesis/Desktop/optee_rpi3bplus/optee_os/lib/libmbedtls/mbedtls/library/bignum.c:551
    5dbc:	7900029b 	strh	w27, [x20]
/home/thesis/Desktop/optee_rpi3bplus/optee_os/lib/libmbedtls/mbedtls/library/bignum.c:547 (discriminator 2)
    5dc0:	91000739 	add	x25, x25, #0x1
    5dc4:	17fffff8 	b	5da4 <mbedtls_mpi_read_string+0x158>
/home/thesis/Desktop/optee_rpi3bplus/optee_os/lib/libmbedtls/mbedtls/library/bignum.c:555
    5dc8:	38796ac2 	ldrb	w2, [x22, x25]
    5dcc:	2a1703e1 	mov	w1, w23
    5dd0:	aa1a03e0 	mov	x0, x26
    5dd4:	97fff9dc 	bl	4544 <mpi_get_digit>
    5dd8:	2a0003f3 	mov	w19, w0
    5ddc:	35fffac0 	cbnz	w0, 5d34 <mbedtls_mpi_read_string+0xe8>
/home/thesis/Desktop/optee_rpi3bplus/optee_os/lib/libmbedtls/mbedtls/library/bignum.c:556
    5de0:	2a1703e2 	mov	w2, w23
    5de4:	aa1403e1 	mov	x1, x20
    5de8:	aa1803e0 	mov	x0, x24
    5dec:	97ffff8b 	bl	5c18 <mbedtls_mpi_mul_int>
    5df0:	2a0003f3 	mov	w19, w0
    5df4:	35fffa00 	cbnz	w0, 5d34 <mbedtls_mpi_read_string+0xe8>
/home/thesis/Desktop/optee_rpi3bplus/optee_os/lib/libmbedtls/mbedtls/library/bignum.c:558
    5df8:	79c00280 	ldrsh	w0, [x20]
/home/thesis/Desktop/optee_rpi3bplus/optee_os/lib/libmbedtls/mbedtls/library/bignum.c:560
    5dfc:	aa1803e1 	mov	x1, x24
    5e00:	b94067e2 	ldr	w2, [sp, #100]
/home/thesis/Desktop/optee_rpi3bplus/optee_os/lib/libmbedtls/mbedtls/library/bignum.c:558
    5e04:	7100041f 	cmp	w0, #0x1
/home/thesis/Desktop/optee_rpi3bplus/optee_os/lib/libmbedtls/mbedtls/library/bignum.c:560
    5e08:	aa1403e0 	mov	x0, x20
/home/thesis/Desktop/optee_rpi3bplus/optee_os/lib/libmbedtls/mbedtls/library/bignum.c:558
    5e0c:	540000a1 	b.ne	5e20 <mbedtls_mpi_read_string+0x1d4>  // b.any
/home/thesis/Desktop/optee_rpi3bplus/optee_os/lib/libmbedtls/mbedtls/library/bignum.c:560
    5e10:	97ffff0e 	bl	5a48 <mbedtls_mpi_add_int>
/home/thesis/Desktop/optee_rpi3bplus/optee_os/lib/libmbedtls/mbedtls/library/bignum.c:564
    5e14:	2a0003f3 	mov	w19, w0
    5e18:	34fffd40 	cbz	w0, 5dc0 <mbedtls_mpi_read_string+0x174>
    5e1c:	17ffffc6 	b	5d34 <mbedtls_mpi_read_string+0xe8>
    5e20:	97ffff1a 	bl	5a88 <mbedtls_mpi_sub_int>
    5e24:	17fffffc 	b	5e14 <mbedtls_mpi_read_string+0x1c8>
/home/thesis/Desktop/optee_rpi3bplus/optee_os/lib/libmbedtls/mbedtls/library/bignum.c:539
    5e28:	2a0003f3 	mov	w19, w0
    5e2c:	17ffffc2 	b	5d34 <mbedtls_mpi_read_string+0xe8>

0000000000005e30 <mbedtls_mpi_div_mpi>:
mbedtls_mpi_div_mpi():
/home/thesis/Desktop/optee_rpi3bplus/optee_os/lib/libmbedtls/mbedtls/library/bignum.c:1485
    5e30:	a9ad7bfd 	stp	x29, x30, [sp, #-304]!
    5e34:	910003fd 	mov	x29, sp
    5e38:	a90153f3 	stp	x19, x20, [sp, #16]
    5e3c:	a9025bf5 	stp	x21, x22, [sp, #32]
    5e40:	a90363f7 	stp	x23, x24, [sp, #48]
    5e44:	aa0103f7 	mov	x23, x1
    5e48:	aa0203f8 	mov	x24, x2
/home/thesis/Desktop/optee_rpi3bplus/optee_os/lib/libmbedtls/mbedtls/library/bignum.c:1492
    5e4c:	52800001 	mov	w1, #0x0                   	// #0
/home/thesis/Desktop/optee_rpi3bplus/optee_os/lib/libmbedtls/mbedtls/library/bignum.c:1485
    5e50:	a9046bf9 	stp	x25, x26, [sp, #64]
    5e54:	a90573fb 	stp	x27, x28, [sp, #80]
    5e58:	aa0003fb 	mov	x27, x0
/home/thesis/Desktop/optee_rpi3bplus/optee_os/lib/libmbedtls/mbedtls/library/bignum.c:1492
    5e5c:	aa0303e0 	mov	x0, x3
/home/thesis/Desktop/optee_rpi3bplus/optee_os/lib/libmbedtls/mbedtls/library/bignum.c:1485
    5e60:	fd0033e8 	str	d8, [sp, #96]
    5e64:	f90047e3 	str	x3, [sp, #136]
/home/thesis/Desktop/optee_rpi3bplus/optee_os/lib/libmbedtls/mbedtls/library/bignum.c:1492
    5e68:	97fffe23 	bl	56f4 <mbedtls_mpi_cmp_int>
    5e6c:	34002740 	cbz	w0, 6354 <mbedtls_mpi_div_mpi+0x524>
/home/thesis/Desktop/optee_rpi3bplus/optee_os/lib/libmbedtls/mbedtls/library/bignum.c:1495
    5e70:	9102e3f4 	add	x20, sp, #0xb8
    5e74:	910343f6 	add	x22, sp, #0xd0
    5e78:	aa1403e0 	mov	x0, x20
    5e7c:	97fffb1c 	bl	4aec <mbedtls_mpi_init_mempool>
    5e80:	aa1603e0 	mov	x0, x22
/home/thesis/Desktop/optee_rpi3bplus/optee_os/lib/libmbedtls/mbedtls/library/bignum.c:1496
    5e84:	9103a3fa 	add	x26, sp, #0xe8
/home/thesis/Desktop/optee_rpi3bplus/optee_os/lib/libmbedtls/mbedtls/library/bignum.c:1495
    5e88:	97fffb19 	bl	4aec <mbedtls_mpi_init_mempool>
/home/thesis/Desktop/optee_rpi3bplus/optee_os/lib/libmbedtls/mbedtls/library/bignum.c:1496
    5e8c:	910403f5 	add	x21, sp, #0x100
    5e90:	aa1a03e0 	mov	x0, x26
    5e94:	97fffb16 	bl	4aec <mbedtls_mpi_init_mempool>
    5e98:	aa1503e0 	mov	x0, x21
    5e9c:	97fffb14 	bl	4aec <mbedtls_mpi_init_mempool>
/home/thesis/Desktop/optee_rpi3bplus/optee_os/lib/libmbedtls/mbedtls/library/bignum.c:1497
    5ea0:	910463e0 	add	x0, sp, #0x118
    5ea4:	f9003fe0 	str	x0, [sp, #120]
    5ea8:	97fffb11 	bl	4aec <mbedtls_mpi_init_mempool>
/home/thesis/Desktop/optee_rpi3bplus/optee_os/lib/libmbedtls/mbedtls/library/bignum.c:1499
    5eac:	f94047e1 	ldr	x1, [sp, #136]
    5eb0:	aa1803e0 	mov	x0, x24
    5eb4:	97fffdb3 	bl	5580 <mbedtls_mpi_cmp_abs>
    5eb8:	36f80460 	tbz	w0, #31, 5f44 <mbedtls_mpi_div_mpi+0x114>
/home/thesis/Desktop/optee_rpi3bplus/optee_os/lib/libmbedtls/mbedtls/library/bignum.c:1501
    5ebc:	b500019b 	cbnz	x27, 5eec <mbedtls_mpi_div_mpi+0xbc>
/home/thesis/Desktop/optee_rpi3bplus/optee_os/lib/libmbedtls/mbedtls/library/bignum.c:1502
    5ec0:	b5000377 	cbnz	x23, 5f2c <mbedtls_mpi_div_mpi+0xfc>
/home/thesis/Desktop/optee_rpi3bplus/optee_os/lib/libmbedtls/mbedtls/library/bignum.c:1503
    5ec4:	52800019 	mov	w25, #0x0                   	// #0
/home/thesis/Desktop/optee_rpi3bplus/optee_os/lib/libmbedtls/mbedtls/library/bignum.c:1597
    5ec8:	2a1903e0 	mov	w0, w25
    5ecc:	fd4033e8 	ldr	d8, [sp, #96]
    5ed0:	a94153f3 	ldp	x19, x20, [sp, #16]
    5ed4:	a9425bf5 	ldp	x21, x22, [sp, #32]
    5ed8:	a94363f7 	ldp	x23, x24, [sp, #48]
    5edc:	a9446bf9 	ldp	x25, x26, [sp, #64]
    5ee0:	a94573fb 	ldp	x27, x28, [sp, #80]
    5ee4:	a8d37bfd 	ldp	x29, x30, [sp], #304
    5ee8:	d65f03c0 	ret
/home/thesis/Desktop/optee_rpi3bplus/optee_os/lib/libmbedtls/mbedtls/library/bignum.c:1501 (discriminator 1)
    5eec:	52800001 	mov	w1, #0x0                   	// #0
    5ef0:	aa1b03e0 	mov	x0, x27
    5ef4:	97fffc57 	bl	5050 <mbedtls_mpi_lset>
    5ef8:	2a0003f9 	mov	w25, w0
    5efc:	34fffe20 	cbz	w0, 5ec0 <mbedtls_mpi_div_mpi+0x90>
/home/thesis/Desktop/optee_rpi3bplus/optee_os/lib/libmbedtls/mbedtls/library/bignum.c:1593
    5f00:	aa1403e0 	mov	x0, x20
    5f04:	97fffb04 	bl	4b14 <mbedtls_mpi_free>
    5f08:	aa1603e0 	mov	x0, x22
    5f0c:	97fffb02 	bl	4b14 <mbedtls_mpi_free>
    5f10:	aa1a03e0 	mov	x0, x26
    5f14:	97fffb00 	bl	4b14 <mbedtls_mpi_free>
/home/thesis/Desktop/optee_rpi3bplus/optee_os/lib/libmbedtls/mbedtls/library/bignum.c:1594
    5f18:	aa1503e0 	mov	x0, x21
    5f1c:	97fffafe 	bl	4b14 <mbedtls_mpi_free>
    5f20:	f9403fe0 	ldr	x0, [sp, #120]
    5f24:	97fffafc 	bl	4b14 <mbedtls_mpi_free>
/home/thesis/Desktop/optee_rpi3bplus/optee_os/lib/libmbedtls/mbedtls/library/bignum.c:1596
    5f28:	17ffffe8 	b	5ec8 <mbedtls_mpi_div_mpi+0x98>
/home/thesis/Desktop/optee_rpi3bplus/optee_os/lib/libmbedtls/mbedtls/library/bignum.c:1502 (discriminator 1)
    5f2c:	aa1803e1 	mov	x1, x24
    5f30:	aa1703e0 	mov	x0, x23
    5f34:	97fffb99 	bl	4d98 <mbedtls_mpi_copy>
    5f38:	2a0003f9 	mov	w25, w0
    5f3c:	35fffe20 	cbnz	w0, 5f00 <mbedtls_mpi_div_mpi+0xd0>
    5f40:	17ffffe1 	b	5ec4 <mbedtls_mpi_div_mpi+0x94>
/home/thesis/Desktop/optee_rpi3bplus/optee_os/lib/libmbedtls/mbedtls/library/bignum.c:1506
    5f44:	aa1803e1 	mov	x1, x24
    5f48:	aa1403e0 	mov	x0, x20
    5f4c:	97fffb93 	bl	4d98 <mbedtls_mpi_copy>
    5f50:	2a0003f9 	mov	w25, w0
    5f54:	35fffd60 	cbnz	w0, 5f00 <mbedtls_mpi_div_mpi+0xd0>
/home/thesis/Desktop/optee_rpi3bplus/optee_os/lib/libmbedtls/mbedtls/library/bignum.c:1507
    5f58:	f94047e1 	ldr	x1, [sp, #136]
    5f5c:	aa1603e0 	mov	x0, x22
    5f60:	97fffb8e 	bl	4d98 <mbedtls_mpi_copy>
    5f64:	2a0003f9 	mov	w25, w0
    5f68:	35fffcc0 	cbnz	w0, 5f00 <mbedtls_mpi_div_mpi+0xd0>
/home/thesis/Desktop/optee_rpi3bplus/optee_os/lib/libmbedtls/mbedtls/library/bignum.c:1510
    5f6c:	f9400701 	ldr	x1, [x24, #8]
/home/thesis/Desktop/optee_rpi3bplus/optee_os/lib/libmbedtls/mbedtls/library/bignum.c:1508
    5f70:	52800020 	mov	w0, #0x1                   	// #1
    5f74:	790173e0 	strh	w0, [sp, #184]
/home/thesis/Desktop/optee_rpi3bplus/optee_os/lib/libmbedtls/mbedtls/library/bignum.c:1510
    5f78:	91000821 	add	x1, x1, #0x2
/home/thesis/Desktop/optee_rpi3bplus/optee_os/lib/libmbedtls/mbedtls/library/bignum.c:1508
    5f7c:	7901a3e0 	strh	w0, [sp, #208]
/home/thesis/Desktop/optee_rpi3bplus/optee_os/lib/libmbedtls/mbedtls/library/bignum.c:1510
    5f80:	aa1a03e0 	mov	x0, x26
    5f84:	97fffaff 	bl	4b80 <mbedtls_mpi_grow>
    5f88:	2a0003f9 	mov	w25, w0
    5f8c:	35fffba0 	cbnz	w0, 5f00 <mbedtls_mpi_div_mpi+0xd0>
/home/thesis/Desktop/optee_rpi3bplus/optee_os/lib/libmbedtls/mbedtls/library/bignum.c:1511
    5f90:	52800001 	mov	w1, #0x0                   	// #0
    5f94:	aa1a03e0 	mov	x0, x26
    5f98:	97fffc2e 	bl	5050 <mbedtls_mpi_lset>
    5f9c:	2a0003f9 	mov	w25, w0
    5fa0:	35fffb00 	cbnz	w0, 5f00 <mbedtls_mpi_div_mpi+0xd0>
/home/thesis/Desktop/optee_rpi3bplus/optee_os/lib/libmbedtls/mbedtls/library/bignum.c:1512
    5fa4:	d2800041 	mov	x1, #0x2                   	// #2
    5fa8:	aa1503e0 	mov	x0, x21
    5fac:	97fffaf5 	bl	4b80 <mbedtls_mpi_grow>
    5fb0:	2a0003f9 	mov	w25, w0
    5fb4:	35fffa60 	cbnz	w0, 5f00 <mbedtls_mpi_div_mpi+0xd0>
/home/thesis/Desktop/optee_rpi3bplus/optee_os/lib/libmbedtls/mbedtls/library/bignum.c:1513
    5fb8:	f9403fe0 	ldr	x0, [sp, #120]
    5fbc:	d2800061 	mov	x1, #0x3                   	// #3
    5fc0:	97fffaf0 	bl	4b80 <mbedtls_mpi_grow>
    5fc4:	2a0003f9 	mov	w25, w0
    5fc8:	35fff9c0 	cbnz	w0, 5f00 <mbedtls_mpi_div_mpi+0xd0>
/home/thesis/Desktop/optee_rpi3bplus/optee_os/lib/libmbedtls/mbedtls/library/bignum.c:1515
    5fcc:	aa1603e0 	mov	x0, x22
    5fd0:	97fffc7d 	bl	51c4 <mbedtls_mpi_bitlen>
    5fd4:	92401000 	and	x0, x0, #0x1f
/home/thesis/Desktop/optee_rpi3bplus/optee_os/lib/libmbedtls/mbedtls/library/bignum.c:1516
    5fd8:	f1007c1f 	cmp	x0, #0x1f
    5fdc:	54000a00 	b.eq	611c <mbedtls_mpi_div_mpi+0x2ec>  // b.none
/home/thesis/Desktop/optee_rpi3bplus/optee_os/lib/libmbedtls/mbedtls/library/bignum.c:1518
    5fe0:	d28003e1 	mov	x1, #0x1f                  	// #31
    5fe4:	cb000020 	sub	x0, x1, x0
/home/thesis/Desktop/optee_rpi3bplus/optee_os/lib/libmbedtls/mbedtls/library/bignum.c:1519
    5fe8:	aa0003e1 	mov	x1, x0
/home/thesis/Desktop/optee_rpi3bplus/optee_os/lib/libmbedtls/mbedtls/library/bignum.c:1518
    5fec:	f90043e0 	str	x0, [sp, #128]
/home/thesis/Desktop/optee_rpi3bplus/optee_os/lib/libmbedtls/mbedtls/library/bignum.c:1519
    5ff0:	aa1403e0 	mov	x0, x20
    5ff4:	97fffcf1 	bl	53b8 <mbedtls_mpi_shift_l>
    5ff8:	2a0003f9 	mov	w25, w0
    5ffc:	35fff820 	cbnz	w0, 5f00 <mbedtls_mpi_div_mpi+0xd0>
/home/thesis/Desktop/optee_rpi3bplus/optee_os/lib/libmbedtls/mbedtls/library/bignum.c:1520
    6000:	f94043e1 	ldr	x1, [sp, #128]
    6004:	aa1603e0 	mov	x0, x22
    6008:	97fffcec 	bl	53b8 <mbedtls_mpi_shift_l>
    600c:	2a0003f9 	mov	w25, w0
    6010:	35fff780 	cbnz	w0, 5f00 <mbedtls_mpi_div_mpi+0xd0>
/home/thesis/Desktop/optee_rpi3bplus/optee_os/lib/libmbedtls/mbedtls/library/bignum.c:1524
    6014:	f94063fc 	ldr	x28, [sp, #192]
/home/thesis/Desktop/optee_rpi3bplus/optee_os/lib/libmbedtls/mbedtls/library/bignum.c:1525
    6018:	f9406fe0 	ldr	x0, [sp, #216]
    601c:	f9004be0 	str	x0, [sp, #144]
/home/thesis/Desktop/optee_rpi3bplus/optee_os/lib/libmbedtls/mbedtls/library/bignum.c:1526
    6020:	cb000393 	sub	x19, x28, x0
    6024:	9e670260 	fmov	d0, x19
    6028:	aa1603e0 	mov	x0, x22
    602c:	5f455408 	shl	d8, d0, #5
    6030:	9e660101 	fmov	x1, d8
    6034:	97fffce1 	bl	53b8 <mbedtls_mpi_shift_l>
    6038:	2a0003f9 	mov	w25, w0
    603c:	35fff620 	cbnz	w0, 5f00 <mbedtls_mpi_div_mpi+0xd0>
/home/thesis/Desktop/optee_rpi3bplus/optee_os/lib/libmbedtls/mbedtls/library/bignum.c:1530
    6040:	d37ef673 	lsl	x19, x19, #2
/home/thesis/Desktop/optee_rpi3bplus/optee_os/lib/libmbedtls/mbedtls/library/bignum.c:1528
    6044:	aa1603e1 	mov	x1, x22
    6048:	aa1403e0 	mov	x0, x20
    604c:	97fffd74 	bl	561c <mbedtls_mpi_cmp_mpi>
    6050:	36f806a0 	tbz	w0, #31, 6124 <mbedtls_mpi_div_mpi+0x2f4>
/home/thesis/Desktop/optee_rpi3bplus/optee_os/lib/libmbedtls/mbedtls/library/bignum.c:1533
    6054:	9e660101 	fmov	x1, d8
    6058:	aa1603e0 	mov	x0, x22
    605c:	97fffd17 	bl	54b8 <mbedtls_mpi_shift_r>
    6060:	2a0003f9 	mov	w25, w0
    6064:	35fff4e0 	cbnz	w0, 5f00 <mbedtls_mpi_div_mpi+0xd0>
/home/thesis/Desktop/optee_rpi3bplus/optee_os/lib/libmbedtls/mbedtls/library/bignum.c:1524
    6068:	d1000780 	sub	x0, x28, #0x1
    606c:	f9003be0 	str	x0, [sp, #112]
/home/thesis/Desktop/optee_rpi3bplus/optee_os/lib/libmbedtls/mbedtls/library/bignum.c:1525
    6070:	f9404be0 	ldr	x0, [sp, #144]
    6074:	d1001273 	sub	x19, x19, #0x4
    6078:	d1000400 	sub	x0, x0, #0x1
    607c:	f90053e0 	str	x0, [sp, #160]
/home/thesis/Desktop/optee_rpi3bplus/optee_os/lib/libmbedtls/mbedtls/library/bignum.c:1537
    6080:	d37ef400 	lsl	x0, x0, #2
    6084:	f9004be0 	str	x0, [sp, #144]
    6088:	d37ef780 	lsl	x0, x28, #2
    608c:	d100201c 	sub	x28, x0, #0x8
    6090:	d1003000 	sub	x0, x0, #0xc
    6094:	f9004fe0 	str	x0, [sp, #152]
/home/thesis/Desktop/optee_rpi3bplus/optee_os/lib/libmbedtls/mbedtls/library/bignum.c:1535 (discriminator 2)
    6098:	f9403be0 	ldr	x0, [sp, #112]
    609c:	f94053e1 	ldr	x1, [sp, #160]
    60a0:	eb01001f 	cmp	x0, x1
    60a4:	54000568 	b.hi	6150 <mbedtls_mpi_div_mpi+0x320>  // b.pmore
/home/thesis/Desktop/optee_rpi3bplus/optee_os/lib/libmbedtls/mbedtls/library/bignum.c:1575
    60a8:	b400015b 	cbz	x27, 60d0 <mbedtls_mpi_div_mpi+0x2a0>
/home/thesis/Desktop/optee_rpi3bplus/optee_os/lib/libmbedtls/mbedtls/library/bignum.c:1577
    60ac:	aa1a03e1 	mov	x1, x26
    60b0:	aa1b03e0 	mov	x0, x27
    60b4:	97fffb39 	bl	4d98 <mbedtls_mpi_copy>
    60b8:	350014a0 	cbnz	w0, 634c <mbedtls_mpi_div_mpi+0x51c>
/home/thesis/Desktop/optee_rpi3bplus/optee_os/lib/libmbedtls/mbedtls/library/bignum.c:1578
    60bc:	f94047e1 	ldr	x1, [sp, #136]
    60c0:	79400300 	ldrh	w0, [x24]
    60c4:	79400021 	ldrh	w1, [x1]
    60c8:	1b017c00 	mul	w0, w0, w1
    60cc:	79000360 	strh	w0, [x27]
/home/thesis/Desktop/optee_rpi3bplus/optee_os/lib/libmbedtls/mbedtls/library/bignum.c:1581
    60d0:	b4fff197 	cbz	x23, 5f00 <mbedtls_mpi_div_mpi+0xd0>
/home/thesis/Desktop/optee_rpi3bplus/optee_os/lib/libmbedtls/mbedtls/library/bignum.c:1583
    60d4:	f94043e1 	ldr	x1, [sp, #128]
    60d8:	aa1403e0 	mov	x0, x20
    60dc:	97fffcf7 	bl	54b8 <mbedtls_mpi_shift_r>
    60e0:	35001360 	cbnz	w0, 634c <mbedtls_mpi_div_mpi+0x51c>
/home/thesis/Desktop/optee_rpi3bplus/optee_os/lib/libmbedtls/mbedtls/library/bignum.c:1584
    60e4:	79400300 	ldrh	w0, [x24]
/home/thesis/Desktop/optee_rpi3bplus/optee_os/lib/libmbedtls/mbedtls/library/bignum.c:1585
    60e8:	aa1403e1 	mov	x1, x20
/home/thesis/Desktop/optee_rpi3bplus/optee_os/lib/libmbedtls/mbedtls/library/bignum.c:1584
    60ec:	790173e0 	strh	w0, [sp, #184]
/home/thesis/Desktop/optee_rpi3bplus/optee_os/lib/libmbedtls/mbedtls/library/bignum.c:1585
    60f0:	aa1703e0 	mov	x0, x23
    60f4:	97fffb29 	bl	4d98 <mbedtls_mpi_copy>
    60f8:	350012a0 	cbnz	w0, 634c <mbedtls_mpi_div_mpi+0x51c>
/home/thesis/Desktop/optee_rpi3bplus/optee_os/lib/libmbedtls/mbedtls/library/bignum.c:1587
    60fc:	52800001 	mov	w1, #0x0                   	// #0
    6100:	aa1703e0 	mov	x0, x23
    6104:	97fffd7c 	bl	56f4 <mbedtls_mpi_cmp_int>
    6108:	35ffefc0 	cbnz	w0, 5f00 <mbedtls_mpi_div_mpi+0xd0>
/home/thesis/Desktop/optee_rpi3bplus/optee_os/lib/libmbedtls/mbedtls/library/bignum.c:1588
    610c:	52800020 	mov	w0, #0x1                   	// #1
/home/thesis/Desktop/optee_rpi3bplus/optee_os/lib/libmbedtls/mbedtls/library/bignum.c:1585
    6110:	52800019 	mov	w25, #0x0                   	// #0
/home/thesis/Desktop/optee_rpi3bplus/optee_os/lib/libmbedtls/mbedtls/library/bignum.c:1588
    6114:	790002e0 	strh	w0, [x23]
    6118:	17ffff7a 	b	5f00 <mbedtls_mpi_div_mpi+0xd0>
/home/thesis/Desktop/optee_rpi3bplus/optee_os/lib/libmbedtls/mbedtls/library/bignum.c:1522
    611c:	f90043ff 	str	xzr, [sp, #128]
    6120:	17ffffbd 	b	6014 <mbedtls_mpi_div_mpi+0x1e4>
/home/thesis/Desktop/optee_rpi3bplus/optee_os/lib/libmbedtls/mbedtls/library/bignum.c:1530
    6124:	f9407fe1 	ldr	x1, [sp, #248]
/home/thesis/Desktop/optee_rpi3bplus/optee_os/lib/libmbedtls/mbedtls/library/bignum.c:1531
    6128:	aa1603e2 	mov	x2, x22
/home/thesis/Desktop/optee_rpi3bplus/optee_os/lib/libmbedtls/mbedtls/library/bignum.c:1530
    612c:	b8736820 	ldr	w0, [x1, x19]
    6130:	11000400 	add	w0, w0, #0x1
    6134:	b8336820 	str	w0, [x1, x19]
/home/thesis/Desktop/optee_rpi3bplus/optee_os/lib/libmbedtls/mbedtls/library/bignum.c:1531
    6138:	aa1403e1 	mov	x1, x20
    613c:	aa1403e0 	mov	x0, x20
    6140:	97fffe1f 	bl	59bc <mbedtls_mpi_sub_mpi>
    6144:	2a0003f9 	mov	w25, w0
    6148:	34fff7e0 	cbz	w0, 6044 <mbedtls_mpi_div_mpi+0x214>
    614c:	17ffff6d 	b	5f00 <mbedtls_mpi_div_mpi+0xd0>
/home/thesis/Desktop/optee_rpi3bplus/optee_os/lib/libmbedtls/mbedtls/library/bignum.c:1537
    6150:	f9403be1 	ldr	x1, [sp, #112]
    6154:	f9404be3 	ldr	x3, [sp, #144]
    6158:	f94067e0 	ldr	x0, [sp, #200]
    615c:	d37ef421 	lsl	x1, x1, #2
    6160:	f94073e2 	ldr	x2, [sp, #224]
    6164:	f90057e1 	str	x1, [sp, #168]
    6168:	f9407fe5 	ldr	x5, [sp, #248]
    616c:	b8636842 	ldr	w2, [x2, x3]
    6170:	b8616801 	ldr	w1, [x0, x1]
    6174:	8b1300a4 	add	x4, x5, x19
    6178:	6b02003f 	cmp	w1, w2
    617c:	54000c63 	b.cc	6308 <mbedtls_mpi_div_mpi+0x4d8>  // b.lo, b.ul, b.last
/home/thesis/Desktop/optee_rpi3bplus/optee_os/lib/libmbedtls/mbedtls/library/bignum.c:1538
    6180:	12800000 	mov	w0, #0xffffffff            	// #-1
    6184:	b83368a0 	str	w0, [x5, x19]
/home/thesis/Desktop/optee_rpi3bplus/optee_os/lib/libmbedtls/mbedtls/library/bignum.c:1545
    6188:	b9400080 	ldr	w0, [x4]
    618c:	11000400 	add	w0, w0, #0x1
    6190:	b9000080 	str	w0, [x4]
/home/thesis/Desktop/optee_rpi3bplus/optee_os/lib/libmbedtls/mbedtls/library/bignum.c:1548
    6194:	f9407fe1 	ldr	x1, [sp, #248]
    6198:	b8736820 	ldr	w0, [x1, x19]
    619c:	51000400 	sub	w0, w0, #0x1
    61a0:	b8336820 	str	w0, [x1, x19]
/home/thesis/Desktop/optee_rpi3bplus/optee_os/lib/libmbedtls/mbedtls/library/bignum.c:1550
    61a4:	52800001 	mov	w1, #0x0                   	// #0
    61a8:	aa1503e0 	mov	x0, x21
    61ac:	97fffba9 	bl	5050 <mbedtls_mpi_lset>
    61b0:	35000ce0 	cbnz	w0, 634c <mbedtls_mpi_div_mpi+0x51c>
/home/thesis/Desktop/optee_rpi3bplus/optee_os/lib/libmbedtls/mbedtls/library/bignum.c:1551
    61b4:	f94053e0 	ldr	x0, [sp, #160]
    61b8:	f94073e1 	ldr	x1, [sp, #224]
    61bc:	b4000c00 	cbz	x0, 633c <mbedtls_mpi_div_mpi+0x50c>
/home/thesis/Desktop/optee_rpi3bplus/optee_os/lib/libmbedtls/mbedtls/library/bignum.c:1551 (discriminator 1)
    61c0:	f9404be0 	ldr	x0, [sp, #144]
    61c4:	8b000020 	add	x0, x1, x0
    61c8:	b85fc002 	ldur	w2, [x0, #-4]
/home/thesis/Desktop/optee_rpi3bplus/optee_os/lib/libmbedtls/mbedtls/library/bignum.c:1551 (discriminator 4)
    61cc:	f9408be0 	ldr	x0, [sp, #272]
    61d0:	b9000002 	str	w2, [x0]
/home/thesis/Desktop/optee_rpi3bplus/optee_os/lib/libmbedtls/mbedtls/library/bignum.c:1552 (discriminator 4)
    61d4:	f9404be2 	ldr	x2, [sp, #144]
    61d8:	b8626821 	ldr	w1, [x1, x2]
    61dc:	b9000401 	str	w1, [x0, #4]
/home/thesis/Desktop/optee_rpi3bplus/optee_os/lib/libmbedtls/mbedtls/library/bignum.c:1553 (discriminator 4)
    61e0:	aa1503e1 	mov	x1, x21
    61e4:	f9407fe0 	ldr	x0, [sp, #248]
    61e8:	b8736802 	ldr	w2, [x0, x19]
    61ec:	aa1503e0 	mov	x0, x21
    61f0:	97fffe8a 	bl	5c18 <mbedtls_mpi_mul_int>
    61f4:	35000ac0 	cbnz	w0, 634c <mbedtls_mpi_div_mpi+0x51c>
/home/thesis/Desktop/optee_rpi3bplus/optee_os/lib/libmbedtls/mbedtls/library/bignum.c:1555
    61f8:	f9403fe0 	ldr	x0, [sp, #120]
    61fc:	52800001 	mov	w1, #0x0                   	// #0
    6200:	97fffb94 	bl	5050 <mbedtls_mpi_lset>
    6204:	35000a40 	cbnz	w0, 634c <mbedtls_mpi_div_mpi+0x51c>
/home/thesis/Desktop/optee_rpi3bplus/optee_os/lib/libmbedtls/mbedtls/library/bignum.c:1556
    6208:	f9403be0 	ldr	x0, [sp, #112]
    620c:	f94067e1 	ldr	x1, [sp, #200]
    6210:	f100041f 	cmp	x0, #0x1
    6214:	54000980 	b.eq	6344 <mbedtls_mpi_div_mpi+0x514>  // b.none
/home/thesis/Desktop/optee_rpi3bplus/optee_os/lib/libmbedtls/mbedtls/library/bignum.c:1556 (discriminator 1)
    6218:	f9404fe0 	ldr	x0, [sp, #152]
    621c:	b8606822 	ldr	w2, [x1, x0]
/home/thesis/Desktop/optee_rpi3bplus/optee_os/lib/libmbedtls/mbedtls/library/bignum.c:1556 (discriminator 4)
    6220:	f94097e0 	ldr	x0, [sp, #296]
    6224:	b9000002 	str	w2, [x0]
/home/thesis/Desktop/optee_rpi3bplus/optee_os/lib/libmbedtls/mbedtls/library/bignum.c:1557 (discriminator 4)
    6228:	b87c6822 	ldr	w2, [x1, x28]
    622c:	b9000402 	str	w2, [x0, #4]
/home/thesis/Desktop/optee_rpi3bplus/optee_os/lib/libmbedtls/mbedtls/library/bignum.c:1558 (discriminator 4)
    6230:	f94057e2 	ldr	x2, [sp, #168]
    6234:	b8626821 	ldr	w1, [x1, x2]
    6238:	b9000801 	str	w1, [x0, #8]
/home/thesis/Desktop/optee_rpi3bplus/optee_os/lib/libmbedtls/mbedtls/library/bignum.c:1560 (discriminator 4)
    623c:	aa1503e0 	mov	x0, x21
    6240:	f9403fe1 	ldr	x1, [sp, #120]
    6244:	97fffcf6 	bl	561c <mbedtls_mpi_cmp_mpi>
    6248:	7100001f 	cmp	w0, #0x0
    624c:	54fffa4c 	b.gt	6194 <mbedtls_mpi_div_mpi+0x364>
/home/thesis/Desktop/optee_rpi3bplus/optee_os/lib/libmbedtls/mbedtls/library/bignum.c:1562
    6250:	f9407fe0 	ldr	x0, [sp, #248]
    6254:	aa1603e1 	mov	x1, x22
    6258:	b8736802 	ldr	w2, [x0, x19]
    625c:	aa1503e0 	mov	x0, x21
    6260:	97fffe6e 	bl	5c18 <mbedtls_mpi_mul_int>
    6264:	35000740 	cbnz	w0, 634c <mbedtls_mpi_div_mpi+0x51c>
/home/thesis/Desktop/optee_rpi3bplus/optee_os/lib/libmbedtls/mbedtls/library/bignum.c:1563
    6268:	d37df260 	lsl	x0, x19, #3
    626c:	f90057e0 	str	x0, [sp, #168]
    6270:	aa0003e1 	mov	x1, x0
    6274:	aa1503e0 	mov	x0, x21
    6278:	97fffc50 	bl	53b8 <mbedtls_mpi_shift_l>
    627c:	35000680 	cbnz	w0, 634c <mbedtls_mpi_div_mpi+0x51c>
/home/thesis/Desktop/optee_rpi3bplus/optee_os/lib/libmbedtls/mbedtls/library/bignum.c:1564
    6280:	aa1503e2 	mov	x2, x21
    6284:	aa1403e1 	mov	x1, x20
    6288:	aa1403e0 	mov	x0, x20
    628c:	97fffdcc 	bl	59bc <mbedtls_mpi_sub_mpi>
    6290:	350005e0 	cbnz	w0, 634c <mbedtls_mpi_div_mpi+0x51c>
/home/thesis/Desktop/optee_rpi3bplus/optee_os/lib/libmbedtls/mbedtls/library/bignum.c:1566
    6294:	52800001 	mov	w1, #0x0                   	// #0
    6298:	aa1403e0 	mov	x0, x20
    629c:	97fffd16 	bl	56f4 <mbedtls_mpi_cmp_int>
    62a0:	36f80240 	tbz	w0, #31, 62e8 <mbedtls_mpi_div_mpi+0x4b8>
/home/thesis/Desktop/optee_rpi3bplus/optee_os/lib/libmbedtls/mbedtls/library/bignum.c:1568
    62a4:	aa1603e1 	mov	x1, x22
    62a8:	aa1503e0 	mov	x0, x21
    62ac:	97fffabb 	bl	4d98 <mbedtls_mpi_copy>
    62b0:	350004e0 	cbnz	w0, 634c <mbedtls_mpi_div_mpi+0x51c>
/home/thesis/Desktop/optee_rpi3bplus/optee_os/lib/libmbedtls/mbedtls/library/bignum.c:1569
    62b4:	d37df261 	lsl	x1, x19, #3
    62b8:	aa1503e0 	mov	x0, x21
    62bc:	97fffc3f 	bl	53b8 <mbedtls_mpi_shift_l>
    62c0:	35000460 	cbnz	w0, 634c <mbedtls_mpi_div_mpi+0x51c>
/home/thesis/Desktop/optee_rpi3bplus/optee_os/lib/libmbedtls/mbedtls/library/bignum.c:1570
    62c4:	aa1503e2 	mov	x2, x21
    62c8:	aa1403e1 	mov	x1, x20
    62cc:	aa1403e0 	mov	x0, x20
    62d0:	97fffd99 	bl	5934 <mbedtls_mpi_add_mpi>
    62d4:	350003c0 	cbnz	w0, 634c <mbedtls_mpi_div_mpi+0x51c>
/home/thesis/Desktop/optee_rpi3bplus/optee_os/lib/libmbedtls/mbedtls/library/bignum.c:1571
    62d8:	f9407fe1 	ldr	x1, [sp, #248]
    62dc:	b8736820 	ldr	w0, [x1, x19]
    62e0:	51000400 	sub	w0, w0, #0x1
    62e4:	b8336820 	str	w0, [x1, x19]
/home/thesis/Desktop/optee_rpi3bplus/optee_os/lib/libmbedtls/mbedtls/library/bignum.c:1535 (discriminator 2)
    62e8:	f9403be0 	ldr	x0, [sp, #112]
    62ec:	d1001273 	sub	x19, x19, #0x4
    62f0:	d100139c 	sub	x28, x28, #0x4
    62f4:	d1000400 	sub	x0, x0, #0x1
    62f8:	f9003be0 	str	x0, [sp, #112]
    62fc:	f9404fe0 	ldr	x0, [sp, #152]
    6300:	d1001000 	sub	x0, x0, #0x4
    6304:	17ffff64 	b	6094 <mbedtls_mpi_div_mpi+0x264>
/home/thesis/Desktop/optee_rpi3bplus/optee_os/lib/libmbedtls/mbedtls/library/bignum.c:1541
    6308:	b87c6800 	ldr	w0, [x0, x28]
mbedtls_int_div_int():
/home/thesis/Desktop/optee_rpi3bplus/optee_os/lib/libmbedtls/mbedtls/library/bignum.c:1404
    630c:	34000142 	cbz	w2, 6334 <mbedtls_mpi_div_mpi+0x504>
/home/thesis/Desktop/optee_rpi3bplus/optee_os/lib/libmbedtls/mbedtls/library/bignum.c:1413
    6310:	2a0003e0 	mov	w0, w0
/home/thesis/Desktop/optee_rpi3bplus/optee_os/lib/libmbedtls/mbedtls/library/bignum.c:1414
    6314:	2a0203e2 	mov	w2, w2
/home/thesis/Desktop/optee_rpi3bplus/optee_os/lib/libmbedtls/mbedtls/library/bignum.c:1413
    6318:	aa018000 	orr	x0, x0, x1, lsl #32
/home/thesis/Desktop/optee_rpi3bplus/optee_os/lib/libmbedtls/mbedtls/library/bignum.c:1421
    631c:	b2407fe1 	mov	x1, #0xffffffff            	// #4294967295
/home/thesis/Desktop/optee_rpi3bplus/optee_os/lib/libmbedtls/mbedtls/library/bignum.c:1414
    6320:	9ac20800 	udiv	x0, x0, x2
/home/thesis/Desktop/optee_rpi3bplus/optee_os/lib/libmbedtls/mbedtls/library/bignum.c:1421
    6324:	eb01001f 	cmp	x0, x1
    6328:	9a819000 	csel	x0, x0, x1, ls  // ls = plast
mbedtls_mpi_div_mpi():
/home/thesis/Desktop/optee_rpi3bplus/optee_os/lib/libmbedtls/mbedtls/library/bignum.c:1541
    632c:	b9000080 	str	w0, [x4]
    6330:	17ffff96 	b	6188 <mbedtls_mpi_div_mpi+0x358>
mbedtls_int_div_int():
/home/thesis/Desktop/optee_rpi3bplus/optee_os/lib/libmbedtls/mbedtls/library/bignum.c:1408
    6334:	12800000 	mov	w0, #0xffffffff            	// #-1
    6338:	17fffffd 	b	632c <mbedtls_mpi_div_mpi+0x4fc>
mbedtls_mpi_div_mpi():
/home/thesis/Desktop/optee_rpi3bplus/optee_os/lib/libmbedtls/mbedtls/library/bignum.c:1551
    633c:	52800002 	mov	w2, #0x0                   	// #0
    6340:	17ffffa3 	b	61cc <mbedtls_mpi_div_mpi+0x39c>
/home/thesis/Desktop/optee_rpi3bplus/optee_os/lib/libmbedtls/mbedtls/library/bignum.c:1556
    6344:	52800002 	mov	w2, #0x0                   	// #0
    6348:	17ffffb6 	b	6220 <mbedtls_mpi_div_mpi+0x3f0>
    634c:	2a0003f9 	mov	w25, w0
    6350:	17fffeec 	b	5f00 <mbedtls_mpi_div_mpi+0xd0>
/home/thesis/Desktop/optee_rpi3bplus/optee_os/lib/libmbedtls/mbedtls/library/bignum.c:1493
    6354:	12800179 	mov	w25, #0xfffffff4            	// #-12
    6358:	17fffedc 	b	5ec8 <mbedtls_mpi_div_mpi+0x98>

000000000000635c <mbedtls_mpi_div_int>:
mbedtls_mpi_div_int():
/home/thesis/Desktop/optee_rpi3bplus/optee_os/lib/libmbedtls/mbedtls/library/bignum.c:1605
    635c:	a9bd7bfd 	stp	x29, x30, [sp, #-48]!
/home/thesis/Desktop/optee_rpi3bplus/optee_os/lib/libmbedtls/mbedtls/library/bignum.c:1610
    6360:	7100007f 	cmp	w3, #0x0
    6364:	5a83a464 	cneg	w4, w3, lt  // lt = tstop
/home/thesis/Desktop/optee_rpi3bplus/optee_os/lib/libmbedtls/mbedtls/library/bignum.c:1605
    6368:	910003fd 	mov	x29, sp
/home/thesis/Desktop/optee_rpi3bplus/optee_os/lib/libmbedtls/mbedtls/library/bignum.c:1610
    636c:	b90013e4 	str	w4, [sp, #16]
/home/thesis/Desktop/optee_rpi3bplus/optee_os/lib/libmbedtls/mbedtls/library/bignum.c:1611
    6370:	52800024 	mov	w4, #0x1                   	// #1
    6374:	5a84a484 	cneg	w4, w4, lt  // lt = tstop
/home/thesis/Desktop/optee_rpi3bplus/optee_os/lib/libmbedtls/mbedtls/library/bignum.c:1612
    6378:	d2800023 	mov	x3, #0x1                   	// #1
    637c:	f90013e3 	str	x3, [sp, #32]
/home/thesis/Desktop/optee_rpi3bplus/optee_os/lib/libmbedtls/mbedtls/library/bignum.c:1613
    6380:	910043e3 	add	x3, sp, #0x10
/home/thesis/Desktop/optee_rpi3bplus/optee_os/lib/libmbedtls/mbedtls/library/bignum.c:1611
    6384:	790033e4 	strh	w4, [sp, #24]
/home/thesis/Desktop/optee_rpi3bplus/optee_os/lib/libmbedtls/mbedtls/library/bignum.c:1613
    6388:	f90017e3 	str	x3, [sp, #40]
/home/thesis/Desktop/optee_rpi3bplus/optee_os/lib/libmbedtls/mbedtls/library/bignum.c:1615
    638c:	910063e3 	add	x3, sp, #0x18
    6390:	97fffea8 	bl	5e30 <mbedtls_mpi_div_mpi>
/home/thesis/Desktop/optee_rpi3bplus/optee_os/lib/libmbedtls/mbedtls/library/bignum.c:1616
    6394:	a8c37bfd 	ldp	x29, x30, [sp], #48
    6398:	d65f03c0 	ret

000000000000639c <mbedtls_mpi_mod_mpi>:
mbedtls_mpi_mod_mpi():
/home/thesis/Desktop/optee_rpi3bplus/optee_os/lib/libmbedtls/mbedtls/library/bignum.c:1622
    639c:	a9bd7bfd 	stp	x29, x30, [sp, #-48]!
    63a0:	910003fd 	mov	x29, sp
    63a4:	a90153f3 	stp	x19, x20, [sp, #16]
    63a8:	aa0003f3 	mov	x19, x0
    63ac:	aa0103f4 	mov	x20, x1
/home/thesis/Desktop/optee_rpi3bplus/optee_os/lib/libmbedtls/mbedtls/library/bignum.c:1628
    63b0:	aa0203e0 	mov	x0, x2
    63b4:	52800001 	mov	w1, #0x0                   	// #0
/home/thesis/Desktop/optee_rpi3bplus/optee_os/lib/libmbedtls/mbedtls/library/bignum.c:1622
    63b8:	f90013f5 	str	x21, [sp, #32]
    63bc:	aa0203f5 	mov	x21, x2
/home/thesis/Desktop/optee_rpi3bplus/optee_os/lib/libmbedtls/mbedtls/library/bignum.c:1628
    63c0:	97fffccd 	bl	56f4 <mbedtls_mpi_cmp_int>
    63c4:	37f80420 	tbnz	w0, #31, 6448 <mbedtls_mpi_mod_mpi+0xac>
/home/thesis/Desktop/optee_rpi3bplus/optee_os/lib/libmbedtls/mbedtls/library/bignum.c:1631
    63c8:	aa1403e2 	mov	x2, x20
    63cc:	aa1503e3 	mov	x3, x21
    63d0:	aa1303e1 	mov	x1, x19
    63d4:	d2800000 	mov	x0, #0x0                   	// #0
    63d8:	97fffe96 	bl	5e30 <mbedtls_mpi_div_mpi>
    63dc:	2a0003f4 	mov	w20, w0
    63e0:	34000160 	cbz	w0, 640c <mbedtls_mpi_mod_mpi+0x70>
/home/thesis/Desktop/optee_rpi3bplus/optee_os/lib/libmbedtls/mbedtls/library/bignum.c:1642
    63e4:	2a1403e0 	mov	w0, w20
    63e8:	a94153f3 	ldp	x19, x20, [sp, #16]
    63ec:	f94013f5 	ldr	x21, [sp, #32]
    63f0:	a8c37bfd 	ldp	x29, x30, [sp], #48
    63f4:	d65f03c0 	ret
/home/thesis/Desktop/optee_rpi3bplus/optee_os/lib/libmbedtls/mbedtls/library/bignum.c:1634
    63f8:	aa1503e2 	mov	x2, x21
    63fc:	aa1303e1 	mov	x1, x19
    6400:	aa1303e0 	mov	x0, x19
    6404:	97fffd4c 	bl	5934 <mbedtls_mpi_add_mpi>
    6408:	350001c0 	cbnz	w0, 6440 <mbedtls_mpi_mod_mpi+0xa4>
/home/thesis/Desktop/optee_rpi3bplus/optee_os/lib/libmbedtls/mbedtls/library/bignum.c:1633
    640c:	52800001 	mov	w1, #0x0                   	// #0
    6410:	aa1303e0 	mov	x0, x19
    6414:	97fffcb8 	bl	56f4 <mbedtls_mpi_cmp_int>
    6418:	37ffff00 	tbnz	w0, #31, 63f8 <mbedtls_mpi_mod_mpi+0x5c>
/home/thesis/Desktop/optee_rpi3bplus/optee_os/lib/libmbedtls/mbedtls/library/bignum.c:1636
    641c:	aa1503e1 	mov	x1, x21
    6420:	aa1303e0 	mov	x0, x19
    6424:	97fffc7e 	bl	561c <mbedtls_mpi_cmp_mpi>
    6428:	37fffde0 	tbnz	w0, #31, 63e4 <mbedtls_mpi_mod_mpi+0x48>
/home/thesis/Desktop/optee_rpi3bplus/optee_os/lib/libmbedtls/mbedtls/library/bignum.c:1637
    642c:	aa1503e2 	mov	x2, x21
    6430:	aa1303e1 	mov	x1, x19
    6434:	aa1303e0 	mov	x0, x19
    6438:	97fffd61 	bl	59bc <mbedtls_mpi_sub_mpi>
    643c:	34ffff00 	cbz	w0, 641c <mbedtls_mpi_mod_mpi+0x80>
    6440:	2a0003f4 	mov	w20, w0
    6444:	17ffffe8 	b	63e4 <mbedtls_mpi_mod_mpi+0x48>
/home/thesis/Desktop/optee_rpi3bplus/optee_os/lib/libmbedtls/mbedtls/library/bignum.c:1629
    6448:	12800134 	mov	w20, #0xfffffff6            	// #-10
    644c:	17ffffe6 	b	63e4 <mbedtls_mpi_mod_mpi+0x48>

0000000000006450 <mbedtls_mpi_mod_int>:
mbedtls_mpi_mod_int():
/home/thesis/Desktop/optee_rpi3bplus/optee_os/lib/libmbedtls/mbedtls/library/bignum.c:1654
    6450:	7100005f 	cmp	w2, #0x0
    6454:	54000460 	b.eq	64e0 <mbedtls_mpi_mod_int+0x90>  // b.none
/home/thesis/Desktop/optee_rpi3bplus/optee_os/lib/libmbedtls/mbedtls/library/bignum.c:1657
    6458:	5400048b 	b.lt	64e8 <mbedtls_mpi_mod_int+0x98>  // b.tstop
/home/thesis/Desktop/optee_rpi3bplus/optee_os/lib/libmbedtls/mbedtls/library/bignum.c:1663
    645c:	7100045f 	cmp	w2, #0x1
    6460:	54000081 	b.ne	6470 <mbedtls_mpi_mod_int+0x20>  // b.any
/home/thesis/Desktop/optee_rpi3bplus/optee_os/lib/libmbedtls/mbedtls/library/bignum.c:1665
    6464:	b900001f 	str	wzr, [x0]
/home/thesis/Desktop/optee_rpi3bplus/optee_os/lib/libmbedtls/mbedtls/library/bignum.c:1698
    6468:	52800000 	mov	w0, #0x0                   	// #0
/home/thesis/Desktop/optee_rpi3bplus/optee_os/lib/libmbedtls/mbedtls/library/bignum.c:1701
    646c:	d65f03c0 	ret
/home/thesis/Desktop/optee_rpi3bplus/optee_os/lib/libmbedtls/mbedtls/library/bignum.c:1669
    6470:	7100085f 	cmp	w2, #0x2
    6474:	540000c1 	b.ne	648c <mbedtls_mpi_mod_int+0x3c>  // b.any
/home/thesis/Desktop/optee_rpi3bplus/optee_os/lib/libmbedtls/mbedtls/library/bignum.c:1671
    6478:	f9400821 	ldr	x1, [x1, #16]
    647c:	b9400021 	ldr	w1, [x1]
    6480:	12000021 	and	w1, w1, #0x1
    6484:	b9000001 	str	w1, [x0]
/home/thesis/Desktop/optee_rpi3bplus/optee_os/lib/libmbedtls/mbedtls/library/bignum.c:1672
    6488:	17fffff8 	b	6468 <mbedtls_mpi_mod_int+0x18>
/home/thesis/Desktop/optee_rpi3bplus/optee_os/lib/libmbedtls/mbedtls/library/bignum.c:1678
    648c:	f9400425 	ldr	x5, [x1, #8]
    6490:	52800003 	mov	w3, #0x0                   	// #0
    6494:	d10004a5 	sub	x5, x5, #0x1
    6498:	b10004bf 	cmn	x5, #0x1
    649c:	540000e1 	b.ne	64b8 <mbedtls_mpi_mod_int+0x68>  // b.any
/home/thesis/Desktop/optee_rpi3bplus/optee_os/lib/libmbedtls/mbedtls/library/bignum.c:1695
    64a0:	79c00021 	ldrsh	w1, [x1]
    64a4:	36f80061 	tbz	w1, #31, 64b0 <mbedtls_mpi_mod_int+0x60>
    64a8:	34000043 	cbz	w3, 64b0 <mbedtls_mpi_mod_int+0x60>
/home/thesis/Desktop/optee_rpi3bplus/optee_os/lib/libmbedtls/mbedtls/library/bignum.c:1696
    64ac:	4b030043 	sub	w3, w2, w3
/home/thesis/Desktop/optee_rpi3bplus/optee_os/lib/libmbedtls/mbedtls/library/bignum.c:1698
    64b0:	b9000003 	str	w3, [x0]
    64b4:	17ffffed 	b	6468 <mbedtls_mpi_mod_int+0x18>
/home/thesis/Desktop/optee_rpi3bplus/optee_os/lib/libmbedtls/mbedtls/library/bignum.c:1680
    64b8:	f9400824 	ldr	x4, [x1, #16]
    64bc:	b8657886 	ldr	w6, [x4, x5, lsl #2]
/home/thesis/Desktop/optee_rpi3bplus/optee_os/lib/libmbedtls/mbedtls/library/bignum.c:1681
    64c0:	13864063 	extr	w3, w3, w6, #16
/home/thesis/Desktop/optee_rpi3bplus/optee_os/lib/libmbedtls/mbedtls/library/bignum.c:1686
    64c4:	1ac20864 	udiv	w4, w3, w2
    64c8:	1b028c83 	msub	w3, w4, w2, w3
    64cc:	12003cc4 	and	w4, w6, #0xffff
    64d0:	2a034084 	orr	w4, w4, w3, lsl #16
    64d4:	1ac20883 	udiv	w3, w4, w2
    64d8:	1b029063 	msub	w3, w3, w2, w4
    64dc:	17ffffee 	b	6494 <mbedtls_mpi_mod_int+0x44>
/home/thesis/Desktop/optee_rpi3bplus/optee_os/lib/libmbedtls/mbedtls/library/bignum.c:1655
    64e0:	12800160 	mov	w0, #0xfffffff4            	// #-12
    64e4:	17ffffe2 	b	646c <mbedtls_mpi_mod_int+0x1c>
/home/thesis/Desktop/optee_rpi3bplus/optee_os/lib/libmbedtls/mbedtls/library/bignum.c:1658
    64e8:	12800120 	mov	w0, #0xfffffff6            	// #-10
    64ec:	17ffffe0 	b	646c <mbedtls_mpi_mod_int+0x1c>

00000000000064f0 <mpi_write_hlp>:
mpi_write_hlp():
/home/thesis/Desktop/optee_rpi3bplus/optee_os/lib/libmbedtls/mbedtls/library/bignum.c:580
    64f0:	a9bc7bfd 	stp	x29, x30, [sp, #-64]!
/home/thesis/Desktop/optee_rpi3bplus/optee_os/lib/libmbedtls/mbedtls/library/bignum.c:584
    64f4:	51000823 	sub	w3, w1, #0x2
    64f8:	7100387f 	cmp	w3, #0xe
/home/thesis/Desktop/optee_rpi3bplus/optee_os/lib/libmbedtls/mbedtls/library/bignum.c:580
    64fc:	910003fd 	mov	x29, sp
    6500:	a90153f3 	stp	x19, x20, [sp, #16]
    6504:	a9025bf5 	stp	x21, x22, [sp, #32]
/home/thesis/Desktop/optee_rpi3bplus/optee_os/lib/libmbedtls/mbedtls/library/bignum.c:584
    6508:	540005a8 	b.hi	65bc <mpi_write_hlp+0xcc>  // b.pmore
    650c:	aa0203f5 	mov	x21, x2
    6510:	2a0103f6 	mov	w22, w1
/home/thesis/Desktop/optee_rpi3bplus/optee_os/lib/libmbedtls/mbedtls/library/bignum.c:587
    6514:	2a0103e2 	mov	w2, w1
    6518:	aa0003f3 	mov	x19, x0
    651c:	aa0003e1 	mov	x1, x0
    6520:	9100f3e0 	add	x0, sp, #0x3c
    6524:	97ffffcb 	bl	6450 <mbedtls_mpi_mod_int>
    6528:	2a0003f4 	mov	w20, w0
    652c:	350003e0 	cbnz	w0, 65a8 <mpi_write_hlp+0xb8>
/home/thesis/Desktop/optee_rpi3bplus/optee_os/lib/libmbedtls/mbedtls/library/bignum.c:588
    6530:	2a1603e3 	mov	w3, w22
    6534:	aa1303e2 	mov	x2, x19
    6538:	d2800001 	mov	x1, #0x0                   	// #0
    653c:	aa1303e0 	mov	x0, x19
    6540:	97ffff87 	bl	635c <mbedtls_mpi_div_int>
    6544:	2a0003f4 	mov	w20, w0
    6548:	35000300 	cbnz	w0, 65a8 <mpi_write_hlp+0xb8>
/home/thesis/Desktop/optee_rpi3bplus/optee_os/lib/libmbedtls/mbedtls/library/bignum.c:590
    654c:	52800001 	mov	w1, #0x0                   	// #0
    6550:	aa1303e0 	mov	x0, x19
    6554:	97fffc68 	bl	56f4 <mbedtls_mpi_cmp_int>
    6558:	35000140 	cbnz	w0, 6580 <mpi_write_hlp+0x90>
/home/thesis/Desktop/optee_rpi3bplus/optee_os/lib/libmbedtls/mbedtls/library/bignum.c:593
    655c:	f94002a1 	ldr	x1, [x21]
    6560:	b9403fe3 	ldr	w3, [sp, #60]
    6564:	91000422 	add	x2, x1, #0x1
    6568:	12001c60 	and	w0, w3, #0xff
    656c:	7100247f 	cmp	w3, #0x9
    6570:	54000169 	b.ls	659c <mpi_write_hlp+0xac>  // b.plast
/home/thesis/Desktop/optee_rpi3bplus/optee_os/lib/libmbedtls/mbedtls/library/bignum.c:596
    6574:	1100dc00 	add	w0, w0, #0x37
    6578:	f90002a2 	str	x2, [x21]
    657c:	1400000a 	b	65a4 <mpi_write_hlp+0xb4>
/home/thesis/Desktop/optee_rpi3bplus/optee_os/lib/libmbedtls/mbedtls/library/bignum.c:591
    6580:	aa1503e2 	mov	x2, x21
    6584:	2a1603e1 	mov	w1, w22
    6588:	aa1303e0 	mov	x0, x19
    658c:	97ffffd9 	bl	64f0 <mpi_write_hlp>
    6590:	34fffe60 	cbz	w0, 655c <mpi_write_hlp+0x6c>
    6594:	2a0003f4 	mov	w20, w0
    6598:	14000004 	b	65a8 <mpi_write_hlp+0xb8>
/home/thesis/Desktop/optee_rpi3bplus/optee_os/lib/libmbedtls/mbedtls/library/bignum.c:594
    659c:	1100c000 	add	w0, w0, #0x30
    65a0:	f90002a2 	str	x2, [x21]
/home/thesis/Desktop/optee_rpi3bplus/optee_os/lib/libmbedtls/mbedtls/library/bignum.c:596
    65a4:	39000020 	strb	w0, [x1]
/home/thesis/Desktop/optee_rpi3bplus/optee_os/lib/libmbedtls/mbedtls/library/bignum.c:601
    65a8:	2a1403e0 	mov	w0, w20
    65ac:	a94153f3 	ldp	x19, x20, [sp, #16]
    65b0:	a9425bf5 	ldp	x21, x22, [sp, #32]
    65b4:	a8c47bfd 	ldp	x29, x30, [sp], #64
    65b8:	d65f03c0 	ret
/home/thesis/Desktop/optee_rpi3bplus/optee_os/lib/libmbedtls/mbedtls/library/bignum.c:585
    65bc:	12800074 	mov	w20, #0xfffffffc            	// #-4
    65c0:	17fffffa 	b	65a8 <mpi_write_hlp+0xb8>

00000000000065c4 <mbedtls_mpi_write_string>:
mbedtls_mpi_write_string():
/home/thesis/Desktop/optee_rpi3bplus/optee_os/lib/libmbedtls/mbedtls/library/bignum.c:608
    65c4:	a9ba7bfd 	stp	x29, x30, [sp, #-96]!
/home/thesis/Desktop/optee_rpi3bplus/optee_os/lib/libmbedtls/mbedtls/library/bignum.c:617
    65c8:	51000825 	sub	w5, w1, #0x2
    65cc:	710038bf 	cmp	w5, #0xe
/home/thesis/Desktop/optee_rpi3bplus/optee_os/lib/libmbedtls/mbedtls/library/bignum.c:608
    65d0:	910003fd 	mov	x29, sp
    65d4:	a90153f3 	stp	x19, x20, [sp, #16]
    65d8:	a9025bf5 	stp	x21, x22, [sp, #32]
    65dc:	f9001bf7 	str	x23, [sp, #48]
/home/thesis/Desktop/optee_rpi3bplus/optee_os/lib/libmbedtls/mbedtls/library/bignum.c:617
    65e0:	54000d88 	b.hi	6790 <mbedtls_mpi_write_string+0x1cc>  // b.pmore
    65e4:	2a0103f4 	mov	w20, w1
/home/thesis/Desktop/optee_rpi3bplus/optee_os/lib/libmbedtls/mbedtls/library/bignum.c:620
    65e8:	aa0003f3 	mov	x19, x0
    65ec:	aa0403f5 	mov	x21, x4
    65f0:	aa0303f6 	mov	x22, x3
    65f4:	aa0203f7 	mov	x23, x2
    65f8:	97fffaf3 	bl	51c4 <mbedtls_mpi_bitlen>
/home/thesis/Desktop/optee_rpi3bplus/optee_os/lib/libmbedtls/mbedtls/library/bignum.c:621
    65fc:	71000e9f 	cmp	w20, #0x3
    6600:	5400004d 	b.le	6608 <mbedtls_mpi_write_string+0x44>
/home/thesis/Desktop/optee_rpi3bplus/optee_os/lib/libmbedtls/mbedtls/library/bignum.c:621 (discriminator 1)
    6604:	d341fc00 	lsr	x0, x0, #1
/home/thesis/Desktop/optee_rpi3bplus/optee_os/lib/libmbedtls/mbedtls/library/bignum.c:622
    6608:	7100429f 	cmp	w20, #0x10
    660c:	54000041 	b.ne	6614 <mbedtls_mpi_write_string+0x50>  // b.any
/home/thesis/Desktop/optee_rpi3bplus/optee_os/lib/libmbedtls/mbedtls/library/bignum.c:622 (discriminator 1)
    6610:	d341fc00 	lsr	x0, x0, #1
/home/thesis/Desktop/optee_rpi3bplus/optee_os/lib/libmbedtls/mbedtls/library/bignum.c:628
    6614:	91000401 	add	x1, x0, #0x1
    6618:	91000c05 	add	x5, x0, #0x3
    661c:	92400021 	and	x1, x1, #0x1
    6620:	8b050020 	add	x0, x1, x5
/home/thesis/Desktop/optee_rpi3bplus/optee_os/lib/libmbedtls/mbedtls/library/bignum.c:630
    6624:	eb16001f 	cmp	x0, x22
    6628:	54000129 	b.ls	664c <mbedtls_mpi_write_string+0x88>  // b.plast
/home/thesis/Desktop/optee_rpi3bplus/optee_os/lib/libmbedtls/mbedtls/library/bignum.c:633
    662c:	128000f3 	mov	w19, #0xfffffff8            	// #-8
/home/thesis/Desktop/optee_rpi3bplus/optee_os/lib/libmbedtls/mbedtls/library/bignum.c:632
    6630:	f90002a0 	str	x0, [x21]
/home/thesis/Desktop/optee_rpi3bplus/optee_os/lib/libmbedtls/mbedtls/library/bignum.c:680
    6634:	2a1303e0 	mov	w0, w19
    6638:	a94153f3 	ldp	x19, x20, [sp, #16]
    663c:	a9425bf5 	ldp	x21, x22, [sp, #32]
    6640:	f9401bf7 	ldr	x23, [sp, #48]
    6644:	a8c67bfd 	ldp	x29, x30, [sp], #96
    6648:	d65f03c0 	ret
/home/thesis/Desktop/optee_rpi3bplus/optee_os/lib/libmbedtls/mbedtls/library/bignum.c:637
    664c:	910123f6 	add	x22, sp, #0x48
/home/thesis/Desktop/optee_rpi3bplus/optee_os/lib/libmbedtls/mbedtls/library/bignum.c:636
    6650:	f90023f7 	str	x23, [sp, #64]
/home/thesis/Desktop/optee_rpi3bplus/optee_os/lib/libmbedtls/mbedtls/library/bignum.c:637
    6654:	aa1603e0 	mov	x0, x22
    6658:	97fff925 	bl	4aec <mbedtls_mpi_init_mempool>
/home/thesis/Desktop/optee_rpi3bplus/optee_os/lib/libmbedtls/mbedtls/library/bignum.c:639
    665c:	79c00260 	ldrsh	w0, [x19]
    6660:	3100041f 	cmn	w0, #0x1
    6664:	540000c1 	b.ne	667c <mbedtls_mpi_write_string+0xb8>  // b.any
/home/thesis/Desktop/optee_rpi3bplus/optee_os/lib/libmbedtls/mbedtls/library/bignum.c:640
    6668:	f94023e0 	ldr	x0, [sp, #64]
    666c:	91000401 	add	x1, x0, #0x1
    6670:	f90023e1 	str	x1, [sp, #64]
    6674:	528005a1 	mov	w1, #0x2d                  	// #45
    6678:	39000001 	strb	w1, [x0]
/home/thesis/Desktop/optee_rpi3bplus/optee_os/lib/libmbedtls/mbedtls/library/bignum.c:642
    667c:	7100429f 	cmp	w20, #0x10
    6680:	54000661 	b.ne	674c <mbedtls_mpi_write_string+0x188>  // b.any
/home/thesis/Desktop/optee_rpi3bplus/optee_os/lib/libmbedtls/mbedtls/library/bignum.c:647
    6684:	f9400660 	ldr	x0, [x19, #8]
/home/thesis/Desktop/optee_rpi3bplus/optee_os/lib/libmbedtls/mbedtls/library/bignum.c:656
    6688:	f0000022 	adrp	x2, d000 <primes+0x378>
    668c:	912ae042 	add	x2, x2, #0xab8
/home/thesis/Desktop/optee_rpi3bplus/optee_os/lib/libmbedtls/mbedtls/library/bignum.c:647
    6690:	d2800005 	mov	x5, #0x0                   	// #0
/home/thesis/Desktop/optee_rpi3bplus/optee_os/lib/libmbedtls/mbedtls/library/bignum.c:647 (discriminator 1)
    6694:	b5000180 	cbnz	x0, 66c4 <mbedtls_mpi_write_string+0x100>
/home/thesis/Desktop/optee_rpi3bplus/optee_os/lib/libmbedtls/mbedtls/library/bignum.c:672
    6698:	f94023e0 	ldr	x0, [sp, #64]
/home/thesis/Desktop/optee_rpi3bplus/optee_os/lib/libmbedtls/mbedtls/library/bignum.c:673
    669c:	52800013 	mov	w19, #0x0                   	// #0
/home/thesis/Desktop/optee_rpi3bplus/optee_os/lib/libmbedtls/mbedtls/library/bignum.c:672
    66a0:	91000401 	add	x1, x0, #0x1
    66a4:	f90023e1 	str	x1, [sp, #64]
    66a8:	3900001f 	strb	wzr, [x0]
/home/thesis/Desktop/optee_rpi3bplus/optee_os/lib/libmbedtls/mbedtls/library/bignum.c:673
    66ac:	f94023e2 	ldr	x2, [sp, #64]
    66b0:	cb170057 	sub	x23, x2, x23
    66b4:	f90002b7 	str	x23, [x21]
/home/thesis/Desktop/optee_rpi3bplus/optee_os/lib/libmbedtls/mbedtls/library/bignum.c:677
    66b8:	aa1603e0 	mov	x0, x22
    66bc:	97fff916 	bl	4b14 <mbedtls_mpi_free>
/home/thesis/Desktop/optee_rpi3bplus/optee_os/lib/libmbedtls/mbedtls/library/bignum.c:679
    66c0:	17ffffdd 	b	6634 <mbedtls_mpi_write_string+0x70>
/home/thesis/Desktop/optee_rpi3bplus/optee_os/lib/libmbedtls/mbedtls/library/bignum.c:651
    66c4:	d37ef404 	lsl	x4, x0, #2
/home/thesis/Desktop/optee_rpi3bplus/optee_os/lib/libmbedtls/mbedtls/library/bignum.c:649
    66c8:	d2800081 	mov	x1, #0x4                   	// #4
/home/thesis/Desktop/optee_rpi3bplus/optee_os/lib/libmbedtls/mbedtls/library/bignum.c:651
    66cc:	d1001084 	sub	x4, x4, #0x4
    66d0:	f9400a67 	ldr	x7, [x19, #16]
    66d4:	531d7023 	lsl	w3, w1, #3
    66d8:	51002066 	sub	w6, w3, #0x8
/home/thesis/Desktop/optee_rpi3bplus/optee_os/lib/libmbedtls/mbedtls/library/bignum.c:653
    66dc:	520000a5 	eor	w5, w5, #0x1
/home/thesis/Desktop/optee_rpi3bplus/optee_os/lib/libmbedtls/mbedtls/library/bignum.c:651
    66e0:	b86468e3 	ldr	w3, [x7, x4]
    66e4:	1ac62463 	lsr	w3, w3, w6
/home/thesis/Desktop/optee_rpi3bplus/optee_os/lib/libmbedtls/mbedtls/library/bignum.c:653
    66e8:	72001c66 	ands	w6, w3, #0xff
    66ec:	1a9f00a5 	csel	w5, w5, wzr, eq  // eq = none
    66f0:	34000085 	cbz	w5, 6700 <mbedtls_mpi_write_string+0x13c>
/home/thesis/Desktop/optee_rpi3bplus/optee_os/lib/libmbedtls/mbedtls/library/bignum.c:653 (discriminator 1)
    66f4:	8b010005 	add	x5, x0, x1
    66f8:	f10008bf 	cmp	x5, #0x2
    66fc:	54000241 	b.ne	6744 <mbedtls_mpi_write_string+0x180>  // b.any
/home/thesis/Desktop/optee_rpi3bplus/optee_os/lib/libmbedtls/mbedtls/library/bignum.c:656
    6700:	f94023e7 	ldr	x7, [sp, #64]
/home/thesis/Desktop/optee_rpi3bplus/optee_os/lib/libmbedtls/mbedtls/library/bignum.c:657
    6704:	92400c63 	and	x3, x3, #0xf
/home/thesis/Desktop/optee_rpi3bplus/optee_os/lib/libmbedtls/mbedtls/library/bignum.c:656
    6708:	910004e5 	add	x5, x7, #0x1
    670c:	f90023e5 	str	x5, [sp, #64]
    6710:	d3441cc5 	ubfx	x5, x6, #4, #4
/home/thesis/Desktop/optee_rpi3bplus/optee_os/lib/libmbedtls/mbedtls/library/bignum.c:657
    6714:	38636843 	ldrb	w3, [x2, x3]
/home/thesis/Desktop/optee_rpi3bplus/optee_os/lib/libmbedtls/mbedtls/library/bignum.c:656
    6718:	38656845 	ldrb	w5, [x2, x5]
    671c:	390000e5 	strb	w5, [x7]
/home/thesis/Desktop/optee_rpi3bplus/optee_os/lib/libmbedtls/mbedtls/library/bignum.c:657
    6720:	f94023e5 	ldr	x5, [sp, #64]
    6724:	910004a6 	add	x6, x5, #0x1
    6728:	f90023e6 	str	x6, [sp, #64]
    672c:	390000a3 	strb	w3, [x5]
/home/thesis/Desktop/optee_rpi3bplus/optee_os/lib/libmbedtls/mbedtls/library/bignum.c:658
    6730:	d2800025 	mov	x5, #0x1                   	// #1
/home/thesis/Desktop/optee_rpi3bplus/optee_os/lib/libmbedtls/mbedtls/library/bignum.c:649 (discriminator 2)
    6734:	f1000421 	subs	x1, x1, #0x1
    6738:	54fffcc1 	b.ne	66d0 <mbedtls_mpi_write_string+0x10c>  // b.any
/home/thesis/Desktop/optee_rpi3bplus/optee_os/lib/libmbedtls/mbedtls/library/bignum.c:647 (discriminator 2)
    673c:	d1000400 	sub	x0, x0, #0x1
    6740:	17ffffd5 	b	6694 <mbedtls_mpi_write_string+0xd0>
    6744:	d2800005 	mov	x5, #0x0                   	// #0
    6748:	17fffffb 	b	6734 <mbedtls_mpi_write_string+0x170>
/home/thesis/Desktop/optee_rpi3bplus/optee_os/lib/libmbedtls/mbedtls/library/bignum.c:664
    674c:	aa1303e1 	mov	x1, x19
    6750:	aa1603e0 	mov	x0, x22
    6754:	97fff991 	bl	4d98 <mbedtls_mpi_copy>
    6758:	2a0003f3 	mov	w19, w0
    675c:	35fffae0 	cbnz	w0, 66b8 <mbedtls_mpi_write_string+0xf4>
/home/thesis/Desktop/optee_rpi3bplus/optee_os/lib/libmbedtls/mbedtls/library/bignum.c:666
    6760:	79c093e0 	ldrsh	w0, [sp, #72]
    6764:	3100041f 	cmn	w0, #0x1
    6768:	54000061 	b.ne	6774 <mbedtls_mpi_write_string+0x1b0>  // b.any
/home/thesis/Desktop/optee_rpi3bplus/optee_os/lib/libmbedtls/mbedtls/library/bignum.c:667
    676c:	52800020 	mov	w0, #0x1                   	// #1
    6770:	790093e0 	strh	w0, [sp, #72]
/home/thesis/Desktop/optee_rpi3bplus/optee_os/lib/libmbedtls/mbedtls/library/bignum.c:669
    6774:	910103e2 	add	x2, sp, #0x40
    6778:	2a1403e1 	mov	w1, w20
    677c:	aa1603e0 	mov	x0, x22
    6780:	97ffff5c 	bl	64f0 <mpi_write_hlp>
    6784:	2a0003f3 	mov	w19, w0
    6788:	34fff880 	cbz	w0, 6698 <mbedtls_mpi_write_string+0xd4>
    678c:	17ffffcb 	b	66b8 <mbedtls_mpi_write_string+0xf4>
/home/thesis/Desktop/optee_rpi3bplus/optee_os/lib/libmbedtls/mbedtls/library/bignum.c:618
    6790:	12800073 	mov	w19, #0xfffffffc            	// #-4
    6794:	17ffffa8 	b	6634 <mbedtls_mpi_write_string+0x70>

0000000000006798 <mpi_check_small_factors>:
mpi_check_small_factors():
/home/thesis/Desktop/optee_rpi3bplus/optee_os/lib/libmbedtls/mbedtls/library/bignum.c:2233
    6798:	f9400801 	ldr	x1, [x0, #16]
    679c:	b9400021 	ldr	w1, [x1]
    67a0:	36000441 	tbz	w1, #0, 6828 <mpi_check_small_factors+0x90>
/home/thesis/Desktop/optee_rpi3bplus/optee_os/lib/libmbedtls/mbedtls/library/bignum.c:2228
    67a4:	a9bc7bfd 	stp	x29, x30, [sp, #-64]!
    67a8:	910003fd 	mov	x29, sp
    67ac:	a90153f3 	stp	x19, x20, [sp, #16]
    67b0:	f0000033 	adrp	x19, d000 <primes+0x378>
    67b4:	aa0003f4 	mov	x20, x0
    67b8:	9107d273 	add	x19, x19, #0x1f4
    67bc:	a9025bf5 	stp	x21, x22, [sp, #32]
/home/thesis/Desktop/optee_rpi3bplus/optee_os/lib/libmbedtls/mbedtls/library/bignum.c:2241
    67c0:	9100f3f6 	add	x22, sp, #0x3c
/home/thesis/Desktop/optee_rpi3bplus/optee_os/lib/libmbedtls/mbedtls/library/bignum.c:2236
    67c4:	b9400275 	ldr	w21, [x19]
    67c8:	710002bf 	cmp	w21, #0x0
    67cc:	540000cc 	b.gt	67e4 <mpi_check_small_factors+0x4c>
    67d0:	52800000 	mov	w0, #0x0                   	// #0
/home/thesis/Desktop/optee_rpi3bplus/optee_os/lib/libmbedtls/mbedtls/library/bignum.c:2249
    67d4:	a94153f3 	ldp	x19, x20, [sp, #16]
    67d8:	a9425bf5 	ldp	x21, x22, [sp, #32]
    67dc:	a8c47bfd 	ldp	x29, x30, [sp], #64
    67e0:	d65f03c0 	ret
/home/thesis/Desktop/optee_rpi3bplus/optee_os/lib/libmbedtls/mbedtls/library/bignum.c:2238
    67e4:	2a1503e1 	mov	w1, w21
    67e8:	aa1403e0 	mov	x0, x20
    67ec:	97fffbc2 	bl	56f4 <mbedtls_mpi_cmp_int>
    67f0:	7100001f 	cmp	w0, #0x0
    67f4:	5400016d 	b.le	6820 <mpi_check_small_factors+0x88>
/home/thesis/Desktop/optee_rpi3bplus/optee_os/lib/libmbedtls/mbedtls/library/bignum.c:2241
    67f8:	2a1503e2 	mov	w2, w21
    67fc:	aa1403e1 	mov	x1, x20
    6800:	aa1603e0 	mov	x0, x22
    6804:	97ffff13 	bl	6450 <mbedtls_mpi_mod_int>
    6808:	35fffe60 	cbnz	w0, 67d4 <mpi_check_small_factors+0x3c>
/home/thesis/Desktop/optee_rpi3bplus/optee_os/lib/libmbedtls/mbedtls/library/bignum.c:2243
    680c:	b9403fe0 	ldr	w0, [sp, #60]
    6810:	91001273 	add	x19, x19, #0x4
    6814:	35fffd80 	cbnz	w0, 67c4 <mpi_check_small_factors+0x2c>
/home/thesis/Desktop/optee_rpi3bplus/optee_os/lib/libmbedtls/mbedtls/library/bignum.c:2244
    6818:	128001a0 	mov	w0, #0xfffffff2            	// #-14
    681c:	17ffffee 	b	67d4 <mpi_check_small_factors+0x3c>
/home/thesis/Desktop/optee_rpi3bplus/optee_os/lib/libmbedtls/mbedtls/library/bignum.c:2239
    6820:	52800020 	mov	w0, #0x1                   	// #1
    6824:	17ffffec 	b	67d4 <mpi_check_small_factors+0x3c>
/home/thesis/Desktop/optee_rpi3bplus/optee_os/lib/libmbedtls/mbedtls/library/bignum.c:2234
    6828:	128001a0 	mov	w0, #0xfffffff2            	// #-14
/home/thesis/Desktop/optee_rpi3bplus/optee_os/lib/libmbedtls/mbedtls/library/bignum.c:2249
    682c:	d65f03c0 	ret

0000000000006830 <mbedtls_mpi_montg_init>:
mbedtls_mpi_montg_init():
/home/thesis/Desktop/optee_rpi3bplus/optee_os/lib/libmbedtls/mbedtls/library/bignum.c:1708
    6830:	f9400821 	ldr	x1, [x1, #16]
/home/thesis/Desktop/optee_rpi3bplus/optee_os/lib/libmbedtls/mbedtls/library/bignum.c:1712
    6834:	52800062 	mov	w2, #0x3                   	// #3
/home/thesis/Desktop/optee_rpi3bplus/optee_os/lib/libmbedtls/mbedtls/library/bignum.c:1715
    6838:	52800045 	mov	w5, #0x2                   	// #2
/home/thesis/Desktop/optee_rpi3bplus/optee_os/lib/libmbedtls/mbedtls/library/bignum.c:1708
    683c:	b9400023 	ldr	w3, [x1]
/home/thesis/Desktop/optee_rpi3bplus/optee_os/lib/libmbedtls/mbedtls/library/bignum.c:1712
    6840:	11000861 	add	w1, w3, #0x2
    6844:	531f7821 	lsl	w1, w1, #1
    6848:	121d0021 	and	w1, w1, #0x8
    684c:	0b030021 	add	w1, w1, w3
/home/thesis/Desktop/optee_rpi3bplus/optee_os/lib/libmbedtls/mbedtls/library/bignum.c:1715 (discriminator 3)
    6850:	1b019464 	msub	w4, w3, w1, w5
/home/thesis/Desktop/optee_rpi3bplus/optee_os/lib/libmbedtls/mbedtls/library/bignum.c:1714 (discriminator 3)
    6854:	71000442 	subs	w2, w2, #0x1
/home/thesis/Desktop/optee_rpi3bplus/optee_os/lib/libmbedtls/mbedtls/library/bignum.c:1715 (discriminator 3)
    6858:	1b047c21 	mul	w1, w1, w4
/home/thesis/Desktop/optee_rpi3bplus/optee_os/lib/libmbedtls/mbedtls/library/bignum.c:1714 (discriminator 3)
    685c:	54ffffa1 	b.ne	6850 <mbedtls_mpi_montg_init+0x20>  // b.any
/home/thesis/Desktop/optee_rpi3bplus/optee_os/lib/libmbedtls/mbedtls/library/bignum.c:1717
    6860:	4b0103e1 	neg	w1, w1
    6864:	b9000001 	str	w1, [x0]
/home/thesis/Desktop/optee_rpi3bplus/optee_os/lib/libmbedtls/mbedtls/library/bignum.c:1718
    6868:	d65f03c0 	ret

000000000000686c <mbedtls_mpi_montmul>:
mbedtls_mpi_montmul():
/home/thesis/Desktop/optee_rpi3bplus/optee_os/lib/libmbedtls/mbedtls/library/bignum.c:1730
    686c:	f9400445 	ldr	x5, [x2, #8]
    6870:	f9400486 	ldr	x6, [x4, #8]
    6874:	910004a5 	add	x5, x5, #0x1
    6878:	eb0500df 	cmp	x6, x5
    687c:	540008e3 	b.cc	6998 <mbedtls_mpi_montmul+0x12c>  // b.lo, b.ul, b.last
/home/thesis/Desktop/optee_rpi3bplus/optee_os/lib/libmbedtls/mbedtls/library/bignum.c:1730 (discriminator 1)
    6880:	f9400885 	ldr	x5, [x4, #16]
    6884:	b40008a5 	cbz	x5, 6998 <mbedtls_mpi_montmul+0x12c>
/home/thesis/Desktop/optee_rpi3bplus/optee_os/lib/libmbedtls/mbedtls/library/bignum.c:1726
    6888:	a9bb7bfd 	stp	x29, x30, [sp, #-80]!
    688c:	910003fd 	mov	x29, sp
    6890:	a90153f3 	stp	x19, x20, [sp, #16]
    6894:	aa0203f3 	mov	x19, x2
/home/thesis/Desktop/optee_rpi3bplus/optee_os/lib/libmbedtls/mbedtls/library/bignum.c:1733
    6898:	d37ef4c2 	lsl	x2, x6, #2
/home/thesis/Desktop/optee_rpi3bplus/optee_os/lib/libmbedtls/mbedtls/library/bignum.c:1726
    689c:	a90363f7 	stp	x23, x24, [sp, #48]
    68a0:	aa0103f8 	mov	x24, x1
    68a4:	2a0303f7 	mov	w23, w3
/home/thesis/Desktop/optee_rpi3bplus/optee_os/lib/libmbedtls/mbedtls/library/bignum.c:1733
    68a8:	52800001 	mov	w1, #0x0                   	// #0
/home/thesis/Desktop/optee_rpi3bplus/optee_os/lib/libmbedtls/mbedtls/library/bignum.c:1726
    68ac:	a9025bf5 	stp	x21, x22, [sp, #32]
    68b0:	aa0403f6 	mov	x22, x4
    68b4:	aa0003f5 	mov	x21, x0
/home/thesis/Desktop/optee_rpi3bplus/optee_os/lib/libmbedtls/mbedtls/library/bignum.c:1733
    68b8:	aa0503e0 	mov	x0, x5
/home/thesis/Desktop/optee_rpi3bplus/optee_os/lib/libmbedtls/mbedtls/library/bignum.c:1726
    68bc:	f90023f9 	str	x25, [sp, #64]
/home/thesis/Desktop/optee_rpi3bplus/optee_os/lib/libmbedtls/mbedtls/library/bignum.c:1733
    68c0:	97ffea76 	bl	1298 <memset>
/home/thesis/Desktop/optee_rpi3bplus/optee_os/lib/libmbedtls/mbedtls/library/bignum.c:1736
    68c4:	f940066d 	ldr	x13, [x19, #8]
/home/thesis/Desktop/optee_rpi3bplus/optee_os/lib/libmbedtls/mbedtls/library/bignum.c:1739
    68c8:	d2800014 	mov	x20, #0x0                   	// #0
/home/thesis/Desktop/optee_rpi3bplus/optee_os/lib/libmbedtls/mbedtls/library/bignum.c:1737
    68cc:	f9400700 	ldr	x0, [x24, #8]
/home/thesis/Desktop/optee_rpi3bplus/optee_os/lib/libmbedtls/mbedtls/library/bignum.c:1750
    68d0:	910005ac 	add	x12, x13, #0x1
/home/thesis/Desktop/optee_rpi3bplus/optee_os/lib/libmbedtls/mbedtls/library/bignum.c:1735
    68d4:	f9400ad9 	ldr	x25, [x22, #16]
/home/thesis/Desktop/optee_rpi3bplus/optee_os/lib/libmbedtls/mbedtls/library/bignum.c:1737
    68d8:	eb0d001f 	cmp	x0, x13
/home/thesis/Desktop/optee_rpi3bplus/optee_os/lib/libmbedtls/mbedtls/library/bignum.c:1750
    68dc:	d37ef58c 	lsl	x12, x12, #2
/home/thesis/Desktop/optee_rpi3bplus/optee_os/lib/libmbedtls/mbedtls/library/bignum.c:1737
    68e0:	9a8d900f 	csel	x15, x0, x13, ls  // ls = plast
/home/thesis/Desktop/optee_rpi3bplus/optee_os/lib/libmbedtls/mbedtls/library/bignum.c:1735
    68e4:	aa1903eb 	mov	x11, x25
/home/thesis/Desktop/optee_rpi3bplus/optee_os/lib/libmbedtls/mbedtls/library/bignum.c:1739 (discriminator 1)
    68e8:	eb0d029f 	cmp	x20, x13
    68ec:	f9400aa0 	ldr	x0, [x21, #16]
    68f0:	54000281 	b.ne	6940 <mbedtls_mpi_montmul+0xd4>  // b.any
/home/thesis/Desktop/optee_rpi3bplus/optee_os/lib/libmbedtls/mbedtls/library/bignum.c:1753
    68f4:	aa0c03e2 	mov	x2, x12
    68f8:	d1001181 	sub	x1, x12, #0x4
    68fc:	8b010321 	add	x1, x25, x1
    6900:	97ffea5e 	bl	1278 <memcpy>
/home/thesis/Desktop/optee_rpi3bplus/optee_os/lib/libmbedtls/mbedtls/library/bignum.c:1755
    6904:	aa1303e1 	mov	x1, x19
    6908:	aa1503e0 	mov	x0, x21
    690c:	97fffb1d 	bl	5580 <mbedtls_mpi_cmp_abs>
    6910:	37f803e0 	tbnz	w0, #31, 698c <mbedtls_mpi_montmul+0x120>
/home/thesis/Desktop/optee_rpi3bplus/optee_os/lib/libmbedtls/mbedtls/library/bignum.c:1756
    6914:	f9400a61 	ldr	x1, [x19, #16]
    6918:	f9400aa2 	ldr	x2, [x21, #16]
/home/thesis/Desktop/optee_rpi3bplus/optee_os/lib/libmbedtls/mbedtls/library/bignum.c:1759
    691c:	aa1403e0 	mov	x0, x20
    6920:	97fff722 	bl	45a8 <mpi_sub_hlp>
/home/thesis/Desktop/optee_rpi3bplus/optee_os/lib/libmbedtls/mbedtls/library/bignum.c:1761
    6924:	52800000 	mov	w0, #0x0                   	// #0
/home/thesis/Desktop/optee_rpi3bplus/optee_os/lib/libmbedtls/mbedtls/library/bignum.c:1762
    6928:	a94153f3 	ldp	x19, x20, [sp, #16]
    692c:	a9425bf5 	ldp	x21, x22, [sp, #32]
    6930:	a94363f7 	ldp	x23, x24, [sp, #48]
    6934:	f94023f9 	ldr	x25, [sp, #64]
    6938:	a8c57bfd 	ldp	x29, x30, [sp], #80
    693c:	d65f03c0 	ret
/home/thesis/Desktop/optee_rpi3bplus/optee_os/lib/libmbedtls/mbedtls/library/bignum.c:1745 (discriminator 3)
    6940:	f9400b01 	ldr	x1, [x24, #16]
/home/thesis/Desktop/optee_rpi3bplus/optee_os/lib/libmbedtls/mbedtls/library/bignum.c:1747 (discriminator 3)
    6944:	aa0b03e2 	mov	x2, x11
/home/thesis/Desktop/optee_rpi3bplus/optee_os/lib/libmbedtls/mbedtls/library/bignum.c:1744 (discriminator 3)
    6948:	b8747812 	ldr	w18, [x0, x20, lsl #2]
/home/thesis/Desktop/optee_rpi3bplus/optee_os/lib/libmbedtls/mbedtls/library/bignum.c:1739 (discriminator 3)
    694c:	91000694 	add	x20, x20, #0x1
/home/thesis/Desktop/optee_rpi3bplus/optee_os/lib/libmbedtls/mbedtls/library/bignum.c:1745 (discriminator 3)
    6950:	b9400160 	ldr	w0, [x11]
    6954:	b940002e 	ldr	w14, [x1]
/home/thesis/Desktop/optee_rpi3bplus/optee_os/lib/libmbedtls/mbedtls/library/bignum.c:1747 (discriminator 3)
    6958:	2a1203e3 	mov	w3, w18
/home/thesis/Desktop/optee_rpi3bplus/optee_os/lib/libmbedtls/mbedtls/library/bignum.c:1745 (discriminator 3)
    695c:	1b0e024e 	madd	w14, w18, w14, w0
/home/thesis/Desktop/optee_rpi3bplus/optee_os/lib/libmbedtls/mbedtls/library/bignum.c:1747 (discriminator 3)
    6960:	aa0f03e0 	mov	x0, x15
/home/thesis/Desktop/optee_rpi3bplus/optee_os/lib/libmbedtls/mbedtls/library/bignum.c:1745 (discriminator 3)
    6964:	1b177dce 	mul	w14, w14, w23
/home/thesis/Desktop/optee_rpi3bplus/optee_os/lib/libmbedtls/mbedtls/library/bignum.c:1747 (discriminator 3)
    6968:	97fff728 	bl	4608 <mpi_mul_hlp>
/home/thesis/Desktop/optee_rpi3bplus/optee_os/lib/libmbedtls/mbedtls/library/bignum.c:1748 (discriminator 3)
    696c:	aa0b03e2 	mov	x2, x11
    6970:	f9400a61 	ldr	x1, [x19, #16]
    6974:	2a0e03e3 	mov	w3, w14
    6978:	aa0d03e0 	mov	x0, x13
    697c:	97fff723 	bl	4608 <mpi_mul_hlp>
/home/thesis/Desktop/optee_rpi3bplus/optee_os/lib/libmbedtls/mbedtls/library/bignum.c:1750 (discriminator 3)
    6980:	b8004572 	str	w18, [x11], #4
    6984:	b82c697f 	str	wzr, [x11, x12]
    6988:	17ffffd8 	b	68e8 <mbedtls_mpi_montmul+0x7c>
/home/thesis/Desktop/optee_rpi3bplus/optee_os/lib/libmbedtls/mbedtls/library/bignum.c:1759
    698c:	f9400aa1 	ldr	x1, [x21, #16]
    6990:	f9400ac2 	ldr	x2, [x22, #16]
    6994:	17ffffe2 	b	691c <mbedtls_mpi_montmul+0xb0>
/home/thesis/Desktop/optee_rpi3bplus/optee_os/lib/libmbedtls/mbedtls/library/bignum.c:1731
    6998:	12800060 	mov	w0, #0xfffffffc            	// #-4
/home/thesis/Desktop/optee_rpi3bplus/optee_os/lib/libmbedtls/mbedtls/library/bignum.c:1762
    699c:	d65f03c0 	ret

00000000000069a0 <mbedtls_mpi_montred>:
mbedtls_mpi_montred():
/home/thesis/Desktop/optee_rpi3bplus/optee_os/lib/libmbedtls/mbedtls/library/bignum.c:1769
    69a0:	a9bd7bfd 	stp	x29, x30, [sp, #-48]!
/home/thesis/Desktop/optee_rpi3bplus/optee_os/lib/libmbedtls/mbedtls/library/bignum.c:1770
    69a4:	52800024 	mov	w4, #0x1                   	// #1
/home/thesis/Desktop/optee_rpi3bplus/optee_os/lib/libmbedtls/mbedtls/library/bignum.c:1769
    69a8:	910003fd 	mov	x29, sp
/home/thesis/Desktop/optee_rpi3bplus/optee_os/lib/libmbedtls/mbedtls/library/bignum.c:1770
    69ac:	b90017e4 	str	w4, [sp, #20]
/home/thesis/Desktop/optee_rpi3bplus/optee_os/lib/libmbedtls/mbedtls/library/bignum.c:1773
    69b0:	790033e4 	strh	w4, [sp, #24]
    69b4:	d2800024 	mov	x4, #0x1                   	// #1
    69b8:	f90013e4 	str	x4, [sp, #32]
/home/thesis/Desktop/optee_rpi3bplus/optee_os/lib/libmbedtls/mbedtls/library/bignum.c:1774
    69bc:	910053e4 	add	x4, sp, #0x14
    69c0:	f90017e4 	str	x4, [sp, #40]
/home/thesis/Desktop/optee_rpi3bplus/optee_os/lib/libmbedtls/mbedtls/library/bignum.c:1776
    69c4:	aa0303e4 	mov	x4, x3
    69c8:	2a0203e3 	mov	w3, w2
    69cc:	aa0103e2 	mov	x2, x1
    69d0:	910063e1 	add	x1, sp, #0x18
    69d4:	97ffffa6 	bl	686c <mbedtls_mpi_montmul>
/home/thesis/Desktop/optee_rpi3bplus/optee_os/lib/libmbedtls/mbedtls/library/bignum.c:1777
    69d8:	a8c37bfd 	ldp	x29, x30, [sp], #48
    69dc:	d65f03c0 	ret

00000000000069e0 <mbedtls_mpi_exp_mod>:
mbedtls_mpi_exp_mod():
/home/thesis/Desktop/optee_rpi3bplus/optee_os/lib/libmbedtls/mbedtls/library/bignum.c:1785
    69e0:	a9b07bfd 	stp	x29, x30, [sp, #-256]!
    69e4:	910003fd 	mov	x29, sp
    69e8:	a90153f3 	stp	x19, x20, [sp, #16]
    69ec:	aa0303f3 	mov	x19, x3
    69f0:	a9025bf5 	stp	x21, x22, [sp, #32]
    69f4:	aa0003f5 	mov	x21, x0
/home/thesis/Desktop/optee_rpi3bplus/optee_os/lib/libmbedtls/mbedtls/library/bignum.c:1801
    69f8:	aa0303e0 	mov	x0, x3
/home/thesis/Desktop/optee_rpi3bplus/optee_os/lib/libmbedtls/mbedtls/library/bignum.c:1785
    69fc:	a90363f7 	stp	x23, x24, [sp, #48]
    6a00:	a9046bf9 	stp	x25, x26, [sp, #64]
    6a04:	aa0103fa 	mov	x26, x1
    6a08:	aa0403f9 	mov	x25, x4
/home/thesis/Desktop/optee_rpi3bplus/optee_os/lib/libmbedtls/mbedtls/library/bignum.c:1801
    6a0c:	52800001 	mov	w1, #0x0                   	// #0
/home/thesis/Desktop/optee_rpi3bplus/optee_os/lib/libmbedtls/mbedtls/library/bignum.c:1785
    6a10:	a90573fb 	stp	x27, x28, [sp, #80]
    6a14:	aa0203fc 	mov	x28, x2
/home/thesis/Desktop/optee_rpi3bplus/optee_os/lib/libmbedtls/mbedtls/library/bignum.c:1801
    6a18:	97fffb37 	bl	56f4 <mbedtls_mpi_cmp_int>
    6a1c:	7100001f 	cmp	w0, #0x0
    6a20:	5400014c 	b.gt	6a48 <mbedtls_mpi_exp_mod+0x68>
/home/thesis/Desktop/optee_rpi3bplus/optee_os/lib/libmbedtls/mbedtls/library/bignum.c:1802
    6a24:	12800062 	mov	w2, #0xfffffffc            	// #-4
/home/thesis/Desktop/optee_rpi3bplus/optee_os/lib/libmbedtls/mbedtls/library/bignum.c:2005
    6a28:	2a0203e0 	mov	w0, w2
    6a2c:	a94153f3 	ldp	x19, x20, [sp, #16]
    6a30:	a9425bf5 	ldp	x21, x22, [sp, #32]
    6a34:	a94363f7 	ldp	x23, x24, [sp, #48]
    6a38:	a9446bf9 	ldp	x25, x26, [sp, #64]
    6a3c:	a94573fb 	ldp	x27, x28, [sp, #80]
    6a40:	a8d07bfd 	ldp	x29, x30, [sp], #256
    6a44:	d65f03c0 	ret
/home/thesis/Desktop/optee_rpi3bplus/optee_os/lib/libmbedtls/mbedtls/library/bignum.c:1801 (discriminator 1)
    6a48:	f9400a60 	ldr	x0, [x19, #16]
    6a4c:	b9400000 	ldr	w0, [x0]
    6a50:	12000001 	and	w1, w0, #0x1
    6a54:	b9008fe1 	str	w1, [sp, #140]
    6a58:	3607fe60 	tbz	w0, #0, 6a24 <mbedtls_mpi_exp_mod+0x44>
/home/thesis/Desktop/optee_rpi3bplus/optee_os/lib/libmbedtls/mbedtls/library/bignum.c:1804
    6a5c:	52800001 	mov	w1, #0x0                   	// #0
    6a60:	aa1c03e0 	mov	x0, x28
    6a64:	97fffb24 	bl	56f4 <mbedtls_mpi_cmp_int>
    6a68:	37fffde0 	tbnz	w0, #31, 6a24 <mbedtls_mpi_exp_mod+0x44>
/home/thesis/Desktop/optee_rpi3bplus/optee_os/lib/libmbedtls/mbedtls/library/bignum.c:1810
    6a6c:	aa1303e1 	mov	x1, x19
    6a70:	9102d3e0 	add	x0, sp, #0xb4
/home/thesis/Desktop/optee_rpi3bplus/optee_os/lib/libmbedtls/mbedtls/library/bignum.c:1811
    6a74:	9102e3f8 	add	x24, sp, #0xb8
/home/thesis/Desktop/optee_rpi3bplus/optee_os/lib/libmbedtls/mbedtls/library/bignum.c:1810
    6a78:	97ffff6e 	bl	6830 <mbedtls_mpi_montg_init>
/home/thesis/Desktop/optee_rpi3bplus/optee_os/lib/libmbedtls/mbedtls/library/bignum.c:1811
    6a7c:	aa1803e0 	mov	x0, x24
    6a80:	910343f6 	add	x22, sp, #0xd0
    6a84:	97fff81a 	bl	4aec <mbedtls_mpi_init_mempool>
    6a88:	aa1603e0 	mov	x0, x22
    6a8c:	97fff818 	bl	4aec <mbedtls_mpi_init_mempool>
/home/thesis/Desktop/optee_rpi3bplus/optee_os/lib/libmbedtls/mbedtls/library/bignum.c:1812
    6a90:	9103a3e0 	add	x0, sp, #0xe8
    6a94:	f9003be0 	str	x0, [sp, #112]
    6a98:	97fff815 	bl	4aec <mbedtls_mpi_init_mempool>
/home/thesis/Desktop/optee_rpi3bplus/optee_os/lib/libmbedtls/mbedtls/library/bignum.c:1814
    6a9c:	aa1c03e0 	mov	x0, x28
    6aa0:	97fff9c9 	bl	51c4 <mbedtls_mpi_bitlen>
/home/thesis/Desktop/optee_rpi3bplus/optee_os/lib/libmbedtls/mbedtls/library/bignum.c:1816
    6aa4:	f10a7c1f 	cmp	x0, #0x29f
    6aa8:	540012c8 	b.hi	6d00 <mbedtls_mpi_exp_mod+0x320>  // b.pmore
/home/thesis/Desktop/optee_rpi3bplus/optee_os/lib/libmbedtls/mbedtls/library/bignum.c:1816 (discriminator 1)
    6aac:	f103bc1f 	cmp	x0, #0xef
    6ab0:	540012c8 	b.hi	6d08 <mbedtls_mpi_exp_mod+0x328>  // b.pmore
/home/thesis/Desktop/optee_rpi3bplus/optee_os/lib/libmbedtls/mbedtls/library/bignum.c:1816 (discriminator 3)
    6ab4:	f1013c1f 	cmp	x0, #0x4f
    6ab8:	540012c8 	b.hi	6d10 <mbedtls_mpi_exp_mod+0x330>  // b.pmore
/home/thesis/Desktop/optee_rpi3bplus/optee_os/lib/libmbedtls/mbedtls/library/bignum.c:1816 (discriminator 5)
    6abc:	f1005c1f 	cmp	x0, #0x17
    6ac0:	d2800077 	mov	x23, #0x3                   	// #3
    6ac4:	9a9f86f7 	csinc	x23, x23, xzr, hi  // hi = pmore
/home/thesis/Desktop/optee_rpi3bplus/optee_os/lib/libmbedtls/mbedtls/library/bignum.c:1822
    6ac8:	f9400660 	ldr	x0, [x19, #8]
    6acc:	91000400 	add	x0, x0, #0x1
    6ad0:	f9003fe0 	str	x0, [sp, #120]
/home/thesis/Desktop/optee_rpi3bplus/optee_os/lib/libmbedtls/mbedtls/library/bignum.c:1823
    6ad4:	aa0003e1 	mov	x1, x0
    6ad8:	aa1503e0 	mov	x0, x21
    6adc:	97fff829 	bl	4b80 <mbedtls_mpi_grow>
    6ae0:	2a0003e2 	mov	w2, w0
    6ae4:	b0000040 	adrp	x0, f000 <.got>
    6ae8:	f90053e0 	str	x0, [sp, #160]
    6aec:	35002b82 	cbnz	w2, 705c <mbedtls_mpi_exp_mod+0x67c>
/home/thesis/Desktop/optee_rpi3bplus/optee_os/lib/libmbedtls/mbedtls/library/bignum.c:1825
    6af0:	f9403fe0 	ldr	x0, [sp, #120]
    6af4:	d37ff801 	lsl	x1, x0, #1
    6af8:	aa1603e0 	mov	x0, x22
    6afc:	97fff821 	bl	4b80 <mbedtls_mpi_grow>
    6b00:	2a0003e2 	mov	w2, w0
    6b04:	35002ac0 	cbnz	w0, 705c <mbedtls_mpi_exp_mod+0x67c>
/home/thesis/Desktop/optee_rpi3bplus/optee_os/lib/libmbedtls/mbedtls/library/bignum.c:1830
    6b08:	79c00340 	ldrsh	w0, [x26]
    6b0c:	b9008be0 	str	w0, [sp, #136]
/home/thesis/Desktop/optee_rpi3bplus/optee_os/lib/libmbedtls/mbedtls/library/bignum.c:1831
    6b10:	3100041f 	cmn	w0, #0x1
    6b14:	54000121 	b.ne	6b38 <mbedtls_mpi_exp_mod+0x158>  // b.any
/home/thesis/Desktop/optee_rpi3bplus/optee_os/lib/libmbedtls/mbedtls/library/bignum.c:1833
    6b18:	f9403be0 	ldr	x0, [sp, #112]
    6b1c:	aa1a03e1 	mov	x1, x26
    6b20:	97fff89e 	bl	4d98 <mbedtls_mpi_copy>
    6b24:	2a0003e2 	mov	w2, w0
    6b28:	350029a0 	cbnz	w0, 705c <mbedtls_mpi_exp_mod+0x67c>
/home/thesis/Desktop/optee_rpi3bplus/optee_os/lib/libmbedtls/mbedtls/library/bignum.c:1835
    6b2c:	f9403bfa 	ldr	x26, [sp, #112]
/home/thesis/Desktop/optee_rpi3bplus/optee_os/lib/libmbedtls/mbedtls/library/bignum.c:1834
    6b30:	52800020 	mov	w0, #0x1                   	// #1
    6b34:	7901d3e0 	strh	w0, [sp, #232]
/home/thesis/Desktop/optee_rpi3bplus/optee_os/lib/libmbedtls/mbedtls/library/bignum.c:1841
    6b38:	b4000079 	cbz	x25, 6b44 <mbedtls_mpi_exp_mod+0x164>
/home/thesis/Desktop/optee_rpi3bplus/optee_os/lib/libmbedtls/mbedtls/library/bignum.c:1841 (discriminator 1)
    6b3c:	f9400b20 	ldr	x0, [x25, #16]
    6b40:	b5000ec0 	cbnz	x0, 6d18 <mbedtls_mpi_exp_mod+0x338>
/home/thesis/Desktop/optee_rpi3bplus/optee_os/lib/libmbedtls/mbedtls/library/bignum.c:1843
    6b44:	52800021 	mov	w1, #0x1                   	// #1
    6b48:	aa1803e0 	mov	x0, x24
    6b4c:	97fff941 	bl	5050 <mbedtls_mpi_lset>
    6b50:	2a0003e2 	mov	w2, w0
    6b54:	35002840 	cbnz	w0, 705c <mbedtls_mpi_exp_mod+0x67c>
/home/thesis/Desktop/optee_rpi3bplus/optee_os/lib/libmbedtls/mbedtls/library/bignum.c:1844
    6b58:	f9400661 	ldr	x1, [x19, #8]
    6b5c:	aa1803e0 	mov	x0, x24
    6b60:	d37ae421 	lsl	x1, x1, #6
    6b64:	97fffa15 	bl	53b8 <mbedtls_mpi_shift_l>
    6b68:	2a0003e2 	mov	w2, w0
    6b6c:	35002780 	cbnz	w0, 705c <mbedtls_mpi_exp_mod+0x67c>
/home/thesis/Desktop/optee_rpi3bplus/optee_os/lib/libmbedtls/mbedtls/library/bignum.c:1845
    6b70:	aa1303e2 	mov	x2, x19
    6b74:	aa1803e1 	mov	x1, x24
    6b78:	aa1803e0 	mov	x0, x24
    6b7c:	97fffe08 	bl	639c <mbedtls_mpi_mod_mpi>
    6b80:	2a0003e2 	mov	w2, w0
    6b84:	350026c0 	cbnz	w0, 705c <mbedtls_mpi_exp_mod+0x67c>
/home/thesis/Desktop/optee_rpi3bplus/optee_os/lib/libmbedtls/mbedtls/library/bignum.c:1847
    6b88:	b40000b9 	cbz	x25, 6b9c <mbedtls_mpi_exp_mod+0x1bc>
/home/thesis/Desktop/optee_rpi3bplus/optee_os/lib/libmbedtls/mbedtls/library/bignum.c:1848
    6b8c:	aa1803e1 	mov	x1, x24
    6b90:	aa1903e0 	mov	x0, x25
    6b94:	d2800302 	mov	x2, #0x18                  	// #24
/home/thesis/Desktop/optee_rpi3bplus/optee_os/lib/libmbedtls/mbedtls/library/bignum.c:1851
    6b98:	97ffe9b8 	bl	1278 <memcpy>
/home/thesis/Desktop/optee_rpi3bplus/optee_os/lib/libmbedtls/mbedtls/library/bignum.c:1853
    6b9c:	b0000040 	adrp	x0, f000 <.got>
    6ba0:	d2818001 	mov	x1, #0xc00                 	// #3072
    6ba4:	f9404000 	ldr	x0, [x0, #128]
    6ba8:	f9400000 	ldr	x0, [x0]
    6bac:	94000da1 	bl	a230 <mempool_alloc>
    6bb0:	aa0003f4 	mov	x20, x0
/home/thesis/Desktop/optee_rpi3bplus/optee_os/lib/libmbedtls/mbedtls/library/bignum.c:1855
    6bb4:	b4002580 	cbz	x0, 7064 <mbedtls_mpi_exp_mod+0x684>
    6bb8:	aa1403fb 	mov	x27, x20
    6bbc:	91300000 	add	x0, x0, #0xc00
    6bc0:	f90037f4 	str	x20, [sp, #104]
    6bc4:	f9004be0 	str	x0, [sp, #144]
/home/thesis/Desktop/optee_rpi3bplus/optee_os/lib/libmbedtls/mbedtls/library/bignum.c:1860 (discriminator 3)
    6bc8:	aa1b03e0 	mov	x0, x27
    6bcc:	97fff7c8 	bl	4aec <mbedtls_mpi_init_mempool>
/home/thesis/Desktop/optee_rpi3bplus/optee_os/lib/libmbedtls/mbedtls/library/bignum.c:1859 (discriminator 3)
    6bd0:	f9404be0 	ldr	x0, [sp, #144]
    6bd4:	9100637b 	add	x27, x27, #0x18
    6bd8:	eb00037f 	cmp	x27, x0
    6bdc:	54ffff61 	b.ne	6bc8 <mbedtls_mpi_exp_mod+0x1e8>  // b.any
/home/thesis/Desktop/optee_rpi3bplus/optee_os/lib/libmbedtls/mbedtls/library/bignum.c:1861
    6be0:	f9403fe1 	ldr	x1, [sp, #120]
    6be4:	9100629b 	add	x27, x20, #0x18
    6be8:	aa1b03e0 	mov	x0, x27
    6bec:	97fff7e5 	bl	4b80 <mbedtls_mpi_grow>
    6bf0:	2a0003e2 	mov	w2, w0
    6bf4:	35001fa0 	cbnz	w0, 6fe8 <mbedtls_mpi_exp_mod+0x608>
/home/thesis/Desktop/optee_rpi3bplus/optee_os/lib/libmbedtls/mbedtls/library/bignum.c:1866
    6bf8:	aa1303e1 	mov	x1, x19
    6bfc:	aa1a03e0 	mov	x0, x26
    6c00:	97fffa87 	bl	561c <mbedtls_mpi_cmp_mpi>
    6c04:	37f80920 	tbnz	w0, #31, 6d28 <mbedtls_mpi_exp_mod+0x348>
/home/thesis/Desktop/optee_rpi3bplus/optee_os/lib/libmbedtls/mbedtls/library/bignum.c:1867
    6c08:	aa1303e2 	mov	x2, x19
    6c0c:	aa1a03e1 	mov	x1, x26
    6c10:	aa1b03e0 	mov	x0, x27
    6c14:	97fffde2 	bl	639c <mbedtls_mpi_mod_mpi>
    6c18:	2a0003e2 	mov	w2, w0
    6c1c:	35001e60 	cbnz	w0, 6fe8 <mbedtls_mpi_exp_mod+0x608>
/home/thesis/Desktop/optee_rpi3bplus/optee_os/lib/libmbedtls/mbedtls/library/bignum.c:1871
    6c20:	b940b7e3 	ldr	w3, [sp, #180]
    6c24:	aa1303e2 	mov	x2, x19
    6c28:	aa1603e4 	mov	x4, x22
    6c2c:	aa1803e1 	mov	x1, x24
    6c30:	aa1b03e0 	mov	x0, x27
    6c34:	97ffff0e 	bl	686c <mbedtls_mpi_montmul>
    6c38:	2a0003e2 	mov	w2, w0
    6c3c:	35001d60 	cbnz	w0, 6fe8 <mbedtls_mpi_exp_mod+0x608>
/home/thesis/Desktop/optee_rpi3bplus/optee_os/lib/libmbedtls/mbedtls/library/bignum.c:1876
    6c40:	aa1803e1 	mov	x1, x24
    6c44:	aa1503e0 	mov	x0, x21
    6c48:	97fff854 	bl	4d98 <mbedtls_mpi_copy>
    6c4c:	2a0003e2 	mov	w2, w0
    6c50:	35001cc0 	cbnz	w0, 6fe8 <mbedtls_mpi_exp_mod+0x608>
/home/thesis/Desktop/optee_rpi3bplus/optee_os/lib/libmbedtls/mbedtls/library/bignum.c:1877
    6c54:	b940b7e2 	ldr	w2, [sp, #180]
    6c58:	aa1603e3 	mov	x3, x22
    6c5c:	aa1303e1 	mov	x1, x19
    6c60:	aa1503e0 	mov	x0, x21
    6c64:	97ffff4f 	bl	69a0 <mbedtls_mpi_montred>
    6c68:	2a0003e2 	mov	w2, w0
    6c6c:	35001be0 	cbnz	w0, 6fe8 <mbedtls_mpi_exp_mod+0x608>
/home/thesis/Desktop/optee_rpi3bplus/optee_os/lib/libmbedtls/mbedtls/library/bignum.c:1879
    6c70:	f10006ff 	cmp	x23, #0x1
    6c74:	54000621 	b.ne	6d38 <mbedtls_mpi_exp_mod+0x358>  // b.any
/home/thesis/Desktop/optee_rpi3bplus/optee_os/lib/libmbedtls/mbedtls/library/bignum.c:1904
    6c78:	f940079a 	ldr	x26, [x28, #8]
/home/thesis/Desktop/optee_rpi3bplus/optee_os/lib/libmbedtls/mbedtls/library/bignum.c:1908
    6c7c:	52800003 	mov	w3, #0x0                   	// #0
/home/thesis/Desktop/optee_rpi3bplus/optee_os/lib/libmbedtls/mbedtls/library/bignum.c:1906
    6c80:	d2800005 	mov	x5, #0x0                   	// #0
/home/thesis/Desktop/optee_rpi3bplus/optee_os/lib/libmbedtls/mbedtls/library/bignum.c:1905
    6c84:	d2800007 	mov	x7, #0x0                   	// #0
/home/thesis/Desktop/optee_rpi3bplus/optee_os/lib/libmbedtls/mbedtls/library/bignum.c:1907
    6c88:	d2800006 	mov	x6, #0x0                   	// #0
/home/thesis/Desktop/optee_rpi3bplus/optee_os/lib/libmbedtls/mbedtls/library/bignum.c:1912
    6c8c:	b5000fc7 	cbnz	x7, 6e84 <mbedtls_mpi_exp_mod+0x4a4>
/home/thesis/Desktop/optee_rpi3bplus/optee_os/lib/libmbedtls/mbedtls/library/bignum.c:1914
    6c90:	b5000f7a 	cbnz	x26, 6e7c <mbedtls_mpi_exp_mod+0x49c>
/home/thesis/Desktop/optee_rpi3bplus/optee_os/lib/libmbedtls/mbedtls/library/bignum.c:1977
    6c94:	d2800020 	mov	x0, #0x1                   	// #1
    6c98:	9ad72017 	lsl	x23, x0, x23
/home/thesis/Desktop/optee_rpi3bplus/optee_os/lib/libmbedtls/mbedtls/library/bignum.c:1971 (discriminator 1)
    6c9c:	eb05035f 	cmp	x26, x5
    6ca0:	b940b7e2 	ldr	w2, [sp, #180]
    6ca4:	54001701 	b.ne	6f84 <mbedtls_mpi_exp_mod+0x5a4>  // b.any
/home/thesis/Desktop/optee_rpi3bplus/optee_os/lib/libmbedtls/mbedtls/library/bignum.c:1984
    6ca8:	aa1603e3 	mov	x3, x22
    6cac:	aa1303e1 	mov	x1, x19
    6cb0:	aa1503e0 	mov	x0, x21
    6cb4:	97ffff3b 	bl	69a0 <mbedtls_mpi_montred>
    6cb8:	2a0003e2 	mov	w2, w0
    6cbc:	35001960 	cbnz	w0, 6fe8 <mbedtls_mpi_exp_mod+0x608>
/home/thesis/Desktop/optee_rpi3bplus/optee_os/lib/libmbedtls/mbedtls/library/bignum.c:1986
    6cc0:	b9408be0 	ldr	w0, [sp, #136]
    6cc4:	3100041f 	cmn	w0, #0x1
    6cc8:	54001901 	b.ne	6fe8 <mbedtls_mpi_exp_mod+0x608>  // b.any
/home/thesis/Desktop/optee_rpi3bplus/optee_os/lib/libmbedtls/mbedtls/library/bignum.c:1986 (discriminator 1)
    6ccc:	f9400780 	ldr	x0, [x28, #8]
    6cd0:	b40018c0 	cbz	x0, 6fe8 <mbedtls_mpi_exp_mod+0x608>
/home/thesis/Desktop/optee_rpi3bplus/optee_os/lib/libmbedtls/mbedtls/library/bignum.c:1986 (discriminator 2)
    6cd4:	f9400b80 	ldr	x0, [x28, #16]
    6cd8:	b9400000 	ldr	w0, [x0]
    6cdc:	36001860 	tbz	w0, #0, 6fe8 <mbedtls_mpi_exp_mod+0x608>
/home/thesis/Desktop/optee_rpi3bplus/optee_os/lib/libmbedtls/mbedtls/library/bignum.c:1988
    6ce0:	794113e0 	ldrh	w0, [sp, #136]
/home/thesis/Desktop/optee_rpi3bplus/optee_os/lib/libmbedtls/mbedtls/library/bignum.c:1989
    6ce4:	aa1503e2 	mov	x2, x21
/home/thesis/Desktop/optee_rpi3bplus/optee_os/lib/libmbedtls/mbedtls/library/bignum.c:1988
    6ce8:	790002a0 	strh	w0, [x21]
/home/thesis/Desktop/optee_rpi3bplus/optee_os/lib/libmbedtls/mbedtls/library/bignum.c:1989
    6cec:	aa1303e1 	mov	x1, x19
    6cf0:	aa1503e0 	mov	x0, x21
    6cf4:	97fffb10 	bl	5934 <mbedtls_mpi_add_mpi>
    6cf8:	2a0003e2 	mov	w2, w0
/home/thesis/Desktop/optee_rpi3bplus/optee_os/lib/libmbedtls/mbedtls/library/bignum.c:1992
    6cfc:	140000bb 	b	6fe8 <mbedtls_mpi_exp_mod+0x608>
/home/thesis/Desktop/optee_rpi3bplus/optee_os/lib/libmbedtls/mbedtls/library/bignum.c:1816
    6d00:	d28000d7 	mov	x23, #0x6                   	// #6
    6d04:	17ffff71 	b	6ac8 <mbedtls_mpi_exp_mod+0xe8>
    6d08:	d28000b7 	mov	x23, #0x5                   	// #5
    6d0c:	17ffff6f 	b	6ac8 <mbedtls_mpi_exp_mod+0xe8>
    6d10:	d2800097 	mov	x23, #0x4                   	// #4
    6d14:	17ffff6d 	b	6ac8 <mbedtls_mpi_exp_mod+0xe8>
/home/thesis/Desktop/optee_rpi3bplus/optee_os/lib/libmbedtls/mbedtls/library/bignum.c:1851
    6d18:	d2800302 	mov	x2, #0x18                  	// #24
    6d1c:	aa1903e1 	mov	x1, x25
    6d20:	aa1803e0 	mov	x0, x24
    6d24:	17ffff9d 	b	6b98 <mbedtls_mpi_exp_mod+0x1b8>
/home/thesis/Desktop/optee_rpi3bplus/optee_os/lib/libmbedtls/mbedtls/library/bignum.c:1869
    6d28:	aa1a03e1 	mov	x1, x26
    6d2c:	aa1b03e0 	mov	x0, x27
    6d30:	97fff81a 	bl	4d98 <mbedtls_mpi_copy>
    6d34:	17ffffb9 	b	6c18 <mbedtls_mpi_exp_mod+0x238>
/home/thesis/Desktop/optee_rpi3bplus/optee_os/lib/libmbedtls/mbedtls/library/bignum.c:1884
    6d38:	510006e0 	sub	w0, w23, #0x1
    6d3c:	b9007be0 	str	w0, [sp, #120]
/home/thesis/Desktop/optee_rpi3bplus/optee_os/lib/libmbedtls/mbedtls/library/bignum.c:1886
    6d40:	f9400661 	ldr	x1, [x19, #8]
    6d44:	d280031a 	mov	x26, #0x18                  	// #24
    6d48:	3941e3e0 	ldrb	w0, [sp, #120]
    6d4c:	91000421 	add	x1, x1, #0x1
/home/thesis/Desktop/optee_rpi3bplus/optee_os/lib/libmbedtls/mbedtls/library/bignum.c:1884
    6d50:	b9009bf7 	str	w23, [sp, #152]
/home/thesis/Desktop/optee_rpi3bplus/optee_os/lib/libmbedtls/mbedtls/library/bignum.c:1886
    6d54:	9ac0235a 	lsl	x26, x26, x0
    6d58:	8b1a029a 	add	x26, x20, x26
    6d5c:	aa1a03e0 	mov	x0, x26
    6d60:	97fff788 	bl	4b80 <mbedtls_mpi_grow>
    6d64:	2a0003e2 	mov	w2, w0
    6d68:	35001400 	cbnz	w0, 6fe8 <mbedtls_mpi_exp_mod+0x608>
/home/thesis/Desktop/optee_rpi3bplus/optee_os/lib/libmbedtls/mbedtls/library/bignum.c:1887
    6d6c:	aa1b03e1 	mov	x1, x27
    6d70:	aa1a03e0 	mov	x0, x26
    6d74:	97fff809 	bl	4d98 <mbedtls_mpi_copy>
    6d78:	2a0003e2 	mov	w2, w0
    6d7c:	35001360 	cbnz	w0, 6fe8 <mbedtls_mpi_exp_mod+0x608>
/home/thesis/Desktop/optee_rpi3bplus/optee_os/lib/libmbedtls/mbedtls/library/bignum.c:1889
    6d80:	d10006e6 	sub	x6, x23, #0x1
    6d84:	d2800005 	mov	x5, #0x0                   	// #0
/home/thesis/Desktop/optee_rpi3bplus/optee_os/lib/libmbedtls/mbedtls/library/bignum.c:1890
    6d88:	b940b7e3 	ldr	w3, [sp, #180]
    6d8c:	aa1303e2 	mov	x2, x19
    6d90:	aa1603e4 	mov	x4, x22
    6d94:	aa1a03e1 	mov	x1, x26
    6d98:	aa1a03e0 	mov	x0, x26
    6d9c:	f90043e5 	str	x5, [sp, #128]
    6da0:	f90057e6 	str	x6, [sp, #168]
    6da4:	97fffeb2 	bl	686c <mbedtls_mpi_montmul>
    6da8:	2a0003e2 	mov	w2, w0
    6dac:	350011e0 	cbnz	w0, 6fe8 <mbedtls_mpi_exp_mod+0x608>
/home/thesis/Desktop/optee_rpi3bplus/optee_os/lib/libmbedtls/mbedtls/library/bignum.c:1889 (discriminator 2)
    6db0:	f94043e5 	ldr	x5, [sp, #128]
    6db4:	f94057e6 	ldr	x6, [sp, #168]
    6db8:	910004a5 	add	x5, x5, #0x1
    6dbc:	eb0500df 	cmp	x6, x5
    6dc0:	54fffe48 	b.hi	6d88 <mbedtls_mpi_exp_mod+0x3a8>  // b.pmore
/home/thesis/Desktop/optee_rpi3bplus/optee_os/lib/libmbedtls/mbedtls/library/bignum.c:1884
    6dc4:	3941e3e1 	ldrb	w1, [sp, #120]
    6dc8:	d2800020 	mov	x0, #0x1                   	// #1
    6dcc:	d2800303 	mov	x3, #0x18                  	// #24
    6dd0:	9ac12001 	lsl	x1, x0, x1
/home/thesis/Desktop/optee_rpi3bplus/optee_os/lib/libmbedtls/mbedtls/library/bignum.c:1895
    6dd4:	8b000021 	add	x1, x1, x0
    6dd8:	f90043e1 	str	x1, [sp, #128]
    6ddc:	394263e1 	ldrb	w1, [sp, #152]
    6de0:	9ac12000 	lsl	x0, x0, x1
    6de4:	f9004fe0 	str	x0, [sp, #152]
    6de8:	3941e3e0 	ldrb	w0, [sp, #120]
    6dec:	9ac02063 	lsl	x3, x3, x0
    6df0:	8b030283 	add	x3, x20, x3
/home/thesis/Desktop/optee_rpi3bplus/optee_os/lib/libmbedtls/mbedtls/library/bignum.c:1895 (discriminator 1)
    6df4:	f94043e1 	ldr	x1, [sp, #128]
    6df8:	f9404fe0 	ldr	x0, [sp, #152]
    6dfc:	eb01001f 	cmp	x0, x1
    6e00:	54fff3c9 	b.ls	6c78 <mbedtls_mpi_exp_mod+0x298>  // b.plast
/home/thesis/Desktop/optee_rpi3bplus/optee_os/lib/libmbedtls/mbedtls/library/bignum.c:1897
    6e04:	f9400661 	ldr	x1, [x19, #8]
    6e08:	9100607a 	add	x26, x3, #0x18
    6e0c:	aa1a03e0 	mov	x0, x26
    6e10:	f9003fe3 	str	x3, [sp, #120]
    6e14:	91000421 	add	x1, x1, #0x1
    6e18:	97fff75a 	bl	4b80 <mbedtls_mpi_grow>
    6e1c:	2a0003e2 	mov	w2, w0
    6e20:	35000e40 	cbnz	w0, 6fe8 <mbedtls_mpi_exp_mod+0x608>
/home/thesis/Desktop/optee_rpi3bplus/optee_os/lib/libmbedtls/mbedtls/library/bignum.c:1898
    6e24:	f9403fe3 	ldr	x3, [sp, #120]
    6e28:	aa1a03e0 	mov	x0, x26
    6e2c:	aa0303e1 	mov	x1, x3
    6e30:	97fff7da 	bl	4d98 <mbedtls_mpi_copy>
    6e34:	2a0003e2 	mov	w2, w0
    6e38:	35000d80 	cbnz	w0, 6fe8 <mbedtls_mpi_exp_mod+0x608>
/home/thesis/Desktop/optee_rpi3bplus/optee_os/lib/libmbedtls/mbedtls/library/bignum.c:1900
    6e3c:	b940b7e3 	ldr	w3, [sp, #180]
    6e40:	aa1303e2 	mov	x2, x19
    6e44:	aa1603e4 	mov	x4, x22
    6e48:	aa1b03e1 	mov	x1, x27
    6e4c:	aa1a03e0 	mov	x0, x26
    6e50:	97fffe87 	bl	686c <mbedtls_mpi_montmul>
    6e54:	2a0003e2 	mov	w2, w0
    6e58:	35000c80 	cbnz	w0, 6fe8 <mbedtls_mpi_exp_mod+0x608>
/home/thesis/Desktop/optee_rpi3bplus/optee_os/lib/libmbedtls/mbedtls/library/bignum.c:1895 (discriminator 2)
    6e5c:	f94043e0 	ldr	x0, [sp, #128]
    6e60:	aa1a03e3 	mov	x3, x26
    6e64:	91000400 	add	x0, x0, #0x1
    6e68:	f90043e0 	str	x0, [sp, #128]
    6e6c:	17ffffe2 	b	6df4 <mbedtls_mpi_exp_mod+0x414>
/home/thesis/Desktop/optee_rpi3bplus/optee_os/lib/libmbedtls/mbedtls/library/bignum.c:1944
    6e70:	52800040 	mov	w0, #0x2                   	// #2
/home/thesis/Desktop/optee_rpi3bplus/optee_os/lib/libmbedtls/mbedtls/library/bignum.c:1964
    6e74:	2a0003e3 	mov	w3, w0
    6e78:	17ffff85 	b	6c8c <mbedtls_mpi_exp_mod+0x2ac>
/home/thesis/Desktop/optee_rpi3bplus/optee_os/lib/libmbedtls/mbedtls/library/bignum.c:1917
    6e7c:	d100075a 	sub	x26, x26, #0x1
/home/thesis/Desktop/optee_rpi3bplus/optee_os/lib/libmbedtls/mbedtls/library/bignum.c:1919
    6e80:	d2800407 	mov	x7, #0x20                  	// #32
/home/thesis/Desktop/optee_rpi3bplus/optee_os/lib/libmbedtls/mbedtls/library/bignum.c:1924
    6e84:	f9400b80 	ldr	x0, [x28, #16]
/home/thesis/Desktop/optee_rpi3bplus/optee_os/lib/libmbedtls/mbedtls/library/bignum.c:1922
    6e88:	d10004e7 	sub	x7, x7, #0x1
/home/thesis/Desktop/optee_rpi3bplus/optee_os/lib/libmbedtls/mbedtls/library/bignum.c:1924
    6e8c:	b87a7802 	ldr	w2, [x0, x26, lsl #2]
    6e90:	1ac72442 	lsr	w2, w2, w7
    6e94:	12000041 	and	w1, w2, #0x1
/home/thesis/Desktop/optee_rpi3bplus/optee_os/lib/libmbedtls/mbedtls/library/bignum.c:1929
    6e98:	2a010060 	orr	w0, w3, w1
    6e9c:	34fffec0 	cbz	w0, 6e74 <mbedtls_mpi_exp_mod+0x494>
/home/thesis/Desktop/optee_rpi3bplus/optee_os/lib/libmbedtls/mbedtls/library/bignum.c:1932
    6ea0:	7100047f 	cmp	w3, #0x1
    6ea4:	1a9f17e0 	cset	w0, eq  // eq = none
    6ea8:	6a22001f 	bics	wzr, w0, w2
    6eac:	540001e0 	b.eq	6ee8 <mbedtls_mpi_exp_mod+0x508>  // b.none
/home/thesis/Desktop/optee_rpi3bplus/optee_os/lib/libmbedtls/mbedtls/library/bignum.c:1937
    6eb0:	b940b7e3 	ldr	w3, [sp, #180]
    6eb4:	aa1303e2 	mov	x2, x19
    6eb8:	aa1603e4 	mov	x4, x22
    6ebc:	aa1503e1 	mov	x1, x21
    6ec0:	aa1503e0 	mov	x0, x21
    6ec4:	a9079fe6 	stp	x6, x7, [sp, #120]
    6ec8:	f9004fe5 	str	x5, [sp, #152]
    6ecc:	97fffe68 	bl	686c <mbedtls_mpi_montmul>
    6ed0:	2a0003e2 	mov	w2, w0
    6ed4:	350008a0 	cbnz	w0, 6fe8 <mbedtls_mpi_exp_mod+0x608>
    6ed8:	b9408fe0 	ldr	w0, [sp, #140]
    6edc:	a9479fe6 	ldp	x6, x7, [sp, #120]
    6ee0:	f9404fe5 	ldr	x5, [sp, #152]
    6ee4:	17ffffe4 	b	6e74 <mbedtls_mpi_exp_mod+0x494>
/home/thesis/Desktop/optee_rpi3bplus/optee_os/lib/libmbedtls/mbedtls/library/bignum.c:1946
    6ee8:	910004a5 	add	x5, x5, #0x1
/home/thesis/Desktop/optee_rpi3bplus/optee_os/lib/libmbedtls/mbedtls/library/bignum.c:1947
    6eec:	4b0502e0 	sub	w0, w23, w5
/home/thesis/Desktop/optee_rpi3bplus/optee_os/lib/libmbedtls/mbedtls/library/bignum.c:1949
    6ef0:	eb0502ff 	cmp	x23, x5
/home/thesis/Desktop/optee_rpi3bplus/optee_os/lib/libmbedtls/mbedtls/library/bignum.c:1947
    6ef4:	1ac02021 	lsl	w1, w1, w0
    6ef8:	aa0100c6 	orr	x6, x6, x1
/home/thesis/Desktop/optee_rpi3bplus/optee_os/lib/libmbedtls/mbedtls/library/bignum.c:1949
    6efc:	54fffba1 	b.ne	6e70 <mbedtls_mpi_exp_mod+0x490>  // b.any
/home/thesis/Desktop/optee_rpi3bplus/optee_os/lib/libmbedtls/mbedtls/library/bignum.c:1954
    6f00:	d2800008 	mov	x8, #0x0                   	// #0
/home/thesis/Desktop/optee_rpi3bplus/optee_os/lib/libmbedtls/mbedtls/library/bignum.c:1955
    6f04:	b940b7e3 	ldr	w3, [sp, #180]
    6f08:	aa1303e2 	mov	x2, x19
    6f0c:	aa1603e4 	mov	x4, x22
    6f10:	aa1503e1 	mov	x1, x21
    6f14:	aa1503e0 	mov	x0, x21
    6f18:	a9079fe6 	stp	x6, x7, [sp, #120]
    6f1c:	f9004fe5 	str	x5, [sp, #152]
    6f20:	f90057e8 	str	x8, [sp, #168]
    6f24:	97fffe52 	bl	686c <mbedtls_mpi_montmul>
    6f28:	2a0003e2 	mov	w2, w0
    6f2c:	350005e0 	cbnz	w0, 6fe8 <mbedtls_mpi_exp_mod+0x608>
/home/thesis/Desktop/optee_rpi3bplus/optee_os/lib/libmbedtls/mbedtls/library/bignum.c:1954 (discriminator 2)
    6f30:	f94057e8 	ldr	x8, [sp, #168]
    6f34:	f9404fe5 	ldr	x5, [sp, #152]
    6f38:	91000508 	add	x8, x8, #0x1
    6f3c:	a9479fe6 	ldp	x6, x7, [sp, #120]
    6f40:	eb0800bf 	cmp	x5, x8
    6f44:	54fffe08 	b.hi	6f04 <mbedtls_mpi_exp_mod+0x524>  // b.pmore
/home/thesis/Desktop/optee_rpi3bplus/optee_os/lib/libmbedtls/mbedtls/library/bignum.c:1960
    6f48:	d2800300 	mov	x0, #0x18                  	// #24
    6f4c:	b940b7e3 	ldr	w3, [sp, #180]
    6f50:	aa1303e2 	mov	x2, x19
    6f54:	aa1603e4 	mov	x4, x22
    6f58:	9b0050c1 	madd	x1, x6, x0, x20
    6f5c:	aa1503e0 	mov	x0, x21
    6f60:	f9003fe7 	str	x7, [sp, #120]
    6f64:	97fffe42 	bl	686c <mbedtls_mpi_montmul>
    6f68:	2a0003e2 	mov	w2, w0
    6f6c:	350003e0 	cbnz	w0, 6fe8 <mbedtls_mpi_exp_mod+0x608>
/home/thesis/Desktop/optee_rpi3bplus/optee_os/lib/libmbedtls/mbedtls/library/bignum.c:1963
    6f70:	d2800005 	mov	x5, #0x0                   	// #0
/home/thesis/Desktop/optee_rpi3bplus/optee_os/lib/libmbedtls/mbedtls/library/bignum.c:1964
    6f74:	d2800006 	mov	x6, #0x0                   	// #0
/home/thesis/Desktop/optee_rpi3bplus/optee_os/lib/libmbedtls/mbedtls/library/bignum.c:1962
    6f78:	b9408fe0 	ldr	w0, [sp, #140]
    6f7c:	f9403fe7 	ldr	x7, [sp, #120]
    6f80:	17ffffbd 	b	6e74 <mbedtls_mpi_exp_mod+0x494>
/home/thesis/Desktop/optee_rpi3bplus/optee_os/lib/libmbedtls/mbedtls/library/bignum.c:1973
    6f84:	2a0203e3 	mov	w3, w2
    6f88:	aa1303e2 	mov	x2, x19
    6f8c:	aa1603e4 	mov	x4, x22
    6f90:	aa1503e1 	mov	x1, x21
    6f94:	aa1503e0 	mov	x0, x21
    6f98:	a90797e6 	stp	x6, x5, [sp, #120]
    6f9c:	97fffe34 	bl	686c <mbedtls_mpi_montmul>
    6fa0:	2a0003e2 	mov	w2, w0
    6fa4:	35000220 	cbnz	w0, 6fe8 <mbedtls_mpi_exp_mod+0x608>
/home/thesis/Desktop/optee_rpi3bplus/optee_os/lib/libmbedtls/mbedtls/library/bignum.c:1977
    6fa8:	a94797e6 	ldp	x6, x5, [sp, #120]
/home/thesis/Desktop/optee_rpi3bplus/optee_os/lib/libmbedtls/mbedtls/library/bignum.c:1975
    6fac:	d37ff8c6 	lsl	x6, x6, #1
/home/thesis/Desktop/optee_rpi3bplus/optee_os/lib/libmbedtls/mbedtls/library/bignum.c:1977
    6fb0:	ea0602ff 	tst	x23, x6
    6fb4:	54000061 	b.ne	6fc0 <mbedtls_mpi_exp_mod+0x5e0>  // b.any
/home/thesis/Desktop/optee_rpi3bplus/optee_os/lib/libmbedtls/mbedtls/library/bignum.c:1971
    6fb8:	9100075a 	add	x26, x26, #0x1
    6fbc:	17ffff38 	b	6c9c <mbedtls_mpi_exp_mod+0x2bc>
/home/thesis/Desktop/optee_rpi3bplus/optee_os/lib/libmbedtls/mbedtls/library/bignum.c:1978
    6fc0:	b940b7e3 	ldr	w3, [sp, #180]
    6fc4:	aa1303e2 	mov	x2, x19
    6fc8:	aa1603e4 	mov	x4, x22
    6fcc:	aa1b03e1 	mov	x1, x27
    6fd0:	aa1503e0 	mov	x0, x21
    6fd4:	a90797e6 	stp	x6, x5, [sp, #120]
    6fd8:	97fffe25 	bl	686c <mbedtls_mpi_montmul>
    6fdc:	2a0003e2 	mov	w2, w0
    6fe0:	a94797e6 	ldp	x6, x5, [sp, #120]
    6fe4:	34fffea0 	cbz	w0, 6fb8 <mbedtls_mpi_exp_mod+0x5d8>
/home/thesis/Desktop/optee_rpi3bplus/optee_os/lib/libmbedtls/mbedtls/library/bignum.c:1996 (discriminator 3)
    6fe8:	f94037e0 	ldr	x0, [sp, #104]
    6fec:	b9008be2 	str	w2, [sp, #136]
    6ff0:	97fff6c9 	bl	4b14 <mbedtls_mpi_free>
    6ff4:	f94037e0 	ldr	x0, [sp, #104]
/home/thesis/Desktop/optee_rpi3bplus/optee_os/lib/libmbedtls/mbedtls/library/bignum.c:1995 (discriminator 3)
    6ff8:	f9404be1 	ldr	x1, [sp, #144]
    6ffc:	91006000 	add	x0, x0, #0x18
    7000:	f90037e0 	str	x0, [sp, #104]
    7004:	b9408be2 	ldr	w2, [sp, #136]
    7008:	eb01001f 	cmp	x0, x1
    700c:	54fffee1 	b.ne	6fe8 <mbedtls_mpi_exp_mod+0x608>  // b.any
/home/thesis/Desktop/optee_rpi3bplus/optee_os/lib/libmbedtls/mbedtls/library/bignum.c:1997
    7010:	f94053e0 	ldr	x0, [sp, #160]
    7014:	aa1403e1 	mov	x1, x20
    7018:	b9006be2 	str	w2, [sp, #104]
    701c:	f9404000 	ldr	x0, [x0, #128]
    7020:	f9400000 	ldr	x0, [x0]
    7024:	94000cc2 	bl	a32c <mempool_free>
/home/thesis/Desktop/optee_rpi3bplus/optee_os/lib/libmbedtls/mbedtls/library/bignum.c:1999
    7028:	aa1603e0 	mov	x0, x22
    702c:	97fff6ba 	bl	4b14 <mbedtls_mpi_free>
    7030:	f9403be0 	ldr	x0, [sp, #112]
    7034:	97fff6b8 	bl	4b14 <mbedtls_mpi_free>
/home/thesis/Desktop/optee_rpi3bplus/optee_os/lib/libmbedtls/mbedtls/library/bignum.c:2001
    7038:	b9406be2 	ldr	w2, [sp, #104]
    703c:	b4000079 	cbz	x25, 7048 <mbedtls_mpi_exp_mod+0x668>
/home/thesis/Desktop/optee_rpi3bplus/optee_os/lib/libmbedtls/mbedtls/library/bignum.c:2001 (discriminator 1)
    7040:	f9400b20 	ldr	x0, [x25, #16]
    7044:	b5ffcf20 	cbnz	x0, 6a28 <mbedtls_mpi_exp_mod+0x48>
/home/thesis/Desktop/optee_rpi3bplus/optee_os/lib/libmbedtls/mbedtls/library/bignum.c:2002
    7048:	aa1803e0 	mov	x0, x24
    704c:	b9006be2 	str	w2, [sp, #104]
    7050:	97fff6b1 	bl	4b14 <mbedtls_mpi_free>
    7054:	b9406be2 	ldr	w2, [sp, #104]
    7058:	17fffe74 	b	6a28 <mbedtls_mpi_exp_mod+0x48>
/home/thesis/Desktop/optee_rpi3bplus/optee_os/lib/libmbedtls/mbedtls/library/bignum.c:1792
    705c:	d2800014 	mov	x20, #0x0                   	// #0
    7060:	17ffffec 	b	7010 <mbedtls_mpi_exp_mod+0x630>
/home/thesis/Desktop/optee_rpi3bplus/optee_os/lib/libmbedtls/mbedtls/library/bignum.c:1856
    7064:	128001e2 	mov	w2, #0xfffffff0            	// #-16
    7068:	17ffffea 	b	7010 <mbedtls_mpi_exp_mod+0x630>

000000000000706c <mbedtls_mpi_gcd>:
mbedtls_mpi_gcd():
/home/thesis/Desktop/optee_rpi3bplus/optee_os/lib/libmbedtls/mbedtls/library/bignum.c:2011
    706c:	a9b67bfd 	stp	x29, x30, [sp, #-160]!
    7070:	910003fd 	mov	x29, sp
    7074:	a90363f7 	stp	x23, x24, [sp, #48]
/home/thesis/Desktop/optee_rpi3bplus/optee_os/lib/libmbedtls/mbedtls/library/bignum.c:2020
    7078:	910163f7 	add	x23, sp, #0x58
/home/thesis/Desktop/optee_rpi3bplus/optee_os/lib/libmbedtls/mbedtls/library/bignum.c:2011
    707c:	aa0003f8 	mov	x24, x0
/home/thesis/Desktop/optee_rpi3bplus/optee_os/lib/libmbedtls/mbedtls/library/bignum.c:2020
    7080:	aa1703e0 	mov	x0, x23
/home/thesis/Desktop/optee_rpi3bplus/optee_os/lib/libmbedtls/mbedtls/library/bignum.c:2011
    7084:	a90153f3 	stp	x19, x20, [sp, #16]
/home/thesis/Desktop/optee_rpi3bplus/optee_os/lib/libmbedtls/mbedtls/library/bignum.c:2021
    7088:	910223f4 	add	x20, sp, #0x88
/home/thesis/Desktop/optee_rpi3bplus/optee_os/lib/libmbedtls/mbedtls/library/bignum.c:2011
    708c:	a9025bf5 	stp	x21, x22, [sp, #32]
/home/thesis/Desktop/optee_rpi3bplus/optee_os/lib/libmbedtls/mbedtls/library/bignum.c:2020
    7090:	9101c3f5 	add	x21, sp, #0x70
/home/thesis/Desktop/optee_rpi3bplus/optee_os/lib/libmbedtls/mbedtls/library/bignum.c:2011
    7094:	a90407e2 	stp	x2, x1, [sp, #64]
/home/thesis/Desktop/optee_rpi3bplus/optee_os/lib/libmbedtls/mbedtls/library/bignum.c:2020
    7098:	97fff695 	bl	4aec <mbedtls_mpi_init_mempool>
    709c:	aa1503e0 	mov	x0, x21
    70a0:	97fff693 	bl	4aec <mbedtls_mpi_init_mempool>
/home/thesis/Desktop/optee_rpi3bplus/optee_os/lib/libmbedtls/mbedtls/library/bignum.c:2021
    70a4:	aa1403e0 	mov	x0, x20
    70a8:	97fff691 	bl	4aec <mbedtls_mpi_init_mempool>
/home/thesis/Desktop/optee_rpi3bplus/optee_os/lib/libmbedtls/mbedtls/library/bignum.c:2023
    70ac:	f94027e1 	ldr	x1, [sp, #72]
    70b0:	aa1503e0 	mov	x0, x21
    70b4:	97fff739 	bl	4d98 <mbedtls_mpi_copy>
    70b8:	2a0003f3 	mov	w19, w0
    70bc:	350008c0 	cbnz	w0, 71d4 <mbedtls_mpi_gcd+0x168>
/home/thesis/Desktop/optee_rpi3bplus/optee_os/lib/libmbedtls/mbedtls/library/bignum.c:2024
    70c0:	f94023e2 	ldr	x2, [sp, #64]
    70c4:	aa1403e0 	mov	x0, x20
    70c8:	aa0203e1 	mov	x1, x2
    70cc:	97fff733 	bl	4d98 <mbedtls_mpi_copy>
    70d0:	2a0003f3 	mov	w19, w0
    70d4:	35000800 	cbnz	w0, 71d4 <mbedtls_mpi_gcd+0x168>
/home/thesis/Desktop/optee_rpi3bplus/optee_os/lib/libmbedtls/mbedtls/library/bignum.c:2026
    70d8:	aa1503e0 	mov	x0, x21
    70dc:	97fff825 	bl	5170 <mbedtls_mpi_lsb>
    70e0:	aa0003f6 	mov	x22, x0
/home/thesis/Desktop/optee_rpi3bplus/optee_os/lib/libmbedtls/mbedtls/library/bignum.c:2027
    70e4:	aa1403e0 	mov	x0, x20
    70e8:	97fff822 	bl	5170 <mbedtls_mpi_lsb>
/home/thesis/Desktop/optee_rpi3bplus/optee_os/lib/libmbedtls/mbedtls/library/bignum.c:2029
    70ec:	eb0002df 	cmp	x22, x0
    70f0:	9a8092d6 	csel	x22, x22, x0, ls  // ls = plast
/home/thesis/Desktop/optee_rpi3bplus/optee_os/lib/libmbedtls/mbedtls/library/bignum.c:2032
    70f4:	aa1503e0 	mov	x0, x21
    70f8:	aa1603e1 	mov	x1, x22
    70fc:	97fff8ef 	bl	54b8 <mbedtls_mpi_shift_r>
    7100:	2a0003f3 	mov	w19, w0
    7104:	35000680 	cbnz	w0, 71d4 <mbedtls_mpi_gcd+0x168>
/home/thesis/Desktop/optee_rpi3bplus/optee_os/lib/libmbedtls/mbedtls/library/bignum.c:2033
    7108:	aa1603e1 	mov	x1, x22
    710c:	aa1403e0 	mov	x0, x20
    7110:	97fff8ea 	bl	54b8 <mbedtls_mpi_shift_r>
    7114:	2a0003f3 	mov	w19, w0
    7118:	350005e0 	cbnz	w0, 71d4 <mbedtls_mpi_gcd+0x168>
/home/thesis/Desktop/optee_rpi3bplus/optee_os/lib/libmbedtls/mbedtls/library/bignum.c:2035
    711c:	52800020 	mov	w0, #0x1                   	// #1
    7120:	7900e3e0 	strh	w0, [sp, #112]
    7124:	790113e0 	strh	w0, [sp, #136]
/home/thesis/Desktop/optee_rpi3bplus/optee_os/lib/libmbedtls/mbedtls/library/bignum.c:2037
    7128:	52800001 	mov	w1, #0x0                   	// #0
    712c:	aa1503e0 	mov	x0, x21
    7130:	97fff971 	bl	56f4 <mbedtls_mpi_cmp_int>
    7134:	35000160 	cbnz	w0, 7160 <mbedtls_mpi_gcd+0xf4>
/home/thesis/Desktop/optee_rpi3bplus/optee_os/lib/libmbedtls/mbedtls/library/bignum.c:2054
    7138:	aa1603e1 	mov	x1, x22
    713c:	aa1403e0 	mov	x0, x20
    7140:	97fff89e 	bl	53b8 <mbedtls_mpi_shift_l>
    7144:	2a0003f3 	mov	w19, w0
    7148:	35000460 	cbnz	w0, 71d4 <mbedtls_mpi_gcd+0x168>
/home/thesis/Desktop/optee_rpi3bplus/optee_os/lib/libmbedtls/mbedtls/library/bignum.c:2055
    714c:	aa1403e1 	mov	x1, x20
    7150:	aa1803e0 	mov	x0, x24
    7154:	97fff711 	bl	4d98 <mbedtls_mpi_copy>
    7158:	2a0003f3 	mov	w19, w0
/home/thesis/Desktop/optee_rpi3bplus/optee_os/lib/libmbedtls/mbedtls/library/bignum.c:2057
    715c:	1400001e 	b	71d4 <mbedtls_mpi_gcd+0x168>
/home/thesis/Desktop/optee_rpi3bplus/optee_os/lib/libmbedtls/mbedtls/library/bignum.c:2039
    7160:	aa1503e0 	mov	x0, x21
    7164:	97fff803 	bl	5170 <mbedtls_mpi_lsb>
    7168:	aa0003e1 	mov	x1, x0
    716c:	aa1503e0 	mov	x0, x21
    7170:	97fff8d2 	bl	54b8 <mbedtls_mpi_shift_r>
    7174:	2a0003f3 	mov	w19, w0
    7178:	350002e0 	cbnz	w0, 71d4 <mbedtls_mpi_gcd+0x168>
/home/thesis/Desktop/optee_rpi3bplus/optee_os/lib/libmbedtls/mbedtls/library/bignum.c:2040
    717c:	aa1403e0 	mov	x0, x20
    7180:	97fff7fc 	bl	5170 <mbedtls_mpi_lsb>
    7184:	aa0003e1 	mov	x1, x0
    7188:	aa1403e0 	mov	x0, x20
    718c:	97fff8cb 	bl	54b8 <mbedtls_mpi_shift_r>
    7190:	2a0003f3 	mov	w19, w0
    7194:	35000200 	cbnz	w0, 71d4 <mbedtls_mpi_gcd+0x168>
/home/thesis/Desktop/optee_rpi3bplus/optee_os/lib/libmbedtls/mbedtls/library/bignum.c:2042
    7198:	aa1403e1 	mov	x1, x20
    719c:	aa1503e0 	mov	x0, x21
    71a0:	97fff91f 	bl	561c <mbedtls_mpi_cmp_mpi>
    71a4:	37f80300 	tbnz	w0, #31, 7204 <mbedtls_mpi_gcd+0x198>
/home/thesis/Desktop/optee_rpi3bplus/optee_os/lib/libmbedtls/mbedtls/library/bignum.c:2044
    71a8:	aa1403e2 	mov	x2, x20
    71ac:	aa1503e1 	mov	x1, x21
    71b0:	aa1503e0 	mov	x0, x21
    71b4:	97fff9ab 	bl	5860 <mbedtls_mpi_sub_abs>
    71b8:	2a0003f3 	mov	w19, w0
    71bc:	350000c0 	cbnz	w0, 71d4 <mbedtls_mpi_gcd+0x168>
/home/thesis/Desktop/optee_rpi3bplus/optee_os/lib/libmbedtls/mbedtls/library/bignum.c:2045
    71c0:	aa1503e0 	mov	x0, x21
    71c4:	d2800021 	mov	x1, #0x1                   	// #1
/home/thesis/Desktop/optee_rpi3bplus/optee_os/lib/libmbedtls/mbedtls/library/bignum.c:2050
    71c8:	97fff8bc 	bl	54b8 <mbedtls_mpi_shift_r>
    71cc:	2a0003f3 	mov	w19, w0
    71d0:	34fffac0 	cbz	w0, 7128 <mbedtls_mpi_gcd+0xbc>
/home/thesis/Desktop/optee_rpi3bplus/optee_os/lib/libmbedtls/mbedtls/library/bignum.c:2059
    71d4:	aa1703e0 	mov	x0, x23
    71d8:	97fff64f 	bl	4b14 <mbedtls_mpi_free>
    71dc:	aa1503e0 	mov	x0, x21
    71e0:	97fff64d 	bl	4b14 <mbedtls_mpi_free>
    71e4:	aa1403e0 	mov	x0, x20
    71e8:	97fff64b 	bl	4b14 <mbedtls_mpi_free>
/home/thesis/Desktop/optee_rpi3bplus/optee_os/lib/libmbedtls/mbedtls/library/bignum.c:2062
    71ec:	2a1303e0 	mov	w0, w19
    71f0:	a94153f3 	ldp	x19, x20, [sp, #16]
    71f4:	a9425bf5 	ldp	x21, x22, [sp, #32]
    71f8:	a94363f7 	ldp	x23, x24, [sp, #48]
    71fc:	a8ca7bfd 	ldp	x29, x30, [sp], #160
    7200:	d65f03c0 	ret
/home/thesis/Desktop/optee_rpi3bplus/optee_os/lib/libmbedtls/mbedtls/library/bignum.c:2049
    7204:	aa1503e2 	mov	x2, x21
    7208:	aa1403e1 	mov	x1, x20
    720c:	aa1403e0 	mov	x0, x20
    7210:	97fff994 	bl	5860 <mbedtls_mpi_sub_abs>
    7214:	2a0003f3 	mov	w19, w0
    7218:	35fffde0 	cbnz	w0, 71d4 <mbedtls_mpi_gcd+0x168>
/home/thesis/Desktop/optee_rpi3bplus/optee_os/lib/libmbedtls/mbedtls/library/bignum.c:2050
    721c:	d2800021 	mov	x1, #0x1                   	// #1
    7220:	aa1403e0 	mov	x0, x20
    7224:	17ffffe9 	b	71c8 <mbedtls_mpi_gcd+0x15c>

0000000000007228 <mbedtls_mpi_fill_random>:
mbedtls_mpi_fill_random():
/home/thesis/Desktop/optee_rpi3bplus/optee_os/lib/libmbedtls/mbedtls/library/bignum.c:2074
    7228:	d110c3ff 	sub	sp, sp, #0x430
/home/thesis/Desktop/optee_rpi3bplus/optee_os/lib/libmbedtls/mbedtls/library/bignum.c:2080
    722c:	f110003f 	cmp	x1, #0x400
/home/thesis/Desktop/optee_rpi3bplus/optee_os/lib/libmbedtls/mbedtls/library/bignum.c:2074
    7230:	a9007bfd 	stp	x29, x30, [sp]
    7234:	910003fd 	mov	x29, sp
    7238:	a90153f3 	stp	x19, x20, [sp, #16]
    723c:	a9025bf5 	stp	x21, x22, [sp, #32]
/home/thesis/Desktop/optee_rpi3bplus/optee_os/lib/libmbedtls/mbedtls/library/bignum.c:2080
    7240:	54000328 	b.hi	72a4 <mbedtls_mpi_fill_random+0x7c>  // b.pmore
/home/thesis/Desktop/optee_rpi3bplus/optee_os/lib/libmbedtls/mbedtls/library/bignum.c:2083
    7244:	9100c3f5 	add	x21, sp, #0x30
    7248:	aa0203e4 	mov	x4, x2
    724c:	aa0003f6 	mov	x22, x0
    7250:	aa0103e2 	mov	x2, x1
    7254:	aa0303e0 	mov	x0, x3
    7258:	aa0103f3 	mov	x19, x1
    725c:	aa1503e1 	mov	x1, x21
    7260:	d63f0080 	blr	x4
    7264:	2a0003f4 	mov	w20, w0
    7268:	350000c0 	cbnz	w0, 7280 <mbedtls_mpi_fill_random+0x58>
/home/thesis/Desktop/optee_rpi3bplus/optee_os/lib/libmbedtls/mbedtls/library/bignum.c:2084
    726c:	aa1303e2 	mov	x2, x19
    7270:	aa1503e1 	mov	x1, x21
    7274:	aa1603e0 	mov	x0, x22
    7278:	97fff7f1 	bl	523c <mbedtls_mpi_read_binary>
    727c:	2a0003f4 	mov	w20, w0
/home/thesis/Desktop/optee_rpi3bplus/optee_os/lib/libmbedtls/mbedtls/library/bignum.c:2087
    7280:	d2808001 	mov	x1, #0x400                 	// #1024
    7284:	aa1503e0 	mov	x0, x21
    7288:	940003a1 	bl	810c <mbedtls_platform_zeroize>
/home/thesis/Desktop/optee_rpi3bplus/optee_os/lib/libmbedtls/mbedtls/library/bignum.c:2089
    728c:	2a1403e0 	mov	w0, w20
    7290:	a9407bfd 	ldp	x29, x30, [sp]
    7294:	a94153f3 	ldp	x19, x20, [sp, #16]
    7298:	a9425bf5 	ldp	x21, x22, [sp, #32]
    729c:	9110c3ff 	add	sp, sp, #0x430
    72a0:	d65f03c0 	ret
/home/thesis/Desktop/optee_rpi3bplus/optee_os/lib/libmbedtls/mbedtls/library/bignum.c:2081
    72a4:	12800074 	mov	w20, #0xfffffffc            	// #-4
    72a8:	17fffff9 	b	728c <mbedtls_mpi_fill_random+0x64>

00000000000072ac <mpi_miller_rabin>:
mpi_miller_rabin():
/home/thesis/Desktop/optee_rpi3bplus/optee_os/lib/libmbedtls/mbedtls/library/bignum.c:2257
    72ac:	a9b07bfd 	stp	x29, x30, [sp, #-256]!
    72b0:	910003fd 	mov	x29, sp
    72b4:	6d0627e8 	stp	d8, d9, [sp, #96]
    72b8:	9e670048 	fmov	d8, x2
    72bc:	9e670069 	fmov	d9, x3
    72c0:	a9025bf5 	stp	x21, x22, [sp, #32]
/home/thesis/Desktop/optee_rpi3bplus/optee_os/lib/libmbedtls/mbedtls/library/bignum.c:2265
    72c4:	910223f5 	add	x21, sp, #0x88
    72c8:	910283f6 	add	x22, sp, #0xa0
/home/thesis/Desktop/optee_rpi3bplus/optee_os/lib/libmbedtls/mbedtls/library/bignum.c:2257
    72cc:	a90153f3 	stp	x19, x20, [sp, #16]
/home/thesis/Desktop/optee_rpi3bplus/optee_os/lib/libmbedtls/mbedtls/library/bignum.c:2266
    72d0:	910343f3 	add	x19, sp, #0xd0
/home/thesis/Desktop/optee_rpi3bplus/optee_os/lib/libmbedtls/mbedtls/library/bignum.c:2257
    72d4:	a90363f7 	stp	x23, x24, [sp, #48]
    72d8:	aa0003f7 	mov	x23, x0
/home/thesis/Desktop/optee_rpi3bplus/optee_os/lib/libmbedtls/mbedtls/library/bignum.c:2265
    72dc:	aa1503e0 	mov	x0, x21
/home/thesis/Desktop/optee_rpi3bplus/optee_os/lib/libmbedtls/mbedtls/library/bignum.c:2257
    72e0:	a9046bf9 	stp	x25, x26, [sp, #64]
/home/thesis/Desktop/optee_rpi3bplus/optee_os/lib/libmbedtls/mbedtls/library/bignum.c:2266
    72e4:	9102e3f8 	add	x24, sp, #0xb8
/home/thesis/Desktop/optee_rpi3bplus/optee_os/lib/libmbedtls/mbedtls/library/bignum.c:2267
    72e8:	9103a3f9 	add	x25, sp, #0xe8
/home/thesis/Desktop/optee_rpi3bplus/optee_os/lib/libmbedtls/mbedtls/library/bignum.c:2257
    72ec:	a90573fb 	stp	x27, x28, [sp, #80]
    72f0:	f9003be1 	str	x1, [sp, #112]
/home/thesis/Desktop/optee_rpi3bplus/optee_os/lib/libmbedtls/mbedtls/library/bignum.c:2265
    72f4:	97fff5fe 	bl	4aec <mbedtls_mpi_init_mempool>
    72f8:	aa1603e0 	mov	x0, x22
    72fc:	97fff5fc 	bl	4aec <mbedtls_mpi_init_mempool>
/home/thesis/Desktop/optee_rpi3bplus/optee_os/lib/libmbedtls/mbedtls/library/bignum.c:2266
    7300:	aa1803e0 	mov	x0, x24
    7304:	97fff5fa 	bl	4aec <mbedtls_mpi_init_mempool>
    7308:	aa1303e0 	mov	x0, x19
    730c:	97fff5f8 	bl	4aec <mbedtls_mpi_init_mempool>
/home/thesis/Desktop/optee_rpi3bplus/optee_os/lib/libmbedtls/mbedtls/library/bignum.c:2267
    7310:	aa1903e0 	mov	x0, x25
    7314:	97fff5f6 	bl	4aec <mbedtls_mpi_init_mempool>
/home/thesis/Desktop/optee_rpi3bplus/optee_os/lib/libmbedtls/mbedtls/library/bignum.c:2273
    7318:	52800022 	mov	w2, #0x1                   	// #1
    731c:	aa1703e1 	mov	x1, x23
    7320:	aa1503e0 	mov	x0, x21
    7324:	97fff9d9 	bl	5a88 <mbedtls_mpi_sub_int>
    7328:	2a0003f4 	mov	w20, w0
    732c:	35000660 	cbnz	w0, 73f8 <mpi_miller_rabin+0x14c>
/home/thesis/Desktop/optee_rpi3bplus/optee_os/lib/libmbedtls/mbedtls/library/bignum.c:2274
    7330:	aa1503e0 	mov	x0, x21
    7334:	97fff78f 	bl	5170 <mbedtls_mpi_lsb>
/home/thesis/Desktop/optee_rpi3bplus/optee_os/lib/libmbedtls/mbedtls/library/bignum.c:2275
    7338:	aa1503e1 	mov	x1, x21
/home/thesis/Desktop/optee_rpi3bplus/optee_os/lib/libmbedtls/mbedtls/library/bignum.c:2274
    733c:	aa0003fc 	mov	x28, x0
/home/thesis/Desktop/optee_rpi3bplus/optee_os/lib/libmbedtls/mbedtls/library/bignum.c:2275
    7340:	aa1603e0 	mov	x0, x22
    7344:	97fff695 	bl	4d98 <mbedtls_mpi_copy>
    7348:	2a0003f4 	mov	w20, w0
    734c:	35000560 	cbnz	w0, 73f8 <mpi_miller_rabin+0x14c>
/home/thesis/Desktop/optee_rpi3bplus/optee_os/lib/libmbedtls/mbedtls/library/bignum.c:2276
    7350:	aa1c03e1 	mov	x1, x28
    7354:	aa1603e0 	mov	x0, x22
    7358:	97fff858 	bl	54b8 <mbedtls_mpi_shift_r>
    735c:	2a0003f4 	mov	w20, w0
    7360:	350004c0 	cbnz	w0, 73f8 <mpi_miller_rabin+0x14c>
/home/thesis/Desktop/optee_rpi3bplus/optee_os/lib/libmbedtls/mbedtls/library/bignum.c:2280
    7364:	d280001a 	mov	x26, #0x0                   	// #0
/home/thesis/Desktop/optee_rpi3bplus/optee_os/lib/libmbedtls/mbedtls/library/bignum.c:2278
    7368:	aa1703e0 	mov	x0, x23
    736c:	97fff796 	bl	51c4 <mbedtls_mpi_bitlen>
/home/thesis/Desktop/optee_rpi3bplus/optee_os/lib/libmbedtls/mbedtls/library/bignum.c:2280 (discriminator 1)
    7370:	f9403be0 	ldr	x0, [sp, #112]
    7374:	eb00035f 	cmp	x26, x0
    7378:	54000400 	b.eq	73f8 <mpi_miller_rabin+0x14c>  // b.none
    737c:	528025db 	mov	w27, #0x12e                 	// #302
/home/thesis/Desktop/optee_rpi3bplus/optee_os/lib/libmbedtls/mbedtls/library/bignum.c:2287
    7380:	9e660123 	fmov	x3, d9
    7384:	9e660102 	fmov	x2, d8
    7388:	f94006e1 	ldr	x1, [x23, #8]
    738c:	aa1303e0 	mov	x0, x19
    7390:	d37ef421 	lsl	x1, x1, #2
    7394:	97ffffa5 	bl	7228 <mbedtls_mpi_fill_random>
    7398:	35000ca0 	cbnz	w0, 752c <mpi_miller_rabin+0x280>
/home/thesis/Desktop/optee_rpi3bplus/optee_os/lib/libmbedtls/mbedtls/library/bignum.c:2289
    739c:	aa1303e0 	mov	x0, x19
    73a0:	97fff789 	bl	51c4 <mbedtls_mpi_bitlen>
    73a4:	aa0003e1 	mov	x1, x0
/home/thesis/Desktop/optee_rpi3bplus/optee_os/lib/libmbedtls/mbedtls/library/bignum.c:2290
    73a8:	aa1503e0 	mov	x0, x21
/home/thesis/Desktop/optee_rpi3bplus/optee_os/lib/libmbedtls/mbedtls/library/bignum.c:2289
    73ac:	f9003fe1 	str	x1, [sp, #120]
/home/thesis/Desktop/optee_rpi3bplus/optee_os/lib/libmbedtls/mbedtls/library/bignum.c:2290
    73b0:	97fff785 	bl	51c4 <mbedtls_mpi_bitlen>
/home/thesis/Desktop/optee_rpi3bplus/optee_os/lib/libmbedtls/mbedtls/library/bignum.c:2291
    73b4:	f9403fe1 	ldr	x1, [sp, #120]
    73b8:	eb00003f 	cmp	x1, x0
    73bc:	54000189 	b.ls	73ec <mpi_miller_rabin+0x140>  // b.plast
/home/thesis/Desktop/optee_rpi3bplus/optee_os/lib/libmbedtls/mbedtls/library/bignum.c:2292
    73c0:	a94d8fe1 	ldp	x1, x3, [sp, #216]
    73c4:	128003e4 	mov	w4, #0xffffffe0            	// #-32
    73c8:	d37ef422 	lsl	x2, x1, #2
    73cc:	1b010081 	madd	w1, w4, w1, w0
    73d0:	d1001042 	sub	x2, x2, #0x4
    73d4:	12800000 	mov	w0, #0xffffffff            	// #-1
    73d8:	11007c21 	add	w1, w1, #0x1f
    73dc:	1ac12001 	lsl	w1, w0, w1
    73e0:	b8626860 	ldr	w0, [x3, x2]
    73e4:	0a210001 	bic	w1, w0, w1
    73e8:	b8226861 	str	w1, [x3, x2]
/home/thesis/Desktop/optee_rpi3bplus/optee_os/lib/libmbedtls/mbedtls/library/bignum.c:2295
    73ec:	7100077b 	subs	w27, w27, #0x1
    73f0:	540002a1 	b.ne	7444 <mpi_miller_rabin+0x198>  // b.any
/home/thesis/Desktop/optee_rpi3bplus/optee_os/lib/libmbedtls/mbedtls/library/bignum.c:2296
    73f4:	128001b4 	mov	w20, #0xfffffff2            	// #-14
/home/thesis/Desktop/optee_rpi3bplus/optee_os/lib/libmbedtls/mbedtls/library/bignum.c:2339
    73f8:	aa1503e0 	mov	x0, x21
    73fc:	97fff5c6 	bl	4b14 <mbedtls_mpi_free>
    7400:	aa1603e0 	mov	x0, x22
    7404:	97fff5c4 	bl	4b14 <mbedtls_mpi_free>
/home/thesis/Desktop/optee_rpi3bplus/optee_os/lib/libmbedtls/mbedtls/library/bignum.c:2340
    7408:	aa1803e0 	mov	x0, x24
    740c:	97fff5c2 	bl	4b14 <mbedtls_mpi_free>
    7410:	aa1303e0 	mov	x0, x19
    7414:	97fff5c0 	bl	4b14 <mbedtls_mpi_free>
/home/thesis/Desktop/optee_rpi3bplus/optee_os/lib/libmbedtls/mbedtls/library/bignum.c:2341
    7418:	aa1903e0 	mov	x0, x25
    741c:	97fff5be 	bl	4b14 <mbedtls_mpi_free>
/home/thesis/Desktop/optee_rpi3bplus/optee_os/lib/libmbedtls/mbedtls/library/bignum.c:2344
    7420:	2a1403e0 	mov	w0, w20
    7424:	a94153f3 	ldp	x19, x20, [sp, #16]
    7428:	a9425bf5 	ldp	x21, x22, [sp, #32]
    742c:	a94363f7 	ldp	x23, x24, [sp, #48]
    7430:	a9446bf9 	ldp	x25, x26, [sp, #64]
    7434:	a94573fb 	ldp	x27, x28, [sp, #80]
    7438:	6d4627e8 	ldp	d8, d9, [sp, #96]
    743c:	a8d07bfd 	ldp	x29, x30, [sp], #256
    7440:	d65f03c0 	ret
/home/thesis/Desktop/optee_rpi3bplus/optee_os/lib/libmbedtls/mbedtls/library/bignum.c:2300
    7444:	aa1503e1 	mov	x1, x21
    7448:	aa1303e0 	mov	x0, x19
    744c:	97fff874 	bl	561c <mbedtls_mpi_cmp_mpi>
/home/thesis/Desktop/optee_rpi3bplus/optee_os/lib/libmbedtls/mbedtls/library/bignum.c:2301
    7450:	36fff980 	tbz	w0, #31, 7380 <mpi_miller_rabin+0xd4>
/home/thesis/Desktop/optee_rpi3bplus/optee_os/lib/libmbedtls/mbedtls/library/bignum.c:2301 (discriminator 1)
    7454:	52800021 	mov	w1, #0x1                   	// #1
    7458:	aa1303e0 	mov	x0, x19
    745c:	97fff8a6 	bl	56f4 <mbedtls_mpi_cmp_int>
/home/thesis/Desktop/optee_rpi3bplus/optee_os/lib/libmbedtls/mbedtls/library/bignum.c:2300 (discriminator 1)
    7460:	7100001f 	cmp	w0, #0x0
    7464:	54fff8ed 	b.le	7380 <mpi_miller_rabin+0xd4>
/home/thesis/Desktop/optee_rpi3bplus/optee_os/lib/libmbedtls/mbedtls/library/bignum.c:2306
    7468:	aa1903e4 	mov	x4, x25
    746c:	aa1703e3 	mov	x3, x23
    7470:	aa1603e2 	mov	x2, x22
    7474:	aa1303e1 	mov	x1, x19
    7478:	aa1303e0 	mov	x0, x19
    747c:	97fffd59 	bl	69e0 <mbedtls_mpi_exp_mod>
    7480:	35000560 	cbnz	w0, 752c <mpi_miller_rabin+0x280>
/home/thesis/Desktop/optee_rpi3bplus/optee_os/lib/libmbedtls/mbedtls/library/bignum.c:2308
    7484:	aa1503e1 	mov	x1, x21
    7488:	aa1303e0 	mov	x0, x19
    748c:	97fff864 	bl	561c <mbedtls_mpi_cmp_mpi>
    7490:	35000060 	cbnz	w0, 749c <mpi_miller_rabin+0x1f0>
/home/thesis/Desktop/optee_rpi3bplus/optee_os/lib/libmbedtls/mbedtls/library/bignum.c:2280
    7494:	9100075a 	add	x26, x26, #0x1
    7498:	17ffffb6 	b	7370 <mpi_miller_rabin+0xc4>
/home/thesis/Desktop/optee_rpi3bplus/optee_os/lib/libmbedtls/mbedtls/library/bignum.c:2309 (discriminator 1)
    749c:	52800021 	mov	w1, #0x1                   	// #1
    74a0:	aa1303e0 	mov	x0, x19
    74a4:	97fff894 	bl	56f4 <mbedtls_mpi_cmp_int>
/home/thesis/Desktop/optee_rpi3bplus/optee_os/lib/libmbedtls/mbedtls/library/bignum.c:2308 (discriminator 1)
    74a8:	34ffff60 	cbz	w0, 7494 <mpi_miller_rabin+0x1e8>
/home/thesis/Desktop/optee_rpi3bplus/optee_os/lib/libmbedtls/mbedtls/library/bignum.c:2312
    74ac:	d280003b 	mov	x27, #0x1                   	// #1
/home/thesis/Desktop/optee_rpi3bplus/optee_os/lib/libmbedtls/mbedtls/library/bignum.c:2313
    74b0:	eb1c037f 	cmp	x27, x28
    74b4:	54000262 	b.cs	7500 <mpi_miller_rabin+0x254>  // b.hs, b.nlast
/home/thesis/Desktop/optee_rpi3bplus/optee_os/lib/libmbedtls/mbedtls/library/bignum.c:2313 (discriminator 1)
    74b8:	aa1503e1 	mov	x1, x21
    74bc:	aa1303e0 	mov	x0, x19
    74c0:	97fff857 	bl	561c <mbedtls_mpi_cmp_mpi>
    74c4:	340001e0 	cbz	w0, 7500 <mpi_miller_rabin+0x254>
/home/thesis/Desktop/optee_rpi3bplus/optee_os/lib/libmbedtls/mbedtls/library/bignum.c:2318
    74c8:	aa1303e2 	mov	x2, x19
    74cc:	aa1303e1 	mov	x1, x19
    74d0:	aa1803e0 	mov	x0, x24
    74d4:	97fff97d 	bl	5ac8 <mbedtls_mpi_mul_mpi>
    74d8:	350002a0 	cbnz	w0, 752c <mpi_miller_rabin+0x280>
/home/thesis/Desktop/optee_rpi3bplus/optee_os/lib/libmbedtls/mbedtls/library/bignum.c:2319
    74dc:	aa1703e2 	mov	x2, x23
    74e0:	aa1803e1 	mov	x1, x24
    74e4:	aa1303e0 	mov	x0, x19
    74e8:	97fffbad 	bl	639c <mbedtls_mpi_mod_mpi>
    74ec:	35000200 	cbnz	w0, 752c <mpi_miller_rabin+0x280>
/home/thesis/Desktop/optee_rpi3bplus/optee_os/lib/libmbedtls/mbedtls/library/bignum.c:2321
    74f0:	52800021 	mov	w1, #0x1                   	// #1
    74f4:	aa1303e0 	mov	x0, x19
    74f8:	97fff87f 	bl	56f4 <mbedtls_mpi_cmp_int>
    74fc:	35000140 	cbnz	w0, 7524 <mpi_miller_rabin+0x278>
/home/thesis/Desktop/optee_rpi3bplus/optee_os/lib/libmbedtls/mbedtls/library/bignum.c:2330
    7500:	aa1503e1 	mov	x1, x21
    7504:	aa1303e0 	mov	x0, x19
    7508:	97fff845 	bl	561c <mbedtls_mpi_cmp_mpi>
    750c:	35fff740 	cbnz	w0, 73f4 <mpi_miller_rabin+0x148>
/home/thesis/Desktop/optee_rpi3bplus/optee_os/lib/libmbedtls/mbedtls/library/bignum.c:2331 (discriminator 1)
    7510:	52800021 	mov	w1, #0x1                   	// #1
    7514:	aa1303e0 	mov	x0, x19
    7518:	97fff877 	bl	56f4 <mbedtls_mpi_cmp_int>
/home/thesis/Desktop/optee_rpi3bplus/optee_os/lib/libmbedtls/mbedtls/library/bignum.c:2330 (discriminator 1)
    751c:	35fffbc0 	cbnz	w0, 7494 <mpi_miller_rabin+0x1e8>
    7520:	17ffffb5 	b	73f4 <mpi_miller_rabin+0x148>
/home/thesis/Desktop/optee_rpi3bplus/optee_os/lib/libmbedtls/mbedtls/library/bignum.c:2324
    7524:	9100077b 	add	x27, x27, #0x1
    7528:	17ffffe2 	b	74b0 <mpi_miller_rabin+0x204>
    752c:	2a0003f4 	mov	w20, w0
    7530:	17ffffb2 	b	73f8 <mpi_miller_rabin+0x14c>

0000000000007534 <mbedtls_mpi_inv_mod>:
mbedtls_mpi_inv_mod():
/home/thesis/Desktop/optee_rpi3bplus/optee_os/lib/libmbedtls/mbedtls/library/bignum.c:2095
    7534:	a9aa7bfd 	stp	x29, x30, [sp, #-352]!
    7538:	910003fd 	mov	x29, sp
    753c:	6d0627e8 	stp	d8, d9, [sp, #96]
    7540:	9e670029 	fmov	d9, x1
    7544:	9e670048 	fmov	d8, x2
    7548:	fd003bea 	str	d10, [sp, #112]
    754c:	9e67000a 	fmov	d10, x0
/home/thesis/Desktop/optee_rpi3bplus/optee_os/lib/libmbedtls/mbedtls/library/bignum.c:2102
    7550:	52800021 	mov	w1, #0x1                   	// #1
    7554:	aa0203e0 	mov	x0, x2
/home/thesis/Desktop/optee_rpi3bplus/optee_os/lib/libmbedtls/mbedtls/library/bignum.c:2095
    7558:	a90153f3 	stp	x19, x20, [sp, #16]
    755c:	a9025bf5 	stp	x21, x22, [sp, #32]
    7560:	a90363f7 	stp	x23, x24, [sp, #48]
    7564:	a9046bf9 	stp	x25, x26, [sp, #64]
    7568:	a90573fb 	stp	x27, x28, [sp, #80]
/home/thesis/Desktop/optee_rpi3bplus/optee_os/lib/libmbedtls/mbedtls/library/bignum.c:2102
    756c:	97fff862 	bl	56f4 <mbedtls_mpi_cmp_int>
    7570:	7100001f 	cmp	w0, #0x0
    7574:	54001f8d 	b.le	7964 <mbedtls_mpi_inv_mod+0x430>
/home/thesis/Desktop/optee_rpi3bplus/optee_os/lib/libmbedtls/mbedtls/library/bignum.c:2105
    7578:	910283fa 	add	x26, sp, #0xa0
    757c:	9102e3f8 	add	x24, sp, #0xb8
    7580:	aa1a03e0 	mov	x0, x26
    7584:	97fff55a 	bl	4aec <mbedtls_mpi_init_mempool>
    7588:	aa1803e0 	mov	x0, x24
/home/thesis/Desktop/optee_rpi3bplus/optee_os/lib/libmbedtls/mbedtls/library/bignum.c:2106
    758c:	910343f7 	add	x23, sp, #0xd0
/home/thesis/Desktop/optee_rpi3bplus/optee_os/lib/libmbedtls/mbedtls/library/bignum.c:2105
    7590:	97fff557 	bl	4aec <mbedtls_mpi_init_mempool>
/home/thesis/Desktop/optee_rpi3bplus/optee_os/lib/libmbedtls/mbedtls/library/bignum.c:2106
    7594:	9103a3f6 	add	x22, sp, #0xe8
    7598:	aa1703e0 	mov	x0, x23
    759c:	97fff554 	bl	4aec <mbedtls_mpi_init_mempool>
    75a0:	aa1603e0 	mov	x0, x22
/home/thesis/Desktop/optee_rpi3bplus/optee_os/lib/libmbedtls/mbedtls/library/bignum.c:2107
    75a4:	910223fc 	add	x28, sp, #0x88
/home/thesis/Desktop/optee_rpi3bplus/optee_os/lib/libmbedtls/mbedtls/library/bignum.c:2106
    75a8:	97fff551 	bl	4aec <mbedtls_mpi_init_mempool>
/home/thesis/Desktop/optee_rpi3bplus/optee_os/lib/libmbedtls/mbedtls/library/bignum.c:2107
    75ac:	910403fb 	add	x27, sp, #0x100
    75b0:	aa1c03e0 	mov	x0, x28
    75b4:	97fff54e 	bl	4aec <mbedtls_mpi_init_mempool>
    75b8:	aa1b03e0 	mov	x0, x27
/home/thesis/Desktop/optee_rpi3bplus/optee_os/lib/libmbedtls/mbedtls/library/bignum.c:2108
    75bc:	910463f9 	add	x25, sp, #0x118
/home/thesis/Desktop/optee_rpi3bplus/optee_os/lib/libmbedtls/mbedtls/library/bignum.c:2107
    75c0:	97fff54b 	bl	4aec <mbedtls_mpi_init_mempool>
/home/thesis/Desktop/optee_rpi3bplus/optee_os/lib/libmbedtls/mbedtls/library/bignum.c:2108
    75c4:	9104c3f4 	add	x20, sp, #0x130
    75c8:	aa1903e0 	mov	x0, x25
    75cc:	97fff548 	bl	4aec <mbedtls_mpi_init_mempool>
    75d0:	aa1403e0 	mov	x0, x20
/home/thesis/Desktop/optee_rpi3bplus/optee_os/lib/libmbedtls/mbedtls/library/bignum.c:2109
    75d4:	910523f5 	add	x21, sp, #0x148
/home/thesis/Desktop/optee_rpi3bplus/optee_os/lib/libmbedtls/mbedtls/library/bignum.c:2108
    75d8:	97fff545 	bl	4aec <mbedtls_mpi_init_mempool>
/home/thesis/Desktop/optee_rpi3bplus/optee_os/lib/libmbedtls/mbedtls/library/bignum.c:2109
    75dc:	aa1503e0 	mov	x0, x21
    75e0:	97fff543 	bl	4aec <mbedtls_mpi_init_mempool>
/home/thesis/Desktop/optee_rpi3bplus/optee_os/lib/libmbedtls/mbedtls/library/bignum.c:2111
    75e4:	9e660102 	fmov	x2, d8
    75e8:	9e660121 	fmov	x1, d9
    75ec:	aa1c03e0 	mov	x0, x28
    75f0:	97fffe9f 	bl	706c <mbedtls_mpi_gcd>
    75f4:	2a0003f3 	mov	w19, w0
    75f8:	35000d60 	cbnz	w0, 77a4 <mbedtls_mpi_inv_mod+0x270>
/home/thesis/Desktop/optee_rpi3bplus/optee_os/lib/libmbedtls/mbedtls/library/bignum.c:2113
    75fc:	52800021 	mov	w1, #0x1                   	// #1
    7600:	aa1c03e0 	mov	x0, x28
    7604:	97fff83c 	bl	56f4 <mbedtls_mpi_cmp_int>
    7608:	35001aa0 	cbnz	w0, 795c <mbedtls_mpi_inv_mod+0x428>
/home/thesis/Desktop/optee_rpi3bplus/optee_os/lib/libmbedtls/mbedtls/library/bignum.c:2119
    760c:	9e660102 	fmov	x2, d8
    7610:	9e660121 	fmov	x1, d9
    7614:	aa1a03e0 	mov	x0, x26
    7618:	97fffb61 	bl	639c <mbedtls_mpi_mod_mpi>
    761c:	2a0003f3 	mov	w19, w0
    7620:	35000c20 	cbnz	w0, 77a4 <mbedtls_mpi_inv_mod+0x270>
/home/thesis/Desktop/optee_rpi3bplus/optee_os/lib/libmbedtls/mbedtls/library/bignum.c:2120
    7624:	aa1a03e1 	mov	x1, x26
    7628:	aa1803e0 	mov	x0, x24
    762c:	97fff5db 	bl	4d98 <mbedtls_mpi_copy>
    7630:	2a0003f3 	mov	w19, w0
    7634:	35000b80 	cbnz	w0, 77a4 <mbedtls_mpi_inv_mod+0x270>
/home/thesis/Desktop/optee_rpi3bplus/optee_os/lib/libmbedtls/mbedtls/library/bignum.c:2121
    7638:	9e660101 	fmov	x1, d8
    763c:	aa1b03e0 	mov	x0, x27
    7640:	97fff5d6 	bl	4d98 <mbedtls_mpi_copy>
    7644:	2a0003f3 	mov	w19, w0
    7648:	35000ae0 	cbnz	w0, 77a4 <mbedtls_mpi_inv_mod+0x270>
/home/thesis/Desktop/optee_rpi3bplus/optee_os/lib/libmbedtls/mbedtls/library/bignum.c:2122
    764c:	9e660101 	fmov	x1, d8
    7650:	aa1903e0 	mov	x0, x25
    7654:	97fff5d1 	bl	4d98 <mbedtls_mpi_copy>
    7658:	2a0003f3 	mov	w19, w0
    765c:	35000a40 	cbnz	w0, 77a4 <mbedtls_mpi_inv_mod+0x270>
/home/thesis/Desktop/optee_rpi3bplus/optee_os/lib/libmbedtls/mbedtls/library/bignum.c:2124
    7660:	52800021 	mov	w1, #0x1                   	// #1
    7664:	aa1703e0 	mov	x0, x23
    7668:	97fff67a 	bl	5050 <mbedtls_mpi_lset>
    766c:	2a0003f3 	mov	w19, w0
    7670:	350009a0 	cbnz	w0, 77a4 <mbedtls_mpi_inv_mod+0x270>
/home/thesis/Desktop/optee_rpi3bplus/optee_os/lib/libmbedtls/mbedtls/library/bignum.c:2125
    7674:	52800001 	mov	w1, #0x0                   	// #0
    7678:	aa1603e0 	mov	x0, x22
    767c:	97fff675 	bl	5050 <mbedtls_mpi_lset>
    7680:	2a0003f3 	mov	w19, w0
    7684:	35000900 	cbnz	w0, 77a4 <mbedtls_mpi_inv_mod+0x270>
/home/thesis/Desktop/optee_rpi3bplus/optee_os/lib/libmbedtls/mbedtls/library/bignum.c:2126
    7688:	52800001 	mov	w1, #0x0                   	// #0
    768c:	aa1403e0 	mov	x0, x20
    7690:	97fff670 	bl	5050 <mbedtls_mpi_lset>
    7694:	2a0003f3 	mov	w19, w0
    7698:	35000860 	cbnz	w0, 77a4 <mbedtls_mpi_inv_mod+0x270>
/home/thesis/Desktop/optee_rpi3bplus/optee_os/lib/libmbedtls/mbedtls/library/bignum.c:2127
    769c:	52800021 	mov	w1, #0x1                   	// #1
    76a0:	aa1503e0 	mov	x0, x21
    76a4:	97fff66b 	bl	5050 <mbedtls_mpi_lset>
/home/thesis/Desktop/optee_rpi3bplus/optee_os/lib/libmbedtls/mbedtls/library/bignum.c:2142
    76a8:	2a0003f3 	mov	w19, w0
    76ac:	350007c0 	cbnz	w0, 77a4 <mbedtls_mpi_inv_mod+0x270>
/home/thesis/Desktop/optee_rpi3bplus/optee_os/lib/libmbedtls/mbedtls/library/bignum.c:2131
    76b0:	f94067e0 	ldr	x0, [sp, #200]
    76b4:	b9400000 	ldr	w0, [x0]
    76b8:	36000560 	tbz	w0, #0, 7764 <mbedtls_mpi_inv_mod+0x230>
/home/thesis/Desktop/optee_rpi3bplus/optee_os/lib/libmbedtls/mbedtls/library/bignum.c:2145
    76bc:	f94097e0 	ldr	x0, [sp, #296]
    76c0:	b9400000 	ldr	w0, [x0]
    76c4:	36000ca0 	tbz	w0, #0, 7858 <mbedtls_mpi_inv_mod+0x324>
/home/thesis/Desktop/optee_rpi3bplus/optee_os/lib/libmbedtls/mbedtls/library/bignum.c:2159
    76c8:	aa1903e1 	mov	x1, x25
    76cc:	aa1803e0 	mov	x0, x24
    76d0:	97fff7d3 	bl	561c <mbedtls_mpi_cmp_mpi>
    76d4:	37f81080 	tbnz	w0, #31, 78e4 <mbedtls_mpi_inv_mod+0x3b0>
/home/thesis/Desktop/optee_rpi3bplus/optee_os/lib/libmbedtls/mbedtls/library/bignum.c:2161
    76d8:	aa1903e2 	mov	x2, x25
    76dc:	aa1803e1 	mov	x1, x24
    76e0:	aa1803e0 	mov	x0, x24
    76e4:	97fff8b6 	bl	59bc <mbedtls_mpi_sub_mpi>
    76e8:	2a0003f3 	mov	w19, w0
    76ec:	350005c0 	cbnz	w0, 77a4 <mbedtls_mpi_inv_mod+0x270>
/home/thesis/Desktop/optee_rpi3bplus/optee_os/lib/libmbedtls/mbedtls/library/bignum.c:2162
    76f0:	aa1403e2 	mov	x2, x20
    76f4:	aa1703e1 	mov	x1, x23
    76f8:	aa1703e0 	mov	x0, x23
    76fc:	97fff8b0 	bl	59bc <mbedtls_mpi_sub_mpi>
    7700:	2a0003f3 	mov	w19, w0
    7704:	35000500 	cbnz	w0, 77a4 <mbedtls_mpi_inv_mod+0x270>
/home/thesis/Desktop/optee_rpi3bplus/optee_os/lib/libmbedtls/mbedtls/library/bignum.c:2163
    7708:	aa1503e2 	mov	x2, x21
    770c:	aa1603e1 	mov	x1, x22
    7710:	aa1603e0 	mov	x0, x22
    7714:	97fff8aa 	bl	59bc <mbedtls_mpi_sub_mpi>
    7718:	2a0003f3 	mov	w19, w0
    771c:	35000440 	cbnz	w0, 77a4 <mbedtls_mpi_inv_mod+0x270>
/home/thesis/Desktop/optee_rpi3bplus/optee_os/lib/libmbedtls/mbedtls/library/bignum.c:2172
    7720:	52800001 	mov	w1, #0x0                   	// #0
    7724:	aa1803e0 	mov	x0, x24
    7728:	97fff7f3 	bl	56f4 <mbedtls_mpi_cmp_int>
    772c:	35fffc20 	cbnz	w0, 76b0 <mbedtls_mpi_inv_mod+0x17c>
/home/thesis/Desktop/optee_rpi3bplus/optee_os/lib/libmbedtls/mbedtls/library/bignum.c:2174
    7730:	52800001 	mov	w1, #0x0                   	// #0
    7734:	aa1403e0 	mov	x0, x20
    7738:	97fff7ef 	bl	56f4 <mbedtls_mpi_cmp_int>
    773c:	37f80f40 	tbnz	w0, #31, 7924 <mbedtls_mpi_inv_mod+0x3f0>
/home/thesis/Desktop/optee_rpi3bplus/optee_os/lib/libmbedtls/mbedtls/library/bignum.c:2177
    7740:	9e660101 	fmov	x1, d8
    7744:	aa1403e0 	mov	x0, x20
    7748:	97fff7b5 	bl	561c <mbedtls_mpi_cmp_mpi>
    774c:	36f80fa0 	tbz	w0, #31, 7940 <mbedtls_mpi_inv_mod+0x40c>
/home/thesis/Desktop/optee_rpi3bplus/optee_os/lib/libmbedtls/mbedtls/library/bignum.c:2180
    7750:	9e660140 	fmov	x0, d10
    7754:	aa1403e1 	mov	x1, x20
    7758:	97fff590 	bl	4d98 <mbedtls_mpi_copy>
    775c:	2a0003f3 	mov	w19, w0
/home/thesis/Desktop/optee_rpi3bplus/optee_os/lib/libmbedtls/mbedtls/library/bignum.c:2182
    7760:	14000011 	b	77a4 <mbedtls_mpi_inv_mod+0x270>
/home/thesis/Desktop/optee_rpi3bplus/optee_os/lib/libmbedtls/mbedtls/library/bignum.c:2133
    7764:	d2800021 	mov	x1, #0x1                   	// #1
    7768:	aa1803e0 	mov	x0, x24
    776c:	97fff753 	bl	54b8 <mbedtls_mpi_shift_r>
    7770:	2a0003f3 	mov	w19, w0
    7774:	35000180 	cbnz	w0, 77a4 <mbedtls_mpi_inv_mod+0x270>
/home/thesis/Desktop/optee_rpi3bplus/optee_os/lib/libmbedtls/mbedtls/library/bignum.c:2135
    7778:	f94073e0 	ldr	x0, [sp, #224]
    777c:	b9400000 	ldr	w0, [x0]
    7780:	370004a0 	tbnz	w0, #0, 7814 <mbedtls_mpi_inv_mod+0x2e0>
/home/thesis/Desktop/optee_rpi3bplus/optee_os/lib/libmbedtls/mbedtls/library/bignum.c:2135 (discriminator 1)
    7784:	f9407fe0 	ldr	x0, [sp, #248]
    7788:	b9400000 	ldr	w0, [x0]
    778c:	37000440 	tbnz	w0, #0, 7814 <mbedtls_mpi_inv_mod+0x2e0>
/home/thesis/Desktop/optee_rpi3bplus/optee_os/lib/libmbedtls/mbedtls/library/bignum.c:2141
    7790:	d2800021 	mov	x1, #0x1                   	// #1
    7794:	aa1703e0 	mov	x0, x23
    7798:	97fff748 	bl	54b8 <mbedtls_mpi_shift_r>
    779c:	2a0003f3 	mov	w19, w0
    77a0:	34000540 	cbz	w0, 7848 <mbedtls_mpi_inv_mod+0x314>
/home/thesis/Desktop/optee_rpi3bplus/optee_os/lib/libmbedtls/mbedtls/library/bignum.c:2184
    77a4:	aa1a03e0 	mov	x0, x26
    77a8:	97fff4db 	bl	4b14 <mbedtls_mpi_free>
    77ac:	aa1803e0 	mov	x0, x24
    77b0:	97fff4d9 	bl	4b14 <mbedtls_mpi_free>
    77b4:	aa1703e0 	mov	x0, x23
    77b8:	97fff4d7 	bl	4b14 <mbedtls_mpi_free>
    77bc:	aa1603e0 	mov	x0, x22
    77c0:	97fff4d5 	bl	4b14 <mbedtls_mpi_free>
/home/thesis/Desktop/optee_rpi3bplus/optee_os/lib/libmbedtls/mbedtls/library/bignum.c:2185
    77c4:	aa1c03e0 	mov	x0, x28
    77c8:	97fff4d3 	bl	4b14 <mbedtls_mpi_free>
    77cc:	aa1b03e0 	mov	x0, x27
    77d0:	97fff4d1 	bl	4b14 <mbedtls_mpi_free>
    77d4:	aa1903e0 	mov	x0, x25
    77d8:	97fff4cf 	bl	4b14 <mbedtls_mpi_free>
/home/thesis/Desktop/optee_rpi3bplus/optee_os/lib/libmbedtls/mbedtls/library/bignum.c:2186
    77dc:	aa1403e0 	mov	x0, x20
    77e0:	97fff4cd 	bl	4b14 <mbedtls_mpi_free>
    77e4:	aa1503e0 	mov	x0, x21
    77e8:	97fff4cb 	bl	4b14 <mbedtls_mpi_free>
/home/thesis/Desktop/optee_rpi3bplus/optee_os/lib/libmbedtls/mbedtls/library/bignum.c:2189
    77ec:	2a1303e0 	mov	w0, w19
    77f0:	fd403bea 	ldr	d10, [sp, #112]
    77f4:	a94153f3 	ldp	x19, x20, [sp, #16]
    77f8:	a9425bf5 	ldp	x21, x22, [sp, #32]
    77fc:	a94363f7 	ldp	x23, x24, [sp, #48]
    7800:	a9446bf9 	ldp	x25, x26, [sp, #64]
    7804:	a94573fb 	ldp	x27, x28, [sp, #80]
    7808:	6d4627e8 	ldp	d8, d9, [sp, #96]
    780c:	a8d67bfd 	ldp	x29, x30, [sp], #352
    7810:	d65f03c0 	ret
/home/thesis/Desktop/optee_rpi3bplus/optee_os/lib/libmbedtls/mbedtls/library/bignum.c:2137
    7814:	aa1b03e2 	mov	x2, x27
    7818:	aa1703e1 	mov	x1, x23
    781c:	aa1703e0 	mov	x0, x23
    7820:	97fff845 	bl	5934 <mbedtls_mpi_add_mpi>
    7824:	2a0003f3 	mov	w19, w0
    7828:	35fffbe0 	cbnz	w0, 77a4 <mbedtls_mpi_inv_mod+0x270>
/home/thesis/Desktop/optee_rpi3bplus/optee_os/lib/libmbedtls/mbedtls/library/bignum.c:2138
    782c:	aa1a03e2 	mov	x2, x26
    7830:	aa1603e1 	mov	x1, x22
    7834:	aa1603e0 	mov	x0, x22
    7838:	97fff861 	bl	59bc <mbedtls_mpi_sub_mpi>
    783c:	2a0003f3 	mov	w19, w0
    7840:	34fffa80 	cbz	w0, 7790 <mbedtls_mpi_inv_mod+0x25c>
    7844:	17ffffd8 	b	77a4 <mbedtls_mpi_inv_mod+0x270>
/home/thesis/Desktop/optee_rpi3bplus/optee_os/lib/libmbedtls/mbedtls/library/bignum.c:2142
    7848:	d2800021 	mov	x1, #0x1                   	// #1
    784c:	aa1603e0 	mov	x0, x22
    7850:	97fff71a 	bl	54b8 <mbedtls_mpi_shift_r>
    7854:	17ffff95 	b	76a8 <mbedtls_mpi_inv_mod+0x174>
/home/thesis/Desktop/optee_rpi3bplus/optee_os/lib/libmbedtls/mbedtls/library/bignum.c:2147
    7858:	d2800021 	mov	x1, #0x1                   	// #1
    785c:	aa1903e0 	mov	x0, x25
    7860:	97fff716 	bl	54b8 <mbedtls_mpi_shift_r>
    7864:	2a0003f3 	mov	w19, w0
    7868:	35fff9e0 	cbnz	w0, 77a4 <mbedtls_mpi_inv_mod+0x270>
/home/thesis/Desktop/optee_rpi3bplus/optee_os/lib/libmbedtls/mbedtls/library/bignum.c:2149
    786c:	f940a3e0 	ldr	x0, [sp, #320]
    7870:	b9400000 	ldr	w0, [x0]
    7874:	370001e0 	tbnz	w0, #0, 78b0 <mbedtls_mpi_inv_mod+0x37c>
/home/thesis/Desktop/optee_rpi3bplus/optee_os/lib/libmbedtls/mbedtls/library/bignum.c:2149 (discriminator 1)
    7878:	f940afe0 	ldr	x0, [sp, #344]
    787c:	b9400000 	ldr	w0, [x0]
    7880:	37000180 	tbnz	w0, #0, 78b0 <mbedtls_mpi_inv_mod+0x37c>
/home/thesis/Desktop/optee_rpi3bplus/optee_os/lib/libmbedtls/mbedtls/library/bignum.c:2155
    7884:	d2800021 	mov	x1, #0x1                   	// #1
    7888:	aa1403e0 	mov	x0, x20
    788c:	97fff70b 	bl	54b8 <mbedtls_mpi_shift_r>
    7890:	2a0003f3 	mov	w19, w0
    7894:	35fff880 	cbnz	w0, 77a4 <mbedtls_mpi_inv_mod+0x270>
/home/thesis/Desktop/optee_rpi3bplus/optee_os/lib/libmbedtls/mbedtls/library/bignum.c:2156
    7898:	d2800021 	mov	x1, #0x1                   	// #1
    789c:	aa1503e0 	mov	x0, x21
    78a0:	97fff706 	bl	54b8 <mbedtls_mpi_shift_r>
    78a4:	2a0003f3 	mov	w19, w0
    78a8:	34fff0a0 	cbz	w0, 76bc <mbedtls_mpi_inv_mod+0x188>
    78ac:	17ffffbe 	b	77a4 <mbedtls_mpi_inv_mod+0x270>
/home/thesis/Desktop/optee_rpi3bplus/optee_os/lib/libmbedtls/mbedtls/library/bignum.c:2151
    78b0:	aa1b03e2 	mov	x2, x27
    78b4:	aa1403e1 	mov	x1, x20
    78b8:	aa1403e0 	mov	x0, x20
    78bc:	97fff81e 	bl	5934 <mbedtls_mpi_add_mpi>
    78c0:	2a0003f3 	mov	w19, w0
    78c4:	35fff700 	cbnz	w0, 77a4 <mbedtls_mpi_inv_mod+0x270>
/home/thesis/Desktop/optee_rpi3bplus/optee_os/lib/libmbedtls/mbedtls/library/bignum.c:2152
    78c8:	aa1a03e2 	mov	x2, x26
    78cc:	aa1503e1 	mov	x1, x21
    78d0:	aa1503e0 	mov	x0, x21
    78d4:	97fff83a 	bl	59bc <mbedtls_mpi_sub_mpi>
    78d8:	2a0003f3 	mov	w19, w0
    78dc:	34fffd40 	cbz	w0, 7884 <mbedtls_mpi_inv_mod+0x350>
    78e0:	17ffffb1 	b	77a4 <mbedtls_mpi_inv_mod+0x270>
/home/thesis/Desktop/optee_rpi3bplus/optee_os/lib/libmbedtls/mbedtls/library/bignum.c:2167
    78e4:	aa1803e2 	mov	x2, x24
    78e8:	aa1903e1 	mov	x1, x25
    78ec:	aa1903e0 	mov	x0, x25
    78f0:	97fff833 	bl	59bc <mbedtls_mpi_sub_mpi>
    78f4:	2a0003f3 	mov	w19, w0
    78f8:	35fff560 	cbnz	w0, 77a4 <mbedtls_mpi_inv_mod+0x270>
/home/thesis/Desktop/optee_rpi3bplus/optee_os/lib/libmbedtls/mbedtls/library/bignum.c:2168
    78fc:	aa1703e2 	mov	x2, x23
    7900:	aa1403e1 	mov	x1, x20
    7904:	aa1403e0 	mov	x0, x20
    7908:	97fff82d 	bl	59bc <mbedtls_mpi_sub_mpi>
    790c:	2a0003f3 	mov	w19, w0
    7910:	35fff4a0 	cbnz	w0, 77a4 <mbedtls_mpi_inv_mod+0x270>
/home/thesis/Desktop/optee_rpi3bplus/optee_os/lib/libmbedtls/mbedtls/library/bignum.c:2169
    7914:	aa1603e2 	mov	x2, x22
    7918:	aa1503e1 	mov	x1, x21
    791c:	aa1503e0 	mov	x0, x21
    7920:	17ffff7d 	b	7714 <mbedtls_mpi_inv_mod+0x1e0>
/home/thesis/Desktop/optee_rpi3bplus/optee_os/lib/libmbedtls/mbedtls/library/bignum.c:2175
    7924:	9e660102 	fmov	x2, d8
    7928:	aa1403e1 	mov	x1, x20
    792c:	aa1403e0 	mov	x0, x20
    7930:	97fff801 	bl	5934 <mbedtls_mpi_add_mpi>
    7934:	2a0003f3 	mov	w19, w0
    7938:	34ffefc0 	cbz	w0, 7730 <mbedtls_mpi_inv_mod+0x1fc>
    793c:	17ffff9a 	b	77a4 <mbedtls_mpi_inv_mod+0x270>
/home/thesis/Desktop/optee_rpi3bplus/optee_os/lib/libmbedtls/mbedtls/library/bignum.c:2178
    7940:	9e660102 	fmov	x2, d8
    7944:	aa1403e1 	mov	x1, x20
    7948:	aa1403e0 	mov	x0, x20
    794c:	97fff81c 	bl	59bc <mbedtls_mpi_sub_mpi>
    7950:	2a0003f3 	mov	w19, w0
    7954:	34ffef60 	cbz	w0, 7740 <mbedtls_mpi_inv_mod+0x20c>
    7958:	17ffff93 	b	77a4 <mbedtls_mpi_inv_mod+0x270>
/home/thesis/Desktop/optee_rpi3bplus/optee_os/lib/libmbedtls/mbedtls/library/bignum.c:2115
    795c:	128001b3 	mov	w19, #0xfffffff2            	// #-14
    7960:	17ffff91 	b	77a4 <mbedtls_mpi_inv_mod+0x270>
/home/thesis/Desktop/optee_rpi3bplus/optee_os/lib/libmbedtls/mbedtls/library/bignum.c:2103
    7964:	12800073 	mov	w19, #0xfffffffc            	// #-4
    7968:	17ffffa1 	b	77ec <mbedtls_mpi_inv_mod+0x2b8>

000000000000796c <mbedtls_mpi_is_prime_ext>:
mbedtls_mpi_is_prime_ext():
/home/thesis/Desktop/optee_rpi3bplus/optee_os/lib/libmbedtls/mbedtls/library/bignum.c:2352
    796c:	a9bb7bfd 	stp	x29, x30, [sp, #-80]!
    7970:	910003fd 	mov	x29, sp
    7974:	a90153f3 	stp	x19, x20, [sp, #16]
    7978:	2a0103f4 	mov	w20, w1
/home/thesis/Desktop/optee_rpi3bplus/optee_os/lib/libmbedtls/mbedtls/library/bignum.c:2358
    797c:	52800021 	mov	w1, #0x1                   	// #1
    7980:	790073e1 	strh	w1, [sp, #56]
/home/thesis/Desktop/optee_rpi3bplus/optee_os/lib/libmbedtls/mbedtls/library/bignum.c:2362
    7984:	9100e3f3 	add	x19, sp, #0x38
/home/thesis/Desktop/optee_rpi3bplus/optee_os/lib/libmbedtls/mbedtls/library/bignum.c:2360
    7988:	a9408001 	ldp	x1, x0, [x0, #8]
/home/thesis/Desktop/optee_rpi3bplus/optee_os/lib/libmbedtls/mbedtls/library/bignum.c:2352
    798c:	a9025bf5 	stp	x21, x22, [sp, #32]
    7990:	aa0203f5 	mov	x21, x2
    7994:	aa0303f6 	mov	x22, x3
/home/thesis/Desktop/optee_rpi3bplus/optee_os/lib/libmbedtls/mbedtls/library/bignum.c:2360
    7998:	a90403e1 	stp	x1, x0, [sp, #64]
/home/thesis/Desktop/optee_rpi3bplus/optee_os/lib/libmbedtls/mbedtls/library/bignum.c:2362
    799c:	52800001 	mov	w1, #0x0                   	// #0
    79a0:	aa1303e0 	mov	x0, x19
    79a4:	97fff754 	bl	56f4 <mbedtls_mpi_cmp_int>
    79a8:	350000c0 	cbnz	w0, 79c0 <mbedtls_mpi_is_prime_ext+0x54>
/home/thesis/Desktop/optee_rpi3bplus/optee_os/lib/libmbedtls/mbedtls/library/bignum.c:2364
    79ac:	128001a0 	mov	w0, #0xfffffff2            	// #-14
/home/thesis/Desktop/optee_rpi3bplus/optee_os/lib/libmbedtls/mbedtls/library/bignum.c:2378
    79b0:	a94153f3 	ldp	x19, x20, [sp, #16]
    79b4:	a9425bf5 	ldp	x21, x22, [sp, #32]
    79b8:	a8c57bfd 	ldp	x29, x30, [sp], #80
    79bc:	d65f03c0 	ret
/home/thesis/Desktop/optee_rpi3bplus/optee_os/lib/libmbedtls/mbedtls/library/bignum.c:2363 (discriminator 1)
    79c0:	52800021 	mov	w1, #0x1                   	// #1
    79c4:	aa1303e0 	mov	x0, x19
    79c8:	97fff74b 	bl	56f4 <mbedtls_mpi_cmp_int>
/home/thesis/Desktop/optee_rpi3bplus/optee_os/lib/libmbedtls/mbedtls/library/bignum.c:2362 (discriminator 1)
    79cc:	34ffff00 	cbz	w0, 79ac <mbedtls_mpi_is_prime_ext+0x40>
/home/thesis/Desktop/optee_rpi3bplus/optee_os/lib/libmbedtls/mbedtls/library/bignum.c:2366
    79d0:	52800041 	mov	w1, #0x2                   	// #2
    79d4:	aa1303e0 	mov	x0, x19
    79d8:	97fff747 	bl	56f4 <mbedtls_mpi_cmp_int>
    79dc:	340000c0 	cbz	w0, 79f4 <mbedtls_mpi_is_prime_ext+0x88>
/home/thesis/Desktop/optee_rpi3bplus/optee_os/lib/libmbedtls/mbedtls/library/bignum.c:2369
    79e0:	aa1303e0 	mov	x0, x19
    79e4:	97fffb6d 	bl	6798 <mpi_check_small_factors>
    79e8:	340000a0 	cbz	w0, 79fc <mbedtls_mpi_is_prime_ext+0x90>
/home/thesis/Desktop/optee_rpi3bplus/optee_os/lib/libmbedtls/mbedtls/library/bignum.c:2371
    79ec:	7100041f 	cmp	w0, #0x1
    79f0:	54fffe01 	b.ne	79b0 <mbedtls_mpi_is_prime_ext+0x44>  // b.any
/home/thesis/Desktop/optee_rpi3bplus/optee_os/lib/libmbedtls/mbedtls/library/bignum.c:2372
    79f4:	52800000 	mov	w0, #0x0                   	// #0
    79f8:	17ffffee 	b	79b0 <mbedtls_mpi_is_prime_ext+0x44>
/home/thesis/Desktop/optee_rpi3bplus/optee_os/lib/libmbedtls/mbedtls/library/bignum.c:2377
    79fc:	aa1603e3 	mov	x3, x22
    7a00:	aa1503e2 	mov	x2, x21
    7a04:	93407e81 	sxtw	x1, w20
    7a08:	aa1303e0 	mov	x0, x19
    7a0c:	97fffe28 	bl	72ac <mpi_miller_rabin>
    7a10:	17ffffe8 	b	79b0 <mbedtls_mpi_is_prime_ext+0x44>

0000000000007a14 <mbedtls_mpi_is_prime>:
mbedtls_mpi_is_prime():
/home/thesis/Desktop/optee_rpi3bplus/optee_os/lib/libmbedtls/mbedtls/library/bignum.c:2396
    7a14:	aa0203e3 	mov	x3, x2
    7a18:	aa0103e2 	mov	x2, x1
    7a1c:	52800501 	mov	w1, #0x28                  	// #40
    7a20:	17ffffd3 	b	796c <mbedtls_mpi_is_prime_ext>

0000000000007a24 <mbedtls_mpi_gen_prime>:
mbedtls_mpi_gen_prime():
/home/thesis/Desktop/optee_rpi3bplus/optee_os/lib/libmbedtls/mbedtls/library/bignum.c:2410
    7a24:	a9b67bfd 	stp	x29, x30, [sp, #-160]!
/home/thesis/Desktop/optee_rpi3bplus/optee_os/lib/libmbedtls/mbedtls/library/bignum.c:2427
    7a28:	d1000c26 	sub	x6, x1, #0x3
    7a2c:	d283ffa5 	mov	x5, #0x1ffd                	// #8189
/home/thesis/Desktop/optee_rpi3bplus/optee_os/lib/libmbedtls/mbedtls/library/bignum.c:2410
    7a30:	910003fd 	mov	x29, sp
    7a34:	a90153f3 	stp	x19, x20, [sp, #16]
/home/thesis/Desktop/optee_rpi3bplus/optee_os/lib/libmbedtls/mbedtls/library/bignum.c:2427
    7a38:	eb0500df 	cmp	x6, x5
/home/thesis/Desktop/optee_rpi3bplus/optee_os/lib/libmbedtls/mbedtls/library/bignum.c:2410
    7a3c:	a9025bf5 	stp	x21, x22, [sp, #32]
    7a40:	a90363f7 	stp	x23, x24, [sp, #48]
    7a44:	a9046bf9 	stp	x25, x26, [sp, #64]
    7a48:	a90573fb 	stp	x27, x28, [sp, #80]
    7a4c:	6d0627e8 	stp	d8, d9, [sp, #96]
/home/thesis/Desktop/optee_rpi3bplus/optee_os/lib/libmbedtls/mbedtls/library/bignum.c:2427
    7a50:	540016c8 	b.hi	7d28 <mbedtls_mpi_gen_prime+0x304>  // b.pmore
    7a54:	9e670089 	fmov	d9, x4
    7a58:	9e670068 	fmov	d8, x3
    7a5c:	aa0103fa 	mov	x26, x1
/home/thesis/Desktop/optee_rpi3bplus/optee_os/lib/libmbedtls/mbedtls/library/bignum.c:2430
    7a60:	910223f6 	add	x22, sp, #0x88
    7a64:	2a0203f8 	mov	w24, w2
    7a68:	aa0003f5 	mov	x21, x0
    7a6c:	aa1603e0 	mov	x0, x22
    7a70:	97fff41f 	bl	4aec <mbedtls_mpi_init_mempool>
/home/thesis/Desktop/optee_rpi3bplus/optee_os/lib/libmbedtls/mbedtls/library/bignum.c:2432
    7a74:	f240135f 	tst	x26, #0x1f
    7a78:	d345ff57 	lsr	x23, x26, #5
    7a7c:	9a9706f7 	cinc	x23, x23, ne  // ne = any
/home/thesis/Desktop/optee_rpi3bplus/optee_os/lib/libmbedtls/mbedtls/library/bignum.c:2434
    7a80:	37080cf8 	tbnz	w24, #1, 7c1c <mbedtls_mpi_gen_prime+0x1f8>
/home/thesis/Desktop/optee_rpi3bplus/optee_os/lib/libmbedtls/mbedtls/library/bignum.c:2439
    7a84:	f1144f5f 	cmp	x26, #0x513
    7a88:	54000ee8 	b.hi	7c64 <mbedtls_mpi_gen_prime+0x240>  // b.pmore
/home/thesis/Desktop/optee_rpi3bplus/optee_os/lib/libmbedtls/mbedtls/library/bignum.c:2439 (discriminator 1)
    7a8c:	f10d475f 	cmp	x26, #0x351
    7a90:	54000ee8 	b.hi	7c6c <mbedtls_mpi_gen_prime+0x248>  // b.pmore
/home/thesis/Desktop/optee_rpi3bplus/optee_os/lib/libmbedtls/mbedtls/library/bignum.c:2440
    7a94:	f10a275f 	cmp	x26, #0x289
    7a98:	54000f28 	b.hi	7c7c <mbedtls_mpi_gen_prime+0x258>  // b.pmore
/home/thesis/Desktop/optee_rpi3bplus/optee_os/lib/libmbedtls/mbedtls/library/bignum.c:2440 (discriminator 1)
    7a9c:	f105775f 	cmp	x26, #0x15d
    7aa0:	54000fe8 	b.hi	7c9c <mbedtls_mpi_gen_prime+0x278>  // b.pmore
/home/thesis/Desktop/optee_rpi3bplus/optee_os/lib/libmbedtls/mbedtls/library/bignum.c:2441
    7aa4:	f103e75f 	cmp	x26, #0xf9
    7aa8:	54000e68 	b.hi	7c74 <mbedtls_mpi_gen_prime+0x250>  // b.pmore
/home/thesis/Desktop/optee_rpi3bplus/optee_os/lib/libmbedtls/mbedtls/library/bignum.c:2441 (discriminator 1)
    7aac:	f102575f 	cmp	x26, #0x95
    7ab0:	d2800254 	mov	x20, #0x12                  	// #18
    7ab4:	d2800360 	mov	x0, #0x1b                  	// #27
/home/thesis/Desktop/optee_rpi3bplus/optee_os/lib/libmbedtls/mbedtls/library/bignum.c:2452 (discriminator 1)
    7ab8:	9a808294 	csel	x20, x20, x0, hi  // hi = pmore
/home/thesis/Desktop/optee_rpi3bplus/optee_os/lib/libmbedtls/mbedtls/library/bignum.c:2457
    7abc:	d37ef6f9 	lsl	x25, x23, #2
/home/thesis/Desktop/optee_rpi3bplus/optee_os/lib/libmbedtls/mbedtls/library/bignum.c:2461
    7ac0:	d37beaf7 	lsl	x23, x23, #5
/home/thesis/Desktop/optee_rpi3bplus/optee_os/lib/libmbedtls/mbedtls/library/bignum.c:2459
    7ac4:	529e667c 	mov	w28, #0xf333                	// #62259
/home/thesis/Desktop/optee_rpi3bplus/optee_os/lib/libmbedtls/mbedtls/library/bignum.c:2462
    7ac8:	cb1a02fb 	sub	x27, x23, x26
/home/thesis/Desktop/optee_rpi3bplus/optee_os/lib/libmbedtls/mbedtls/library/bignum.c:2465
    7acc:	12000318 	and	w24, w24, #0x1
/home/thesis/Desktop/optee_rpi3bplus/optee_os/lib/libmbedtls/mbedtls/library/bignum.c:2459
    7ad0:	d1001320 	sub	x0, x25, #0x4
    7ad4:	72b6a09c 	movk	w28, #0xb504, lsl #16
    7ad8:	f9003fe0 	str	x0, [sp, #120]
/home/thesis/Desktop/optee_rpi3bplus/optee_os/lib/libmbedtls/mbedtls/library/bignum.c:2457
    7adc:	9e660123 	fmov	x3, d9
    7ae0:	9e660102 	fmov	x2, d8
    7ae4:	aa1903e1 	mov	x1, x25
    7ae8:	aa1503e0 	mov	x0, x21
    7aec:	97fffdcf 	bl	7228 <mbedtls_mpi_fill_random>
    7af0:	2a0003f3 	mov	w19, w0
    7af4:	35000ea0 	cbnz	w0, 7cc8 <mbedtls_mpi_gen_prime+0x2a4>
/home/thesis/Desktop/optee_rpi3bplus/optee_os/lib/libmbedtls/mbedtls/library/bignum.c:2459
    7af8:	f9400aa0 	ldr	x0, [x21, #16]
    7afc:	f9403fe1 	ldr	x1, [sp, #120]
    7b00:	b8616800 	ldr	w0, [x0, x1]
    7b04:	6b1c001f 	cmp	w0, w28
    7b08:	54fffea9 	b.ls	7adc <mbedtls_mpi_gen_prime+0xb8>  // b.plast
/home/thesis/Desktop/optee_rpi3bplus/optee_os/lib/libmbedtls/mbedtls/library/bignum.c:2462
    7b0c:	eb17035f 	cmp	x26, x23
    7b10:	54000d23 	b.cc	7cb4 <mbedtls_mpi_gen_prime+0x290>  // b.lo, b.ul, b.last
/home/thesis/Desktop/optee_rpi3bplus/optee_os/lib/libmbedtls/mbedtls/library/bignum.c:2463
    7b14:	f9400aa1 	ldr	x1, [x21, #16]
    7b18:	b9400020 	ldr	w0, [x1]
    7b1c:	32000002 	orr	w2, w0, #0x1
    7b20:	b9000022 	str	w2, [x1]
/home/thesis/Desktop/optee_rpi3bplus/optee_os/lib/libmbedtls/mbedtls/library/bignum.c:2465
    7b24:	34000e98 	cbz	w24, 7cf4 <mbedtls_mpi_gen_prime+0x2d0>
/home/thesis/Desktop/optee_rpi3bplus/optee_os/lib/libmbedtls/mbedtls/library/bignum.c:2480
    7b28:	32000400 	orr	w0, w0, #0x3
    7b2c:	b9000020 	str	w0, [x1]
/home/thesis/Desktop/optee_rpi3bplus/optee_os/lib/libmbedtls/mbedtls/library/bignum.c:2482
    7b30:	52800062 	mov	w2, #0x3                   	// #3
    7b34:	aa1503e1 	mov	x1, x21
    7b38:	910213e0 	add	x0, sp, #0x84
    7b3c:	97fffa45 	bl	6450 <mbedtls_mpi_mod_int>
    7b40:	2a0003f3 	mov	w19, w0
    7b44:	35000c20 	cbnz	w0, 7cc8 <mbedtls_mpi_gen_prime+0x2a4>
/home/thesis/Desktop/optee_rpi3bplus/optee_os/lib/libmbedtls/mbedtls/library/bignum.c:2483
    7b48:	b94087e0 	ldr	w0, [sp, #132]
    7b4c:	35000e60 	cbnz	w0, 7d18 <mbedtls_mpi_gen_prime+0x2f4>
/home/thesis/Desktop/optee_rpi3bplus/optee_os/lib/libmbedtls/mbedtls/library/bignum.c:2484
    7b50:	52800102 	mov	w2, #0x8                   	// #8
    7b54:	aa1503e1 	mov	x1, x21
    7b58:	aa1503e0 	mov	x0, x21
    7b5c:	97fff7bb 	bl	5a48 <mbedtls_mpi_add_int>
    7b60:	2a0003f3 	mov	w19, w0
    7b64:	35000b20 	cbnz	w0, 7cc8 <mbedtls_mpi_gen_prime+0x2a4>
/home/thesis/Desktop/optee_rpi3bplus/optee_os/lib/libmbedtls/mbedtls/library/bignum.c:2489
    7b68:	aa1503e1 	mov	x1, x21
    7b6c:	aa1603e0 	mov	x0, x22
    7b70:	97fff48a 	bl	4d98 <mbedtls_mpi_copy>
    7b74:	2a0003f3 	mov	w19, w0
    7b78:	35000a80 	cbnz	w0, 7cc8 <mbedtls_mpi_gen_prime+0x2a4>
/home/thesis/Desktop/optee_rpi3bplus/optee_os/lib/libmbedtls/mbedtls/library/bignum.c:2490
    7b7c:	d2800021 	mov	x1, #0x1                   	// #1
    7b80:	aa1603e0 	mov	x0, x22
    7b84:	97fff64d 	bl	54b8 <mbedtls_mpi_shift_r>
    7b88:	2a0003f3 	mov	w19, w0
    7b8c:	350009e0 	cbnz	w0, 7cc8 <mbedtls_mpi_gen_prime+0x2a4>
/home/thesis/Desktop/optee_rpi3bplus/optee_os/lib/libmbedtls/mbedtls/library/bignum.c:2498
    7b90:	aa1503e0 	mov	x0, x21
    7b94:	97fffb01 	bl	6798 <mpi_check_small_factors>
    7b98:	2a0003f3 	mov	w19, w0
    7b9c:	35000260 	cbnz	w0, 7be8 <mbedtls_mpi_gen_prime+0x1c4>
/home/thesis/Desktop/optee_rpi3bplus/optee_os/lib/libmbedtls/mbedtls/library/bignum.c:2499 (discriminator 1)
    7ba0:	aa1603e0 	mov	x0, x22
    7ba4:	97fffafd 	bl	6798 <mpi_check_small_factors>
    7ba8:	2a0003f3 	mov	w19, w0
/home/thesis/Desktop/optee_rpi3bplus/optee_os/lib/libmbedtls/mbedtls/library/bignum.c:2498 (discriminator 1)
    7bac:	350001e0 	cbnz	w0, 7be8 <mbedtls_mpi_gen_prime+0x1c4>
/home/thesis/Desktop/optee_rpi3bplus/optee_os/lib/libmbedtls/mbedtls/library/bignum.c:2500
    7bb0:	9e660123 	fmov	x3, d9
    7bb4:	9e660102 	fmov	x2, d8
    7bb8:	aa1403e1 	mov	x1, x20
    7bbc:	aa1503e0 	mov	x0, x21
    7bc0:	97fffdbb 	bl	72ac <mpi_miller_rabin>
    7bc4:	2a0003f3 	mov	w19, w0
/home/thesis/Desktop/optee_rpi3bplus/optee_os/lib/libmbedtls/mbedtls/library/bignum.c:2499
    7bc8:	35000100 	cbnz	w0, 7be8 <mbedtls_mpi_gen_prime+0x1c4>
/home/thesis/Desktop/optee_rpi3bplus/optee_os/lib/libmbedtls/mbedtls/library/bignum.c:2502
    7bcc:	9e660123 	fmov	x3, d9
    7bd0:	9e660102 	fmov	x2, d8
    7bd4:	aa1403e1 	mov	x1, x20
    7bd8:	aa1603e0 	mov	x0, x22
    7bdc:	97fffdb4 	bl	72ac <mpi_miller_rabin>
    7be0:	2a0003f3 	mov	w19, w0
/home/thesis/Desktop/optee_rpi3bplus/optee_os/lib/libmbedtls/mbedtls/library/bignum.c:2501
    7be4:	34000720 	cbz	w0, 7cc8 <mbedtls_mpi_gen_prime+0x2a4>
/home/thesis/Desktop/optee_rpi3bplus/optee_os/lib/libmbedtls/mbedtls/library/bignum.c:2506
    7be8:	31003a7f 	cmn	w19, #0xe
    7bec:	540006e1 	b.ne	7cc8 <mbedtls_mpi_gen_prime+0x2a4>  // b.any
/home/thesis/Desktop/optee_rpi3bplus/optee_os/lib/libmbedtls/mbedtls/library/bignum.c:2514
    7bf0:	52800182 	mov	w2, #0xc                   	// #12
    7bf4:	aa1503e1 	mov	x1, x21
    7bf8:	aa1503e0 	mov	x0, x21
    7bfc:	97fff793 	bl	5a48 <mbedtls_mpi_add_int>
    7c00:	2a0003f3 	mov	w19, w0
    7c04:	35000620 	cbnz	w0, 7cc8 <mbedtls_mpi_gen_prime+0x2a4>
/home/thesis/Desktop/optee_rpi3bplus/optee_os/lib/libmbedtls/mbedtls/library/bignum.c:2515
    7c08:	528000c2 	mov	w2, #0x6                   	// #6
    7c0c:	aa1603e1 	mov	x1, x22
    7c10:	aa1603e0 	mov	x0, x22
    7c14:	97fff78d 	bl	5a48 <mbedtls_mpi_add_int>
    7c18:	17ffffdc 	b	7b88 <mbedtls_mpi_gen_prime+0x164>
/home/thesis/Desktop/optee_rpi3bplus/optee_os/lib/libmbedtls/mbedtls/library/bignum.c:2449
    7c1c:	f116a75f 	cmp	x26, #0x5a9
    7c20:	540002e8 	b.hi	7c7c <mbedtls_mpi_gen_prime+0x258>  // b.pmore
/home/thesis/Desktop/optee_rpi3bplus/optee_os/lib/libmbedtls/mbedtls/library/bignum.c:2449 (discriminator 1)
    7c24:	f111f75f 	cmp	x26, #0x47d
    7c28:	540002e8 	b.hi	7c84 <mbedtls_mpi_gen_prime+0x260>  // b.pmore
/home/thesis/Desktop/optee_rpi3bplus/optee_os/lib/libmbedtls/mbedtls/library/bignum.c:2450
    7c2c:	f10f9f5f 	cmp	x26, #0x3e7
    7c30:	540002e8 	b.hi	7c8c <mbedtls_mpi_gen_prime+0x268>  // b.pmore
/home/thesis/Desktop/optee_rpi3bplus/optee_os/lib/libmbedtls/mbedtls/library/bignum.c:2450 (discriminator 1)
    7c34:	f10d475f 	cmp	x26, #0x351
    7c38:	540002e8 	b.hi	7c94 <mbedtls_mpi_gen_prime+0x270>  // b.pmore
/home/thesis/Desktop/optee_rpi3bplus/optee_os/lib/libmbedtls/mbedtls/library/bignum.c:2451
    7c3c:	f10bb75f 	cmp	x26, #0x2ed
    7c40:	540002e8 	b.hi	7c9c <mbedtls_mpi_gen_prime+0x278>  // b.pmore
/home/thesis/Desktop/optee_rpi3bplus/optee_os/lib/libmbedtls/mbedtls/library/bignum.c:2451 (discriminator 1)
    7c44:	f107cf5f 	cmp	x26, #0x1f3
    7c48:	540002e8 	b.hi	7ca4 <mbedtls_mpi_gen_prime+0x280>  // b.pmore
/home/thesis/Desktop/optee_rpi3bplus/optee_os/lib/libmbedtls/mbedtls/library/bignum.c:2452
    7c4c:	f103e75f 	cmp	x26, #0xf9
    7c50:	540002e8 	b.hi	7cac <mbedtls_mpi_gen_prime+0x288>  // b.pmore
/home/thesis/Desktop/optee_rpi3bplus/optee_os/lib/libmbedtls/mbedtls/library/bignum.c:2452 (discriminator 1)
    7c54:	f102575f 	cmp	x26, #0x95
    7c58:	d2800514 	mov	x20, #0x28                  	// #40
    7c5c:	d2800660 	mov	x0, #0x33                  	// #51
    7c60:	17ffff96 	b	7ab8 <mbedtls_mpi_gen_prime+0x94>
/home/thesis/Desktop/optee_rpi3bplus/optee_os/lib/libmbedtls/mbedtls/library/bignum.c:2439
    7c64:	d2800054 	mov	x20, #0x2                   	// #2
    7c68:	17ffff95 	b	7abc <mbedtls_mpi_gen_prime+0x98>
    7c6c:	d2800074 	mov	x20, #0x3                   	// #3
    7c70:	17ffff93 	b	7abc <mbedtls_mpi_gen_prime+0x98>
/home/thesis/Desktop/optee_rpi3bplus/optee_os/lib/libmbedtls/mbedtls/library/bignum.c:2441
    7c74:	d2800194 	mov	x20, #0xc                   	// #12
    7c78:	17ffff91 	b	7abc <mbedtls_mpi_gen_prime+0x98>
/home/thesis/Desktop/optee_rpi3bplus/optee_os/lib/libmbedtls/mbedtls/library/bignum.c:2440
    7c7c:	d2800094 	mov	x20, #0x4                   	// #4
    7c80:	17ffff8f 	b	7abc <mbedtls_mpi_gen_prime+0x98>
/home/thesis/Desktop/optee_rpi3bplus/optee_os/lib/libmbedtls/mbedtls/library/bignum.c:2449
    7c84:	d28000b4 	mov	x20, #0x5                   	// #5
    7c88:	17ffff8d 	b	7abc <mbedtls_mpi_gen_prime+0x98>
/home/thesis/Desktop/optee_rpi3bplus/optee_os/lib/libmbedtls/mbedtls/library/bignum.c:2450
    7c8c:	d28000d4 	mov	x20, #0x6                   	// #6
    7c90:	17ffff8b 	b	7abc <mbedtls_mpi_gen_prime+0x98>
    7c94:	d28000f4 	mov	x20, #0x7                   	// #7
    7c98:	17ffff89 	b	7abc <mbedtls_mpi_gen_prime+0x98>
/home/thesis/Desktop/optee_rpi3bplus/optee_os/lib/libmbedtls/mbedtls/library/bignum.c:2440
    7c9c:	d2800114 	mov	x20, #0x8                   	// #8
    7ca0:	17ffff87 	b	7abc <mbedtls_mpi_gen_prime+0x98>
/home/thesis/Desktop/optee_rpi3bplus/optee_os/lib/libmbedtls/mbedtls/library/bignum.c:2451
    7ca4:	d28001b4 	mov	x20, #0xd                   	// #13
    7ca8:	17ffff85 	b	7abc <mbedtls_mpi_gen_prime+0x98>
/home/thesis/Desktop/optee_rpi3bplus/optee_os/lib/libmbedtls/mbedtls/library/bignum.c:2452
    7cac:	d2800394 	mov	x20, #0x1c                  	// #28
    7cb0:	17ffff83 	b	7abc <mbedtls_mpi_gen_prime+0x98>
/home/thesis/Desktop/optee_rpi3bplus/optee_os/lib/libmbedtls/mbedtls/library/bignum.c:2462 (discriminator 1)
    7cb4:	aa1b03e1 	mov	x1, x27
    7cb8:	aa1503e0 	mov	x0, x21
    7cbc:	97fff5ff 	bl	54b8 <mbedtls_mpi_shift_r>
    7cc0:	2a0003f3 	mov	w19, w0
    7cc4:	34fff280 	cbz	w0, 7b14 <mbedtls_mpi_gen_prime+0xf0>
/home/thesis/Desktop/optee_rpi3bplus/optee_os/lib/libmbedtls/mbedtls/library/bignum.c:2522
    7cc8:	aa1603e0 	mov	x0, x22
    7ccc:	97fff392 	bl	4b14 <mbedtls_mpi_free>
/home/thesis/Desktop/optee_rpi3bplus/optee_os/lib/libmbedtls/mbedtls/library/bignum.c:2525
    7cd0:	2a1303e0 	mov	w0, w19
    7cd4:	a94153f3 	ldp	x19, x20, [sp, #16]
    7cd8:	a9425bf5 	ldp	x21, x22, [sp, #32]
    7cdc:	a94363f7 	ldp	x23, x24, [sp, #48]
    7ce0:	a9446bf9 	ldp	x25, x26, [sp, #64]
    7ce4:	a94573fb 	ldp	x27, x28, [sp, #80]
    7ce8:	6d4627e8 	ldp	d8, d9, [sp, #96]
    7cec:	a8ca7bfd 	ldp	x29, x30, [sp], #160
    7cf0:	d65f03c0 	ret
/home/thesis/Desktop/optee_rpi3bplus/optee_os/lib/libmbedtls/mbedtls/library/bignum.c:2467
    7cf4:	9e660123 	fmov	x3, d9
    7cf8:	9e660102 	fmov	x2, d8
    7cfc:	2a1403e1 	mov	w1, w20
    7d00:	aa1503e0 	mov	x0, x21
    7d04:	97ffff1a 	bl	796c <mbedtls_mpi_is_prime_ext>
    7d08:	2a0003f3 	mov	w19, w0
/home/thesis/Desktop/optee_rpi3bplus/optee_os/lib/libmbedtls/mbedtls/library/bignum.c:2469
    7d0c:	3100381f 	cmn	w0, #0xe
    7d10:	54ffee60 	b.eq	7adc <mbedtls_mpi_gen_prime+0xb8>  // b.none
    7d14:	17ffffed 	b	7cc8 <mbedtls_mpi_gen_prime+0x2a4>
/home/thesis/Desktop/optee_rpi3bplus/optee_os/lib/libmbedtls/mbedtls/library/bignum.c:2485
    7d18:	7100041f 	cmp	w0, #0x1
    7d1c:	54fff261 	b.ne	7b68 <mbedtls_mpi_gen_prime+0x144>  // b.any
/home/thesis/Desktop/optee_rpi3bplus/optee_os/lib/libmbedtls/mbedtls/library/bignum.c:2486
    7d20:	52800082 	mov	w2, #0x4                   	// #4
    7d24:	17ffff8c 	b	7b54 <mbedtls_mpi_gen_prime+0x130>
/home/thesis/Desktop/optee_rpi3bplus/optee_os/lib/libmbedtls/mbedtls/library/bignum.c:2428
    7d28:	12800073 	mov	w19, #0xfffffffc            	// #-4
    7d2c:	17ffffe9 	b	7cd0 <mbedtls_mpi_gen_prime+0x2ac>

0000000000007d30 <mbedtls_mpi_self_test>:
mbedtls_mpi_self_test():
/home/thesis/Desktop/optee_rpi3bplus/optee_os/lib/libmbedtls/mbedtls/library/bignum.c:2544
    7d30:	a9ae7bfd 	stp	x29, x30, [sp, #-288]!
    7d34:	910003fd 	mov	x29, sp
    7d38:	a9025bf5 	stp	x21, x22, [sp, #32]
/home/thesis/Desktop/optee_rpi3bplus/optee_os/lib/libmbedtls/mbedtls/library/bignum.c:2548
    7d3c:	9101e3f6 	add	x22, sp, #0x78
/home/thesis/Desktop/optee_rpi3bplus/optee_os/lib/libmbedtls/mbedtls/library/bignum.c:2550
    7d40:	9103c3f5 	add	x21, sp, #0xf0
/home/thesis/Desktop/optee_rpi3bplus/optee_os/lib/libmbedtls/mbedtls/library/bignum.c:2544
    7d44:	a90153f3 	stp	x19, x20, [sp, #16]
    7d48:	2a0003f3 	mov	w19, w0
/home/thesis/Desktop/optee_rpi3bplus/optee_os/lib/libmbedtls/mbedtls/library/bignum.c:2548
    7d4c:	aa1603e0 	mov	x0, x22
/home/thesis/Desktop/optee_rpi3bplus/optee_os/lib/libmbedtls/mbedtls/library/bignum.c:2544
    7d50:	a90363f7 	stp	x23, x24, [sp, #48]
/home/thesis/Desktop/optee_rpi3bplus/optee_os/lib/libmbedtls/mbedtls/library/bignum.c:2549
    7d54:	9102a3f8 	add	x24, sp, #0xa8
    7d58:	910303f4 	add	x20, sp, #0xc0
/home/thesis/Desktop/optee_rpi3bplus/optee_os/lib/libmbedtls/mbedtls/library/bignum.c:2544
    7d5c:	a9046bf9 	stp	x25, x26, [sp, #64]
/home/thesis/Desktop/optee_rpi3bplus/optee_os/lib/libmbedtls/mbedtls/library/bignum.c:2550
    7d60:	910363f9 	add	x25, sp, #0xd8
/home/thesis/Desktop/optee_rpi3bplus/optee_os/lib/libmbedtls/mbedtls/library/bignum.c:2544
    7d64:	a90573fb 	stp	x27, x28, [sp, #80]
/home/thesis/Desktop/optee_rpi3bplus/optee_os/lib/libmbedtls/mbedtls/library/bignum.c:2548
    7d68:	97fff361 	bl	4aec <mbedtls_mpi_init_mempool>
    7d6c:	910243fc 	add	x28, sp, #0x90
    7d70:	aa1c03e0 	mov	x0, x28
    7d74:	97fff35e 	bl	4aec <mbedtls_mpi_init_mempool>
/home/thesis/Desktop/optee_rpi3bplus/optee_os/lib/libmbedtls/mbedtls/library/bignum.c:2549
    7d78:	aa1803e0 	mov	x0, x24
    7d7c:	97fff35c 	bl	4aec <mbedtls_mpi_init_mempool>
    7d80:	aa1403e0 	mov	x0, x20
    7d84:	97fff35a 	bl	4aec <mbedtls_mpi_init_mempool>
/home/thesis/Desktop/optee_rpi3bplus/optee_os/lib/libmbedtls/mbedtls/library/bignum.c:2550
    7d88:	aa1903e0 	mov	x0, x25
    7d8c:	97fff358 	bl	4aec <mbedtls_mpi_init_mempool>
    7d90:	aa1503e0 	mov	x0, x21
    7d94:	97fff356 	bl	4aec <mbedtls_mpi_init_mempool>
/home/thesis/Desktop/optee_rpi3bplus/optee_os/lib/libmbedtls/mbedtls/library/bignum.c:2551
    7d98:	910423e0 	add	x0, sp, #0x108
    7d9c:	f90037e0 	str	x0, [sp, #104]
    7da0:	97fff353 	bl	4aec <mbedtls_mpi_init_mempool>
/home/thesis/Desktop/optee_rpi3bplus/optee_os/lib/libmbedtls/mbedtls/library/bignum.c:2553
    7da4:	d0000022 	adrp	x2, d000 <primes+0x378>
    7da8:	52800201 	mov	w1, #0x10                  	// #16
    7dac:	912b2442 	add	x2, x2, #0xac9
    7db0:	aa1603e0 	mov	x0, x22
    7db4:	97fff7a6 	bl	5c4c <mbedtls_mpi_read_string>
    7db8:	2a0003fb 	mov	w27, w0
    7dbc:	350004c0 	cbnz	w0, 7e54 <mbedtls_mpi_self_test+0x124>
/home/thesis/Desktop/optee_rpi3bplus/optee_os/lib/libmbedtls/mbedtls/library/bignum.c:2559
    7dc0:	d0000022 	adrp	x2, d000 <primes+0x378>
    7dc4:	52800201 	mov	w1, #0x10                  	// #16
    7dc8:	912d2842 	add	x2, x2, #0xb4a
    7dcc:	aa1c03e0 	mov	x0, x28
    7dd0:	97fff79f 	bl	5c4c <mbedtls_mpi_read_string>
    7dd4:	2a0003fb 	mov	w27, w0
    7dd8:	350003e0 	cbnz	w0, 7e54 <mbedtls_mpi_self_test+0x124>
/home/thesis/Desktop/optee_rpi3bplus/optee_os/lib/libmbedtls/mbedtls/library/bignum.c:2565
    7ddc:	d0000022 	adrp	x2, d000 <primes+0x378>
    7de0:	52800201 	mov	w1, #0x10                  	// #16
    7de4:	912f2c42 	add	x2, x2, #0xbcb
    7de8:	aa1803e0 	mov	x0, x24
    7dec:	97fff798 	bl	5c4c <mbedtls_mpi_read_string>
    7df0:	2a0003fb 	mov	w27, w0
    7df4:	35000300 	cbnz	w0, 7e54 <mbedtls_mpi_self_test+0x124>
/home/thesis/Desktop/optee_rpi3bplus/optee_os/lib/libmbedtls/mbedtls/library/bignum.c:2570
    7df8:	aa1803e2 	mov	x2, x24
    7dfc:	aa1603e1 	mov	x1, x22
    7e00:	aa1403e0 	mov	x0, x20
    7e04:	97fff731 	bl	5ac8 <mbedtls_mpi_mul_mpi>
    7e08:	2a0003fb 	mov	w27, w0
    7e0c:	35000240 	cbnz	w0, 7e54 <mbedtls_mpi_self_test+0x124>
/home/thesis/Desktop/optee_rpi3bplus/optee_os/lib/libmbedtls/mbedtls/library/bignum.c:2572
    7e10:	d0000022 	adrp	x2, d000 <primes+0x378>
    7e14:	52800201 	mov	w1, #0x10                  	// #16
    7e18:	9130b042 	add	x2, x2, #0xc2c
    7e1c:	aa1503e0 	mov	x0, x21
    7e20:	97fff78b 	bl	5c4c <mbedtls_mpi_read_string>
    7e24:	2a0003fb 	mov	w27, w0
    7e28:	35000160 	cbnz	w0, 7e54 <mbedtls_mpi_self_test+0x124>
/home/thesis/Desktop/optee_rpi3bplus/optee_os/lib/libmbedtls/mbedtls/library/bignum.c:2581
    7e2c:	34000093 	cbz	w19, 7e3c <mbedtls_mpi_self_test+0x10c>
/home/thesis/Desktop/optee_rpi3bplus/optee_os/lib/libmbedtls/mbedtls/library/bignum.c:2582
    7e30:	d0000020 	adrp	x0, d000 <primes+0x378>
    7e34:	91342c00 	add	x0, x0, #0xd0b
    7e38:	97fff172 	bl	4400 <printf>
/home/thesis/Desktop/optee_rpi3bplus/optee_os/lib/libmbedtls/mbedtls/library/bignum.c:2584
    7e3c:	aa1503e1 	mov	x1, x21
    7e40:	aa1403e0 	mov	x0, x20
    7e44:	97fff5f6 	bl	561c <mbedtls_mpi_cmp_mpi>
    7e48:	340004e0 	cbz	w0, 7ee4 <mbedtls_mpi_self_test+0x1b4>
/home/thesis/Desktop/optee_rpi3bplus/optee_os/lib/libmbedtls/mbedtls/library/bignum.c:2586
    7e4c:	35000453 	cbnz	w19, 7ed4 <mbedtls_mpi_self_test+0x1a4>
/home/thesis/Desktop/optee_rpi3bplus/optee_os/lib/libmbedtls/mbedtls/library/bignum.c:2681
    7e50:	5280003b 	mov	w27, #0x1                   	// #1
/home/thesis/Desktop/optee_rpi3bplus/optee_os/lib/libmbedtls/mbedtls/library/bignum.c:2691
    7e54:	7100037f 	cmp	w27, #0x0
    7e58:	7a401a64 	ccmp	w19, #0x0, #0x4, ne  // ne = any
    7e5c:	540000a0 	b.eq	7e70 <mbedtls_mpi_self_test+0x140>  // b.none
/home/thesis/Desktop/optee_rpi3bplus/optee_os/lib/libmbedtls/mbedtls/library/bignum.c:2692
    7e60:	d0000020 	adrp	x0, d000 <primes+0x378>
    7e64:	2a1b03e1 	mov	w1, w27
    7e68:	913bbc00 	add	x0, x0, #0xeef
    7e6c:	97fff165 	bl	4400 <printf>
/home/thesis/Desktop/optee_rpi3bplus/optee_os/lib/libmbedtls/mbedtls/library/bignum.c:2694
    7e70:	aa1603e0 	mov	x0, x22
    7e74:	97fff328 	bl	4b14 <mbedtls_mpi_free>
    7e78:	aa1c03e0 	mov	x0, x28
    7e7c:	97fff326 	bl	4b14 <mbedtls_mpi_free>
    7e80:	aa1803e0 	mov	x0, x24
    7e84:	97fff324 	bl	4b14 <mbedtls_mpi_free>
    7e88:	aa1403e0 	mov	x0, x20
    7e8c:	97fff322 	bl	4b14 <mbedtls_mpi_free>
/home/thesis/Desktop/optee_rpi3bplus/optee_os/lib/libmbedtls/mbedtls/library/bignum.c:2695
    7e90:	aa1903e0 	mov	x0, x25
    7e94:	97fff320 	bl	4b14 <mbedtls_mpi_free>
    7e98:	aa1503e0 	mov	x0, x21
    7e9c:	97fff31e 	bl	4b14 <mbedtls_mpi_free>
    7ea0:	f94037e0 	ldr	x0, [sp, #104]
    7ea4:	97fff31c 	bl	4b14 <mbedtls_mpi_free>
/home/thesis/Desktop/optee_rpi3bplus/optee_os/lib/libmbedtls/mbedtls/library/bignum.c:2697
    7ea8:	34000073 	cbz	w19, 7eb4 <mbedtls_mpi_self_test+0x184>
/home/thesis/Desktop/optee_rpi3bplus/optee_os/lib/libmbedtls/mbedtls/library/bignum.c:2698
    7eac:	52800140 	mov	w0, #0xa                   	// #10
    7eb0:	97fff196 	bl	4508 <putchar>
/home/thesis/Desktop/optee_rpi3bplus/optee_os/lib/libmbedtls/mbedtls/library/bignum.c:2701
    7eb4:	2a1b03e0 	mov	w0, w27
    7eb8:	a94153f3 	ldp	x19, x20, [sp, #16]
    7ebc:	a9425bf5 	ldp	x21, x22, [sp, #32]
    7ec0:	a94363f7 	ldp	x23, x24, [sp, #48]
    7ec4:	a9446bf9 	ldp	x25, x26, [sp, #64]
    7ec8:	a94573fb 	ldp	x27, x28, [sp, #80]
    7ecc:	a8d27bfd 	ldp	x29, x30, [sp], #288
    7ed0:	d65f03c0 	ret
/home/thesis/Desktop/optee_rpi3bplus/optee_os/lib/libmbedtls/mbedtls/library/bignum.c:2587
    7ed4:	d0000020 	adrp	x0, d000 <primes+0x378>
    7ed8:	91349400 	add	x0, x0, #0xd25
    7edc:	97fff17b 	bl	44c8 <puts>
    7ee0:	17ffffdc 	b	7e50 <mbedtls_mpi_self_test+0x120>
/home/thesis/Desktop/optee_rpi3bplus/optee_os/lib/libmbedtls/mbedtls/library/bignum.c:2593
    7ee4:	34000093 	cbz	w19, 7ef4 <mbedtls_mpi_self_test+0x1c4>
/home/thesis/Desktop/optee_rpi3bplus/optee_os/lib/libmbedtls/mbedtls/library/bignum.c:2594
    7ee8:	d0000020 	adrp	x0, d000 <primes+0x378>
    7eec:	9134b000 	add	x0, x0, #0xd2c
    7ef0:	97fff176 	bl	44c8 <puts>
/home/thesis/Desktop/optee_rpi3bplus/optee_os/lib/libmbedtls/mbedtls/library/bignum.c:2596
    7ef4:	aa1803e3 	mov	x3, x24
    7ef8:	aa1603e2 	mov	x2, x22
    7efc:	aa1903e1 	mov	x1, x25
    7f00:	aa1403e0 	mov	x0, x20
    7f04:	97fff7cb 	bl	5e30 <mbedtls_mpi_div_mpi>
    7f08:	2a0003fb 	mov	w27, w0
    7f0c:	35fffa40 	cbnz	w0, 7e54 <mbedtls_mpi_self_test+0x124>
/home/thesis/Desktop/optee_rpi3bplus/optee_os/lib/libmbedtls/mbedtls/library/bignum.c:2598
    7f10:	d0000022 	adrp	x2, d000 <primes+0x378>
    7f14:	52800201 	mov	w1, #0x10                  	// #16
    7f18:	9134cc42 	add	x2, x2, #0xd33
    7f1c:	aa1503e0 	mov	x0, x21
    7f20:	97fff74b 	bl	5c4c <mbedtls_mpi_read_string>
    7f24:	2a0003fb 	mov	w27, w0
    7f28:	35fff960 	cbnz	w0, 7e54 <mbedtls_mpi_self_test+0x124>
/home/thesis/Desktop/optee_rpi3bplus/optee_os/lib/libmbedtls/mbedtls/library/bignum.c:2601
    7f2c:	f94037e0 	ldr	x0, [sp, #104]
    7f30:	d0000022 	adrp	x2, d000 <primes+0x378>
    7f34:	52800201 	mov	w1, #0x10                  	// #16
    7f38:	91355c42 	add	x2, x2, #0xd57
    7f3c:	97fff744 	bl	5c4c <mbedtls_mpi_read_string>
    7f40:	2a0003fb 	mov	w27, w0
    7f44:	35fff880 	cbnz	w0, 7e54 <mbedtls_mpi_self_test+0x124>
/home/thesis/Desktop/optee_rpi3bplus/optee_os/lib/libmbedtls/mbedtls/library/bignum.c:2606
    7f48:	34000093 	cbz	w19, 7f58 <mbedtls_mpi_self_test+0x228>
/home/thesis/Desktop/optee_rpi3bplus/optee_os/lib/libmbedtls/mbedtls/library/bignum.c:2607
    7f4c:	d0000020 	adrp	x0, d000 <primes+0x378>
    7f50:	9136d800 	add	x0, x0, #0xdb6
    7f54:	97fff12b 	bl	4400 <printf>
/home/thesis/Desktop/optee_rpi3bplus/optee_os/lib/libmbedtls/mbedtls/library/bignum.c:2609
    7f58:	aa1503e1 	mov	x1, x21
    7f5c:	aa1403e0 	mov	x0, x20
    7f60:	97fff5af 	bl	561c <mbedtls_mpi_cmp_mpi>
    7f64:	35fff740 	cbnz	w0, 7e4c <mbedtls_mpi_self_test+0x11c>
/home/thesis/Desktop/optee_rpi3bplus/optee_os/lib/libmbedtls/mbedtls/library/bignum.c:2610 (discriminator 1)
    7f68:	f94037e1 	ldr	x1, [sp, #104]
    7f6c:	aa1903e0 	mov	x0, x25
    7f70:	97fff5ab 	bl	561c <mbedtls_mpi_cmp_mpi>
/home/thesis/Desktop/optee_rpi3bplus/optee_os/lib/libmbedtls/mbedtls/library/bignum.c:2609 (discriminator 1)
    7f74:	35fff6c0 	cbnz	w0, 7e4c <mbedtls_mpi_self_test+0x11c>
/home/thesis/Desktop/optee_rpi3bplus/optee_os/lib/libmbedtls/mbedtls/library/bignum.c:2619
    7f78:	34000093 	cbz	w19, 7f88 <mbedtls_mpi_self_test+0x258>
/home/thesis/Desktop/optee_rpi3bplus/optee_os/lib/libmbedtls/mbedtls/library/bignum.c:2620
    7f7c:	d0000020 	adrp	x0, d000 <primes+0x378>
    7f80:	9134b000 	add	x0, x0, #0xd2c
    7f84:	97fff151 	bl	44c8 <puts>
/home/thesis/Desktop/optee_rpi3bplus/optee_os/lib/libmbedtls/mbedtls/library/bignum.c:2622
    7f88:	d2800004 	mov	x4, #0x0                   	// #0
    7f8c:	aa1803e3 	mov	x3, x24
    7f90:	aa1c03e2 	mov	x2, x28
    7f94:	aa1603e1 	mov	x1, x22
    7f98:	aa1403e0 	mov	x0, x20
    7f9c:	97fffa91 	bl	69e0 <mbedtls_mpi_exp_mod>
    7fa0:	2a0003fb 	mov	w27, w0
    7fa4:	35fff580 	cbnz	w0, 7e54 <mbedtls_mpi_self_test+0x124>
/home/thesis/Desktop/optee_rpi3bplus/optee_os/lib/libmbedtls/mbedtls/library/bignum.c:2624
    7fa8:	d0000022 	adrp	x2, d000 <primes+0x378>
    7fac:	52800201 	mov	w1, #0x10                  	// #16
    7fb0:	91374042 	add	x2, x2, #0xdd0
    7fb4:	aa1503e0 	mov	x0, x21
    7fb8:	97fff725 	bl	5c4c <mbedtls_mpi_read_string>
    7fbc:	2a0003fb 	mov	w27, w0
    7fc0:	35fff4a0 	cbnz	w0, 7e54 <mbedtls_mpi_self_test+0x124>
/home/thesis/Desktop/optee_rpi3bplus/optee_os/lib/libmbedtls/mbedtls/library/bignum.c:2629
    7fc4:	34000093 	cbz	w19, 7fd4 <mbedtls_mpi_self_test+0x2a4>
/home/thesis/Desktop/optee_rpi3bplus/optee_os/lib/libmbedtls/mbedtls/library/bignum.c:2630
    7fc8:	d0000020 	adrp	x0, d000 <primes+0x378>
    7fcc:	9138bc00 	add	x0, x0, #0xe2f
    7fd0:	97fff10c 	bl	4400 <printf>
/home/thesis/Desktop/optee_rpi3bplus/optee_os/lib/libmbedtls/mbedtls/library/bignum.c:2632
    7fd4:	aa1503e1 	mov	x1, x21
    7fd8:	aa1403e0 	mov	x0, x20
    7fdc:	97fff590 	bl	561c <mbedtls_mpi_cmp_mpi>
    7fe0:	35fff360 	cbnz	w0, 7e4c <mbedtls_mpi_self_test+0x11c>
/home/thesis/Desktop/optee_rpi3bplus/optee_os/lib/libmbedtls/mbedtls/library/bignum.c:2641
    7fe4:	34000093 	cbz	w19, 7ff4 <mbedtls_mpi_self_test+0x2c4>
/home/thesis/Desktop/optee_rpi3bplus/optee_os/lib/libmbedtls/mbedtls/library/bignum.c:2642
    7fe8:	d0000020 	adrp	x0, d000 <primes+0x378>
    7fec:	9134b000 	add	x0, x0, #0xd2c
    7ff0:	97fff136 	bl	44c8 <puts>
/home/thesis/Desktop/optee_rpi3bplus/optee_os/lib/libmbedtls/mbedtls/library/bignum.c:2644
    7ff4:	aa1803e2 	mov	x2, x24
    7ff8:	aa1603e1 	mov	x1, x22
    7ffc:	aa1403e0 	mov	x0, x20
    8000:	97fffd4d 	bl	7534 <mbedtls_mpi_inv_mod>
    8004:	2a0003fb 	mov	w27, w0
    8008:	35fff260 	cbnz	w0, 7e54 <mbedtls_mpi_self_test+0x124>
/home/thesis/Desktop/optee_rpi3bplus/optee_os/lib/libmbedtls/mbedtls/library/bignum.c:2646
    800c:	b0000022 	adrp	x2, d000 <primes+0x378>
    8010:	52800201 	mov	w1, #0x10                  	// #16
    8014:	91392442 	add	x2, x2, #0xe49
    8018:	aa1503e0 	mov	x0, x21
    801c:	97fff70c 	bl	5c4c <mbedtls_mpi_read_string>
    8020:	2a0003fb 	mov	w27, w0
    8024:	35fff180 	cbnz	w0, 7e54 <mbedtls_mpi_self_test+0x124>
/home/thesis/Desktop/optee_rpi3bplus/optee_os/lib/libmbedtls/mbedtls/library/bignum.c:2651
    8028:	34000093 	cbz	w19, 8038 <mbedtls_mpi_self_test+0x308>
/home/thesis/Desktop/optee_rpi3bplus/optee_os/lib/libmbedtls/mbedtls/library/bignum.c:2652
    802c:	b0000020 	adrp	x0, d000 <primes+0x378>
    8030:	913aa800 	add	x0, x0, #0xeaa
    8034:	97fff0f3 	bl	4400 <printf>
/home/thesis/Desktop/optee_rpi3bplus/optee_os/lib/libmbedtls/mbedtls/library/bignum.c:2654
    8038:	aa1503e1 	mov	x1, x21
    803c:	aa1403e0 	mov	x0, x20
    8040:	97fff577 	bl	561c <mbedtls_mpi_cmp_mpi>
    8044:	2a0003fa 	mov	w26, w0
    8048:	35fff020 	cbnz	w0, 7e4c <mbedtls_mpi_self_test+0x11c>
/home/thesis/Desktop/optee_rpi3bplus/optee_os/lib/libmbedtls/mbedtls/library/bignum.c:2663
    804c:	340000f3 	cbz	w19, 8068 <mbedtls_mpi_self_test+0x338>
/home/thesis/Desktop/optee_rpi3bplus/optee_os/lib/libmbedtls/mbedtls/library/bignum.c:2664
    8050:	b0000020 	adrp	x0, d000 <primes+0x378>
    8054:	9134b000 	add	x0, x0, #0xd2c
    8058:	97fff11c 	bl	44c8 <puts>
/home/thesis/Desktop/optee_rpi3bplus/optee_os/lib/libmbedtls/mbedtls/library/bignum.c:2667
    805c:	b0000020 	adrp	x0, d000 <primes+0x378>
    8060:	913b1000 	add	x0, x0, #0xec4
    8064:	97fff0e7 	bl	4400 <printf>
    8068:	b0000037 	adrp	x23, d000 <primes+0x378>
    806c:	9107d2f7 	add	x23, x23, #0x1f4
    8070:	910a82f7 	add	x23, x23, #0x2a0
/home/thesis/Desktop/optee_rpi3bplus/optee_os/lib/libmbedtls/mbedtls/library/bignum.c:2671
    8074:	b94002e1 	ldr	w1, [x23]
    8078:	aa1403e0 	mov	x0, x20
    807c:	97fff3f5 	bl	5050 <mbedtls_mpi_lset>
    8080:	2a0003fb 	mov	w27, w0
    8084:	35ffee80 	cbnz	w0, 7e54 <mbedtls_mpi_self_test+0x124>
/home/thesis/Desktop/optee_rpi3bplus/optee_os/lib/libmbedtls/mbedtls/library/bignum.c:2672
    8088:	b94006e1 	ldr	w1, [x23, #4]
    808c:	aa1903e0 	mov	x0, x25
    8090:	97fff3f0 	bl	5050 <mbedtls_mpi_lset>
    8094:	2a0003fb 	mov	w27, w0
    8098:	35ffede0 	cbnz	w0, 7e54 <mbedtls_mpi_self_test+0x124>
/home/thesis/Desktop/optee_rpi3bplus/optee_os/lib/libmbedtls/mbedtls/library/bignum.c:2674
    809c:	aa1903e2 	mov	x2, x25
    80a0:	aa1403e1 	mov	x1, x20
    80a4:	aa1603e0 	mov	x0, x22
    80a8:	97fffbf1 	bl	706c <mbedtls_mpi_gcd>
    80ac:	2a0003fb 	mov	w27, w0
    80b0:	35ffed20 	cbnz	w0, 7e54 <mbedtls_mpi_self_test+0x124>
/home/thesis/Desktop/optee_rpi3bplus/optee_os/lib/libmbedtls/mbedtls/library/bignum.c:2676
    80b4:	b9400ae1 	ldr	w1, [x23, #8]
    80b8:	aa1603e0 	mov	x0, x22
    80bc:	97fff58e 	bl	56f4 <mbedtls_mpi_cmp_int>
    80c0:	2a0003fb 	mov	w27, w0
    80c4:	340000e0 	cbz	w0, 80e0 <mbedtls_mpi_self_test+0x3b0>
/home/thesis/Desktop/optee_rpi3bplus/optee_os/lib/libmbedtls/mbedtls/library/bignum.c:2678
    80c8:	34ffec53 	cbz	w19, 7e50 <mbedtls_mpi_self_test+0x120>
/home/thesis/Desktop/optee_rpi3bplus/optee_os/lib/libmbedtls/mbedtls/library/bignum.c:2679
    80cc:	2a1a03e1 	mov	w1, w26
    80d0:	b0000020 	adrp	x0, d000 <primes+0x378>
    80d4:	913b8400 	add	x0, x0, #0xee1
    80d8:	97fff0ca 	bl	4400 <printf>
    80dc:	17ffff5d 	b	7e50 <mbedtls_mpi_self_test+0x120>
/home/thesis/Desktop/optee_rpi3bplus/optee_os/lib/libmbedtls/mbedtls/library/bignum.c:2669 (discriminator 2)
    80e0:	1100075a 	add	w26, w26, #0x1
    80e4:	910032f7 	add	x23, x23, #0xc
    80e8:	71000f5f 	cmp	w26, #0x3
    80ec:	54fffc41 	b.ne	8074 <mbedtls_mpi_self_test+0x344>  // b.any
/home/thesis/Desktop/optee_rpi3bplus/optee_os/lib/libmbedtls/mbedtls/library/bignum.c:2686
    80f0:	340000b3 	cbz	w19, 8104 <mbedtls_mpi_self_test+0x3d4>
/home/thesis/Desktop/optee_rpi3bplus/optee_os/lib/libmbedtls/mbedtls/library/bignum.c:2687
    80f4:	b0000020 	adrp	x0, d000 <primes+0x378>
    80f8:	9134b000 	add	x0, x0, #0xd2c
    80fc:	97fff0f3 	bl	44c8 <puts>
    8100:	17ffff55 	b	7e54 <mbedtls_mpi_self_test+0x124>
/home/thesis/Desktop/optee_rpi3bplus/optee_os/lib/libmbedtls/mbedtls/library/bignum.c:2689
    8104:	2a1303fb 	mov	w27, w19
    8108:	17ffff53 	b	7e54 <mbedtls_mpi_self_test+0x124>

000000000000810c <mbedtls_platform_zeroize>:
mbedtls_platform_zeroize():
/home/thesis/Desktop/optee_rpi3bplus/optee_os/lib/libmbedtls/mbedtls/library/platform_util.c:75
    810c:	f0000022 	adrp	x2, f000 <.got>
    8110:	f9420443 	ldr	x3, [x2, #1032]
    8114:	aa0103e2 	mov	x2, x1
    8118:	52800001 	mov	w1, #0x0                   	// #0
    811c:	d61f0060 	br	x3

0000000000008120 <create_entry>:
create_entry():
    8120:	a9bd7bfd 	stp	x29, x30, [sp, #-48]!
    8124:	910003fd 	mov	x29, sp
    8128:	f9000fe0 	str	x0, [sp, #24]
    812c:	f9000be1 	str	x1, [sp, #16]
    8130:	d2800201 	mov	x1, #0x10                  	// #16
    8134:	d2800020 	mov	x0, #0x1                   	// #1
    8138:	97ffe355 	bl	e8c <calloc>
    813c:	f90017e0 	str	x0, [sp, #40]
    8140:	f94017e0 	ldr	x0, [sp, #40]
    8144:	f100001f 	cmp	x0, #0x0
    8148:	54000220 	b.eq	818c <create_entry+0x6c>  // b.none
    814c:	f9400fe0 	ldr	x0, [sp, #24]
    8150:	94000414 	bl	91a0 <strdup>
    8154:	aa0003e1 	mov	x1, x0
    8158:	f94017e0 	ldr	x0, [sp, #40]
    815c:	f9000001 	str	x1, [x0]
    8160:	f94017e0 	ldr	x0, [sp, #40]
    8164:	f9400000 	ldr	x0, [x0]
    8168:	f100001f 	cmp	x0, #0x0
    816c:	540000c0 	b.eq	8184 <create_entry+0x64>  // b.none
    8170:	f94017e0 	ldr	x0, [sp, #40]
    8174:	f9400be1 	ldr	x1, [sp, #16]
    8178:	f9000401 	str	x1, [x0, #8]
    817c:	f94017e0 	ldr	x0, [sp, #40]
    8180:	14000004 	b	8190 <create_entry+0x70>
    8184:	f94017e0 	ldr	x0, [sp, #40]
    8188:	97ffe36e 	bl	f40 <free>
    818c:	d2800000 	mov	x0, #0x0                   	// #0
    8190:	a8c37bfd 	ldp	x29, x30, [sp], #48
    8194:	d65f03c0 	ret

0000000000008198 <delete_entry>:
delete_entry():
    8198:	a9be7bfd 	stp	x29, x30, [sp, #-32]!
    819c:	910003fd 	mov	x29, sp
    81a0:	f9000fe0 	str	x0, [sp, #24]
    81a4:	f9400fe0 	ldr	x0, [sp, #24]
    81a8:	f9400000 	ldr	x0, [x0]
    81ac:	97ffe365 	bl	f40 <free>
    81b0:	f9400fe0 	ldr	x0, [sp, #24]
    81b4:	97ffe363 	bl	f40 <free>
    81b8:	d503201f 	nop
    81bc:	a8c27bfd 	ldp	x29, x30, [sp], #32
    81c0:	d65f03c0 	ret

00000000000081c4 <basic_hash>:
basic_hash():
    81c4:	d10083ff 	sub	sp, sp, #0x20
    81c8:	f90007e0 	str	x0, [sp, #8]
    81cc:	f90003e1 	str	x1, [sp]
    81d0:	5293b8a0 	mov	w0, #0x9dc5                	// #40389
    81d4:	72b02380 	movk	w0, #0x811c, lsl #16
    81d8:	b9001fe0 	str	w0, [sp, #28]
    81dc:	f94007e0 	ldr	x0, [sp, #8]
    81e0:	f9000be0 	str	x0, [sp, #16]
    81e4:	1400000f 	b	8220 <basic_hash+0x5c>
    81e8:	f9400be0 	ldr	x0, [sp, #16]
    81ec:	39400000 	ldrb	w0, [x0]
    81f0:	2a0003e1 	mov	w1, w0
    81f4:	b9401fe0 	ldr	w0, [sp, #28]
    81f8:	4a010000 	eor	w0, w0, w1
    81fc:	b9001fe0 	str	w0, [sp, #28]
    8200:	b9401fe1 	ldr	w1, [sp, #28]
    8204:	52803260 	mov	w0, #0x193                 	// #403
    8208:	72a02000 	movk	w0, #0x100, lsl #16
    820c:	1b007c20 	mul	w0, w1, w0
    8210:	b9001fe0 	str	w0, [sp, #28]
    8214:	f9400be0 	ldr	x0, [sp, #16]
    8218:	91000400 	add	x0, x0, #0x1
    821c:	f9000be0 	str	x0, [sp, #16]
    8220:	f9400be0 	ldr	x0, [sp, #16]
    8224:	39400000 	ldrb	w0, [x0]
    8228:	7100001f 	cmp	w0, #0x0
    822c:	54fffde1 	b.ne	81e8 <basic_hash+0x24>  // b.any
    8230:	b9401fe0 	ldr	w0, [sp, #28]
    8234:	f94003e1 	ldr	x1, [sp]
    8238:	9ac10802 	udiv	x2, x0, x1
    823c:	f94003e1 	ldr	x1, [sp]
    8240:	9b017c41 	mul	x1, x2, x1
    8244:	cb010000 	sub	x0, x0, x1
    8248:	910083ff 	add	sp, sp, #0x20
    824c:	d65f03c0 	ret

0000000000008250 <hashtable_hash>:
hashtable_hash():
    8250:	a9bd7bfd 	stp	x29, x30, [sp, #-48]!
    8254:	910003fd 	mov	x29, sp
    8258:	f90017e0 	str	x0, [sp, #40]
    825c:	f90013e1 	str	x1, [sp, #32]
    8260:	f9000fe2 	str	x2, [sp, #24]
    8264:	f94013e1 	ldr	x1, [sp, #32]
    8268:	f94017e0 	ldr	x0, [sp, #40]
    826c:	97ffffd6 	bl	81c4 <basic_hash>
    8270:	aa0003e1 	mov	x1, x0
    8274:	f9400fe0 	ldr	x0, [sp, #24]
    8278:	8b000020 	add	x0, x1, x0
    827c:	f94013e1 	ldr	x1, [sp, #32]
    8280:	9ac10802 	udiv	x2, x0, x1
    8284:	f94013e1 	ldr	x1, [sp, #32]
    8288:	9b017c41 	mul	x1, x2, x1
    828c:	cb010000 	sub	x0, x0, x1
    8290:	a8c37bfd 	ldp	x29, x30, [sp], #48
    8294:	d65f03c0 	ret

0000000000008298 <new_hashtable>:
new_hashtable():
    8298:	a9bd7bfd 	stp	x29, x30, [sp, #-48]!
    829c:	910003fd 	mov	x29, sp
    82a0:	f9000fe0 	str	x0, [sp, #24]
    82a4:	d2800301 	mov	x1, #0x18                  	// #24
    82a8:	d2800020 	mov	x0, #0x1                   	// #1
    82ac:	97ffe2f8 	bl	e8c <calloc>
    82b0:	f90017e0 	str	x0, [sp, #40]
    82b4:	f94017e0 	ldr	x0, [sp, #40]
    82b8:	f100001f 	cmp	x0, #0x0
    82bc:	540002a0 	b.eq	8310 <new_hashtable+0x78>  // b.none
    82c0:	f9400fe0 	ldr	x0, [sp, #24]
    82c4:	94000229 	bl	8b68 <next_prime>
    82c8:	aa0003e1 	mov	x1, x0
    82cc:	f94017e0 	ldr	x0, [sp, #40]
    82d0:	f9000001 	str	x1, [x0]
    82d4:	f94017e0 	ldr	x0, [sp, #40]
    82d8:	f9400000 	ldr	x0, [x0]
    82dc:	d2800101 	mov	x1, #0x8                   	// #8
    82e0:	97ffe2eb 	bl	e8c <calloc>
    82e4:	aa0003e1 	mov	x1, x0
    82e8:	f94017e0 	ldr	x0, [sp, #40]
    82ec:	f9000801 	str	x1, [x0, #16]
    82f0:	f94017e0 	ldr	x0, [sp, #40]
    82f4:	f9400800 	ldr	x0, [x0, #16]
    82f8:	f100001f 	cmp	x0, #0x0
    82fc:	54000060 	b.eq	8308 <new_hashtable+0x70>  // b.none
    8300:	f94017e0 	ldr	x0, [sp, #40]
    8304:	14000004 	b	8314 <new_hashtable+0x7c>
    8308:	f94017e0 	ldr	x0, [sp, #40]
    830c:	97ffe30d 	bl	f40 <free>
    8310:	d2800000 	mov	x0, #0x0                   	// #0
    8314:	a8c37bfd 	ldp	x29, x30, [sp], #48
    8318:	d65f03c0 	ret

000000000000831c <delete_hashtable>:
delete_hashtable():
    831c:	a9bd7bfd 	stp	x29, x30, [sp, #-48]!
    8320:	910003fd 	mov	x29, sp
    8324:	f9000fe0 	str	x0, [sp, #24]
    8328:	f90017ff 	str	xzr, [sp, #40]
    832c:	14000013 	b	8378 <delete_hashtable+0x5c>
    8330:	f9400fe0 	ldr	x0, [sp, #24]
    8334:	f9400801 	ldr	x1, [x0, #16]
    8338:	f94017e0 	ldr	x0, [sp, #40]
    833c:	d37df000 	lsl	x0, x0, #3
    8340:	8b000020 	add	x0, x1, x0
    8344:	f9400000 	ldr	x0, [x0]
    8348:	f100001f 	cmp	x0, #0x0
    834c:	54000100 	b.eq	836c <delete_hashtable+0x50>  // b.none
    8350:	f9400fe0 	ldr	x0, [sp, #24]
    8354:	f9400801 	ldr	x1, [x0, #16]
    8358:	f94017e0 	ldr	x0, [sp, #40]
    835c:	d37df000 	lsl	x0, x0, #3
    8360:	8b000020 	add	x0, x1, x0
    8364:	f9400000 	ldr	x0, [x0]
    8368:	97ffff8c 	bl	8198 <delete_entry>
    836c:	f94017e0 	ldr	x0, [sp, #40]
    8370:	91000400 	add	x0, x0, #0x1
    8374:	f90017e0 	str	x0, [sp, #40]
    8378:	f9400fe0 	ldr	x0, [sp, #24]
    837c:	f9400000 	ldr	x0, [x0]
    8380:	f94017e1 	ldr	x1, [sp, #40]
    8384:	eb00003f 	cmp	x1, x0
    8388:	54fffd43 	b.cc	8330 <delete_hashtable+0x14>  // b.lo, b.ul, b.last
    838c:	f9400fe0 	ldr	x0, [sp, #24]
    8390:	f9400800 	ldr	x0, [x0, #16]
    8394:	97ffe2eb 	bl	f40 <free>
    8398:	f9400fe0 	ldr	x0, [sp, #24]
    839c:	97ffe2e9 	bl	f40 <free>
    83a0:	d503201f 	nop
    83a4:	a8c37bfd 	ldp	x29, x30, [sp], #48
    83a8:	d65f03c0 	ret

00000000000083ac <hashtable_insert_new_entry>:
hashtable_insert_new_entry():
    83ac:	a9bd7bfd 	stp	x29, x30, [sp, #-48]!
    83b0:	910003fd 	mov	x29, sp
    83b4:	f9000fe0 	str	x0, [sp, #24]
    83b8:	f9000be1 	str	x1, [sp, #16]
    83bc:	f90013ff 	str	xzr, [sp, #32]
    83c0:	f90017ff 	str	xzr, [sp, #40]
    83c4:	f9400be0 	ldr	x0, [sp, #16]
    83c8:	f9400003 	ldr	x3, [x0]
    83cc:	f9400fe0 	ldr	x0, [sp, #24]
    83d0:	f9400000 	ldr	x0, [x0]
    83d4:	f94017e2 	ldr	x2, [sp, #40]
    83d8:	aa0003e1 	mov	x1, x0
    83dc:	aa0303e0 	mov	x0, x3
    83e0:	97ffff9c 	bl	8250 <hashtable_hash>
    83e4:	f90013e0 	str	x0, [sp, #32]
    83e8:	f94017e0 	ldr	x0, [sp, #40]
    83ec:	91000400 	add	x0, x0, #0x1
    83f0:	f90017e0 	str	x0, [sp, #40]
    83f4:	f9400fe0 	ldr	x0, [sp, #24]
    83f8:	f9400801 	ldr	x1, [x0, #16]
    83fc:	f94013e0 	ldr	x0, [sp, #32]
    8400:	d37df000 	lsl	x0, x0, #3
    8404:	8b000020 	add	x0, x1, x0
    8408:	f9400000 	ldr	x0, [x0]
    840c:	f100001f 	cmp	x0, #0x0
    8410:	54000160 	b.eq	843c <hashtable_insert_new_entry+0x90>  // b.none
    8414:	f9400fe0 	ldr	x0, [sp, #24]
    8418:	f9400801 	ldr	x1, [x0, #16]
    841c:	f94013e0 	ldr	x0, [sp, #32]
    8420:	d37df000 	lsl	x0, x0, #3
    8424:	8b000020 	add	x0, x1, x0
    8428:	f9400001 	ldr	x1, [x0]
    842c:	d0000040 	adrp	x0, 12000 <data.4653+0x2b90>
    8430:	9111e000 	add	x0, x0, #0x478
    8434:	eb00003f 	cmp	x1, x0
    8438:	54fffc61 	b.ne	83c4 <hashtable_insert_new_entry+0x18>  // b.any
    843c:	f9400fe0 	ldr	x0, [sp, #24]
    8440:	f9400801 	ldr	x1, [x0, #16]
    8444:	f94013e0 	ldr	x0, [sp, #32]
    8448:	d37df000 	lsl	x0, x0, #3
    844c:	8b000020 	add	x0, x1, x0
    8450:	f9400be1 	ldr	x1, [sp, #16]
    8454:	f9000001 	str	x1, [x0]
    8458:	f9400fe0 	ldr	x0, [sp, #24]
    845c:	f9400400 	ldr	x0, [x0, #8]
    8460:	91000401 	add	x1, x0, #0x1
    8464:	f9400fe0 	ldr	x0, [sp, #24]
    8468:	f9000401 	str	x1, [x0, #8]
    846c:	d503201f 	nop
    8470:	a8c37bfd 	ldp	x29, x30, [sp], #48
    8474:	d65f03c0 	ret

0000000000008478 <hashtable_resize>:
hashtable_resize():
    8478:	a9bc7bfd 	stp	x29, x30, [sp, #-64]!
    847c:	910003fd 	mov	x29, sp
    8480:	f9000fe0 	str	x0, [sp, #24]
    8484:	f9000be1 	str	x1, [sp, #16]
    8488:	f9400be0 	ldr	x0, [sp, #16]
    848c:	97ffff83 	bl	8298 <new_hashtable>
    8490:	f9001be0 	str	x0, [sp, #48]
    8494:	f9401be0 	ldr	x0, [sp, #48]
    8498:	f100001f 	cmp	x0, #0x0
    849c:	54000600 	b.eq	855c <hashtable_resize+0xe4>  // b.none
    84a0:	f9001fff 	str	xzr, [sp, #56]
    84a4:	14000016 	b	84fc <hashtable_resize+0x84>
    84a8:	f9400fe0 	ldr	x0, [sp, #24]
    84ac:	f9400801 	ldr	x1, [x0, #16]
    84b0:	f9401fe0 	ldr	x0, [sp, #56]
    84b4:	d37df000 	lsl	x0, x0, #3
    84b8:	8b000020 	add	x0, x1, x0
    84bc:	f9400000 	ldr	x0, [x0]
    84c0:	f90017e0 	str	x0, [sp, #40]
    84c4:	f94017e0 	ldr	x0, [sp, #40]
    84c8:	f100001f 	cmp	x0, #0x0
    84cc:	54000120 	b.eq	84f0 <hashtable_resize+0x78>  // b.none
    84d0:	f94017e1 	ldr	x1, [sp, #40]
    84d4:	d0000040 	adrp	x0, 12000 <data.4653+0x2b90>
    84d8:	9111e000 	add	x0, x0, #0x478
    84dc:	eb00003f 	cmp	x1, x0
    84e0:	54000080 	b.eq	84f0 <hashtable_resize+0x78>  // b.none
    84e4:	f94017e1 	ldr	x1, [sp, #40]
    84e8:	f9401be0 	ldr	x0, [sp, #48]
    84ec:	97ffffb0 	bl	83ac <hashtable_insert_new_entry>
    84f0:	f9401fe0 	ldr	x0, [sp, #56]
    84f4:	91000400 	add	x0, x0, #0x1
    84f8:	f9001fe0 	str	x0, [sp, #56]
    84fc:	f9400fe0 	ldr	x0, [sp, #24]
    8500:	f9400000 	ldr	x0, [x0]
    8504:	f9401fe1 	ldr	x1, [sp, #56]
    8508:	eb00003f 	cmp	x1, x0
    850c:	54fffce3 	b.cc	84a8 <hashtable_resize+0x30>  // b.lo, b.ul, b.last
    8510:	f9400fe0 	ldr	x0, [sp, #24]
    8514:	f9400800 	ldr	x0, [x0, #16]
    8518:	97ffe28a 	bl	f40 <free>
    851c:	f9401be0 	ldr	x0, [sp, #48]
    8520:	f9400801 	ldr	x1, [x0, #16]
    8524:	f9400fe0 	ldr	x0, [sp, #24]
    8528:	f9000801 	str	x1, [x0, #16]
    852c:	f9401be0 	ldr	x0, [sp, #48]
    8530:	f9400401 	ldr	x1, [x0, #8]
    8534:	f9400fe0 	ldr	x0, [sp, #24]
    8538:	f9000401 	str	x1, [x0, #8]
    853c:	f9401be0 	ldr	x0, [sp, #48]
    8540:	f9400001 	ldr	x1, [x0]
    8544:	f9400fe0 	ldr	x0, [sp, #24]
    8548:	f9000001 	str	x1, [x0]
    854c:	f9401be0 	ldr	x0, [sp, #48]
    8550:	97ffe27c 	bl	f40 <free>
    8554:	52800020 	mov	w0, #0x1                   	// #1
    8558:	14000002 	b	8560 <hashtable_resize+0xe8>
    855c:	52800000 	mov	w0, #0x0                   	// #0
    8560:	a8c47bfd 	ldp	x29, x30, [sp], #64
    8564:	d65f03c0 	ret

0000000000008568 <hashtable_resize_up>:
hashtable_resize_up():
    8568:	a9be7bfd 	stp	x29, x30, [sp, #-32]!
    856c:	910003fd 	mov	x29, sp
    8570:	f9000fe0 	str	x0, [sp, #24]
    8574:	f9400fe0 	ldr	x0, [sp, #24]
    8578:	f9400000 	ldr	x0, [x0]
    857c:	d37ff800 	lsl	x0, x0, #1
    8580:	9400017a 	bl	8b68 <next_prime>
    8584:	aa0003e1 	mov	x1, x0
    8588:	f9400fe0 	ldr	x0, [sp, #24]
    858c:	97ffffbb 	bl	8478 <hashtable_resize>
    8590:	12001c00 	and	w0, w0, #0xff
    8594:	a8c27bfd 	ldp	x29, x30, [sp], #32
    8598:	d65f03c0 	ret

000000000000859c <hashtable_resize_down>:
hashtable_resize_down():
    859c:	a9be7bfd 	stp	x29, x30, [sp, #-32]!
    85a0:	910003fd 	mov	x29, sp
    85a4:	f9000fe0 	str	x0, [sp, #24]
    85a8:	f9400fe0 	ldr	x0, [sp, #24]
    85ac:	f9400000 	ldr	x0, [x0]
    85b0:	d341fc01 	lsr	x1, x0, #1
    85b4:	aa0103e0 	mov	x0, x1
    85b8:	9400016c 	bl	8b68 <next_prime>
    85bc:	aa0003e1 	mov	x1, x0
    85c0:	f9400fe0 	ldr	x0, [sp, #24]
    85c4:	97ffffad 	bl	8478 <hashtable_resize>
    85c8:	12001c00 	and	w0, w0, #0xff
    85cc:	a8c27bfd 	ldp	x29, x30, [sp], #32
    85d0:	d65f03c0 	ret

00000000000085d4 <hashtable_insert>:
hashtable_insert():
    85d4:	a9bb7bfd 	stp	x29, x30, [sp, #-80]!
    85d8:	910003fd 	mov	x29, sp
    85dc:	f90017e0 	str	x0, [sp, #40]
    85e0:	f90013e1 	str	x1, [sp, #32]
    85e4:	f9000fe2 	str	x2, [sp, #24]
    85e8:	f9000be3 	str	x3, [sp, #16]
    85ec:	f94017e0 	ldr	x0, [sp, #40]
    85f0:	f9400401 	ldr	x1, [x0, #8]
    85f4:	aa0103e0 	mov	x0, x1
    85f8:	d37ff800 	lsl	x0, x0, #1
    85fc:	8b010000 	add	x0, x0, x1
    8600:	d37df000 	lsl	x0, x0, #3
    8604:	8b010000 	add	x0, x0, x1
    8608:	d37ef400 	lsl	x0, x0, #2
    860c:	aa0003e1 	mov	x1, x0
    8610:	f94017e0 	ldr	x0, [sp, #40]
    8614:	f9400000 	ldr	x0, [x0]
    8618:	9ac00820 	udiv	x0, x1, x0
    861c:	b9004fe0 	str	w0, [sp, #76]
    8620:	b9404fe0 	ldr	w0, [sp, #76]
    8624:	7100f01f 	cmp	w0, #0x3c
    8628:	54000149 	b.ls	8650 <hashtable_insert+0x7c>  // b.plast
    862c:	f94017e0 	ldr	x0, [sp, #40]
    8630:	97ffffce 	bl	8568 <hashtable_resize_up>
    8634:	12001c00 	and	w0, w0, #0xff
    8638:	52000000 	eor	w0, w0, #0x1
    863c:	12001c00 	and	w0, w0, #0xff
    8640:	7100001f 	cmp	w0, #0x0
    8644:	54000060 	b.eq	8650 <hashtable_insert+0x7c>  // b.none
    8648:	52800000 	mov	w0, #0x0                   	// #0
    864c:	14000026 	b	86e4 <hashtable_insert+0x110>
    8650:	f94013e1 	ldr	x1, [sp, #32]
    8654:	f94017e0 	ldr	x0, [sp, #40]
    8658:	940000ab 	bl	8904 <hashtable_get_entry>
    865c:	f90023e0 	str	x0, [sp, #64]
    8660:	f94023e0 	ldr	x0, [sp, #64]
    8664:	f100001f 	cmp	x0, #0x0
    8668:	540001a0 	b.eq	869c <hashtable_insert+0xc8>  // b.none
    866c:	f9400be0 	ldr	x0, [sp, #16]
    8670:	f100001f 	cmp	x0, #0x0
    8674:	540000a0 	b.eq	8688 <hashtable_insert+0xb4>  // b.none
    8678:	f94023e0 	ldr	x0, [sp, #64]
    867c:	f9400401 	ldr	x1, [x0, #8]
    8680:	f9400be0 	ldr	x0, [sp, #16]
    8684:	f9000001 	str	x1, [x0]
    8688:	f94023e0 	ldr	x0, [sp, #64]
    868c:	f9400fe1 	ldr	x1, [sp, #24]
    8690:	f9000401 	str	x1, [x0, #8]
    8694:	52800020 	mov	w0, #0x1                   	// #1
    8698:	14000013 	b	86e4 <hashtable_insert+0x110>
    869c:	f9400be0 	ldr	x0, [sp, #16]
    86a0:	f100001f 	cmp	x0, #0x0
    86a4:	54000060 	b.eq	86b0 <hashtable_insert+0xdc>  // b.none
    86a8:	f9400be0 	ldr	x0, [sp, #16]
    86ac:	f900001f 	str	xzr, [x0]
    86b0:	f9400fe1 	ldr	x1, [sp, #24]
    86b4:	f94013e0 	ldr	x0, [sp, #32]
    86b8:	97fffe9a 	bl	8120 <create_entry>
    86bc:	f9001fe0 	str	x0, [sp, #56]
    86c0:	f9401fe0 	ldr	x0, [sp, #56]
    86c4:	f100001f 	cmp	x0, #0x0
    86c8:	540000c0 	b.eq	86e0 <hashtable_insert+0x10c>  // b.none
    86cc:	f9401fe1 	ldr	x1, [sp, #56]
    86d0:	f94017e0 	ldr	x0, [sp, #40]
    86d4:	97ffff36 	bl	83ac <hashtable_insert_new_entry>
    86d8:	52800020 	mov	w0, #0x1                   	// #1
    86dc:	14000002 	b	86e4 <hashtable_insert+0x110>
    86e0:	52800000 	mov	w0, #0x0                   	// #0
    86e4:	a8c57bfd 	ldp	x29, x30, [sp], #80
    86e8:	d65f03c0 	ret

00000000000086ec <hashtable_get_entry_index>:
hashtable_get_entry_index():
    86ec:	a9bc7bfd 	stp	x29, x30, [sp, #-64]!
    86f0:	910003fd 	mov	x29, sp
    86f4:	f9000fe0 	str	x0, [sp, #24]
    86f8:	f9000be1 	str	x1, [sp, #16]
    86fc:	f9001fff 	str	xzr, [sp, #56]
    8700:	f9400fe0 	ldr	x0, [sp, #24]
    8704:	f9400000 	ldr	x0, [x0]
    8708:	f9401fe2 	ldr	x2, [sp, #56]
    870c:	aa0003e1 	mov	x1, x0
    8710:	f9400be0 	ldr	x0, [sp, #16]
    8714:	97fffecf 	bl	8250 <hashtable_hash>
    8718:	f9001be0 	str	x0, [sp, #48]
    871c:	f9400fe0 	ldr	x0, [sp, #24]
    8720:	f9400801 	ldr	x1, [x0, #16]
    8724:	f9401be0 	ldr	x0, [sp, #48]
    8728:	d37df000 	lsl	x0, x0, #3
    872c:	8b000020 	add	x0, x1, x0
    8730:	f9400000 	ldr	x0, [x0]
    8734:	f90017e0 	str	x0, [sp, #40]
    8738:	1400001f 	b	87b4 <hashtable_get_entry_index+0xc8>
    873c:	f94017e1 	ldr	x1, [sp, #40]
    8740:	d0000040 	adrp	x0, 12000 <data.4653+0x2b90>
    8744:	9111e000 	add	x0, x0, #0x478
    8748:	eb00003f 	cmp	x1, x0
    874c:	54000120 	b.eq	8770 <hashtable_get_entry_index+0x84>  // b.none
    8750:	f94017e0 	ldr	x0, [sp, #40]
    8754:	f9400000 	ldr	x0, [x0]
    8758:	f9400be1 	ldr	x1, [sp, #16]
    875c:	940002b9 	bl	9240 <strcmp>
    8760:	7100001f 	cmp	w0, #0x0
    8764:	54000061 	b.ne	8770 <hashtable_get_entry_index+0x84>  // b.any
    8768:	f9401be0 	ldr	x0, [sp, #48]
    876c:	14000016 	b	87c4 <hashtable_get_entry_index+0xd8>
    8770:	f9401fe0 	ldr	x0, [sp, #56]
    8774:	91000400 	add	x0, x0, #0x1
    8778:	f9001fe0 	str	x0, [sp, #56]
    877c:	f9400fe0 	ldr	x0, [sp, #24]
    8780:	f9400000 	ldr	x0, [x0]
    8784:	f9401fe2 	ldr	x2, [sp, #56]
    8788:	aa0003e1 	mov	x1, x0
    878c:	f9400be0 	ldr	x0, [sp, #16]
    8790:	97fffeb0 	bl	8250 <hashtable_hash>
    8794:	f9001be0 	str	x0, [sp, #48]
    8798:	f9400fe0 	ldr	x0, [sp, #24]
    879c:	f9400801 	ldr	x1, [x0, #16]
    87a0:	f9401be0 	ldr	x0, [sp, #48]
    87a4:	d37df000 	lsl	x0, x0, #3
    87a8:	8b000020 	add	x0, x1, x0
    87ac:	f9400000 	ldr	x0, [x0]
    87b0:	f90017e0 	str	x0, [sp, #40]
    87b4:	f94017e0 	ldr	x0, [sp, #40]
    87b8:	f100001f 	cmp	x0, #0x0
    87bc:	54fffc01 	b.ne	873c <hashtable_get_entry_index+0x50>  // b.any
    87c0:	12800000 	mov	w0, #0xffffffff            	// #-1
    87c4:	a8c47bfd 	ldp	x29, x30, [sp], #64
    87c8:	d65f03c0 	ret

00000000000087cc <hashtable_delete>:
hashtable_delete():
    87cc:	a9bc7bfd 	stp	x29, x30, [sp, #-64]!
    87d0:	910003fd 	mov	x29, sp
    87d4:	f90017e0 	str	x0, [sp, #40]
    87d8:	f90013e1 	str	x1, [sp, #32]
    87dc:	f9000fe2 	str	x2, [sp, #24]
    87e0:	f94017e0 	ldr	x0, [sp, #40]
    87e4:	f9400401 	ldr	x1, [x0, #8]
    87e8:	aa0103e0 	mov	x0, x1
    87ec:	d37ff800 	lsl	x0, x0, #1
    87f0:	8b010000 	add	x0, x0, x1
    87f4:	d37df000 	lsl	x0, x0, #3
    87f8:	8b010000 	add	x0, x0, x1
    87fc:	d37ef400 	lsl	x0, x0, #2
    8800:	aa0003e1 	mov	x1, x0
    8804:	f94017e0 	ldr	x0, [sp, #40]
    8808:	f9400000 	ldr	x0, [x0]
    880c:	9ac00820 	udiv	x0, x1, x0
    8810:	b9003fe0 	str	w0, [sp, #60]
    8814:	b9403fe0 	ldr	w0, [sp, #60]
    8818:	71004c1f 	cmp	w0, #0x13
    881c:	54000148 	b.hi	8844 <hashtable_delete+0x78>  // b.pmore
    8820:	f94017e0 	ldr	x0, [sp, #40]
    8824:	97ffff5e 	bl	859c <hashtable_resize_down>
    8828:	12001c00 	and	w0, w0, #0xff
    882c:	52000000 	eor	w0, w0, #0x1
    8830:	12001c00 	and	w0, w0, #0xff
    8834:	7100001f 	cmp	w0, #0x0
    8838:	54000060 	b.eq	8844 <hashtable_delete+0x78>  // b.none
    883c:	52800000 	mov	w0, #0x0                   	// #0
    8840:	1400002f 	b	88fc <hashtable_delete+0x130>
    8844:	f94017e0 	ldr	x0, [sp, #40]
    8848:	f9400400 	ldr	x0, [x0, #8]
    884c:	f100001f 	cmp	x0, #0x0
    8850:	54000540 	b.eq	88f8 <hashtable_delete+0x12c>  // b.none
    8854:	f94013e1 	ldr	x1, [sp, #32]
    8858:	f94017e0 	ldr	x0, [sp, #40]
    885c:	97ffffa4 	bl	86ec <hashtable_get_entry_index>
    8860:	b9003be0 	str	w0, [sp, #56]
    8864:	b9403be0 	ldr	w0, [sp, #56]
    8868:	3100041f 	cmn	w0, #0x1
    886c:	54000460 	b.eq	88f8 <hashtable_delete+0x12c>  // b.none
    8870:	f9400fe0 	ldr	x0, [sp, #24]
    8874:	f100001f 	cmp	x0, #0x0
    8878:	54000140 	b.eq	88a0 <hashtable_delete+0xd4>  // b.none
    887c:	f94017e0 	ldr	x0, [sp, #40]
    8880:	f9400801 	ldr	x1, [x0, #16]
    8884:	b9803be0 	ldrsw	x0, [sp, #56]
    8888:	d37df000 	lsl	x0, x0, #3
    888c:	8b000020 	add	x0, x1, x0
    8890:	f9400000 	ldr	x0, [x0]
    8894:	f9400401 	ldr	x1, [x0, #8]
    8898:	f9400fe0 	ldr	x0, [sp, #24]
    889c:	f9000001 	str	x1, [x0]
    88a0:	f94017e0 	ldr	x0, [sp, #40]
    88a4:	f9400801 	ldr	x1, [x0, #16]
    88a8:	b9803be0 	ldrsw	x0, [sp, #56]
    88ac:	d37df000 	lsl	x0, x0, #3
    88b0:	8b000020 	add	x0, x1, x0
    88b4:	f9400000 	ldr	x0, [x0]
    88b8:	97fffe38 	bl	8198 <delete_entry>
    88bc:	f94017e0 	ldr	x0, [sp, #40]
    88c0:	f9400801 	ldr	x1, [x0, #16]
    88c4:	b9803be0 	ldrsw	x0, [sp, #56]
    88c8:	d37df000 	lsl	x0, x0, #3
    88cc:	8b000020 	add	x0, x1, x0
    88d0:	d0000041 	adrp	x1, 12000 <data.4653+0x2b90>
    88d4:	9111e021 	add	x1, x1, #0x478
    88d8:	f9000001 	str	x1, [x0]
    88dc:	f94017e0 	ldr	x0, [sp, #40]
    88e0:	f9400400 	ldr	x0, [x0, #8]
    88e4:	d1000401 	sub	x1, x0, #0x1
    88e8:	f94017e0 	ldr	x0, [sp, #40]
    88ec:	f9000401 	str	x1, [x0, #8]
    88f0:	52800020 	mov	w0, #0x1                   	// #1
    88f4:	14000002 	b	88fc <hashtable_delete+0x130>
    88f8:	52800000 	mov	w0, #0x0                   	// #0
    88fc:	a8c47bfd 	ldp	x29, x30, [sp], #64
    8900:	d65f03c0 	ret

0000000000008904 <hashtable_get_entry>:
hashtable_get_entry():
    8904:	a9bd7bfd 	stp	x29, x30, [sp, #-48]!
    8908:	910003fd 	mov	x29, sp
    890c:	f9000fe0 	str	x0, [sp, #24]
    8910:	f9000be1 	str	x1, [sp, #16]
    8914:	f9400fe0 	ldr	x0, [sp, #24]
    8918:	f9400400 	ldr	x0, [x0, #8]
    891c:	f100001f 	cmp	x0, #0x0
    8920:	540001e0 	b.eq	895c <hashtable_get_entry+0x58>  // b.none
    8924:	f9400be1 	ldr	x1, [sp, #16]
    8928:	f9400fe0 	ldr	x0, [sp, #24]
    892c:	97ffff70 	bl	86ec <hashtable_get_entry_index>
    8930:	b9002fe0 	str	w0, [sp, #44]
    8934:	b9402fe0 	ldr	w0, [sp, #44]
    8938:	3100041f 	cmn	w0, #0x1
    893c:	54000100 	b.eq	895c <hashtable_get_entry+0x58>  // b.none
    8940:	f9400fe0 	ldr	x0, [sp, #24]
    8944:	f9400801 	ldr	x1, [x0, #16]
    8948:	b9802fe0 	ldrsw	x0, [sp, #44]
    894c:	d37df000 	lsl	x0, x0, #3
    8950:	8b000020 	add	x0, x1, x0
    8954:	f9400000 	ldr	x0, [x0]
    8958:	14000002 	b	8960 <hashtable_get_entry+0x5c>
    895c:	d2800000 	mov	x0, #0x0                   	// #0
    8960:	a8c37bfd 	ldp	x29, x30, [sp], #48
    8964:	d65f03c0 	ret

0000000000008968 <hashtable_get>:
hashtable_get():
    8968:	a9bd7bfd 	stp	x29, x30, [sp, #-48]!
    896c:	910003fd 	mov	x29, sp
    8970:	f9000fe0 	str	x0, [sp, #24]
    8974:	f9000be1 	str	x1, [sp, #16]
    8978:	f9400be1 	ldr	x1, [sp, #16]
    897c:	f9400fe0 	ldr	x0, [sp, #24]
    8980:	97ffffe1 	bl	8904 <hashtable_get_entry>
    8984:	f90017e0 	str	x0, [sp, #40]
    8988:	f94017e0 	ldr	x0, [sp, #40]
    898c:	f100001f 	cmp	x0, #0x0
    8990:	54000080 	b.eq	89a0 <hashtable_get+0x38>  // b.none
    8994:	f94017e0 	ldr	x0, [sp, #40]
    8998:	f9400400 	ldr	x0, [x0, #8]
    899c:	14000002 	b	89a4 <hashtable_get+0x3c>
    89a0:	d2800000 	mov	x0, #0x0                   	// #0
    89a4:	a8c37bfd 	ldp	x29, x30, [sp], #48
    89a8:	d65f03c0 	ret

00000000000089ac <is_valid_entry>:
is_valid_entry():
    89ac:	d10043ff 	sub	sp, sp, #0x10
    89b0:	f90007e0 	str	x0, [sp, #8]
    89b4:	f94007e0 	ldr	x0, [sp, #8]
    89b8:	f100001f 	cmp	x0, #0x0
    89bc:	54000100 	b.eq	89dc <is_valid_entry+0x30>  // b.none
    89c0:	f94007e1 	ldr	x1, [sp, #8]
    89c4:	d0000040 	adrp	x0, 12000 <data.4653+0x2b90>
    89c8:	91122000 	add	x0, x0, #0x488
    89cc:	eb00003f 	cmp	x1, x0
    89d0:	54000060 	b.eq	89dc <is_valid_entry+0x30>  // b.none
    89d4:	52800020 	mov	w0, #0x1                   	// #1
    89d8:	14000002 	b	89e0 <is_valid_entry+0x34>
    89dc:	52800000 	mov	w0, #0x0                   	// #0
    89e0:	12000000 	and	w0, w0, #0x1
    89e4:	12001c00 	and	w0, w0, #0xff
    89e8:	910043ff 	add	sp, sp, #0x10
    89ec:	d65f03c0 	ret

00000000000089f0 <find_next>:
find_next():
    89f0:	a9be7bfd 	stp	x29, x30, [sp, #-32]!
    89f4:	910003fd 	mov	x29, sp
    89f8:	f9000fe0 	str	x0, [sp, #24]
    89fc:	f9400fe0 	ldr	x0, [sp, #24]
    8a00:	f900041f 	str	xzr, [x0, #8]
    8a04:	d503201f 	nop
    8a08:	f9400fe0 	ldr	x0, [sp, #24]
    8a0c:	f9400801 	ldr	x1, [x0, #16]
    8a10:	f9400fe0 	ldr	x0, [sp, #24]
    8a14:	f9400000 	ldr	x0, [x0]
    8a18:	f9400000 	ldr	x0, [x0]
    8a1c:	eb00003f 	cmp	x1, x0
    8a20:	540002c2 	b.cs	8a78 <find_next+0x88>  // b.hs, b.nlast
    8a24:	f9400fe0 	ldr	x0, [sp, #24]
    8a28:	f9400000 	ldr	x0, [x0]
    8a2c:	f9400801 	ldr	x1, [x0, #16]
    8a30:	f9400fe0 	ldr	x0, [sp, #24]
    8a34:	f9400800 	ldr	x0, [x0, #16]
    8a38:	91000403 	add	x3, x0, #0x1
    8a3c:	f9400fe2 	ldr	x2, [sp, #24]
    8a40:	f9000843 	str	x3, [x2, #16]
    8a44:	d37df000 	lsl	x0, x0, #3
    8a48:	8b000020 	add	x0, x1, x0
    8a4c:	f9400001 	ldr	x1, [x0]
    8a50:	f9400fe0 	ldr	x0, [sp, #24]
    8a54:	f9000401 	str	x1, [x0, #8]
    8a58:	f9400fe0 	ldr	x0, [sp, #24]
    8a5c:	f9400400 	ldr	x0, [x0, #8]
    8a60:	97ffffd3 	bl	89ac <is_valid_entry>
    8a64:	12001c00 	and	w0, w0, #0xff
    8a68:	52000000 	eor	w0, w0, #0x1
    8a6c:	12001c00 	and	w0, w0, #0xff
    8a70:	7100001f 	cmp	w0, #0x0
    8a74:	54fffca1 	b.ne	8a08 <find_next+0x18>  // b.any
    8a78:	d503201f 	nop
    8a7c:	a8c27bfd 	ldp	x29, x30, [sp], #32
    8a80:	d65f03c0 	ret

0000000000008a84 <create_hashtable_iterator>:
create_hashtable_iterator():
    8a84:	a9bd7bfd 	stp	x29, x30, [sp, #-48]!
    8a88:	910003fd 	mov	x29, sp
    8a8c:	f9000fe0 	str	x0, [sp, #24]
    8a90:	d2800301 	mov	x1, #0x18                  	// #24
    8a94:	d2800020 	mov	x0, #0x1                   	// #1
    8a98:	97ffe0fd 	bl	e8c <calloc>
    8a9c:	f90017e0 	str	x0, [sp, #40]
    8aa0:	f94017e0 	ldr	x0, [sp, #40]
    8aa4:	f100001f 	cmp	x0, #0x0
    8aa8:	54000180 	b.eq	8ad8 <create_hashtable_iterator+0x54>  // b.none
    8aac:	f94017e0 	ldr	x0, [sp, #40]
    8ab0:	f9400fe1 	ldr	x1, [sp, #24]
    8ab4:	f9000001 	str	x1, [x0]
    8ab8:	f94017e0 	ldr	x0, [sp, #40]
    8abc:	f900041f 	str	xzr, [x0, #8]
    8ac0:	f94017e0 	ldr	x0, [sp, #40]
    8ac4:	f900081f 	str	xzr, [x0, #16]
    8ac8:	f94017e0 	ldr	x0, [sp, #40]
    8acc:	97ffffc9 	bl	89f0 <find_next>
    8ad0:	f94017e0 	ldr	x0, [sp, #40]
    8ad4:	14000002 	b	8adc <create_hashtable_iterator+0x58>
    8ad8:	d2800000 	mov	x0, #0x0                   	// #0
    8adc:	a8c37bfd 	ldp	x29, x30, [sp], #48
    8ae0:	d65f03c0 	ret

0000000000008ae4 <has_next>:
has_next():
    8ae4:	d10043ff 	sub	sp, sp, #0x10
    8ae8:	f90007e0 	str	x0, [sp, #8]
    8aec:	f94007e0 	ldr	x0, [sp, #8]
    8af0:	f9400400 	ldr	x0, [x0, #8]
    8af4:	f100001f 	cmp	x0, #0x0
    8af8:	1a9f07e0 	cset	w0, ne  // ne = any
    8afc:	12001c00 	and	w0, w0, #0xff
    8b00:	910043ff 	add	sp, sp, #0x10
    8b04:	d65f03c0 	ret

0000000000008b08 <next>:
next():
    8b08:	a9bd7bfd 	stp	x29, x30, [sp, #-48]!
    8b0c:	910003fd 	mov	x29, sp
    8b10:	f9000fe0 	str	x0, [sp, #24]
    8b14:	f9400fe0 	ldr	x0, [sp, #24]
    8b18:	f9400400 	ldr	x0, [x0, #8]
    8b1c:	f90017e0 	str	x0, [sp, #40]
    8b20:	f9400fe0 	ldr	x0, [sp, #24]
    8b24:	97fffff0 	bl	8ae4 <has_next>
    8b28:	12001c00 	and	w0, w0, #0xff
    8b2c:	7100001f 	cmp	w0, #0x0
    8b30:	54000060 	b.eq	8b3c <next+0x34>  // b.none
    8b34:	f9400fe0 	ldr	x0, [sp, #24]
    8b38:	97ffffae 	bl	89f0 <find_next>
    8b3c:	f94017e0 	ldr	x0, [sp, #40]
    8b40:	a8c37bfd 	ldp	x29, x30, [sp], #48
    8b44:	d65f03c0 	ret

0000000000008b48 <delete_hashtable_iterator>:
delete_hashtable_iterator():
    8b48:	a9be7bfd 	stp	x29, x30, [sp, #-32]!
    8b4c:	910003fd 	mov	x29, sp
    8b50:	f9000fe0 	str	x0, [sp, #24]
    8b54:	f9400fe0 	ldr	x0, [sp, #24]
    8b58:	97ffe0fa 	bl	f40 <free>
    8b5c:	d503201f 	nop
    8b60:	a8c27bfd 	ldp	x29, x30, [sp], #32
    8b64:	d65f03c0 	ret

0000000000008b68 <next_prime>:
next_prime():
    8b68:	d10083ff 	sub	sp, sp, #0x20
    8b6c:	f90007e0 	str	x0, [sp, #8]
    8b70:	f9000fff 	str	xzr, [sp, #24]
    8b74:	14000010 	b	8bb4 <next_prime+0x4c>
    8b78:	90000020 	adrp	x0, c000 <__text_end+0x1bf4>
    8b7c:	91322000 	add	x0, x0, #0xc88
    8b80:	f9400fe1 	ldr	x1, [sp, #24]
    8b84:	f8617800 	ldr	x0, [x0, x1, lsl #3]
    8b88:	f94007e1 	ldr	x1, [sp, #8]
    8b8c:	eb00003f 	cmp	x1, x0
    8b90:	540000c8 	b.hi	8ba8 <next_prime+0x40>  // b.pmore
    8b94:	90000020 	adrp	x0, c000 <__text_end+0x1bf4>
    8b98:	91322000 	add	x0, x0, #0xc88
    8b9c:	f9400fe1 	ldr	x1, [sp, #24]
    8ba0:	f8617800 	ldr	x0, [x0, x1, lsl #3]
    8ba4:	14000008 	b	8bc4 <next_prime+0x5c>
    8ba8:	f9400fe0 	ldr	x0, [sp, #24]
    8bac:	91000400 	add	x0, x0, #0x1
    8bb0:	f9000fe0 	str	x0, [sp, #24]
    8bb4:	f9400fe0 	ldr	x0, [sp, #24]
    8bb8:	f1151c1f 	cmp	x0, #0x547
    8bbc:	54fffde9 	b.ls	8b78 <next_prime+0x10>  // b.plast
    8bc0:	d2800000 	mov	x0, #0x0                   	// #0
    8bc4:	910083ff 	add	sp, sp, #0x20
    8bc8:	d65f03c0 	ret

0000000000008bcc <new_data_store>:
new_data_store():
    8bcc:	a9bd7bfd 	stp	x29, x30, [sp, #-48]!
    8bd0:	910003fd 	mov	x29, sp
    8bd4:	f9000fe0 	str	x0, [sp, #24]
    8bd8:	d2800101 	mov	x1, #0x8                   	// #8
    8bdc:	d2800020 	mov	x0, #0x1                   	// #1
    8be0:	97ffe0ab 	bl	e8c <calloc>
    8be4:	f90017e0 	str	x0, [sp, #40]
    8be8:	f94017e0 	ldr	x0, [sp, #40]
    8bec:	f100001f 	cmp	x0, #0x0
    8bf0:	540001c0 	b.eq	8c28 <new_data_store+0x5c>  // b.none
    8bf4:	f9400fe0 	ldr	x0, [sp, #24]
    8bf8:	97fffda8 	bl	8298 <new_hashtable>
    8bfc:	aa0003e1 	mov	x1, x0
    8c00:	f94017e0 	ldr	x0, [sp, #40]
    8c04:	f9000001 	str	x1, [x0]
    8c08:	f94017e0 	ldr	x0, [sp, #40]
    8c0c:	f9400000 	ldr	x0, [x0]
    8c10:	f100001f 	cmp	x0, #0x0
    8c14:	54000060 	b.eq	8c20 <new_data_store+0x54>  // b.none
    8c18:	f94017e0 	ldr	x0, [sp, #40]
    8c1c:	14000004 	b	8c2c <new_data_store+0x60>
    8c20:	f94017e0 	ldr	x0, [sp, #40]
    8c24:	97ffe0c7 	bl	f40 <free>
    8c28:	d2800000 	mov	x0, #0x0                   	// #0
    8c2c:	a8c37bfd 	ldp	x29, x30, [sp], #48
    8c30:	d65f03c0 	ret

0000000000008c34 <create_data_store>:
create_data_store():
    8c34:	a9bf7bfd 	stp	x29, x30, [sp, #-16]!
    8c38:	910003fd 	mov	x29, sp
    8c3c:	d28001e0 	mov	x0, #0xf                   	// #15
    8c40:	97ffffe3 	bl	8bcc <new_data_store>
    8c44:	a8c17bfd 	ldp	x29, x30, [sp], #16
    8c48:	d65f03c0 	ret

0000000000008c4c <data_store_contains_key>:
data_store_contains_key():
    8c4c:	a9bd7bfd 	stp	x29, x30, [sp, #-48]!
    8c50:	910003fd 	mov	x29, sp
    8c54:	f9000fe0 	str	x0, [sp, #24]
    8c58:	f9000be1 	str	x1, [sp, #16]
    8c5c:	f9400fe0 	ldr	x0, [sp, #24]
    8c60:	f9400000 	ldr	x0, [x0]
    8c64:	f9400be1 	ldr	x1, [sp, #16]
    8c68:	97ffff40 	bl	8968 <hashtable_get>
    8c6c:	f90017e0 	str	x0, [sp, #40]
    8c70:	f94017e0 	ldr	x0, [sp, #40]
    8c74:	f100001f 	cmp	x0, #0x0
    8c78:	1a9f07e0 	cset	w0, ne  // ne = any
    8c7c:	12001c00 	and	w0, w0, #0xff
    8c80:	a8c37bfd 	ldp	x29, x30, [sp], #48
    8c84:	d65f03c0 	ret

0000000000008c88 <data_store_contains_field>:
data_store_contains_field():
    8c88:	a9bc7bfd 	stp	x29, x30, [sp, #-64]!
    8c8c:	910003fd 	mov	x29, sp
    8c90:	f90017e0 	str	x0, [sp, #40]
    8c94:	f90013e1 	str	x1, [sp, #32]
    8c98:	f9000fe2 	str	x2, [sp, #24]
    8c9c:	f94017e0 	ldr	x0, [sp, #40]
    8ca0:	f9400000 	ldr	x0, [x0]
    8ca4:	f94013e1 	ldr	x1, [sp, #32]
    8ca8:	97ffff30 	bl	8968 <hashtable_get>
    8cac:	f9001fe0 	str	x0, [sp, #56]
    8cb0:	f9401fe0 	ldr	x0, [sp, #56]
    8cb4:	f100001f 	cmp	x0, #0x0
    8cb8:	54000061 	b.ne	8cc4 <data_store_contains_field+0x3c>  // b.any
    8cbc:	52800000 	mov	w0, #0x0                   	// #0
    8cc0:	14000007 	b	8cdc <data_store_contains_field+0x54>
    8cc4:	f9400fe1 	ldr	x1, [sp, #24]
    8cc8:	f9401fe0 	ldr	x0, [sp, #56]
    8ccc:	97ffff27 	bl	8968 <hashtable_get>
    8cd0:	f100001f 	cmp	x0, #0x0
    8cd4:	1a9f07e0 	cset	w0, ne  // ne = any
    8cd8:	12001c00 	and	w0, w0, #0xff
    8cdc:	a8c47bfd 	ldp	x29, x30, [sp], #64
    8ce0:	d65f03c0 	ret

0000000000008ce4 <data_store_get>:
data_store_get():
    8ce4:	a9bc7bfd 	stp	x29, x30, [sp, #-64]!
    8ce8:	910003fd 	mov	x29, sp
    8cec:	f90017e0 	str	x0, [sp, #40]
    8cf0:	f90013e1 	str	x1, [sp, #32]
    8cf4:	f9000fe2 	str	x2, [sp, #24]
    8cf8:	f94017e0 	ldr	x0, [sp, #40]
    8cfc:	f9400000 	ldr	x0, [x0]
    8d00:	f94013e1 	ldr	x1, [sp, #32]
    8d04:	97ffff19 	bl	8968 <hashtable_get>
    8d08:	f9001fe0 	str	x0, [sp, #56]
    8d0c:	f9401fe0 	ldr	x0, [sp, #56]
    8d10:	f100001f 	cmp	x0, #0x0
    8d14:	54000061 	b.ne	8d20 <data_store_get+0x3c>  // b.any
    8d18:	d2800000 	mov	x0, #0x0                   	// #0
    8d1c:	14000005 	b	8d30 <data_store_get+0x4c>
    8d20:	f9400fe1 	ldr	x1, [sp, #24]
    8d24:	f9401fe0 	ldr	x0, [sp, #56]
    8d28:	97ffff10 	bl	8968 <hashtable_get>
    8d2c:	d503201f 	nop
    8d30:	a8c47bfd 	ldp	x29, x30, [sp], #64
    8d34:	d65f03c0 	ret

0000000000008d38 <data_store_insert_new_entry>:
data_store_insert_new_entry():
    8d38:	a9bd7bfd 	stp	x29, x30, [sp, #-48]!
    8d3c:	910003fd 	mov	x29, sp
    8d40:	f90017e0 	str	x0, [sp, #40]
    8d44:	f90013e1 	str	x1, [sp, #32]
    8d48:	f9000fe2 	str	x2, [sp, #24]
    8d4c:	f94017e0 	ldr	x0, [sp, #40]
    8d50:	f9400000 	ldr	x0, [x0]
    8d54:	d2800003 	mov	x3, #0x0                   	// #0
    8d58:	f9400fe2 	ldr	x2, [sp, #24]
    8d5c:	f94013e1 	ldr	x1, [sp, #32]
    8d60:	97fffe1d 	bl	85d4 <hashtable_insert>
    8d64:	12001c00 	and	w0, w0, #0xff
    8d68:	a8c37bfd 	ldp	x29, x30, [sp], #48
    8d6c:	d65f03c0 	ret

0000000000008d70 <data_store_insert>:
data_store_insert():
    8d70:	a9ba7bfd 	stp	x29, x30, [sp, #-96]!
    8d74:	910003fd 	mov	x29, sp
    8d78:	f9001fe0 	str	x0, [sp, #56]
    8d7c:	f9001be1 	str	x1, [sp, #48]
    8d80:	f90017e2 	str	x2, [sp, #40]
    8d84:	f90013e3 	str	x3, [sp, #32]
    8d88:	f9000fe4 	str	x4, [sp, #24]
    8d8c:	f9401fe0 	ldr	x0, [sp, #56]
    8d90:	f9400000 	ldr	x0, [x0]
    8d94:	f9401be1 	ldr	x1, [sp, #48]
    8d98:	97fffef4 	bl	8968 <hashtable_get>
    8d9c:	f9002fe0 	str	x0, [sp, #88]
    8da0:	f9402fe0 	ldr	x0, [sp, #88]
    8da4:	f100001f 	cmp	x0, #0x0
    8da8:	540002c1 	b.ne	8e00 <data_store_insert+0x90>  // b.any
    8dac:	d28001e0 	mov	x0, #0xf                   	// #15
    8db0:	97fffd3a 	bl	8298 <new_hashtable>
    8db4:	f9002fe0 	str	x0, [sp, #88]
    8db8:	f9402fe0 	ldr	x0, [sp, #88]
    8dbc:	f100001f 	cmp	x0, #0x0
    8dc0:	54000200 	b.eq	8e00 <data_store_insert+0x90>  // b.none
    8dc4:	f9401fe0 	ldr	x0, [sp, #56]
    8dc8:	f9400000 	ldr	x0, [x0]
    8dcc:	d2800003 	mov	x3, #0x0                   	// #0
    8dd0:	f9402fe2 	ldr	x2, [sp, #88]
    8dd4:	f9401be1 	ldr	x1, [sp, #48]
    8dd8:	97fffdff 	bl	85d4 <hashtable_insert>
    8ddc:	12001c00 	and	w0, w0, #0xff
    8de0:	52000000 	eor	w0, w0, #0x1
    8de4:	12001c00 	and	w0, w0, #0xff
    8de8:	7100001f 	cmp	w0, #0x0
    8dec:	540000a0 	b.eq	8e00 <data_store_insert+0x90>  // b.none
    8df0:	f9402fe0 	ldr	x0, [sp, #88]
    8df4:	97fffd4a 	bl	831c <delete_hashtable>
    8df8:	52800000 	mov	w0, #0x0                   	// #0
    8dfc:	14000019 	b	8e60 <data_store_insert+0xf0>
    8e00:	f90027ff 	str	xzr, [sp, #72]
    8e04:	f9400fe1 	ldr	x1, [sp, #24]
    8e08:	f94013e0 	ldr	x0, [sp, #32]
    8e0c:	9400008e 	bl	9044 <create_data_struct>
    8e10:	f9002be0 	str	x0, [sp, #80]
    8e14:	910123e0 	add	x0, sp, #0x48
    8e18:	aa0003e3 	mov	x3, x0
    8e1c:	f9402be2 	ldr	x2, [sp, #80]
    8e20:	f94017e1 	ldr	x1, [sp, #40]
    8e24:	f9402fe0 	ldr	x0, [sp, #88]
    8e28:	97fffdeb 	bl	85d4 <hashtable_insert>
    8e2c:	12001c00 	and	w0, w0, #0xff
    8e30:	7100001f 	cmp	w0, #0x0
    8e34:	54000100 	b.eq	8e54 <data_store_insert+0xe4>  // b.none
    8e38:	f94027e0 	ldr	x0, [sp, #72]
    8e3c:	f100001f 	cmp	x0, #0x0
    8e40:	54000060 	b.eq	8e4c <data_store_insert+0xdc>  // b.none
    8e44:	f94027e0 	ldr	x0, [sp, #72]
    8e48:	94000098 	bl	90a8 <delete_data>
    8e4c:	52800020 	mov	w0, #0x1                   	// #1
    8e50:	14000004 	b	8e60 <data_store_insert+0xf0>
    8e54:	f9402be0 	ldr	x0, [sp, #80]
    8e58:	94000094 	bl	90a8 <delete_data>
    8e5c:	52800000 	mov	w0, #0x0                   	// #0
    8e60:	a8c67bfd 	ldp	x29, x30, [sp], #96
    8e64:	d65f03c0 	ret

0000000000008e68 <data_store_delete_field>:
data_store_delete_field():
    8e68:	a9bb7bfd 	stp	x29, x30, [sp, #-80]!
    8e6c:	910003fd 	mov	x29, sp
    8e70:	f90017e0 	str	x0, [sp, #40]
    8e74:	f90013e1 	str	x1, [sp, #32]
    8e78:	f9000fe2 	str	x2, [sp, #24]
    8e7c:	f94017e0 	ldr	x0, [sp, #40]
    8e80:	f9400000 	ldr	x0, [x0]
    8e84:	f94013e1 	ldr	x1, [sp, #32]
    8e88:	97fffeb8 	bl	8968 <hashtable_get>
    8e8c:	f90027e0 	str	x0, [sp, #72]
    8e90:	f94027e0 	ldr	x0, [sp, #72]
    8e94:	f100001f 	cmp	x0, #0x0
    8e98:	54000061 	b.ne	8ea4 <data_store_delete_field+0x3c>  // b.any
    8e9c:	52800000 	mov	w0, #0x0                   	// #0
    8ea0:	14000017 	b	8efc <data_store_delete_field+0x94>
    8ea4:	f9001fff 	str	xzr, [sp, #56]
    8ea8:	9100e3e0 	add	x0, sp, #0x38
    8eac:	aa0003e2 	mov	x2, x0
    8eb0:	f9400fe1 	ldr	x1, [sp, #24]
    8eb4:	f94027e0 	ldr	x0, [sp, #72]
    8eb8:	97fffe45 	bl	87cc <hashtable_delete>
    8ebc:	39011fe0 	strb	w0, [sp, #71]
    8ec0:	f9401fe0 	ldr	x0, [sp, #56]
    8ec4:	f100001f 	cmp	x0, #0x0
    8ec8:	54000060 	b.eq	8ed4 <data_store_delete_field+0x6c>  // b.none
    8ecc:	f9401fe0 	ldr	x0, [sp, #56]
    8ed0:	94000076 	bl	90a8 <delete_data>
    8ed4:	f94027e0 	ldr	x0, [sp, #72]
    8ed8:	f9400400 	ldr	x0, [x0, #8]
    8edc:	f100001f 	cmp	x0, #0x0
    8ee0:	540000c1 	b.ne	8ef8 <data_store_delete_field+0x90>  // b.any
    8ee4:	f94017e0 	ldr	x0, [sp, #40]
    8ee8:	f9400000 	ldr	x0, [x0]
    8eec:	d2800002 	mov	x2, #0x0                   	// #0
    8ef0:	f94013e1 	ldr	x1, [sp, #32]
    8ef4:	97fffe36 	bl	87cc <hashtable_delete>
    8ef8:	39411fe0 	ldrb	w0, [sp, #71]
    8efc:	a8c57bfd 	ldp	x29, x30, [sp], #80
    8f00:	d65f03c0 	ret

0000000000008f04 <delete_set>:
delete_set():
    8f04:	a9bd7bfd 	stp	x29, x30, [sp, #-48]!
    8f08:	910003fd 	mov	x29, sp
    8f0c:	f9000fe0 	str	x0, [sp, #24]
    8f10:	f9400fe0 	ldr	x0, [sp, #24]
    8f14:	97fffedc 	bl	8a84 <create_hashtable_iterator>
    8f18:	f90017e0 	str	x0, [sp, #40]
    8f1c:	14000007 	b	8f38 <delete_set+0x34>
    8f20:	f94017e0 	ldr	x0, [sp, #40]
    8f24:	97fffef9 	bl	8b08 <next>
    8f28:	f9400400 	ldr	x0, [x0, #8]
    8f2c:	f90013e0 	str	x0, [sp, #32]
    8f30:	f94013e0 	ldr	x0, [sp, #32]
    8f34:	9400005d 	bl	90a8 <delete_data>
    8f38:	f94017e0 	ldr	x0, [sp, #40]
    8f3c:	97fffeea 	bl	8ae4 <has_next>
    8f40:	12001c00 	and	w0, w0, #0xff
    8f44:	7100001f 	cmp	w0, #0x0
    8f48:	54fffec1 	b.ne	8f20 <delete_set+0x1c>  // b.any
    8f4c:	f94017e0 	ldr	x0, [sp, #40]
    8f50:	97fffefe 	bl	8b48 <delete_hashtable_iterator>
    8f54:	f9400fe0 	ldr	x0, [sp, #24]
    8f58:	97fffcf1 	bl	831c <delete_hashtable>
    8f5c:	d503201f 	nop
    8f60:	a8c37bfd 	ldp	x29, x30, [sp], #48
    8f64:	d65f03c0 	ret

0000000000008f68 <data_store_delete_key>:
data_store_delete_key():
    8f68:	a9bd7bfd 	stp	x29, x30, [sp, #-48]!
    8f6c:	910003fd 	mov	x29, sp
    8f70:	f9000fe0 	str	x0, [sp, #24]
    8f74:	f9000be1 	str	x1, [sp, #16]
    8f78:	f90013ff 	str	xzr, [sp, #32]
    8f7c:	f9400fe0 	ldr	x0, [sp, #24]
    8f80:	f9400000 	ldr	x0, [x0]
    8f84:	910083e1 	add	x1, sp, #0x20
    8f88:	aa0103e2 	mov	x2, x1
    8f8c:	f9400be1 	ldr	x1, [sp, #16]
    8f90:	97fffe0f 	bl	87cc <hashtable_delete>
    8f94:	12001c00 	and	w0, w0, #0xff
    8f98:	7100001f 	cmp	w0, #0x0
    8f9c:	54000160 	b.eq	8fc8 <data_store_delete_key+0x60>  // b.none
    8fa0:	f94013e0 	ldr	x0, [sp, #32]
    8fa4:	f100001f 	cmp	x0, #0x0
    8fa8:	54000100 	b.eq	8fc8 <data_store_delete_key+0x60>  // b.none
    8fac:	f94013e0 	ldr	x0, [sp, #32]
    8fb0:	f9400400 	ldr	x0, [x0, #8]
    8fb4:	f90017e0 	str	x0, [sp, #40]
    8fb8:	f94017e0 	ldr	x0, [sp, #40]
    8fbc:	97ffffd2 	bl	8f04 <delete_set>
    8fc0:	52800020 	mov	w0, #0x1                   	// #1
    8fc4:	14000002 	b	8fcc <data_store_delete_key+0x64>
    8fc8:	52800000 	mov	w0, #0x0                   	// #0
    8fcc:	a8c37bfd 	ldp	x29, x30, [sp], #48
    8fd0:	d65f03c0 	ret

0000000000008fd4 <set_data_value>:
set_data_value():
    8fd4:	a9bc7bfd 	stp	x29, x30, [sp, #-64]!
    8fd8:	910003fd 	mov	x29, sp
    8fdc:	f90017e0 	str	x0, [sp, #40]
    8fe0:	f90013e1 	str	x1, [sp, #32]
    8fe4:	f9000fe2 	str	x2, [sp, #24]
    8fe8:	f94017e0 	ldr	x0, [sp, #40]
    8fec:	f9400000 	ldr	x0, [x0]
    8ff0:	f9400fe1 	ldr	x1, [sp, #24]
    8ff4:	97ffdfbf 	bl	ef0 <realloc>
    8ff8:	f9001fe0 	str	x0, [sp, #56]
    8ffc:	f9401fe0 	ldr	x0, [sp, #56]
    9000:	f100001f 	cmp	x0, #0x0
    9004:	540001a0 	b.eq	9038 <set_data_value+0x64>  // b.none
    9008:	f9400fe2 	ldr	x2, [sp, #24]
    900c:	f94013e1 	ldr	x1, [sp, #32]
    9010:	f9401fe0 	ldr	x0, [sp, #56]
    9014:	97ffe099 	bl	1278 <memcpy>
    9018:	f94017e0 	ldr	x0, [sp, #40]
    901c:	f9401fe1 	ldr	x1, [sp, #56]
    9020:	f9000001 	str	x1, [x0]
    9024:	f94017e0 	ldr	x0, [sp, #40]
    9028:	f9400fe1 	ldr	x1, [sp, #24]
    902c:	f9000401 	str	x1, [x0, #8]
    9030:	52800020 	mov	w0, #0x1                   	// #1
    9034:	14000002 	b	903c <set_data_value+0x68>
    9038:	52800000 	mov	w0, #0x0                   	// #0
    903c:	a8c47bfd 	ldp	x29, x30, [sp], #64
    9040:	d65f03c0 	ret

0000000000009044 <create_data_struct>:
create_data_struct():
    9044:	a9bd7bfd 	stp	x29, x30, [sp, #-48]!
    9048:	910003fd 	mov	x29, sp
    904c:	f9000fe0 	str	x0, [sp, #24]
    9050:	f9000be1 	str	x1, [sp, #16]
    9054:	d2800201 	mov	x1, #0x10                  	// #16
    9058:	d2800020 	mov	x0, #0x1                   	// #1
    905c:	97ffdf8c 	bl	e8c <calloc>
    9060:	f90017e0 	str	x0, [sp, #40]
    9064:	f94017e0 	ldr	x0, [sp, #40]
    9068:	f100001f 	cmp	x0, #0x0
    906c:	54000180 	b.eq	909c <create_data_struct+0x58>  // b.none
    9070:	f9400be2 	ldr	x2, [sp, #16]
    9074:	f9400fe1 	ldr	x1, [sp, #24]
    9078:	f94017e0 	ldr	x0, [sp, #40]
    907c:	97ffffd6 	bl	8fd4 <set_data_value>
    9080:	12001c00 	and	w0, w0, #0xff
    9084:	7100001f 	cmp	w0, #0x0
    9088:	54000060 	b.eq	9094 <create_data_struct+0x50>  // b.none
    908c:	f94017e0 	ldr	x0, [sp, #40]
    9090:	14000004 	b	90a0 <create_data_struct+0x5c>
    9094:	f94017e0 	ldr	x0, [sp, #40]
    9098:	97ffdfaa 	bl	f40 <free>
    909c:	d2800000 	mov	x0, #0x0                   	// #0
    90a0:	a8c37bfd 	ldp	x29, x30, [sp], #48
    90a4:	d65f03c0 	ret

00000000000090a8 <delete_data>:
delete_data():
    90a8:	a9be7bfd 	stp	x29, x30, [sp, #-32]!
    90ac:	910003fd 	mov	x29, sp
    90b0:	f9000fe0 	str	x0, [sp, #24]
    90b4:	f9400fe0 	ldr	x0, [sp, #24]
    90b8:	f9400000 	ldr	x0, [x0]
    90bc:	97ffdfa1 	bl	f40 <free>
    90c0:	f9400fe0 	ldr	x0, [sp, #24]
    90c4:	97ffdf9f 	bl	f40 <free>
    90c8:	d503201f 	nop
    90cc:	a8c27bfd 	ldp	x29, x30, [sp], #32
    90d0:	d65f03c0 	ret

00000000000090d4 <snprintf>:
snprintf():
/home/thesis/Desktop/optee_rpi3bplus/optee_os/lib/libutils/isoc/snprintf.c:10
    90d4:	a9b07bfd 	stp	x29, x30, [sp, #-256]!
    90d8:	910003fd 	mov	x29, sp
    90dc:	a90d93e3 	stp	x3, x4, [sp, #216]
/home/thesis/Desktop/optee_rpi3bplus/optee_os/lib/libutils/isoc/snprintf.c:14
    90e0:	910403e3 	add	x3, sp, #0x100
    90e4:	a9030fe3 	stp	x3, x3, [sp, #48]
    90e8:	910343e3 	add	x3, sp, #0xd0
    90ec:	f90023e3 	str	x3, [sp, #64]
    90f0:	128004e3 	mov	w3, #0xffffffd8            	// #-40
    90f4:	b9004be3 	str	w3, [sp, #72]
    90f8:	12800fe3 	mov	w3, #0xffffff80            	// #-128
    90fc:	b9004fe3 	str	w3, [sp, #76]
/home/thesis/Desktop/optee_rpi3bplus/optee_os/lib/libutils/isoc/snprintf.c:15
    9100:	910043e3 	add	x3, sp, #0x10
/home/thesis/Desktop/optee_rpi3bplus/optee_os/lib/libutils/isoc/snprintf.c:10
    9104:	a90e9be5 	stp	x5, x6, [sp, #232]
/home/thesis/Desktop/optee_rpi3bplus/optee_os/lib/libutils/isoc/snprintf.c:15
    9108:	a94317e4 	ldp	x4, x5, [sp, #48]
    910c:	a90117e4 	stp	x4, x5, [sp, #16]
    9110:	a94417e4 	ldp	x4, x5, [sp, #64]
    9114:	a90217e4 	stp	x4, x5, [sp, #32]
/home/thesis/Desktop/optee_rpi3bplus/optee_os/lib/libutils/isoc/snprintf.c:10
    9118:	3d8017e0 	str	q0, [sp, #80]
/home/thesis/Desktop/optee_rpi3bplus/optee_os/lib/libutils/isoc/snprintf.c:15
    911c:	52800004 	mov	w4, #0x0                   	// #0
/home/thesis/Desktop/optee_rpi3bplus/optee_os/lib/libutils/isoc/snprintf.c:10
    9120:	3d801be1 	str	q1, [sp, #96]
    9124:	3d801fe2 	str	q2, [sp, #112]
    9128:	3d8023e3 	str	q3, [sp, #128]
    912c:	3d8027e4 	str	q4, [sp, #144]
    9130:	3d802be5 	str	q5, [sp, #160]
    9134:	3d802fe6 	str	q6, [sp, #176]
    9138:	3d8033e7 	str	q7, [sp, #192]
    913c:	f9007fe7 	str	x7, [sp, #248]
/home/thesis/Desktop/optee_rpi3bplus/optee_os/lib/libutils/isoc/snprintf.c:15
    9140:	94000049 	bl	9264 <__vsnprintf>
/home/thesis/Desktop/optee_rpi3bplus/optee_os/lib/libutils/isoc/snprintf.c:19
    9144:	a8d07bfd 	ldp	x29, x30, [sp], #256
    9148:	d65f03c0 	ret

000000000000914c <vsnprintf>:
vsnprintf():
/home/thesis/Desktop/optee_rpi3bplus/optee_os/lib/libutils/isoc/snprintf.c:22
    914c:	a9bb7bfd 	stp	x29, x30, [sp, #-80]!
    9150:	910003fd 	mov	x29, sp
    9154:	a90153f3 	stp	x19, x20, [sp, #16]
    9158:	aa0003f3 	mov	x19, x0
    915c:	aa0103f4 	mov	x20, x1
/home/thesis/Desktop/optee_rpi3bplus/optee_os/lib/libutils/isoc/snprintf.c:23
    9160:	9100c3e0 	add	x0, sp, #0x30
    9164:	aa0303e1 	mov	x1, x3
/home/thesis/Desktop/optee_rpi3bplus/optee_os/lib/libutils/isoc/snprintf.c:22
    9168:	f90013f5 	str	x21, [sp, #32]
    916c:	aa0203f5 	mov	x21, x2
/home/thesis/Desktop/optee_rpi3bplus/optee_os/lib/libutils/isoc/snprintf.c:23
    9170:	d2800402 	mov	x2, #0x20                  	// #32
    9174:	97ffe041 	bl	1278 <memcpy>
    9178:	aa1503e2 	mov	x2, x21
    917c:	aa0003e3 	mov	x3, x0
    9180:	aa1403e1 	mov	x1, x20
    9184:	52800004 	mov	w4, #0x0                   	// #0
    9188:	aa1303e0 	mov	x0, x19
    918c:	94000036 	bl	9264 <__vsnprintf>
/home/thesis/Desktop/optee_rpi3bplus/optee_os/lib/libutils/isoc/snprintf.c:24
    9190:	a94153f3 	ldp	x19, x20, [sp, #16]
    9194:	f94013f5 	ldr	x21, [sp, #32]
    9198:	a8c57bfd 	ldp	x29, x30, [sp], #80
    919c:	d65f03c0 	ret

00000000000091a0 <strdup>:
strdup():
/home/thesis/Desktop/optee_rpi3bplus/optee_os/lib/libutils/isoc/strdup.c:9
    91a0:	a9bd7bfd 	stp	x29, x30, [sp, #-48]!
    91a4:	910003fd 	mov	x29, sp
    91a8:	a90153f3 	stp	x19, x20, [sp, #16]
    91ac:	f90017e0 	str	x0, [sp, #40]
/home/thesis/Desktop/optee_rpi3bplus/optee_os/lib/libutils/isoc/strdup.c:10
    91b0:	97ffe041 	bl	12b4 <strlen>
    91b4:	91000414 	add	x20, x0, #0x1
/home/thesis/Desktop/optee_rpi3bplus/optee_os/lib/libutils/isoc/strdup.c:11
    91b8:	aa1403e0 	mov	x0, x20
    91bc:	97ffdf20 	bl	e3c <malloc>
    91c0:	aa0003f3 	mov	x19, x0
/home/thesis/Desktop/optee_rpi3bplus/optee_os/lib/libutils/isoc/strdup.c:13
    91c4:	b4000080 	cbz	x0, 91d4 <strdup+0x34>
/home/thesis/Desktop/optee_rpi3bplus/optee_os/lib/libutils/isoc/strdup.c:14
    91c8:	f94017e1 	ldr	x1, [sp, #40]
    91cc:	aa1403e2 	mov	x2, x20
    91d0:	97ffe02a 	bl	1278 <memcpy>
/home/thesis/Desktop/optee_rpi3bplus/optee_os/lib/libutils/isoc/strdup.c:16
    91d4:	aa1303e0 	mov	x0, x19
    91d8:	a94153f3 	ldp	x19, x20, [sp, #16]
    91dc:	a8c37bfd 	ldp	x29, x30, [sp], #48
    91e0:	d65f03c0 	ret

00000000000091e4 <memmove>:
memmove():
/home/thesis/Desktop/optee_rpi3bplus/optee_os/lib/libutils/isoc/newlib/memmove.c:96
    91e4:	eb01001f 	cmp	x0, x1
    91e8:	54000289 	b.ls	9238 <memmove+0x54>  // b.plast
/home/thesis/Desktop/optee_rpi3bplus/optee_os/lib/libutils/isoc/newlib/memmove.c:96 (discriminator 1)
    91ec:	8b020023 	add	x3, x1, x2
    91f0:	eb00007f 	cmp	x3, x0
    91f4:	54000229 	b.ls	9238 <memmove+0x54>  // b.plast
/home/thesis/Desktop/optee_rpi3bplus/optee_os/lib/libutils/isoc/newlib/memmove.c:99
    91f8:	8b020004 	add	x4, x0, x2
/home/thesis/Desktop/optee_rpi3bplus/optee_os/lib/libutils/isoc/newlib/memmove.c:100
    91fc:	aa2203e2 	mvn	x2, x2
    9200:	d2800001 	mov	x1, #0x0                   	// #0
    9204:	d1000421 	sub	x1, x1, #0x1
    9208:	eb01005f 	cmp	x2, x1
    920c:	54000041 	b.ne	9214 <memmove+0x30>  // b.any
/home/thesis/Desktop/optee_rpi3bplus/optee_os/lib/libutils/isoc/newlib/memmove.c:157
    9210:	d65f03c0 	ret
/home/thesis/Desktop/optee_rpi3bplus/optee_os/lib/libutils/isoc/newlib/memmove.c:101
    9214:	38616865 	ldrb	w5, [x3, x1]
    9218:	38216885 	strb	w5, [x4, x1]
    921c:	17fffffa 	b	9204 <memmove+0x20>
/home/thesis/Desktop/optee_rpi3bplus/optee_os/lib/libutils/isoc/newlib/memmove.c:104
    9220:	38636824 	ldrb	w4, [x1, x3]
    9224:	38236804 	strb	w4, [x0, x3]
    9228:	91000463 	add	x3, x3, #0x1
/home/thesis/Desktop/optee_rpi3bplus/optee_os/lib/libutils/isoc/newlib/memmove.c:103
    922c:	eb03005f 	cmp	x2, x3
    9230:	54ffff81 	b.ne	9220 <memmove+0x3c>  // b.any
    9234:	17fffff7 	b	9210 <memmove+0x2c>
    9238:	d2800003 	mov	x3, #0x0                   	// #0
    923c:	17fffffc 	b	922c <memmove+0x48>

0000000000009240 <strcmp>:
strcmp():
/home/thesis/Desktop/optee_rpi3bplus/optee_os/lib/libutils/isoc/newlib/strcmp.c:99
    9240:	d2800002 	mov	x2, #0x0                   	// #0
    9244:	38626803 	ldrb	w3, [x0, x2]
    9248:	38626824 	ldrb	w4, [x1, x2]
    924c:	34000083 	cbz	w3, 925c <strcmp+0x1c>
    9250:	91000442 	add	x2, x2, #0x1
/home/thesis/Desktop/optee_rpi3bplus/optee_os/lib/libutils/isoc/newlib/strcmp.c:99 (discriminator 1)
    9254:	6b04007f 	cmp	w3, w4
    9258:	54ffff60 	b.eq	9244 <strcmp+0x4>  // b.none
/home/thesis/Desktop/optee_rpi3bplus/optee_os/lib/libutils/isoc/newlib/strcmp.c:142
    925c:	4b040060 	sub	w0, w3, w4
    9260:	d65f03c0 	ret

0000000000009264 <__vsnprintf>:
__vsnprintf():
/home/thesis/Desktop/optee_rpi3bplus/optee_os/lib/libutils/ext/snprintk.c:137
    9264:	d10403ff 	sub	sp, sp, #0x100
    9268:	aa0203e9 	mov	x9, x2
kprintf():
/home/thesis/Desktop/optee_rpi3bplus/optee_os/lib/libutils/ext/snprintk.c:537
    926c:	910363ed 	add	x13, sp, #0xd8
__vsnprintf():
/home/thesis/Desktop/optee_rpi3bplus/optee_os/lib/libutils/ext/snprintk.c:137
    9270:	a9037bfd 	stp	x29, x30, [sp, #48]
    9274:	9100c3fd 	add	x29, sp, #0x30
    9278:	a90987e0 	stp	x0, x1, [sp, #152]
    927c:	12001c80 	and	w0, w4, #0xff
    9280:	a90453f3 	stp	x19, x20, [sp, #64]
    9284:	b9401874 	ldr	w20, [x3, #24]
    9288:	a90873fb 	stp	x27, x28, [sp, #128]
    928c:	b900afe0 	str	w0, [sp, #172]
    9290:	a9407073 	ldp	x19, x28, [x3]
    9294:	a9076bf9 	stp	x25, x26, [sp, #112]
kprintf():
/home/thesis/Desktop/optee_rpi3bplus/optee_os/lib/libutils/ext/snprintk.c:267
    9298:	5280001a 	mov	w26, #0x0                   	// #0
__vsnprintf():
/home/thesis/Desktop/optee_rpi3bplus/optee_os/lib/libutils/ext/snprintk.c:141
    929c:	f9404fe0 	ldr	x0, [sp, #152]
/home/thesis/Desktop/optee_rpi3bplus/optee_os/lib/libutils/ext/snprintk.c:137
    92a0:	a9055bf5 	stp	x21, x22, [sp, #80]
kprintf():
/home/thesis/Desktop/optee_rpi3bplus/optee_os/lib/libutils/ext/snprintk.c:269
    92a4:	d2800016 	mov	x22, #0x0                   	// #0
__vsnprintf():
/home/thesis/Desktop/optee_rpi3bplus/optee_os/lib/libutils/ext/snprintk.c:141
    92a8:	8b010019 	add	x25, x0, x1
    92ac:	aa0003fb 	mov	x27, x0
/home/thesis/Desktop/optee_rpi3bplus/optee_os/lib/libutils/ext/snprintk.c:137
    92b0:	a90663f7 	stp	x23, x24, [sp, #96]
kprintf():
/home/thesis/Desktop/optee_rpi3bplus/optee_os/lib/libutils/ext/snprintk.c:275
    92b4:	39400120 	ldrb	w0, [x9]
    92b8:	7100941f 	cmp	w0, #0x25
    92bc:	7a401804 	ccmp	w0, #0x0, #0x4, ne  // ne = any
    92c0:	540003c1 	b.ne	9338 <__vsnprintf+0xd4>  // b.any
/home/thesis/Desktop/optee_rpi3bplus/optee_os/lib/libutils/ext/snprintk.c:279
    92c4:	34005be0 	cbz	w0, 9e40 <__vsnprintf+0xbdc>
/home/thesis/Desktop/optee_rpi3bplus/optee_os/lib/libutils/ext/snprintk.c:287
    92c8:	12800003 	mov	w3, #0xffffffff            	// #-1
/home/thesis/Desktop/optee_rpi3bplus/optee_os/lib/libutils/ext/snprintk.c:282
    92cc:	91000529 	add	x9, x9, #0x1
    92d0:	2a1403e1 	mov	w1, w20
    92d4:	aa1303e0 	mov	x0, x19
/home/thesis/Desktop/optee_rpi3bplus/optee_os/lib/libutils/ext/snprintk.c:324
    92d8:	2a0303e6 	mov	w6, w3
/home/thesis/Desktop/optee_rpi3bplus/optee_os/lib/libutils/ext/snprintk.c:288
    92dc:	52800002 	mov	w2, #0x0                   	// #0
/home/thesis/Desktop/optee_rpi3bplus/optee_os/lib/libutils/ext/snprintk.c:286
    92e0:	52800017 	mov	w23, #0x0                   	// #0
/home/thesis/Desktop/optee_rpi3bplus/optee_os/lib/libutils/ext/snprintk.c:284
    92e4:	52800015 	mov	w21, #0x0                   	// #0
/home/thesis/Desktop/optee_rpi3bplus/optee_os/lib/libutils/ext/snprintk.c:299
    92e8:	52800407 	mov	w7, #0x20                  	// #32
/home/thesis/Desktop/optee_rpi3bplus/optee_os/lib/libutils/ext/snprintk.c:290
    92ec:	38401538 	ldrb	w24, [x9], #1
/home/thesis/Desktop/optee_rpi3bplus/optee_os/lib/libutils/ext/snprintk.c:291
    92f0:	71018f1f 	cmp	w24, #0x63
    92f4:	540019e0 	b.eq	9630 <__vsnprintf+0x3cc>  // b.none
    92f8:	540007ec 	b.gt	93f4 <__vsnprintf+0x190>
    92fc:	7100c31f 	cmp	w24, #0x30
    9300:	540017c0 	b.eq	95f8 <__vsnprintf+0x394>  // b.none
    9304:	5400038c 	b.gt	9374 <__vsnprintf+0x110>
    9308:	7100ab1f 	cmp	w24, #0x2a
    930c:	54001100 	b.eq	952c <__vsnprintf+0x2c8>  // b.none
    9310:	5400022c 	b.gt	9354 <__vsnprintf+0xf0>
    9314:	7100831f 	cmp	w24, #0x20
    9318:	54001000 	b.eq	9518 <__vsnprintf+0x2b4>  // b.none
    931c:	71008f1f 	cmp	w24, #0x23
    9320:	54001020 	b.eq	9524 <__vsnprintf+0x2c0>  // b.none
/home/thesis/Desktop/optee_rpi3bplus/optee_os/lib/libutils/ext/snprintk.c:541
    9324:	340058f8 	cbz	w24, 9e40 <__vsnprintf+0xbdc>
/home/thesis/Desktop/optee_rpi3bplus/optee_os/lib/libutils/ext/snprintk.c:545
    9328:	2a0103f4 	mov	w20, w1
    932c:	aa0003f3 	mov	x19, x0
    9330:	390363f8 	strb	w24, [sp, #216]
/home/thesis/Desktop/optee_rpi3bplus/optee_os/lib/libutils/ext/snprintk.c:548
    9334:	140000c5 	b	9648 <__vsnprintf+0x3e4>
/home/thesis/Desktop/optee_rpi3bplus/optee_os/lib/libutils/ext/snprintk.c:276
    9338:	1100075a 	add	w26, w26, #0x1
/home/thesis/Desktop/optee_rpi3bplus/optee_os/lib/libutils/ext/snprintk.c:277
    933c:	b400009b 	cbz	x27, 934c <__vsnprintf+0xe8>
    9340:	eb1b033f 	cmp	x25, x27
    9344:	54000049 	b.ls	934c <__vsnprintf+0xe8>  // b.plast
    9348:	38001760 	strb	w0, [x27], #1
/home/thesis/Desktop/optee_rpi3bplus/optee_os/lib/libutils/ext/snprintk.c:275
    934c:	91000529 	add	x9, x9, #0x1
    9350:	17ffffd9 	b	92b4 <__vsnprintf+0x50>
/home/thesis/Desktop/optee_rpi3bplus/optee_os/lib/libutils/ext/snprintk.c:291
    9354:	7100b71f 	cmp	w24, #0x2d
    9358:	54000f80 	b.eq	9548 <__vsnprintf+0x2e4>  // b.none
    935c:	7100bb1f 	cmp	w24, #0x2e
    9360:	540010e0 	b.eq	957c <__vsnprintf+0x318>  // b.none
    9364:	7100af1f 	cmp	w24, #0x2b
    9368:	54fffde1 	b.ne	9324 <__vsnprintf+0xc0>  // b.any
/home/thesis/Desktop/optee_rpi3bplus/optee_os/lib/libutils/ext/snprintk.c:319
    936c:	2a1803e2 	mov	w2, w24
    9370:	17ffffdf 	b	92ec <__vsnprintf+0x88>
/home/thesis/Desktop/optee_rpi3bplus/optee_os/lib/libutils/ext/snprintk.c:291
    9374:	7101131f 	cmp	w24, #0x44
    9378:	54001840 	b.eq	9680 <__vsnprintf+0x41c>  // b.none
    937c:	5400018c 	b.gt	93ac <__vsnprintf+0x148>
    9380:	7100e71f 	cmp	w24, #0x39
    9384:	54fffd0c 	b.gt	9324 <__vsnprintf+0xc0>
/home/thesis/Desktop/optee_rpi3bplus/optee_os/lib/libutils/ext/snprintk.c:344
    9388:	52800017 	mov	w23, #0x0                   	// #0
/home/thesis/Desktop/optee_rpi3bplus/optee_os/lib/libutils/ext/snprintk.c:346
    938c:	5100c308 	sub	w8, w24, #0x30
    9390:	52800144 	mov	w4, #0xa                   	// #10
/home/thesis/Desktop/optee_rpi3bplus/optee_os/lib/libutils/ext/snprintk.c:347
    9394:	38401538 	ldrb	w24, [x9], #1
/home/thesis/Desktop/optee_rpi3bplus/optee_os/lib/libutils/ext/snprintk.c:346
    9398:	1b0422f7 	madd	w23, w23, w4, w8
/home/thesis/Desktop/optee_rpi3bplus/optee_os/lib/libutils/ext/snprintk.c:348
    939c:	5100c304 	sub	w4, w24, #0x30
    93a0:	7100249f 	cmp	w4, #0x9
    93a4:	54ffff49 	b.ls	938c <__vsnprintf+0x128>  // b.plast
    93a8:	17ffffd2 	b	92f0 <__vsnprintf+0x8c>
/home/thesis/Desktop/optee_rpi3bplus/optee_os/lib/libutils/ext/snprintk.c:291
    93ac:	7101571f 	cmp	w24, #0x55
    93b0:	54003e20 	b.eq	9b74 <__vsnprintf+0x910>  // b.none
    93b4:	7101631f 	cmp	w24, #0x58
    93b8:	540043a0 	b.eq	9c2c <__vsnprintf+0x9c8>  // b.none
    93bc:	71013f1f 	cmp	w24, #0x4f
    93c0:	54fffb21 	b.ne	9324 <__vsnprintf+0xc0>  // b.any
/home/thesis/Desktop/optee_rpi3bplus/optee_os/lib/libutils/ext/snprintk.c:408
    93c4:	321c02b5 	orr	w21, w21, #0x10
/home/thesis/Desktop/optee_rpi3bplus/optee_os/lib/libutils/ext/snprintk.c:411
    93c8:	36382675 	tbz	w21, #7, 9894 <__vsnprintf+0x630>
    93cc:	37f827a1 	tbnz	w1, #31, 98c0 <__vsnprintf+0x65c>
    93d0:	91003c13 	add	x19, x0, #0xf
    93d4:	2a0103f4 	mov	w20, w1
    93d8:	927df273 	and	x19, x19, #0xfffffffffffffff8
    93dc:	f9400000 	ldr	x0, [x0]
/home/thesis/Desktop/optee_rpi3bplus/optee_os/lib/libutils/ext/snprintk.c:488
    93e0:	52800002 	mov	w2, #0x0                   	// #0
    93e4:	3100047f 	cmn	w3, #0x1
    93e8:	540016e0 	b.eq	96c4 <__vsnprintf+0x460>  // b.none
    93ec:	52800001 	mov	w1, #0x0                   	// #0
    93f0:	1400024e 	b	9d28 <__vsnprintf+0xac4>
/home/thesis/Desktop/optee_rpi3bplus/optee_os/lib/libutils/ext/snprintk.c:291
    93f4:	7101bf1f 	cmp	w24, #0x6f
    93f8:	54fffe80 	b.eq	93c8 <__vsnprintf+0x164>  // b.none
    93fc:	5400024c 	b.gt	9444 <__vsnprintf+0x1e0>
    9400:	7101a71f 	cmp	w24, #0x69
    9404:	54001400 	b.eq	9684 <__vsnprintf+0x420>  // b.none
    9408:	540000ec 	b.gt	9424 <__vsnprintf+0x1c0>
    940c:	7101931f 	cmp	w24, #0x64
    9410:	540013a0 	b.eq	9684 <__vsnprintf+0x420>  // b.none
    9414:	7101a31f 	cmp	w24, #0x68
    9418:	54fff861 	b.ne	9324 <__vsnprintf+0xc0>  // b.any
/home/thesis/Desktop/optee_rpi3bplus/optee_os/lib/libutils/ext/snprintk.c:352
    941c:	321a02b5 	orr	w21, w21, #0x40
/home/thesis/Desktop/optee_rpi3bplus/optee_os/lib/libutils/ext/snprintk.c:353
    9420:	17ffffb3 	b	92ec <__vsnprintf+0x88>
/home/thesis/Desktop/optee_rpi3bplus/optee_os/lib/libutils/ext/snprintk.c:291
    9424:	7101b31f 	cmp	w24, #0x6c
    9428:	54000ec0 	b.eq	9600 <__vsnprintf+0x39c>  // b.none
    942c:	7101bb1f 	cmp	w24, #0x6e
    9430:	54001c40 	b.eq	97b8 <__vsnprintf+0x554>  // b.none
    9434:	7101ab1f 	cmp	w24, #0x6a
    9438:	54fff761 	b.ne	9324 <__vsnprintf+0xc0>  // b.any
/home/thesis/Desktop/optee_rpi3bplus/optee_os/lib/libutils/ext/snprintk.c:355
    943c:	321902b5 	orr	w21, w21, #0x80
/home/thesis/Desktop/optee_rpi3bplus/optee_os/lib/libutils/ext/snprintk.c:356
    9440:	17ffffab 	b	92ec <__vsnprintf+0x88>
/home/thesis/Desktop/optee_rpi3bplus/optee_os/lib/libutils/ext/snprintk.c:291
    9444:	7101d31f 	cmp	w24, #0x74
    9448:	54000ec0 	b.eq	9620 <__vsnprintf+0x3bc>  // b.none
    944c:	5400042c 	b.gt	94d0 <__vsnprintf+0x26c>
    9450:	7101c71f 	cmp	w24, #0x71
    9454:	54000de0 	b.eq	9610 <__vsnprintf+0x3ac>  // b.none
    9458:	5400276b 	b.lt	9944 <__vsnprintf+0x6e0>  // b.tstop
    945c:	7101cf1f 	cmp	w24, #0x73
    9460:	54fff621 	b.ne	9324 <__vsnprintf+0xc0>  // b.any
/home/thesis/Desktop/optee_rpi3bplus/optee_os/lib/libutils/ext/snprintk.c:442
    9464:	37f83621 	tbnz	w1, #31, 9b28 <__vsnprintf+0x8c4>
    9468:	91003c13 	add	x19, x0, #0xf
    946c:	2a0103f4 	mov	w20, w1
    9470:	927df273 	and	x19, x19, #0xfffffffffffffff8
    9474:	f9400004 	ldr	x4, [x0]
    9478:	b5000064 	cbnz	x4, 9484 <__vsnprintf+0x220>
/home/thesis/Desktop/optee_rpi3bplus/optee_os/lib/libutils/ext/snprintk.c:444
    947c:	90000024 	adrp	x4, d000 <primes+0x378>
    9480:	913cdc84 	add	x4, x4, #0xf37
/home/thesis/Desktop/optee_rpi3bplus/optee_os/lib/libutils/ext/snprintk.c:445
    9484:	3100047f 	cmn	w3, #0x1
    9488:	54003620 	b.eq	9b4c <__vsnprintf+0x8e8>  // b.none
/home/thesis/Desktop/optee_rpi3bplus/optee_os/lib/libutils/ext/snprintk.c:451
    948c:	93407c62 	sxtw	x2, w3
    9490:	aa0403e0 	mov	x0, x4
    9494:	52800001 	mov	w1, #0x0                   	// #0
    9498:	f9005be4 	str	x4, [sp, #176]
    949c:	b900bbe3 	str	w3, [sp, #184]
    94a0:	a90c37e9 	stp	x9, x13, [sp, #192]
    94a4:	940003cf 	bl	a3e0 <memchr>
/home/thesis/Desktop/optee_rpi3bplus/optee_os/lib/libutils/ext/snprintk.c:453
    94a8:	b940bbe3 	ldr	w3, [sp, #184]
    94ac:	f9405be4 	ldr	x4, [sp, #176]
    94b0:	a94c37e9 	ldp	x9, x13, [sp, #192]
    94b4:	b4000080 	cbz	x0, 94c4 <__vsnprintf+0x260>
/home/thesis/Desktop/optee_rpi3bplus/optee_os/lib/libutils/ext/snprintk.c:454
    94b8:	cb040000 	sub	x0, x0, x4
    94bc:	6b00007f 	cmp	w3, w0
    94c0:	1a80d063 	csel	w3, w3, w0, le
/home/thesis/Desktop/optee_rpi3bplus/optee_os/lib/libutils/ext/snprintk.c:285
    94c4:	52800001 	mov	w1, #0x0                   	// #0
/home/thesis/Desktop/optee_rpi3bplus/optee_os/lib/libutils/ext/snprintk.c:461
    94c8:	52800002 	mov	w2, #0x0                   	// #0
    94cc:	14000148 	b	99ec <__vsnprintf+0x788>
/home/thesis/Desktop/optee_rpi3bplus/optee_os/lib/libutils/ext/snprintk.c:291
    94d0:	7101e31f 	cmp	w24, #0x78
    94d4:	54003ca0 	b.eq	9c68 <__vsnprintf+0xa04>  // b.none
    94d8:	7101eb1f 	cmp	w24, #0x7a
    94dc:	54000a60 	b.eq	9628 <__vsnprintf+0x3c4>  // b.none
    94e0:	7101d71f 	cmp	w24, #0x75
    94e4:	54fff201 	b.ne	9324 <__vsnprintf+0xc0>  // b.any
/home/thesis/Desktop/optee_rpi3bplus/optee_os/lib/libutils/ext/snprintk.c:467
    94e8:	363834b5 	tbz	w21, #7, 9b7c <__vsnprintf+0x918>
    94ec:	37f835e1 	tbnz	w1, #31, 9ba8 <__vsnprintf+0x944>
    94f0:	91003c13 	add	x19, x0, #0xf
    94f4:	2a0103f4 	mov	w20, w1
    94f8:	927df273 	and	x19, x19, #0xfffffffffffffff8
    94fc:	f9400000 	ldr	x0, [x0]
/home/thesis/Desktop/optee_rpi3bplus/optee_os/lib/libutils/ext/snprintk.c:482
    9500:	52800002 	mov	w2, #0x0                   	// #0
/home/thesis/Desktop/optee_rpi3bplus/optee_os/lib/libutils/ext/snprintk.c:488
    9504:	3100047f 	cmn	w3, #0x1
    9508:	540041e1 	b.ne	9d44 <__vsnprintf+0xae0>  // b.any
/home/thesis/Desktop/optee_rpi3bplus/optee_os/lib/libutils/ext/snprintk.c:508
    950c:	910095a1 	add	x1, x13, #0x25
/home/thesis/Desktop/optee_rpi3bplus/optee_os/lib/libutils/ext/snprintk.c:517
    9510:	d2800145 	mov	x5, #0xa                   	// #10
    9514:	14000216 	b	9d6c <__vsnprintf+0xb08>
/home/thesis/Desktop/optee_rpi3bplus/optee_os/lib/libutils/ext/snprintk.c:299
    9518:	7100005f 	cmp	w2, #0x0
    951c:	1a871042 	csel	w2, w2, w7, ne  // ne = any
    9520:	17ffff73 	b	92ec <__vsnprintf+0x88>
/home/thesis/Desktop/optee_rpi3bplus/optee_os/lib/libutils/ext/snprintk.c:302
    9524:	320002b5 	orr	w21, w21, #0x1
/home/thesis/Desktop/optee_rpi3bplus/optee_os/lib/libutils/ext/snprintk.c:303
    9528:	17ffff71 	b	92ec <__vsnprintf+0x88>
/home/thesis/Desktop/optee_rpi3bplus/optee_os/lib/libutils/ext/snprintk.c:311
    952c:	37f80121 	tbnz	w1, #31, 9550 <__vsnprintf+0x2ec>
    9530:	91002c05 	add	x5, x0, #0xb
    9534:	aa0003e4 	mov	x4, x0
    9538:	927df0a0 	and	x0, x5, #0xfffffffffffffff8
    953c:	b9400097 	ldr	w23, [x4]
    9540:	36ffed77 	tbz	w23, #31, 92ec <__vsnprintf+0x88>
/home/thesis/Desktop/optee_rpi3bplus/optee_os/lib/libutils/ext/snprintk.c:313
    9544:	4b1703f7 	neg	w23, w23
/home/thesis/Desktop/optee_rpi3bplus/optee_os/lib/libutils/ext/snprintk.c:316
    9548:	321e02b5 	orr	w21, w21, #0x4
/home/thesis/Desktop/optee_rpi3bplus/optee_os/lib/libutils/ext/snprintk.c:317
    954c:	17ffff68 	b	92ec <__vsnprintf+0x88>
/home/thesis/Desktop/optee_rpi3bplus/optee_os/lib/libutils/ext/snprintk.c:311
    9550:	11002025 	add	w5, w1, #0x8
    9554:	710000bf 	cmp	w5, #0x0
    9558:	540000cd 	b.le	9570 <__vsnprintf+0x30c>
    955c:	91002c08 	add	x8, x0, #0xb
    9560:	aa0003e4 	mov	x4, x0
    9564:	2a0503e1 	mov	w1, w5
    9568:	927df100 	and	x0, x8, #0xfffffffffffffff8
    956c:	17fffff4 	b	953c <__vsnprintf+0x2d8>
    9570:	8b21c384 	add	x4, x28, w1, sxtw
    9574:	2a0503e1 	mov	w1, w5
    9578:	17fffff1 	b	953c <__vsnprintf+0x2d8>
/home/thesis/Desktop/optee_rpi3bplus/optee_os/lib/libutils/ext/snprintk.c:322
    957c:	38401538 	ldrb	w24, [x9], #1
    9580:	7100ab1f 	cmp	w24, #0x2a
    9584:	54000361 	b.ne	95f0 <__vsnprintf+0x38c>  // b.any
/home/thesis/Desktop/optee_rpi3bplus/optee_os/lib/libutils/ext/snprintk.c:323
    9588:	37f80141 	tbnz	w1, #31, 95b0 <__vsnprintf+0x34c>
    958c:	91002c04 	add	x4, x0, #0xb
    9590:	2a0103e5 	mov	w5, w1
    9594:	927df084 	and	x4, x4, #0xfffffffffffffff8
/home/thesis/Desktop/optee_rpi3bplus/optee_os/lib/libutils/ext/snprintk.c:324
    9598:	b9400003 	ldr	w3, [x0]
    959c:	2a0503e1 	mov	w1, w5
    95a0:	aa0403e0 	mov	x0, x4
    95a4:	7100007f 	cmp	w3, #0x0
    95a8:	1a86a063 	csel	w3, w3, w6, ge  // ge = tcont
/home/thesis/Desktop/optee_rpi3bplus/optee_os/lib/libutils/ext/snprintk.c:325
    95ac:	17ffff50 	b	92ec <__vsnprintf+0x88>
/home/thesis/Desktop/optee_rpi3bplus/optee_os/lib/libutils/ext/snprintk.c:323
    95b0:	11002025 	add	w5, w1, #0x8
    95b4:	710000bf 	cmp	w5, #0x0
    95b8:	5400008d 	b.le	95c8 <__vsnprintf+0x364>
    95bc:	91002c04 	add	x4, x0, #0xb
    95c0:	927df084 	and	x4, x4, #0xfffffffffffffff8
    95c4:	17fffff5 	b	9598 <__vsnprintf+0x334>
    95c8:	aa0003e4 	mov	x4, x0
    95cc:	8b21c380 	add	x0, x28, w1, sxtw
    95d0:	17fffff2 	b	9598 <__vsnprintf+0x334>
/home/thesis/Desktop/optee_rpi3bplus/optee_os/lib/libutils/ext/snprintk.c:329
    95d4:	52800145 	mov	w5, #0xa                   	// #10
/home/thesis/Desktop/optee_rpi3bplus/optee_os/lib/libutils/ext/snprintk.c:330
    95d8:	38401538 	ldrb	w24, [x9], #1
/home/thesis/Desktop/optee_rpi3bplus/optee_os/lib/libutils/ext/snprintk.c:329
    95dc:	1b051063 	madd	w3, w3, w5, w4
/home/thesis/Desktop/optee_rpi3bplus/optee_os/lib/libutils/ext/snprintk.c:328
    95e0:	5100c304 	sub	w4, w24, #0x30
    95e4:	7100249f 	cmp	w4, #0x9
    95e8:	54ffff69 	b.ls	95d4 <__vsnprintf+0x370>  // b.plast
    95ec:	17ffff41 	b	92f0 <__vsnprintf+0x8c>
/home/thesis/Desktop/optee_rpi3bplus/optee_os/lib/libutils/ext/snprintk.c:327
    95f0:	52800003 	mov	w3, #0x0                   	// #0
    95f4:	17fffffb 	b	95e0 <__vsnprintf+0x37c>
/home/thesis/Desktop/optee_rpi3bplus/optee_os/lib/libutils/ext/snprintk.c:340
    95f8:	321602b5 	orr	w21, w21, #0x400
/home/thesis/Desktop/optee_rpi3bplus/optee_os/lib/libutils/ext/snprintk.c:341
    95fc:	17ffff3c 	b	92ec <__vsnprintf+0x88>
/home/thesis/Desktop/optee_rpi3bplus/optee_os/lib/libutils/ext/snprintk.c:358
    9600:	39400124 	ldrb	w4, [x9]
    9604:	7101b09f 	cmp	w4, #0x6c
    9608:	54000081 	b.ne	9618 <__vsnprintf+0x3b4>  // b.any
    960c:	91000529 	add	x9, x9, #0x1
/home/thesis/Desktop/optee_rpi3bplus/optee_os/lib/libutils/ext/snprintk.c:366
    9610:	321b02b5 	orr	w21, w21, #0x20
/home/thesis/Desktop/optee_rpi3bplus/optee_os/lib/libutils/ext/snprintk.c:367
    9614:	17ffff36 	b	92ec <__vsnprintf+0x88>
/home/thesis/Desktop/optee_rpi3bplus/optee_os/lib/libutils/ext/snprintk.c:362
    9618:	321c02b5 	orr	w21, w21, #0x10
    961c:	17ffff34 	b	92ec <__vsnprintf+0x88>
/home/thesis/Desktop/optee_rpi3bplus/optee_os/lib/libutils/ext/snprintk.c:369
    9620:	321802b5 	orr	w21, w21, #0x100
/home/thesis/Desktop/optee_rpi3bplus/optee_os/lib/libutils/ext/snprintk.c:370
    9624:	17ffff32 	b	92ec <__vsnprintf+0x88>
/home/thesis/Desktop/optee_rpi3bplus/optee_os/lib/libutils/ext/snprintk.c:372
    9628:	321702b5 	orr	w21, w21, #0x200
/home/thesis/Desktop/optee_rpi3bplus/optee_os/lib/libutils/ext/snprintk.c:373
    962c:	17ffff30 	b	92ec <__vsnprintf+0x88>
/home/thesis/Desktop/optee_rpi3bplus/optee_os/lib/libutils/ext/snprintk.c:375
    9630:	37f80161 	tbnz	w1, #31, 965c <__vsnprintf+0x3f8>
    9634:	91002c13 	add	x19, x0, #0xb
    9638:	2a0103f4 	mov	w20, w1
    963c:	927df273 	and	x19, x19, #0xfffffffffffffff8
    9640:	b9400000 	ldr	w0, [x0]
    9644:	390363e0 	strb	w0, [sp, #216]
/home/thesis/Desktop/optee_rpi3bplus/optee_os/lib/libutils/ext/snprintk.c:546
    9648:	52800023 	mov	w3, #0x1                   	// #1
/home/thesis/Desktop/optee_rpi3bplus/optee_os/lib/libutils/ext/snprintk.c:285
    964c:	52800001 	mov	w1, #0x0                   	// #0
/home/thesis/Desktop/optee_rpi3bplus/optee_os/lib/libutils/ext/snprintk.c:547
    9650:	52800002 	mov	w2, #0x0                   	// #0
/home/thesis/Desktop/optee_rpi3bplus/optee_os/lib/libutils/ext/snprintk.c:544
    9654:	910363e4 	add	x4, sp, #0xd8
    9658:	140000e5 	b	99ec <__vsnprintf+0x788>
/home/thesis/Desktop/optee_rpi3bplus/optee_os/lib/libutils/ext/snprintk.c:375
    965c:	11002034 	add	w20, w1, #0x8
    9660:	7100029f 	cmp	w20, #0x0
    9664:	5400008d 	b.le	9674 <__vsnprintf+0x410>
    9668:	91002c13 	add	x19, x0, #0xb
    966c:	927df273 	and	x19, x19, #0xfffffffffffffff8
    9670:	17fffff4 	b	9640 <__vsnprintf+0x3dc>
    9674:	aa0003f3 	mov	x19, x0
    9678:	8b21c380 	add	x0, x28, w1, sxtw
    967c:	17fffff1 	b	9640 <__vsnprintf+0x3dc>
/home/thesis/Desktop/optee_rpi3bplus/optee_os/lib/libutils/ext/snprintk.c:380
    9680:	321c02b5 	orr	w21, w21, #0x10
/home/thesis/Desktop/optee_rpi3bplus/optee_os/lib/libutils/ext/snprintk.c:384
    9684:	36380435 	tbz	w21, #7, 9708 <__vsnprintf+0x4a4>
    9688:	37f80561 	tbnz	w1, #31, 9734 <__vsnprintf+0x4d0>
    968c:	91003c13 	add	x19, x0, #0xf
    9690:	2a0103f4 	mov	w20, w1
    9694:	927df273 	and	x19, x19, #0xfffffffffffffff8
    9698:	f9400000 	ldr	x0, [x0]
/home/thesis/Desktop/optee_rpi3bplus/optee_os/lib/libutils/ext/snprintk.c:385
    969c:	b6fff340 	tbz	x0, #63, 9504 <__vsnprintf+0x2a0>
/home/thesis/Desktop/optee_rpi3bplus/optee_os/lib/libutils/ext/snprintk.c:386
    96a0:	cb0003e0 	neg	x0, x0
/home/thesis/Desktop/optee_rpi3bplus/optee_os/lib/libutils/ext/snprintk.c:389
    96a4:	52800021 	mov	w1, #0x1                   	// #1
/home/thesis/Desktop/optee_rpi3bplus/optee_os/lib/libutils/ext/snprintk.c:387
    96a8:	528005a2 	mov	w2, #0x2d                  	// #45
/home/thesis/Desktop/optee_rpi3bplus/optee_os/lib/libutils/ext/snprintk.c:488
    96ac:	3100047f 	cmn	w3, #0x1
    96b0:	540033c1 	b.ne	9d28 <__vsnprintf+0xac4>  // b.any
/home/thesis/Desktop/optee_rpi3bplus/optee_os/lib/libutils/ext/snprintk.c:503
    96b4:	7100043f 	cmp	w1, #0x1
    96b8:	54fff2a0 	b.eq	950c <__vsnprintf+0x2a8>  // b.none
    96bc:	7100083f 	cmp	w1, #0x2
    96c0:	54002140 	b.eq	9ae8 <__vsnprintf+0x884>  // b.none
/home/thesis/Desktop/optee_rpi3bplus/optee_os/lib/libutils/ext/snprintk.c:488
    96c4:	910095a1 	add	x1, x13, #0x25
/home/thesis/Desktop/optee_rpi3bplus/optee_os/lib/libutils/ext/snprintk.c:506
    96c8:	12000805 	and	w5, w0, #0x7
    96cc:	d1000424 	sub	x4, x1, #0x1
    96d0:	1100c0a5 	add	w5, w5, #0x30
    96d4:	381ff025 	sturb	w5, [x1, #-1]
/home/thesis/Desktop/optee_rpi3bplus/optee_os/lib/libutils/ext/snprintk.c:507
    96d8:	d343fc00 	lsr	x0, x0, #3
/home/thesis/Desktop/optee_rpi3bplus/optee_os/lib/libutils/ext/snprintk.c:508
    96dc:	b5003380 	cbnz	x0, 9d4c <__vsnprintf+0xae8>
/home/thesis/Desktop/optee_rpi3bplus/optee_os/lib/libutils/ext/snprintk.c:510
    96e0:	360000d5 	tbz	w21, #0, 96f8 <__vsnprintf+0x494>
    96e4:	7100c0bf 	cmp	w5, #0x30
    96e8:	54000080 	b.eq	96f8 <__vsnprintf+0x494>  // b.none
/home/thesis/Desktop/optee_rpi3bplus/optee_os/lib/libutils/ext/snprintk.c:511
    96ec:	52800600 	mov	w0, #0x30                  	// #48
    96f0:	381ff080 	sturb	w0, [x4, #-1]
    96f4:	d1000824 	sub	x4, x1, #0x2
/home/thesis/Desktop/optee_rpi3bplus/optee_os/lib/libutils/ext/snprintk.c:537
    96f8:	910095a0 	add	x0, x13, #0x25
    96fc:	2a0303e1 	mov	w1, w3
    9700:	4b040003 	sub	w3, w0, w4
    9704:	140000ba 	b	99ec <__vsnprintf+0x788>
/home/thesis/Desktop/optee_rpi3bplus/optee_os/lib/libutils/ext/snprintk.c:384
    9708:	3747fc15 	tbnz	w21, #8, 9688 <__vsnprintf+0x424>
    970c:	374ffbf5 	tbnz	w21, #9, 9688 <__vsnprintf+0x424>
    9710:	372ffbd5 	tbnz	w21, #5, 9688 <__vsnprintf+0x424>
    9714:	3727fbb5 	tbnz	w21, #4, 9688 <__vsnprintf+0x424>
    9718:	36300335 	tbz	w21, #6, 977c <__vsnprintf+0x518>
    971c:	37f801e1 	tbnz	w1, #31, 9758 <__vsnprintf+0x4f4>
    9720:	91002c13 	add	x19, x0, #0xb
    9724:	2a0103f4 	mov	w20, w1
    9728:	927df273 	and	x19, x19, #0xfffffffffffffff8
    972c:	79800000 	ldrsh	x0, [x0]
    9730:	17ffffdb 	b	969c <__vsnprintf+0x438>
    9734:	11002034 	add	w20, w1, #0x8
    9738:	7100029f 	cmp	w20, #0x0
    973c:	5400008d 	b.le	974c <__vsnprintf+0x4e8>
    9740:	91003c13 	add	x19, x0, #0xf
    9744:	927df273 	and	x19, x19, #0xfffffffffffffff8
    9748:	17ffffd4 	b	9698 <__vsnprintf+0x434>
    974c:	aa0003f3 	mov	x19, x0
    9750:	8b21c380 	add	x0, x28, w1, sxtw
    9754:	17ffffd1 	b	9698 <__vsnprintf+0x434>
    9758:	11002034 	add	w20, w1, #0x8
    975c:	7100029f 	cmp	w20, #0x0
    9760:	5400008d 	b.le	9770 <__vsnprintf+0x50c>
    9764:	91002c13 	add	x19, x0, #0xb
    9768:	927df273 	and	x19, x19, #0xfffffffffffffff8
    976c:	17fffff0 	b	972c <__vsnprintf+0x4c8>
    9770:	aa0003f3 	mov	x19, x0
    9774:	8b21c380 	add	x0, x28, w1, sxtw
    9778:	17ffffed 	b	972c <__vsnprintf+0x4c8>
    977c:	37f800c1 	tbnz	w1, #31, 9794 <__vsnprintf+0x530>
    9780:	91002c13 	add	x19, x0, #0xb
    9784:	2a0103f4 	mov	w20, w1
    9788:	927df273 	and	x19, x19, #0xfffffffffffffff8
    978c:	b9800000 	ldrsw	x0, [x0]
    9790:	17ffffc3 	b	969c <__vsnprintf+0x438>
    9794:	11002034 	add	w20, w1, #0x8
    9798:	7100029f 	cmp	w20, #0x0
    979c:	5400008d 	b.le	97ac <__vsnprintf+0x548>
    97a0:	91002c13 	add	x19, x0, #0xb
    97a4:	927df273 	and	x19, x19, #0xfffffffffffffff8
    97a8:	17fffff9 	b	978c <__vsnprintf+0x528>
    97ac:	aa0003f3 	mov	x19, x0
    97b0:	8b21c380 	add	x0, x28, w1, sxtw
    97b4:	17fffff6 	b	978c <__vsnprintf+0x528>
/home/thesis/Desktop/optee_rpi3bplus/optee_os/lib/libutils/ext/snprintk.c:392
    97b8:	36380135 	tbz	w21, #7, 97dc <__vsnprintf+0x578>
/home/thesis/Desktop/optee_rpi3bplus/optee_os/lib/libutils/ext/snprintk.c:401
    97bc:	37f80281 	tbnz	w1, #31, 980c <__vsnprintf+0x5a8>
    97c0:	91003c13 	add	x19, x0, #0xf
    97c4:	2a0103f4 	mov	w20, w1
    97c8:	927df273 	and	x19, x19, #0xfffffffffffffff8
    97cc:	f9400000 	ldr	x0, [x0]
    97d0:	93407f41 	sxtw	x1, w26
    97d4:	f9000001 	str	x1, [x0]
    97d8:	17fffeb7 	b	92b4 <__vsnprintf+0x50>
/home/thesis/Desktop/optee_rpi3bplus/optee_os/lib/libutils/ext/snprintk.c:394
    97dc:	3747ff15 	tbnz	w21, #8, 97bc <__vsnprintf+0x558>
/home/thesis/Desktop/optee_rpi3bplus/optee_os/lib/libutils/ext/snprintk.c:396
    97e0:	374ffef5 	tbnz	w21, #9, 97bc <__vsnprintf+0x558>
/home/thesis/Desktop/optee_rpi3bplus/optee_os/lib/libutils/ext/snprintk.c:398
    97e4:	372ffed5 	tbnz	w21, #5, 97bc <__vsnprintf+0x558>
/home/thesis/Desktop/optee_rpi3bplus/optee_os/lib/libutils/ext/snprintk.c:400
    97e8:	3727feb5 	tbnz	w21, #4, 97bc <__vsnprintf+0x558>
/home/thesis/Desktop/optee_rpi3bplus/optee_os/lib/libutils/ext/snprintk.c:402
    97ec:	36300355 	tbz	w21, #6, 9854 <__vsnprintf+0x5f0>
/home/thesis/Desktop/optee_rpi3bplus/optee_os/lib/libutils/ext/snprintk.c:403
    97f0:	37f80201 	tbnz	w1, #31, 9830 <__vsnprintf+0x5cc>
    97f4:	91003c13 	add	x19, x0, #0xf
    97f8:	2a0103f4 	mov	w20, w1
    97fc:	927df273 	and	x19, x19, #0xfffffffffffffff8
    9800:	f9400000 	ldr	x0, [x0]
    9804:	7900001a 	strh	w26, [x0]
    9808:	17fffeab 	b	92b4 <__vsnprintf+0x50>
/home/thesis/Desktop/optee_rpi3bplus/optee_os/lib/libutils/ext/snprintk.c:401
    980c:	11002034 	add	w20, w1, #0x8
    9810:	7100029f 	cmp	w20, #0x0
    9814:	5400008d 	b.le	9824 <__vsnprintf+0x5c0>
    9818:	91003c13 	add	x19, x0, #0xf
    981c:	927df273 	and	x19, x19, #0xfffffffffffffff8
    9820:	17ffffeb 	b	97cc <__vsnprintf+0x568>
    9824:	aa0003f3 	mov	x19, x0
    9828:	8b21c380 	add	x0, x28, w1, sxtw
    982c:	17ffffe8 	b	97cc <__vsnprintf+0x568>
/home/thesis/Desktop/optee_rpi3bplus/optee_os/lib/libutils/ext/snprintk.c:403
    9830:	11002034 	add	w20, w1, #0x8
    9834:	7100029f 	cmp	w20, #0x0
    9838:	5400008d 	b.le	9848 <__vsnprintf+0x5e4>
    983c:	91003c13 	add	x19, x0, #0xf
    9840:	927df273 	and	x19, x19, #0xfffffffffffffff8
    9844:	17ffffef 	b	9800 <__vsnprintf+0x59c>
    9848:	aa0003f3 	mov	x19, x0
    984c:	8b21c380 	add	x0, x28, w1, sxtw
    9850:	17ffffec 	b	9800 <__vsnprintf+0x59c>
/home/thesis/Desktop/optee_rpi3bplus/optee_os/lib/libutils/ext/snprintk.c:405
    9854:	37f800e1 	tbnz	w1, #31, 9870 <__vsnprintf+0x60c>
    9858:	91003c13 	add	x19, x0, #0xf
    985c:	2a0103f4 	mov	w20, w1
    9860:	927df273 	and	x19, x19, #0xfffffffffffffff8
    9864:	f9400000 	ldr	x0, [x0]
    9868:	b900001a 	str	w26, [x0]
    986c:	17fffe92 	b	92b4 <__vsnprintf+0x50>
    9870:	11002034 	add	w20, w1, #0x8
    9874:	7100029f 	cmp	w20, #0x0
    9878:	5400008d 	b.le	9888 <__vsnprintf+0x624>
    987c:	91003c13 	add	x19, x0, #0xf
    9880:	927df273 	and	x19, x19, #0xfffffffffffffff8
    9884:	17fffff8 	b	9864 <__vsnprintf+0x600>
    9888:	aa0003f3 	mov	x19, x0
    988c:	8b21c380 	add	x0, x28, w1, sxtw
    9890:	17fffff5 	b	9864 <__vsnprintf+0x600>
/home/thesis/Desktop/optee_rpi3bplus/optee_os/lib/libutils/ext/snprintk.c:411
    9894:	3747d9d5 	tbnz	w21, #8, 93cc <__vsnprintf+0x168>
    9898:	374fd9b5 	tbnz	w21, #9, 93cc <__vsnprintf+0x168>
    989c:	372fd995 	tbnz	w21, #5, 93cc <__vsnprintf+0x168>
    98a0:	3727d975 	tbnz	w21, #4, 93cc <__vsnprintf+0x168>
    98a4:	36300335 	tbz	w21, #6, 9908 <__vsnprintf+0x6a4>
    98a8:	37f801e1 	tbnz	w1, #31, 98e4 <__vsnprintf+0x680>
    98ac:	91002c13 	add	x19, x0, #0xb
    98b0:	2a0103f4 	mov	w20, w1
    98b4:	927df273 	and	x19, x19, #0xfffffffffffffff8
    98b8:	79400000 	ldrh	w0, [x0]
    98bc:	17fffec9 	b	93e0 <__vsnprintf+0x17c>
    98c0:	11002034 	add	w20, w1, #0x8
    98c4:	7100029f 	cmp	w20, #0x0
    98c8:	5400008d 	b.le	98d8 <__vsnprintf+0x674>
    98cc:	91003c13 	add	x19, x0, #0xf
    98d0:	927df273 	and	x19, x19, #0xfffffffffffffff8
    98d4:	17fffec2 	b	93dc <__vsnprintf+0x178>
    98d8:	aa0003f3 	mov	x19, x0
    98dc:	8b21c380 	add	x0, x28, w1, sxtw
    98e0:	17fffebf 	b	93dc <__vsnprintf+0x178>
    98e4:	11002034 	add	w20, w1, #0x8
    98e8:	7100029f 	cmp	w20, #0x0
    98ec:	5400008d 	b.le	98fc <__vsnprintf+0x698>
    98f0:	91002c13 	add	x19, x0, #0xb
    98f4:	927df273 	and	x19, x19, #0xfffffffffffffff8
    98f8:	17fffff0 	b	98b8 <__vsnprintf+0x654>
    98fc:	aa0003f3 	mov	x19, x0
    9900:	8b21c380 	add	x0, x28, w1, sxtw
    9904:	17ffffed 	b	98b8 <__vsnprintf+0x654>
    9908:	37f800c1 	tbnz	w1, #31, 9920 <__vsnprintf+0x6bc>
    990c:	91002c13 	add	x19, x0, #0xb
    9910:	2a0103f4 	mov	w20, w1
    9914:	927df273 	and	x19, x19, #0xfffffffffffffff8
    9918:	b9400000 	ldr	w0, [x0]
    991c:	17fffeb1 	b	93e0 <__vsnprintf+0x17c>
    9920:	11002034 	add	w20, w1, #0x8
    9924:	7100029f 	cmp	w20, #0x0
    9928:	5400008d 	b.le	9938 <__vsnprintf+0x6d4>
    992c:	91002c13 	add	x19, x0, #0xb
    9930:	927df273 	and	x19, x19, #0xfffffffffffffff8
    9934:	17fffff9 	b	9918 <__vsnprintf+0x6b4>
    9938:	aa0003f3 	mov	x19, x0
    993c:	8b21c380 	add	x0, x28, w1, sxtw
    9940:	17fffff6 	b	9918 <__vsnprintf+0x6b4>
/home/thesis/Desktop/optee_rpi3bplus/optee_os/lib/libutils/ext/snprintk.c:415
    9944:	b940afe2 	ldr	w2, [sp, #172]
    9948:	34000b82 	cbz	w2, 9ab8 <__vsnprintf+0x854>
    994c:	39400122 	ldrb	w2, [x9]
    9950:	7101545f 	cmp	w2, #0x55
    9954:	54000b21 	b.ne	9ab8 <__vsnprintf+0x854>  // b.any
    9958:	39400522 	ldrb	w2, [x9, #1]
    995c:	7101b05f 	cmp	w2, #0x6c
    9960:	54000ac1 	b.ne	9ab8 <__vsnprintf+0x854>  // b.any
/home/thesis/Desktop/optee_rpi3bplus/optee_os/lib/libutils/ext/snprintk.c:420
    9964:	91000929 	add	x9, x9, #0x2
/home/thesis/Desktop/optee_rpi3bplus/optee_os/lib/libutils/ext/snprintk.c:421
    9968:	37f80961 	tbnz	w1, #31, 9a94 <__vsnprintf+0x830>
    996c:	91003c13 	add	x19, x0, #0xf
    9970:	2a0103f4 	mov	w20, w1
    9974:	927df273 	and	x19, x19, #0xfffffffffffffff8
    9978:	f9400000 	ldr	x0, [x0]
uuid2str():
/home/thesis/Desktop/optee_rpi3bplus/optee_os/lib/libutils/ext/snprintk.c:223
    997c:	90000022 	adrp	x2, d000 <primes+0x378>
    9980:	913cf842 	add	x2, x2, #0xf3e
    9984:	a90b27ed 	stp	x13, x9, [sp, #176]
    9988:	39403c01 	ldrb	w1, [x0, #15]
    998c:	79400804 	ldrh	w4, [x0, #4]
    9990:	39402407 	ldrb	w7, [x0, #9]
    9994:	39402006 	ldrb	w6, [x0, #8]
    9998:	79400c05 	ldrh	w5, [x0, #6]
    999c:	b9002be1 	str	w1, [sp, #40]
    99a0:	39403801 	ldrb	w1, [x0, #14]
    99a4:	b90023e1 	str	w1, [sp, #32]
    99a8:	39403401 	ldrb	w1, [x0, #13]
    99ac:	b9001be1 	str	w1, [sp, #24]
    99b0:	39403001 	ldrb	w1, [x0, #12]
    99b4:	b90013e1 	str	w1, [sp, #16]
    99b8:	39402c01 	ldrb	w1, [x0, #11]
    99bc:	b9000be1 	str	w1, [sp, #8]
    99c0:	39402801 	ldrb	w1, [x0, #10]
    99c4:	b90003e1 	str	w1, [sp]
    99c8:	d28004a1 	mov	x1, #0x25                  	// #37
    99cc:	b9400003 	ldr	w3, [x0]
    99d0:	aa0d03e0 	mov	x0, x13
    99d4:	94000146 	bl	9eec <snprintk>
    99d8:	2a0003e3 	mov	w3, w0
kprintf():
/home/thesis/Desktop/optee_rpi3bplus/optee_os/lib/libutils/ext/snprintk.c:425
    99dc:	a94b27ed 	ldp	x13, x9, [sp, #176]
/home/thesis/Desktop/optee_rpi3bplus/optee_os/lib/libutils/ext/snprintk.c:285
    99e0:	52800001 	mov	w1, #0x0                   	// #0
/home/thesis/Desktop/optee_rpi3bplus/optee_os/lib/libutils/ext/snprintk.c:424
    99e4:	52800002 	mov	w2, #0x0                   	// #0
/home/thesis/Desktop/optee_rpi3bplus/optee_os/lib/libutils/ext/snprintk.c:423
    99e8:	aa0d03e4 	mov	x4, x13
/home/thesis/Desktop/optee_rpi3bplus/optee_os/lib/libutils/ext/snprintk.c:565
    99ec:	6b03003f 	cmp	w1, w3
    99f0:	1a83a020 	csel	w0, w1, w3, ge  // ge = tcont
/home/thesis/Desktop/optee_rpi3bplus/optee_os/lib/libutils/ext/snprintk.c:566
    99f4:	34001c82 	cbz	w2, 9d84 <__vsnprintf+0xb20>
/home/thesis/Desktop/optee_rpi3bplus/optee_os/lib/libutils/ext/snprintk.c:567
    99f8:	11000400 	add	w0, w0, #0x1
/home/thesis/Desktop/optee_rpi3bplus/optee_os/lib/libutils/ext/snprintk.c:572
    99fc:	6b17001f 	cmp	w0, w23
    9a00:	1a97a005 	csel	w5, w0, w23, ge  // ge = tcont
    9a04:	0b05035a 	add	w26, w26, w5
/home/thesis/Desktop/optee_rpi3bplus/optee_os/lib/libutils/ext/snprintk.c:575
    9a08:	52808085 	mov	w5, #0x404                 	// #1028
    9a0c:	6a0502a5 	ands	w5, w21, w5
    9a10:	540000a1 	b.ne	9a24 <__vsnprintf+0x7c0>  // b.any
/home/thesis/Desktop/optee_rpi3bplus/optee_os/lib/libutils/ext/snprintk.c:576
    9a14:	4b0002e6 	sub	w6, w23, w0
/home/thesis/Desktop/optee_rpi3bplus/optee_os/lib/libutils/ext/snprintk.c:578
    9a18:	52800407 	mov	w7, #0x20                  	// #32
/home/thesis/Desktop/optee_rpi3bplus/optee_os/lib/libutils/ext/snprintk.c:577
    9a1c:	710000df 	cmp	w6, #0x0
    9a20:	54001b8c 	b.gt	9d90 <__vsnprintf+0xb2c>
/home/thesis/Desktop/optee_rpi3bplus/optee_os/lib/libutils/ext/snprintk.c:582
    9a24:	34001ca2 	cbz	w2, 9db8 <__vsnprintf+0xb54>
/home/thesis/Desktop/optee_rpi3bplus/optee_os/lib/libutils/ext/snprintk.c:583
    9a28:	b5001c1b 	cbnz	x27, 9da8 <__vsnprintf+0xb44>
/home/thesis/Desktop/optee_rpi3bplus/optee_os/lib/libutils/ext/snprintk.c:586
    9a2c:	d280001b 	mov	x27, #0x0                   	// #0
/home/thesis/Desktop/optee_rpi3bplus/optee_os/lib/libutils/ext/snprintk.c:590
    9a30:	711000bf 	cmp	w5, #0x400
    9a34:	540000a1 	b.ne	9a48 <__vsnprintf+0x7e4>  // b.any
/home/thesis/Desktop/optee_rpi3bplus/optee_os/lib/libutils/ext/snprintk.c:591
    9a38:	4b0002e2 	sub	w2, w23, w0
/home/thesis/Desktop/optee_rpi3bplus/optee_os/lib/libutils/ext/snprintk.c:593
    9a3c:	52800605 	mov	w5, #0x30                  	// #48
/home/thesis/Desktop/optee_rpi3bplus/optee_os/lib/libutils/ext/snprintk.c:592
    9a40:	7100005f 	cmp	w2, #0x0
    9a44:	54001d8c 	b.gt	9df4 <__vsnprintf+0xb90>
/home/thesis/Desktop/optee_rpi3bplus/optee_os/lib/libutils/ext/snprintk.c:597
    9a48:	4b030021 	sub	w1, w1, w3
/home/thesis/Desktop/optee_rpi3bplus/optee_os/lib/libutils/ext/snprintk.c:599
    9a4c:	52800602 	mov	w2, #0x30                  	// #48
/home/thesis/Desktop/optee_rpi3bplus/optee_os/lib/libutils/ext/snprintk.c:598
    9a50:	7100003f 	cmp	w1, #0x0
    9a54:	54001dcc 	b.gt	9e0c <__vsnprintf+0xba8>
    9a58:	2a0303e3 	mov	w3, w3
    9a5c:	d2800001 	mov	x1, #0x0                   	// #0
/home/thesis/Desktop/optee_rpi3bplus/optee_os/lib/libutils/ext/snprintk.c:602
    9a60:	eb01007f 	cmp	x3, x1
    9a64:	54001e01 	b.ne	9e24 <__vsnprintf+0xbc0>  // b.any
/home/thesis/Desktop/optee_rpi3bplus/optee_os/lib/libutils/ext/snprintk.c:605
    9a68:	3617c275 	tbz	w21, #2, 92b4 <__vsnprintf+0x50>
/home/thesis/Desktop/optee_rpi3bplus/optee_os/lib/libutils/ext/snprintk.c:606
    9a6c:	4b0002eb 	sub	w11, w23, w0
/home/thesis/Desktop/optee_rpi3bplus/optee_os/lib/libutils/ext/snprintk.c:608
    9a70:	52800400 	mov	w0, #0x20                  	// #32
/home/thesis/Desktop/optee_rpi3bplus/optee_os/lib/libutils/ext/snprintk.c:607
    9a74:	7100017f 	cmp	w11, #0x0
    9a78:	54ffc1ed 	b.le	92b4 <__vsnprintf+0x50>
/home/thesis/Desktop/optee_rpi3bplus/optee_os/lib/libutils/ext/snprintk.c:608
    9a7c:	b400009b 	cbz	x27, 9a8c <__vsnprintf+0x828>
    9a80:	eb1b033f 	cmp	x25, x27
    9a84:	54000049 	b.ls	9a8c <__vsnprintf+0x828>  // b.plast
    9a88:	38001760 	strb	w0, [x27], #1
    9a8c:	5100056b 	sub	w11, w11, #0x1
    9a90:	17fffff9 	b	9a74 <__vsnprintf+0x810>
/home/thesis/Desktop/optee_rpi3bplus/optee_os/lib/libutils/ext/snprintk.c:421
    9a94:	11002034 	add	w20, w1, #0x8
    9a98:	7100029f 	cmp	w20, #0x0
    9a9c:	5400008d 	b.le	9aac <__vsnprintf+0x848>
    9aa0:	91003c13 	add	x19, x0, #0xf
    9aa4:	927df273 	and	x19, x19, #0xfffffffffffffff8
    9aa8:	17ffffb4 	b	9978 <__vsnprintf+0x714>
    9aac:	aa0003f3 	mov	x19, x0
    9ab0:	8b21c380 	add	x0, x28, w1, sxtw
    9ab4:	17ffffb1 	b	9978 <__vsnprintf+0x714>
/home/thesis/Desktop/optee_rpi3bplus/optee_os/lib/libutils/ext/snprintk.c:435
    9ab8:	37f80261 	tbnz	w1, #31, 9b04 <__vsnprintf+0x8a0>
    9abc:	91003c13 	add	x19, x0, #0xf
    9ac0:	2a0103f4 	mov	w20, w1
    9ac4:	927df273 	and	x19, x19, #0xfffffffffffffff8
    9ac8:	f9400000 	ldr	x0, [x0]
/home/thesis/Desktop/optee_rpi3bplus/optee_os/lib/libutils/ext/snprintk.c:437
    9acc:	90000036 	adrp	x22, d000 <primes+0x378>
/home/thesis/Desktop/optee_rpi3bplus/optee_os/lib/libutils/ext/snprintk.c:438
    9ad0:	321f02b5 	orr	w21, w21, #0x2
/home/thesis/Desktop/optee_rpi3bplus/optee_os/lib/libutils/ext/snprintk.c:437
    9ad4:	913c56d6 	add	x22, x22, #0xf15
/home/thesis/Desktop/optee_rpi3bplus/optee_os/lib/libutils/ext/snprintk.c:439
    9ad8:	52800f18 	mov	w24, #0x78                  	// #120
/home/thesis/Desktop/optee_rpi3bplus/optee_os/lib/libutils/ext/snprintk.c:488
    9adc:	52800002 	mov	w2, #0x0                   	// #0
    9ae0:	3100047f 	cmn	w3, #0x1
    9ae4:	54001201 	b.ne	9d24 <__vsnprintf+0xac0>  // b.any
    9ae8:	910095a4 	add	x4, x13, #0x25
/home/thesis/Desktop/optee_rpi3bplus/optee_os/lib/libutils/ext/snprintk.c:525
    9aec:	92400c01 	and	x1, x0, #0xf
/home/thesis/Desktop/optee_rpi3bplus/optee_os/lib/libutils/ext/snprintk.c:526
    9af0:	d344fc00 	lsr	x0, x0, #4
/home/thesis/Desktop/optee_rpi3bplus/optee_os/lib/libutils/ext/snprintk.c:525
    9af4:	38616ac1 	ldrb	w1, [x22, x1]
    9af8:	381ffc81 	strb	w1, [x4, #-1]!
/home/thesis/Desktop/optee_rpi3bplus/optee_os/lib/libutils/ext/snprintk.c:527
    9afc:	b5ffff80 	cbnz	x0, 9aec <__vsnprintf+0x888>
    9b00:	17fffefe 	b	96f8 <__vsnprintf+0x494>
/home/thesis/Desktop/optee_rpi3bplus/optee_os/lib/libutils/ext/snprintk.c:435
    9b04:	11002034 	add	w20, w1, #0x8
    9b08:	7100029f 	cmp	w20, #0x0
    9b0c:	5400008d 	b.le	9b1c <__vsnprintf+0x8b8>
    9b10:	91003c13 	add	x19, x0, #0xf
    9b14:	927df273 	and	x19, x19, #0xfffffffffffffff8
    9b18:	17ffffec 	b	9ac8 <__vsnprintf+0x864>
    9b1c:	aa0003f3 	mov	x19, x0
    9b20:	8b21c380 	add	x0, x28, w1, sxtw
    9b24:	17ffffe9 	b	9ac8 <__vsnprintf+0x864>
/home/thesis/Desktop/optee_rpi3bplus/optee_os/lib/libutils/ext/snprintk.c:442
    9b28:	11002034 	add	w20, w1, #0x8
    9b2c:	7100029f 	cmp	w20, #0x0
    9b30:	5400008d 	b.le	9b40 <__vsnprintf+0x8dc>
    9b34:	91003c13 	add	x19, x0, #0xf
    9b38:	927df273 	and	x19, x19, #0xfffffffffffffff8
    9b3c:	17fffe4e 	b	9474 <__vsnprintf+0x210>
    9b40:	aa0003f3 	mov	x19, x0
    9b44:	8b21c380 	add	x0, x28, w1, sxtw
    9b48:	17fffe4b 	b	9474 <__vsnprintf+0x210>
/home/thesis/Desktop/optee_rpi3bplus/optee_os/lib/libutils/ext/snprintk.c:460
    9b4c:	aa0403e0 	mov	x0, x4
    9b50:	a90b27e4 	stp	x4, x9, [sp, #176]
    9b54:	f90063ed 	str	x13, [sp, #192]
    9b58:	97ffddd7 	bl	12b4 <strlen>
/home/thesis/Desktop/optee_rpi3bplus/optee_os/lib/libutils/ext/snprintk.c:285
    9b5c:	52800001 	mov	w1, #0x0                   	// #0
/home/thesis/Desktop/optee_rpi3bplus/optee_os/lib/libutils/ext/snprintk.c:460
    9b60:	2a0003e3 	mov	w3, w0
/home/thesis/Desktop/optee_rpi3bplus/optee_os/lib/libutils/ext/snprintk.c:461
    9b64:	52800002 	mov	w2, #0x0                   	// #0
    9b68:	a94b27e4 	ldp	x4, x9, [sp, #176]
    9b6c:	f94063ed 	ldr	x13, [sp, #192]
    9b70:	17ffff9f 	b	99ec <__vsnprintf+0x788>
/home/thesis/Desktop/optee_rpi3bplus/optee_os/lib/libutils/ext/snprintk.c:464
    9b74:	321c02b5 	orr	w21, w21, #0x10
    9b78:	17fffe5c 	b	94e8 <__vsnprintf+0x284>
/home/thesis/Desktop/optee_rpi3bplus/optee_os/lib/libutils/ext/snprintk.c:467
    9b7c:	3747cb95 	tbnz	w21, #8, 94ec <__vsnprintf+0x288>
    9b80:	374fcb75 	tbnz	w21, #9, 94ec <__vsnprintf+0x288>
    9b84:	372fcb55 	tbnz	w21, #5, 94ec <__vsnprintf+0x288>
    9b88:	3727cb35 	tbnz	w21, #4, 94ec <__vsnprintf+0x288>
    9b8c:	36300335 	tbz	w21, #6, 9bf0 <__vsnprintf+0x98c>
    9b90:	37f801e1 	tbnz	w1, #31, 9bcc <__vsnprintf+0x968>
    9b94:	91002c13 	add	x19, x0, #0xb
    9b98:	2a0103f4 	mov	w20, w1
    9b9c:	927df273 	and	x19, x19, #0xfffffffffffffff8
    9ba0:	79400000 	ldrh	w0, [x0]
    9ba4:	17fffe57 	b	9500 <__vsnprintf+0x29c>
    9ba8:	11002034 	add	w20, w1, #0x8
    9bac:	7100029f 	cmp	w20, #0x0
    9bb0:	5400008d 	b.le	9bc0 <__vsnprintf+0x95c>
    9bb4:	91003c13 	add	x19, x0, #0xf
    9bb8:	927df273 	and	x19, x19, #0xfffffffffffffff8
    9bbc:	17fffe50 	b	94fc <__vsnprintf+0x298>
    9bc0:	aa0003f3 	mov	x19, x0
    9bc4:	8b21c380 	add	x0, x28, w1, sxtw
    9bc8:	17fffe4d 	b	94fc <__vsnprintf+0x298>
    9bcc:	11002034 	add	w20, w1, #0x8
    9bd0:	7100029f 	cmp	w20, #0x0
    9bd4:	5400008d 	b.le	9be4 <__vsnprintf+0x980>
    9bd8:	91002c13 	add	x19, x0, #0xb
    9bdc:	927df273 	and	x19, x19, #0xfffffffffffffff8
    9be0:	17fffff0 	b	9ba0 <__vsnprintf+0x93c>
    9be4:	aa0003f3 	mov	x19, x0
    9be8:	8b21c380 	add	x0, x28, w1, sxtw
    9bec:	17ffffed 	b	9ba0 <__vsnprintf+0x93c>
    9bf0:	37f800c1 	tbnz	w1, #31, 9c08 <__vsnprintf+0x9a4>
    9bf4:	91002c13 	add	x19, x0, #0xb
    9bf8:	2a0103f4 	mov	w20, w1
    9bfc:	927df273 	and	x19, x19, #0xfffffffffffffff8
    9c00:	b9400000 	ldr	w0, [x0]
    9c04:	17fffe3f 	b	9500 <__vsnprintf+0x29c>
    9c08:	11002034 	add	w20, w1, #0x8
    9c0c:	7100029f 	cmp	w20, #0x0
    9c10:	5400008d 	b.le	9c20 <__vsnprintf+0x9bc>
    9c14:	91002c13 	add	x19, x0, #0xb
    9c18:	927df273 	and	x19, x19, #0xfffffffffffffff8
    9c1c:	17fffff9 	b	9c00 <__vsnprintf+0x99c>
    9c20:	aa0003f3 	mov	x19, x0
    9c24:	8b21c380 	add	x0, x28, w1, sxtw
    9c28:	17fffff6 	b	9c00 <__vsnprintf+0x99c>
/home/thesis/Desktop/optee_rpi3bplus/optee_os/lib/libutils/ext/snprintk.c:471
    9c2c:	90000036 	adrp	x22, d000 <primes+0x378>
    9c30:	913c56d6 	add	x22, x22, #0xf15
    9c34:	910046d6 	add	x22, x22, #0x11
/home/thesis/Desktop/optee_rpi3bplus/optee_os/lib/libutils/ext/snprintk.c:475
    9c38:	363801f5 	tbz	w21, #7, 9c74 <__vsnprintf+0xa10>
    9c3c:	37f80321 	tbnz	w1, #31, 9ca0 <__vsnprintf+0xa3c>
    9c40:	91003c13 	add	x19, x0, #0xf
    9c44:	2a0103f4 	mov	w20, w1
    9c48:	927df273 	and	x19, x19, #0xfffffffffffffff8
    9c4c:	f9400000 	ldr	x0, [x0]
/home/thesis/Desktop/optee_rpi3bplus/optee_os/lib/libutils/ext/snprintk.c:478
    9c50:	3607f475 	tbz	w21, #0, 9adc <__vsnprintf+0x878>
    9c54:	b4fff440 	cbz	x0, 9adc <__vsnprintf+0x878>
/home/thesis/Desktop/optee_rpi3bplus/optee_os/lib/libutils/ext/snprintk.c:479
    9c58:	321f02b5 	orr	w21, w21, #0x2
/home/thesis/Desktop/optee_rpi3bplus/optee_os/lib/libutils/ext/snprintk.c:476
    9c5c:	52800041 	mov	w1, #0x2                   	// #2
/home/thesis/Desktop/optee_rpi3bplus/optee_os/lib/libutils/ext/snprintk.c:482
    9c60:	52800002 	mov	w2, #0x0                   	// #0
    9c64:	17fffe92 	b	96ac <__vsnprintf+0x448>
/home/thesis/Desktop/optee_rpi3bplus/optee_os/lib/libutils/ext/snprintk.c:474
    9c68:	90000036 	adrp	x22, d000 <primes+0x378>
    9c6c:	913c56d6 	add	x22, x22, #0xf15
    9c70:	17fffff2 	b	9c38 <__vsnprintf+0x9d4>
/home/thesis/Desktop/optee_rpi3bplus/optee_os/lib/libutils/ext/snprintk.c:475
    9c74:	3747fe55 	tbnz	w21, #8, 9c3c <__vsnprintf+0x9d8>
    9c78:	374ffe35 	tbnz	w21, #9, 9c3c <__vsnprintf+0x9d8>
    9c7c:	372ffe15 	tbnz	w21, #5, 9c3c <__vsnprintf+0x9d8>
    9c80:	3727fdf5 	tbnz	w21, #4, 9c3c <__vsnprintf+0x9d8>
    9c84:	36300335 	tbz	w21, #6, 9ce8 <__vsnprintf+0xa84>
    9c88:	37f801e1 	tbnz	w1, #31, 9cc4 <__vsnprintf+0xa60>
    9c8c:	91002c13 	add	x19, x0, #0xb
    9c90:	2a0103f4 	mov	w20, w1
    9c94:	927df273 	and	x19, x19, #0xfffffffffffffff8
    9c98:	79400000 	ldrh	w0, [x0]
    9c9c:	17ffffed 	b	9c50 <__vsnprintf+0x9ec>
    9ca0:	11002034 	add	w20, w1, #0x8
    9ca4:	7100029f 	cmp	w20, #0x0
    9ca8:	5400008d 	b.le	9cb8 <__vsnprintf+0xa54>
    9cac:	91003c13 	add	x19, x0, #0xf
    9cb0:	927df273 	and	x19, x19, #0xfffffffffffffff8
    9cb4:	17ffffe6 	b	9c4c <__vsnprintf+0x9e8>
    9cb8:	aa0003f3 	mov	x19, x0
    9cbc:	8b21c380 	add	x0, x28, w1, sxtw
    9cc0:	17ffffe3 	b	9c4c <__vsnprintf+0x9e8>
    9cc4:	11002034 	add	w20, w1, #0x8
    9cc8:	7100029f 	cmp	w20, #0x0
    9ccc:	5400008d 	b.le	9cdc <__vsnprintf+0xa78>
    9cd0:	91002c13 	add	x19, x0, #0xb
    9cd4:	927df273 	and	x19, x19, #0xfffffffffffffff8
    9cd8:	17fffff0 	b	9c98 <__vsnprintf+0xa34>
    9cdc:	aa0003f3 	mov	x19, x0
    9ce0:	8b21c380 	add	x0, x28, w1, sxtw
    9ce4:	17ffffed 	b	9c98 <__vsnprintf+0xa34>
    9ce8:	37f800c1 	tbnz	w1, #31, 9d00 <__vsnprintf+0xa9c>
    9cec:	91002c13 	add	x19, x0, #0xb
    9cf0:	2a0103f4 	mov	w20, w1
    9cf4:	927df273 	and	x19, x19, #0xfffffffffffffff8
    9cf8:	b9400000 	ldr	w0, [x0]
    9cfc:	17ffffd5 	b	9c50 <__vsnprintf+0x9ec>
    9d00:	11002034 	add	w20, w1, #0x8
    9d04:	7100029f 	cmp	w20, #0x0
    9d08:	5400008d 	b.le	9d18 <__vsnprintf+0xab4>
    9d0c:	91002c13 	add	x19, x0, #0xb
    9d10:	927df273 	and	x19, x19, #0xfffffffffffffff8
    9d14:	17fffff9 	b	9cf8 <__vsnprintf+0xa94>
    9d18:	aa0003f3 	mov	x19, x0
    9d1c:	8b21c380 	add	x0, x28, w1, sxtw
    9d20:	17fffff6 	b	9cf8 <__vsnprintf+0xa94>
/home/thesis/Desktop/optee_rpi3bplus/optee_os/lib/libutils/ext/snprintk.c:488
    9d24:	52800041 	mov	w1, #0x2                   	// #2
/home/thesis/Desktop/optee_rpi3bplus/optee_os/lib/libutils/ext/snprintk.c:497
    9d28:	f100001f 	cmp	x0, #0x0
/home/thesis/Desktop/optee_rpi3bplus/optee_os/lib/libutils/ext/snprintk.c:489
    9d2c:	12157ab5 	and	w21, w21, #0xfffffbff
/home/thesis/Desktop/optee_rpi3bplus/optee_os/lib/libutils/ext/snprintk.c:497
    9d30:	7a400860 	ccmp	w3, #0x0, #0x0, eq  // eq = none
    9d34:	54ffcc01 	b.ne	96b4 <__vsnprintf+0x450>  // b.any
    9d38:	52800003 	mov	w3, #0x0                   	// #0
/home/thesis/Desktop/optee_rpi3bplus/optee_os/lib/libutils/ext/snprintk.c:496
    9d3c:	910095a4 	add	x4, x13, #0x25
    9d40:	17fffe6e 	b	96f8 <__vsnprintf+0x494>
/home/thesis/Desktop/optee_rpi3bplus/optee_os/lib/libutils/ext/snprintk.c:488
    9d44:	52800021 	mov	w1, #0x1                   	// #1
    9d48:	17fffff8 	b	9d28 <__vsnprintf+0xac4>
/home/thesis/Desktop/optee_rpi3bplus/optee_os/lib/libutils/ext/snprintk.c:508
    9d4c:	aa0403e1 	mov	x1, x4
    9d50:	17fffe5e 	b	96c8 <__vsnprintf+0x464>
/home/thesis/Desktop/optee_rpi3bplus/optee_os/lib/libutils/ext/snprintk.c:517
    9d54:	9ac50806 	udiv	x6, x0, x5
    9d58:	9b0580c0 	msub	x0, x6, x5, x0
    9d5c:	1100c000 	add	w0, w0, #0x30
    9d60:	381ff020 	sturb	w0, [x1, #-1]
/home/thesis/Desktop/optee_rpi3bplus/optee_os/lib/libutils/ext/snprintk.c:518
    9d64:	aa0603e0 	mov	x0, x6
    9d68:	aa0403e1 	mov	x1, x4
    9d6c:	d1000424 	sub	x4, x1, #0x1
/home/thesis/Desktop/optee_rpi3bplus/optee_os/lib/libutils/ext/snprintk.c:516
    9d70:	f100241f 	cmp	x0, #0x9
    9d74:	54ffff08 	b.hi	9d54 <__vsnprintf+0xaf0>  // b.pmore
/home/thesis/Desktop/optee_rpi3bplus/optee_os/lib/libutils/ext/snprintk.c:520
    9d78:	1100c000 	add	w0, w0, #0x30
    9d7c:	381ff020 	sturb	w0, [x1, #-1]
/home/thesis/Desktop/optee_rpi3bplus/optee_os/lib/libutils/ext/snprintk.c:521
    9d80:	17fffe5e 	b	96f8 <__vsnprintf+0x494>
/home/thesis/Desktop/optee_rpi3bplus/optee_os/lib/libutils/ext/snprintk.c:568
    9d84:	360fe3d5 	tbz	w21, #1, 99fc <__vsnprintf+0x798>
/home/thesis/Desktop/optee_rpi3bplus/optee_os/lib/libutils/ext/snprintk.c:569
    9d88:	11000800 	add	w0, w0, #0x2
    9d8c:	17ffff1c 	b	99fc <__vsnprintf+0x798>
/home/thesis/Desktop/optee_rpi3bplus/optee_os/lib/libutils/ext/snprintk.c:578
    9d90:	b400009b 	cbz	x27, 9da0 <__vsnprintf+0xb3c>
    9d94:	eb1b033f 	cmp	x25, x27
    9d98:	54000049 	b.ls	9da0 <__vsnprintf+0xb3c>  // b.plast
    9d9c:	38001767 	strb	w7, [x27], #1
    9da0:	510004c6 	sub	w6, w6, #0x1
    9da4:	17ffff1e 	b	9a1c <__vsnprintf+0x7b8>
/home/thesis/Desktop/optee_rpi3bplus/optee_os/lib/libutils/ext/snprintk.c:583
    9da8:	eb1b033f 	cmp	x25, x27
    9dac:	54ffe429 	b.ls	9a30 <__vsnprintf+0x7cc>  // b.plast
    9db0:	38001762 	strb	w2, [x27], #1
    9db4:	17ffff1f 	b	9a30 <__vsnprintf+0x7cc>
/home/thesis/Desktop/optee_rpi3bplus/optee_os/lib/libutils/ext/snprintk.c:584
    9db8:	360fe3d5 	tbz	w21, #1, 9a30 <__vsnprintf+0x7cc>
/home/thesis/Desktop/optee_rpi3bplus/optee_os/lib/libutils/ext/snprintk.c:585
    9dbc:	b4ffe39b 	cbz	x27, 9a2c <__vsnprintf+0x7c8>
    9dc0:	eb1b033f 	cmp	x25, x27
    9dc4:	54ffe369 	b.ls	9a30 <__vsnprintf+0x7cc>  // b.plast
    9dc8:	aa1b03e2 	mov	x2, x27
    9dcc:	52800606 	mov	w6, #0x30                  	// #48
    9dd0:	38001446 	strb	w6, [x2], #1
/home/thesis/Desktop/optee_rpi3bplus/optee_os/lib/libutils/ext/snprintk.c:586
    9dd4:	b4ffe2c2 	cbz	x2, 9a2c <__vsnprintf+0x7c8>
    9dd8:	eb02033f 	cmp	x25, x2
    9ddc:	54000089 	b.ls	9dec <__vsnprintf+0xb88>  // b.plast
    9de0:	91000b7b 	add	x27, x27, #0x2
    9de4:	381ff378 	sturb	w24, [x27, #-1]
    9de8:	17ffff12 	b	9a30 <__vsnprintf+0x7cc>
    9dec:	aa0203fb 	mov	x27, x2
    9df0:	17ffff10 	b	9a30 <__vsnprintf+0x7cc>
/home/thesis/Desktop/optee_rpi3bplus/optee_os/lib/libutils/ext/snprintk.c:593
    9df4:	b400009b 	cbz	x27, 9e04 <__vsnprintf+0xba0>
    9df8:	eb1b033f 	cmp	x25, x27
    9dfc:	54000049 	b.ls	9e04 <__vsnprintf+0xba0>  // b.plast
    9e00:	38001765 	strb	w5, [x27], #1
    9e04:	51000442 	sub	w2, w2, #0x1
    9e08:	17ffff0e 	b	9a40 <__vsnprintf+0x7dc>
/home/thesis/Desktop/optee_rpi3bplus/optee_os/lib/libutils/ext/snprintk.c:599
    9e0c:	b400009b 	cbz	x27, 9e1c <__vsnprintf+0xbb8>
    9e10:	eb1b033f 	cmp	x25, x27
    9e14:	54000049 	b.ls	9e1c <__vsnprintf+0xbb8>  // b.plast
    9e18:	38001762 	strb	w2, [x27], #1
    9e1c:	51000421 	sub	w1, w1, #0x1
    9e20:	17ffff0c 	b	9a50 <__vsnprintf+0x7ec>
/home/thesis/Desktop/optee_rpi3bplus/optee_os/lib/libutils/ext/snprintk.c:603
    9e24:	b40000bb 	cbz	x27, 9e38 <__vsnprintf+0xbd4>
    9e28:	eb1b033f 	cmp	x25, x27
    9e2c:	54000069 	b.ls	9e38 <__vsnprintf+0xbd4>  // b.plast
    9e30:	38616882 	ldrb	w2, [x4, x1]
    9e34:	38001762 	strb	w2, [x27], #1
    9e38:	91000421 	add	x1, x1, #0x1
    9e3c:	17ffff09 	b	9a60 <__vsnprintf+0x7fc>
__vsnprintf():
/home/thesis/Desktop/optee_rpi3bplus/optee_os/lib/libutils/ext/snprintk.c:143
    9e40:	f9404fe0 	ldr	x0, [sp, #152]
    9e44:	f100001f 	cmp	x0, #0x0
    9e48:	f94053e0 	ldr	x0, [sp, #160]
    9e4c:	fa401804 	ccmp	x0, #0x0, #0x4, ne  // ne = any
    9e50:	540000c0 	b.eq	9e68 <__vsnprintf+0xc04>  // b.none
/home/thesis/Desktop/optee_rpi3bplus/optee_os/lib/libutils/ext/snprintk.c:145
    9e54:	f94053e1 	ldr	x1, [sp, #160]
    9e58:	93407f40 	sxtw	x0, w26
    9e5c:	eb01001f 	cmp	x0, x1
    9e60:	54000163 	b.cc	9e8c <__vsnprintf+0xc28>  // b.lo, b.ul, b.last
/home/thesis/Desktop/optee_rpi3bplus/optee_os/lib/libutils/ext/snprintk.c:146
    9e64:	381ff33f 	sturb	wzr, [x25, #-1]
/home/thesis/Desktop/optee_rpi3bplus/optee_os/lib/libutils/ext/snprintk.c:151
    9e68:	2a1a03e0 	mov	w0, w26
    9e6c:	a9437bfd 	ldp	x29, x30, [sp, #48]
    9e70:	a94453f3 	ldp	x19, x20, [sp, #64]
    9e74:	a9455bf5 	ldp	x21, x22, [sp, #80]
    9e78:	a94663f7 	ldp	x23, x24, [sp, #96]
    9e7c:	a9476bf9 	ldp	x25, x26, [sp, #112]
    9e80:	a94873fb 	ldp	x27, x28, [sp, #128]
    9e84:	910403ff 	add	sp, sp, #0x100
    9e88:	d65f03c0 	ret
/home/thesis/Desktop/optee_rpi3bplus/optee_os/lib/libutils/ext/snprintk.c:148
    9e8c:	f9404fe1 	ldr	x1, [sp, #152]
    9e90:	3820683f 	strb	wzr, [x1, x0]
/home/thesis/Desktop/optee_rpi3bplus/optee_os/lib/libutils/ext/snprintk.c:150
    9e94:	17fffff5 	b	9e68 <__vsnprintf+0xc04>

0000000000009e98 <vsnprintk>:
vsnprintk():
/home/thesis/Desktop/optee_rpi3bplus/optee_os/lib/libutils/ext/snprintk.c:129
    9e98:	a9bb7bfd 	stp	x29, x30, [sp, #-80]!
    9e9c:	910003fd 	mov	x29, sp
    9ea0:	a90153f3 	stp	x19, x20, [sp, #16]
    9ea4:	aa0003f3 	mov	x19, x0
    9ea8:	aa0103f4 	mov	x20, x1
/home/thesis/Desktop/optee_rpi3bplus/optee_os/lib/libutils/ext/snprintk.c:130
    9eac:	9100c3e0 	add	x0, sp, #0x30
    9eb0:	aa0303e1 	mov	x1, x3
/home/thesis/Desktop/optee_rpi3bplus/optee_os/lib/libutils/ext/snprintk.c:129
    9eb4:	f90013f5 	str	x21, [sp, #32]
    9eb8:	aa0203f5 	mov	x21, x2
/home/thesis/Desktop/optee_rpi3bplus/optee_os/lib/libutils/ext/snprintk.c:130
    9ebc:	d2800402 	mov	x2, #0x20                  	// #32
    9ec0:	97ffdcee 	bl	1278 <memcpy>
    9ec4:	aa1503e2 	mov	x2, x21
    9ec8:	aa0003e3 	mov	x3, x0
    9ecc:	aa1403e1 	mov	x1, x20
    9ed0:	52800024 	mov	w4, #0x1                   	// #1
    9ed4:	aa1303e0 	mov	x0, x19
    9ed8:	97fffce3 	bl	9264 <__vsnprintf>
/home/thesis/Desktop/optee_rpi3bplus/optee_os/lib/libutils/ext/snprintk.c:131
    9edc:	a94153f3 	ldp	x19, x20, [sp, #16]
    9ee0:	f94013f5 	ldr	x21, [sp, #32]
    9ee4:	a8c57bfd 	ldp	x29, x30, [sp], #80
    9ee8:	d65f03c0 	ret

0000000000009eec <snprintk>:
snprintk():
/home/thesis/Desktop/optee_rpi3bplus/optee_os/lib/libutils/ext/snprintk.c:112
    9eec:	a9b07bfd 	stp	x29, x30, [sp, #-256]!
    9ef0:	910003fd 	mov	x29, sp
    9ef4:	a90d93e3 	stp	x3, x4, [sp, #216]
/home/thesis/Desktop/optee_rpi3bplus/optee_os/lib/libutils/ext/snprintk.c:116
    9ef8:	910403e3 	add	x3, sp, #0x100
    9efc:	a9030fe3 	stp	x3, x3, [sp, #48]
    9f00:	910343e3 	add	x3, sp, #0xd0
    9f04:	f90023e3 	str	x3, [sp, #64]
    9f08:	128004e3 	mov	w3, #0xffffffd8            	// #-40
    9f0c:	b9004be3 	str	w3, [sp, #72]
    9f10:	12800fe3 	mov	w3, #0xffffff80            	// #-128
    9f14:	b9004fe3 	str	w3, [sp, #76]
/home/thesis/Desktop/optee_rpi3bplus/optee_os/lib/libutils/ext/snprintk.c:117
    9f18:	910043e3 	add	x3, sp, #0x10
/home/thesis/Desktop/optee_rpi3bplus/optee_os/lib/libutils/ext/snprintk.c:112
    9f1c:	a90e9be5 	stp	x5, x6, [sp, #232]
/home/thesis/Desktop/optee_rpi3bplus/optee_os/lib/libutils/ext/snprintk.c:117
    9f20:	a94317e4 	ldp	x4, x5, [sp, #48]
    9f24:	a90117e4 	stp	x4, x5, [sp, #16]
    9f28:	a94417e4 	ldp	x4, x5, [sp, #64]
    9f2c:	a90217e4 	stp	x4, x5, [sp, #32]
/home/thesis/Desktop/optee_rpi3bplus/optee_os/lib/libutils/ext/snprintk.c:112
    9f30:	3d8017e0 	str	q0, [sp, #80]
    9f34:	3d801be1 	str	q1, [sp, #96]
    9f38:	3d801fe2 	str	q2, [sp, #112]
    9f3c:	3d8023e3 	str	q3, [sp, #128]
    9f40:	3d8027e4 	str	q4, [sp, #144]
    9f44:	3d802be5 	str	q5, [sp, #160]
    9f48:	3d802fe6 	str	q6, [sp, #176]
    9f4c:	3d8033e7 	str	q7, [sp, #192]
    9f50:	f9007fe7 	str	x7, [sp, #248]
/home/thesis/Desktop/optee_rpi3bplus/optee_os/lib/libutils/ext/snprintk.c:117
    9f54:	97ffffd1 	bl	9e98 <vsnprintk>
/home/thesis/Desktop/optee_rpi3bplus/optee_os/lib/libutils/ext/snprintk.c:121
    9f58:	a8d07bfd 	ldp	x29, x30, [sp], #256
    9f5c:	d65f03c0 	ret

0000000000009f60 <trace_set_level>:
trace_set_level():
/home/thesis/Desktop/optee_rpi3bplus/optee_os/lib/libutils/ext/trace.c:29
    9f60:	7100141f 	cmp	w0, #0x5
    9f64:	52800081 	mov	w1, #0x4                   	// #4
    9f68:	1a813000 	csel	w0, w0, w1, cc  // cc = lo, ul, last
    9f6c:	d0000021 	adrp	x1, f000 <.got>
    9f70:	f9401821 	ldr	x1, [x1, #48]
    9f74:	b9000020 	str	w0, [x1]
/home/thesis/Desktop/optee_rpi3bplus/optee_os/lib/libutils/ext/trace.c:30
    9f78:	d65f03c0 	ret

0000000000009f7c <trace_get_level>:
trace_get_level():
/home/thesis/Desktop/optee_rpi3bplus/optee_os/lib/libutils/ext/trace.c:34
    9f7c:	d0000020 	adrp	x0, f000 <.got>
/home/thesis/Desktop/optee_rpi3bplus/optee_os/lib/libutils/ext/trace.c:35
    9f80:	f9401800 	ldr	x0, [x0, #48]
    9f84:	b9400000 	ldr	w0, [x0]
    9f88:	d65f03c0 	ret

0000000000009f8c <trace_printf>:
trace_printf():
/home/thesis/Desktop/optee_rpi3bplus/optee_os/lib/libutils/ext/trace.c:97
    9f8c:	d108c3ff 	sub	sp, sp, #0x230
    9f90:	a9007bfd 	stp	x29, x30, [sp]
    9f94:	910003fd 	mov	x29, sp
    9f98:	f9010fe5 	str	x5, [sp, #536]
    9f9c:	910803e5 	add	x5, sp, #0x200
    9fa0:	a90153f3 	stp	x19, x20, [sp, #16]
    9fa4:	a9025bf5 	stp	x21, x22, [sp, #32]
    9fa8:	a90363f7 	stp	x23, x24, [sp, #48]
/home/thesis/Desktop/optee_rpi3bplus/optee_os/lib/libutils/ext/trace.c:103
    9fac:	72001c77 	ands	w23, w3, #0xff
/home/thesis/Desktop/optee_rpi3bplus/optee_os/lib/libutils/ext/trace.c:97
    9fb0:	a9046bf9 	stp	x25, x26, [sp, #64]
    9fb4:	3d8067e0 	str	q0, [sp, #400]
    9fb8:	3d806be1 	str	q1, [sp, #416]
    9fbc:	3d806fe2 	str	q2, [sp, #432]
    9fc0:	3d8073e3 	str	q3, [sp, #448]
    9fc4:	3d8077e4 	str	q4, [sp, #464]
    9fc8:	3d807be5 	str	q5, [sp, #480]
    9fcc:	3d807fe6 	str	q6, [sp, #496]
    9fd0:	f90113e6 	str	x6, [sp, #544]
    9fd4:	f90117e7 	str	x7, [sp, #552]
    9fd8:	3d8000a7 	str	q7, [x5]
/home/thesis/Desktop/optee_rpi3bplus/optee_os/lib/libutils/ext/trace.c:103
    9fdc:	54000cc0 	b.eq	a174 <trace_printf+0x1e8>  // b.none
/home/thesis/Desktop/optee_rpi3bplus/optee_os/lib/libutils/ext/trace.c:103 (discriminator 1)
    9fe0:	d0000023 	adrp	x3, f000 <.got>
    9fe4:	f9401863 	ldr	x3, [x3, #48]
    9fe8:	b9400063 	ldr	w3, [x3]
    9fec:	6b02007f 	cmp	w3, w2
    9ff0:	54000b4b 	b.lt	a158 <trace_printf+0x1cc>  // b.tstop
trace_level_to_string():
/home/thesis/Desktop/optee_rpi3bplus/optee_os/lib/libutils/ext/trace.c:52
    9ff4:	7100105f 	cmp	w2, #0x4
/home/thesis/Desktop/optee_rpi3bplus/optee_os/lib/libutils/ext/trace.c:55
    9ff8:	90000023 	adrp	x3, d000 <primes+0x378>
/home/thesis/Desktop/optee_rpi3bplus/optee_os/lib/libutils/ext/trace.c:52
    9ffc:	1a9f9045 	csel	w5, w2, wzr, ls  // ls = plast
/home/thesis/Desktop/optee_rpi3bplus/optee_os/lib/libutils/ext/trace.c:55
    a000:	913dbc63 	add	x3, x3, #0xf6f
    a004:	3865c863 	ldrb	w3, [x3, w5, sxtw]
trace_printf():
/home/thesis/Desktop/optee_rpi3bplus/optee_os/lib/libutils/ext/trace.c:107
    a008:	910243f4 	add	x20, sp, #0x90
    a00c:	2a0203f8 	mov	w24, w2
    a010:	2a0103fa 	mov	w26, w1
    a014:	aa0003f6 	mov	x22, x0
    a018:	f0000002 	adrp	x2, d000 <primes+0x378>
    a01c:	aa0403f9 	mov	x25, x4
    a020:	913dd042 	add	x2, x2, #0xf74
    a024:	d2802001 	mov	x1, #0x100                 	// #256
    a028:	aa1403e0 	mov	x0, x20
    a02c:	97ffffb0 	bl	9eec <snprintk>
/home/thesis/Desktop/optee_rpi3bplus/optee_os/lib/libutils/ext/trace.c:109
    a030:	37f80940 	tbnz	w0, #31, a158 <trace_printf+0x1cc>
/home/thesis/Desktop/optee_rpi3bplus/optee_os/lib/libutils/ext/trace.c:114
    a034:	b0000023 	adrp	x3, f000 <.got>
/home/thesis/Desktop/optee_rpi3bplus/optee_os/lib/libutils/ext/trace.c:111
    a038:	93407c15 	sxtw	x21, w0
/home/thesis/Desktop/optee_rpi3bplus/optee_os/lib/libutils/ext/trace.c:114
    a03c:	d2802013 	mov	x19, #0x100                 	// #256
    a040:	f0000002 	adrp	x2, d000 <primes+0x378>
    a044:	f9401c63 	ldr	x3, [x3, #56]
    a048:	913de042 	add	x2, x2, #0xf78
    a04c:	cb150261 	sub	x1, x19, x21
    a050:	8b150280 	add	x0, x20, x21
    a054:	97ffffa6 	bl	9eec <snprintk>
/home/thesis/Desktop/optee_rpi3bplus/optee_os/lib/libutils/ext/trace.c:116
    a058:	37f80800 	tbnz	w0, #31, a158 <trace_printf+0x1cc>
/home/thesis/Desktop/optee_rpi3bplus/optee_os/lib/libutils/ext/trace.c:118
    a05c:	8b20c2b5 	add	x21, x21, w0, sxtw
/home/thesis/Desktop/optee_rpi3bplus/optee_os/lib/libutils/ext/trace.c:120
    a060:	34000a17 	cbz	w23, a1a0 <trace_printf+0x214>
/home/thesis/Desktop/optee_rpi3bplus/optee_os/lib/libutils/ext/trace.c:120 (discriminator 1)
    a064:	52800342 	mov	w2, #0x1a                  	// #26
    a068:	1ad82442 	lsr	w2, w2, w24
    a06c:	360009a2 	tbz	w2, #0, a1a0 <trace_printf+0x214>
/home/thesis/Desktop/optee_rpi3bplus/optee_os/lib/libutils/ext/trace.c:122
    a070:	8b150297 	add	x23, x20, x21
    a074:	cb150273 	sub	x19, x19, x21
print_thread_id():
/home/thesis/Desktop/optee_rpi3bplus/optee_os/lib/libutils/ext/trace.c:65
    a078:	97ffe8e0 	bl	43f8 <trace_ext_get_thread_id>
/home/thesis/Desktop/optee_rpi3bplus/optee_os/lib/libutils/ext/trace.c:67
    a07c:	37f80800 	tbnz	w0, #31, a17c <trace_printf+0x1f0>
/home/thesis/Desktop/optee_rpi3bplus/optee_os/lib/libutils/ext/trace.c:68
    a080:	2a0003e4 	mov	w4, w0
    a084:	f0000002 	adrp	x2, d000 <primes+0x378>
    a088:	52800023 	mov	w3, #0x1                   	// #1
    a08c:	913df042 	add	x2, x2, #0xf7c
    a090:	aa1303e1 	mov	x1, x19
    a094:	aa1703e0 	mov	x0, x23
    a098:	97ffff95 	bl	9eec <snprintk>
trace_printf():
/home/thesis/Desktop/optee_rpi3bplus/optee_os/lib/libutils/ext/trace.c:129
    a09c:	37f805e0 	tbnz	w0, #31, a158 <trace_printf+0x1cc>
/home/thesis/Desktop/optee_rpi3bplus/optee_os/lib/libutils/ext/trace.c:131
    a0a0:	8b20c2b3 	add	x19, x21, w0, sxtw
/home/thesis/Desktop/optee_rpi3bplus/optee_os/lib/libutils/ext/trace.c:133
    a0a4:	b4000176 	cbz	x22, a0d0 <trace_printf+0x144>
/home/thesis/Desktop/optee_rpi3bplus/optee_os/lib/libutils/ext/trace.c:134
    a0a8:	f0000002 	adrp	x2, d000 <primes+0x378>
    a0ac:	d2802001 	mov	x1, #0x100                 	// #256
    a0b0:	2a1a03e4 	mov	w4, w26
    a0b4:	aa1603e3 	mov	x3, x22
    a0b8:	913e1c42 	add	x2, x2, #0xf87
    a0bc:	cb130021 	sub	x1, x1, x19
    a0c0:	8b130280 	add	x0, x20, x19
    a0c4:	97ffff8a 	bl	9eec <snprintk>
/home/thesis/Desktop/optee_rpi3bplus/optee_os/lib/libutils/ext/trace.c:136
    a0c8:	37f80480 	tbnz	w0, #31, a158 <trace_printf+0x1cc>
/home/thesis/Desktop/optee_rpi3bplus/optee_os/lib/libutils/ext/trace.c:138
    a0cc:	8b20c273 	add	x19, x19, w0, sxtw
/home/thesis/Desktop/optee_rpi3bplus/optee_os/lib/libutils/ext/trace.c:148
    a0d0:	9108c3e0 	add	x0, sp, #0x230
    a0d4:	a90703e0 	stp	x0, x0, [sp, #112]
    a0d8:	910843e0 	add	x0, sp, #0x210
    a0dc:	f90043e0 	str	x0, [sp, #128]
    a0e0:	128002e0 	mov	w0, #0xffffffe8            	// #-24
    a0e4:	b9008be0 	str	w0, [sp, #136]
    a0e8:	12800fe0 	mov	w0, #0xffffff80            	// #-128
    a0ec:	b9008fe0 	str	w0, [sp, #140]
/home/thesis/Desktop/optee_rpi3bplus/optee_os/lib/libutils/ext/trace.c:149
    a0f0:	910143e3 	add	x3, sp, #0x50
    a0f4:	a94707e0 	ldp	x0, x1, [sp, #112]
    a0f8:	a90507e0 	stp	x0, x1, [sp, #80]
    a0fc:	aa1903e2 	mov	x2, x25
    a100:	a94807e0 	ldp	x0, x1, [sp, #128]
    a104:	a90607e0 	stp	x0, x1, [sp, #96]
    a108:	8b130280 	add	x0, x20, x19
    a10c:	d2802001 	mov	x1, #0x100                 	// #256
    a110:	cb130021 	sub	x1, x1, x19
    a114:	97ffff61 	bl	9e98 <vsnprintk>
/home/thesis/Desktop/optee_rpi3bplus/optee_os/lib/libutils/ext/trace.c:151
    a118:	7100001f 	cmp	w0, #0x0
    a11c:	5400004d 	b.le	a124 <trace_printf+0x198>
/home/thesis/Desktop/optee_rpi3bplus/optee_os/lib/libutils/ext/trace.c:152
    a120:	8b20c273 	add	x19, x19, w0, sxtw
/home/thesis/Desktop/optee_rpi3bplus/optee_os/lib/libutils/ext/trace.c:154
    a124:	f103fa7f 	cmp	x19, #0xfe
    a128:	d2801fc0 	mov	x0, #0xfe                  	// #254
    a12c:	9a809273 	csel	x19, x19, x0, ls  // ls = plast
/home/thesis/Desktop/optee_rpi3bplus/optee_os/lib/libutils/ext/trace.c:157
    a130:	52800140 	mov	w0, #0xa                   	// #10
    a134:	38336a80 	strb	w0, [x20, x19]
/home/thesis/Desktop/optee_rpi3bplus/optee_os/lib/libutils/ext/trace.c:158
    a138:	b4000093 	cbz	x19, a148 <trace_printf+0x1bc>
/home/thesis/Desktop/optee_rpi3bplus/optee_os/lib/libutils/ext/trace.c:158 (discriminator 1)
    a13c:	38736a80 	ldrb	w0, [x20, x19]
    a140:	7100281f 	cmp	w0, #0xa
    a144:	540003c0 	b.eq	a1bc <trace_printf+0x230>  // b.none
/home/thesis/Desktop/optee_rpi3bplus/optee_os/lib/libutils/ext/trace.c:161
    a148:	91024be0 	add	x0, sp, #0x92
    a14c:	3833681f 	strb	wzr, [x0, x19]
/home/thesis/Desktop/optee_rpi3bplus/optee_os/lib/libutils/ext/trace.c:163
    a150:	aa1403e0 	mov	x0, x20
    a154:	97ffe89f 	bl	43d0 <trace_ext_puts>
/home/thesis/Desktop/optee_rpi3bplus/optee_os/lib/libutils/ext/trace.c:164
    a158:	a9407bfd 	ldp	x29, x30, [sp]
    a15c:	a94153f3 	ldp	x19, x20, [sp, #16]
    a160:	a9425bf5 	ldp	x21, x22, [sp, #32]
    a164:	a94363f7 	ldp	x23, x24, [sp, #48]
    a168:	a9446bf9 	ldp	x25, x26, [sp, #64]
    a16c:	9108c3ff 	add	sp, sp, #0x230
    a170:	d65f03c0 	ret
trace_level_to_string():
/home/thesis/Desktop/optee_rpi3bplus/optee_os/lib/libutils/ext/trace.c:50
    a174:	528009a3 	mov	w3, #0x4d                  	// #77
    a178:	17ffffa4 	b	a008 <trace_printf+0x7c>
print_thread_id():
/home/thesis/Desktop/optee_rpi3bplus/optee_os/lib/libutils/ext/trace.c:70
    a17c:	f0000004 	adrp	x4, d000 <primes+0x378>
    a180:	52800023 	mov	w3, #0x1                   	// #1
    a184:	913c5084 	add	x4, x4, #0xf14
    a188:	f0000002 	adrp	x2, d000 <primes+0x378>
    a18c:	aa1303e1 	mov	x1, x19
    a190:	913e0842 	add	x2, x2, #0xf82
    a194:	aa1703e0 	mov	x0, x23
    a198:	97ffff55 	bl	9eec <snprintk>
    a19c:	17ffffc0 	b	a09c <trace_printf+0x110>
trace_printf():
/home/thesis/Desktop/optee_rpi3bplus/optee_os/lib/libutils/ext/trace.c:142
    a1a0:	f103fabf 	cmp	x21, #0xfe
    a1a4:	54fffda8 	b.hi	a158 <trace_printf+0x1cc>  // b.pmore
/home/thesis/Desktop/optee_rpi3bplus/optee_os/lib/libutils/ext/trace.c:144
    a1a8:	910006b3 	add	x19, x21, #0x1
    a1ac:	52800400 	mov	w0, #0x20                  	// #32
    a1b0:	38356a80 	strb	w0, [x20, x21]
/home/thesis/Desktop/optee_rpi3bplus/optee_os/lib/libutils/ext/trace.c:145
    a1b4:	38336a9f 	strb	wzr, [x20, x19]
    a1b8:	17ffffc6 	b	a0d0 <trace_printf+0x144>
/home/thesis/Desktop/optee_rpi3bplus/optee_os/lib/libutils/ext/trace.c:159
    a1bc:	d1000673 	sub	x19, x19, #0x1
    a1c0:	17ffffde 	b	a138 <trace_printf+0x1ac>

000000000000a1c4 <dhex_dump>:
dhex_dump():
/home/thesis/Desktop/optee_rpi3bplus/optee_os/lib/libutils/ext/trace.c:274
    a1c4:	d65f03c0 	ret

000000000000a1c8 <mempool_alloc_pool>:
mempool_alloc_pool():
/home/thesis/Desktop/optee_rpi3bplus/optee_os/lib/libutils/ext/mempool.c:133
    a1c8:	a9be7bfd 	stp	x29, x30, [sp, #-32]!
    a1cc:	910003fd 	mov	x29, sp
    a1d0:	a90153f3 	stp	x19, x20, [sp, #16]
    a1d4:	aa0003f3 	mov	x19, x0
    a1d8:	aa0103f4 	mov	x20, x1
/home/thesis/Desktop/optee_rpi3bplus/optee_os/lib/libutils/ext/mempool.c:134
    a1dc:	d2800020 	mov	x0, #0x1                   	// #1
    a1e0:	d2800301 	mov	x1, #0x18                  	// #24
    a1e4:	97ffdb2a 	bl	e8c <calloc>
/home/thesis/Desktop/optee_rpi3bplus/optee_os/lib/libutils/ext/mempool.c:137
    a1e8:	f2400a7f 	tst	x19, #0x7
    a1ec:	54000140 	b.eq	a214 <mempool_alloc_pool+0x4c>  // b.none
/home/thesis/Desktop/optee_rpi3bplus/optee_os/lib/libutils/ext/mempool.c:137 (discriminator 1)
    a1f0:	f0000003 	adrp	x3, d000 <primes+0x378>
    a1f4:	f0000001 	adrp	x1, d000 <primes+0x378>
    a1f8:	913e3863 	add	x3, x3, #0xf8e
    a1fc:	913ebc21 	add	x1, x1, #0xfaf
    a200:	f0000000 	adrp	x0, d000 <primes+0x378>
    a204:	913f2800 	add	x0, x0, #0xfca
    a208:	52801122 	mov	w2, #0x89                  	// #137
    a20c:	97ffdc31 	bl	12d0 <_assert_log>
    a210:	97ffdc41 	bl	1314 <_assert_break>
/home/thesis/Desktop/optee_rpi3bplus/optee_os/lib/libutils/ext/mempool.c:139
    a214:	b4000080 	cbz	x0, a224 <mempool_alloc_pool+0x5c>
/home/thesis/Desktop/optee_rpi3bplus/optee_os/lib/libutils/ext/mempool.c:142
    a218:	92800001 	mov	x1, #0xffffffffffffffff    	// #-1
    a21c:	a9000414 	stp	x20, x1, [x0]
/home/thesis/Desktop/optee_rpi3bplus/optee_os/lib/libutils/ext/mempool.c:141
    a220:	f9000813 	str	x19, [x0, #16]
/home/thesis/Desktop/optee_rpi3bplus/optee_os/lib/libutils/ext/mempool.c:152
    a224:	a94153f3 	ldp	x19, x20, [sp, #16]
    a228:	a8c27bfd 	ldp	x29, x30, [sp], #32
    a22c:	d65f03c0 	ret

000000000000a230 <mempool_alloc>:
mempool_alloc():
/home/thesis/Desktop/optee_rpi3bplus/optee_os/lib/libutils/ext/mempool.c:162
    a230:	a9401003 	ldp	x3, x4, [x0]
    a234:	b7f80304 	tbnz	x4, #63, a294 <mempool_alloc+0x64>
/home/thesis/Desktop/optee_rpi3bplus/optee_os/lib/libutils/ext/mempool.c:165
    a238:	f9400806 	ldr	x6, [x0, #16]
/home/thesis/Desktop/optee_rpi3bplus/optee_os/lib/libutils/ext/mempool.c:169
    a23c:	91001c82 	add	x2, x4, #0x7
/home/thesis/Desktop/optee_rpi3bplus/optee_os/lib/libutils/ext/mempool.c:165
    a240:	8b060085 	add	x5, x4, x6
/home/thesis/Desktop/optee_rpi3bplus/optee_os/lib/libutils/ext/mempool.c:169
    a244:	f8666886 	ldr	x6, [x4, x6]
    a248:	8b060042 	add	x2, x2, x6
    a24c:	927df042 	and	x2, x2, #0xfffffffffffffff8
/home/thesis/Desktop/optee_rpi3bplus/optee_os/lib/libutils/ext/mempool.c:170
    a250:	eb02007f 	cmp	x3, x2
    a254:	54000242 	b.cs	a29c <mempool_alloc+0x6c>  // b.hs, b.nlast
/home/thesis/Desktop/optee_rpi3bplus/optee_os/lib/libutils/ext/mempool.c:155
    a258:	a9bf7bfd 	stp	x29, x30, [sp, #-16]!
/home/thesis/Desktop/optee_rpi3bplus/optee_os/lib/libutils/ext/mempool.c:197
    a25c:	f0000000 	adrp	x0, d000 <primes+0x378>
    a260:	913e3800 	add	x0, x0, #0xf8e
/home/thesis/Desktop/optee_rpi3bplus/optee_os/lib/libutils/ext/mempool.c:155
    a264:	910003fd 	mov	x29, sp
/home/thesis/Desktop/optee_rpi3bplus/optee_os/lib/libutils/ext/mempool.c:197
    a268:	aa0103e5 	mov	x5, x1
    a26c:	52800023 	mov	w3, #0x1                   	// #1
    a270:	52800022 	mov	w2, #0x1                   	// #1
    a274:	528018a1 	mov	w1, #0xc5                  	// #197
    a278:	91004c00 	add	x0, x0, #0x13
    a27c:	f0000004 	adrp	x4, d000 <primes+0x378>
    a280:	913fc484 	add	x4, x4, #0xff1
    a284:	97ffff42 	bl	9f8c <trace_printf>
/home/thesis/Desktop/optee_rpi3bplus/optee_os/lib/libutils/ext/mempool.c:199
    a288:	d2800000 	mov	x0, #0x0                   	// #0
/home/thesis/Desktop/optee_rpi3bplus/optee_os/lib/libutils/ext/mempool.c:200
    a28c:	a8c17bfd 	ldp	x29, x30, [sp], #16
    a290:	d65f03c0 	ret
/home/thesis/Desktop/optee_rpi3bplus/optee_os/lib/libutils/ext/mempool.c:158
    a294:	d2800005 	mov	x5, #0x0                   	// #0
/home/thesis/Desktop/optee_rpi3bplus/optee_os/lib/libutils/ext/mempool.c:163
    a298:	d2800002 	mov	x2, #0x0                   	// #0
/home/thesis/Desktop/optee_rpi3bplus/optee_os/lib/libutils/ext/mempool.c:175
    a29c:	91007c21 	add	x1, x1, #0x1f
    a2a0:	927df021 	and	x1, x1, #0xfffffffffffffff8
/home/thesis/Desktop/optee_rpi3bplus/optee_os/lib/libutils/ext/mempool.c:176
    a2a4:	8b010046 	add	x6, x2, x1
    a2a8:	eb0300df 	cmp	x6, x3
    a2ac:	54fffd68 	b.hi	a258 <mempool_alloc+0x28>  // b.pmore
/home/thesis/Desktop/optee_rpi3bplus/optee_os/lib/libutils/ext/mempool.c:179
    a2b0:	f9400806 	ldr	x6, [x0, #16]
    a2b4:	8b060043 	add	x3, x2, x6
/home/thesis/Desktop/optee_rpi3bplus/optee_os/lib/libutils/ext/mempool.c:180
    a2b8:	f8266841 	str	x1, [x2, x6]
/home/thesis/Desktop/optee_rpi3bplus/optee_os/lib/libutils/ext/mempool.c:181
    a2bc:	f9000464 	str	x4, [x3, #8]
/home/thesis/Desktop/optee_rpi3bplus/optee_os/lib/libutils/ext/mempool.c:182
    a2c0:	b4000045 	cbz	x5, a2c8 <mempool_alloc+0x98>
/home/thesis/Desktop/optee_rpi3bplus/optee_os/lib/libutils/ext/mempool.c:183
    a2c4:	f90008a2 	str	x2, [x5, #16]
/home/thesis/Desktop/optee_rpi3bplus/optee_os/lib/libutils/ext/mempool.c:184
    a2c8:	92800001 	mov	x1, #0xffffffffffffffff    	// #-1
    a2cc:	f9000861 	str	x1, [x3, #16]
/home/thesis/Desktop/optee_rpi3bplus/optee_os/lib/libutils/ext/mempool.c:185
    a2d0:	f9000402 	str	x2, [x0, #8]
/home/thesis/Desktop/optee_rpi3bplus/optee_os/lib/libutils/ext/mempool.c:194
    a2d4:	91006060 	add	x0, x3, #0x18
/home/thesis/Desktop/optee_rpi3bplus/optee_os/lib/libutils/ext/mempool.c:200
    a2d8:	d65f03c0 	ret

000000000000a2dc <mempool_calloc>:
mempool_calloc():
/home/thesis/Desktop/optee_rpi3bplus/optee_os/lib/libutils/ext/mempool.c:203
    a2dc:	a9be7bfd 	stp	x29, x30, [sp, #-32]!
    a2e0:	910003fd 	mov	x29, sp
    a2e4:	a90153f3 	stp	x19, x20, [sp, #16]
/home/thesis/Desktop/optee_rpi3bplus/optee_os/lib/libutils/ext/mempool.c:207
    a2e8:	9b027c34 	mul	x20, x1, x2
    a2ec:	9bc27c21 	umulh	x1, x1, x2
    a2f0:	b5000121 	cbnz	x1, a314 <mempool_calloc+0x38>
/home/thesis/Desktop/optee_rpi3bplus/optee_os/lib/libutils/ext/mempool.c:210
    a2f4:	aa1403e1 	mov	x1, x20
    a2f8:	97ffffce 	bl	a230 <mempool_alloc>
    a2fc:	aa0003f3 	mov	x19, x0
/home/thesis/Desktop/optee_rpi3bplus/optee_os/lib/libutils/ext/mempool.c:211
    a300:	b50000e0 	cbnz	x0, a31c <mempool_calloc+0x40>
/home/thesis/Desktop/optee_rpi3bplus/optee_os/lib/libutils/ext/mempool.c:215
    a304:	aa1303e0 	mov	x0, x19
    a308:	a94153f3 	ldp	x19, x20, [sp, #16]
    a30c:	a8c27bfd 	ldp	x29, x30, [sp], #32
    a310:	d65f03c0 	ret
/home/thesis/Desktop/optee_rpi3bplus/optee_os/lib/libutils/ext/mempool.c:208
    a314:	d2800013 	mov	x19, #0x0                   	// #0
    a318:	17fffffb 	b	a304 <mempool_calloc+0x28>
/home/thesis/Desktop/optee_rpi3bplus/optee_os/lib/libutils/ext/mempool.c:212
    a31c:	aa1403e2 	mov	x2, x20
    a320:	52800001 	mov	w1, #0x0                   	// #0
    a324:	97ffdbdd 	bl	1298 <memset>
    a328:	17fffff7 	b	a304 <mempool_calloc+0x28>

000000000000a32c <mempool_free>:
mempool_free():
/home/thesis/Desktop/optee_rpi3bplus/optee_os/lib/libutils/ext/mempool.c:224
    a32c:	b40001c1 	cbz	x1, a364 <mempool_free+0x38>
/home/thesis/Desktop/optee_rpi3bplus/optee_os/lib/libutils/ext/mempool.c:229
    a330:	f85f0022 	ldur	x2, [x1, #-16]
    a334:	b7f801a2 	tbnz	x2, #63, a368 <mempool_free+0x3c>
/home/thesis/Desktop/optee_rpi3bplus/optee_os/lib/libutils/ext/mempool.c:232
    a338:	f9400803 	ldr	x3, [x0, #16]
    a33c:	f85f8024 	ldur	x4, [x1, #-8]
    a340:	8b020063 	add	x3, x3, x2
    a344:	f9000864 	str	x4, [x3, #16]
    a348:	aa0203e3 	mov	x3, x2
/home/thesis/Desktop/optee_rpi3bplus/optee_os/lib/libutils/ext/mempool.c:236
    a34c:	f85f8024 	ldur	x4, [x1, #-8]
    a350:	b7f80084 	tbnz	x4, #63, a360 <mempool_free+0x34>
/home/thesis/Desktop/optee_rpi3bplus/optee_os/lib/libutils/ext/mempool.c:239
    a354:	a9408403 	ldp	x3, x1, [x0, #8]
    a358:	8b040021 	add	x1, x1, x4
    a35c:	f9000422 	str	x2, [x1, #8]
/home/thesis/Desktop/optee_rpi3bplus/optee_os/lib/libutils/ext/mempool.c:243
    a360:	f9000403 	str	x3, [x0, #8]
/home/thesis/Desktop/optee_rpi3bplus/optee_os/lib/libutils/ext/mempool.c:245
    a364:	d65f03c0 	ret
/home/thesis/Desktop/optee_rpi3bplus/optee_os/lib/libutils/ext/mempool.c:222
    a368:	92800003 	mov	x3, #0xffffffffffffffff    	// #-1
    a36c:	17fffff8 	b	a34c <mempool_free+0x20>

000000000000a370 <consttime_memcmp>:
consttime_memcmp():
/home/thesis/Desktop/optee_rpi3bplus/optee_os/lib/libutils/ext/consttime_memcmp.c:36
    a370:	d10043ff 	sub	sp, sp, #0x10
/home/thesis/Desktop/optee_rpi3bplus/optee_os/lib/libutils/ext/consttime_memcmp.c:41
    a374:	52802003 	mov	w3, #0x100                 	// #256
/home/thesis/Desktop/optee_rpi3bplus/optee_os/lib/libutils/ext/consttime_memcmp.c:43
    a378:	d2800005 	mov	x5, #0x0                   	// #0
/home/thesis/Desktop/optee_rpi3bplus/optee_os/lib/libutils/ext/consttime_memcmp.c:39
    a37c:	52800006 	mov	w6, #0x0                   	// #0
/home/thesis/Desktop/optee_rpi3bplus/optee_os/lib/libutils/ext/consttime_memcmp.c:41
    a380:	b9000fe3 	str	w3, [sp, #12]
/home/thesis/Desktop/optee_rpi3bplus/optee_os/lib/libutils/ext/consttime_memcmp.c:40
    a384:	52800003 	mov	w3, #0x0                   	// #0
/home/thesis/Desktop/optee_rpi3bplus/optee_os/lib/libutils/ext/consttime_memcmp.c:43 (discriminator 1)
    a388:	eb0200bf 	cmp	x5, x2
    a38c:	540000a1 	b.ne	a3a0 <consttime_memcmp+0x30>  // b.any
/home/thesis/Desktop/optee_rpi3bplus/optee_os/lib/libutils/ext/consttime_memcmp.c:50
    a390:	53087c63 	lsr	w3, w3, #8
/home/thesis/Desktop/optee_rpi3bplus/optee_os/lib/libutils/ext/consttime_memcmp.c:51
    a394:	4b462060 	sub	w0, w3, w6, lsr #8
    a398:	910043ff 	add	sp, sp, #0x10
    a39c:	d65f03c0 	ret
/home/thesis/Desktop/optee_rpi3bplus/optee_os/lib/libutils/ext/consttime_memcmp.c:45 (discriminator 2)
    a3a0:	38656808 	ldrb	w8, [x0, x5]
    a3a4:	38656824 	ldrb	w4, [x1, x5]
    a3a8:	910004a5 	add	x5, x5, #0x1
/home/thesis/Desktop/optee_rpi3bplus/optee_os/lib/libutils/ext/consttime_memcmp.c:44 (discriminator 2)
    a3ac:	b9400fe9 	ldr	w9, [sp, #12]
/home/thesis/Desktop/optee_rpi3bplus/optee_os/lib/libutils/ext/consttime_memcmp.c:45 (discriminator 2)
    a3b0:	4b040107 	sub	w7, w8, w4
/home/thesis/Desktop/optee_rpi3bplus/optee_os/lib/libutils/ext/consttime_memcmp.c:47 (discriminator 2)
    a3b4:	4b080084 	sub	w4, w4, w8
/home/thesis/Desktop/optee_rpi3bplus/optee_os/lib/libutils/ext/consttime_memcmp.c:44 (discriminator 2)
    a3b8:	0a0900e7 	and	w7, w7, w9
    a3bc:	2a0700c6 	orr	w6, w6, w7
/home/thesis/Desktop/optee_rpi3bplus/optee_os/lib/libutils/ext/consttime_memcmp.c:46 (discriminator 2)
    a3c0:	b9400fe7 	ldr	w7, [sp, #12]
    a3c4:	0a070084 	and	w4, w4, w7
/home/thesis/Desktop/optee_rpi3bplus/optee_os/lib/libutils/ext/consttime_memcmp.c:48 (discriminator 2)
    a3c8:	b9400fe7 	ldr	w7, [sp, #12]
/home/thesis/Desktop/optee_rpi3bplus/optee_os/lib/libutils/ext/consttime_memcmp.c:46 (discriminator 2)
    a3cc:	2a040063 	orr	w3, w3, w4
/home/thesis/Desktop/optee_rpi3bplus/optee_os/lib/libutils/ext/consttime_memcmp.c:48 (discriminator 2)
    a3d0:	2a0300c4 	orr	w4, w6, w3
    a3d4:	0a2400e4 	bic	w4, w7, w4
    a3d8:	b9000fe4 	str	w4, [sp, #12]
    a3dc:	17ffffeb 	b	a388 <consttime_memcmp+0x18>

000000000000a3e0 <memchr>:
memchr():
/home/thesis/Desktop/optee_rpi3bplus/optee_os/lib/libutils/isoc/newlib/memchr.c:109
    a3e0:	12001c21 	and	w1, w1, #0xff
/home/thesis/Desktop/optee_rpi3bplus/optee_os/lib/libutils/isoc/newlib/memchr.c:153
    a3e4:	8b020002 	add	x2, x0, x2
    a3e8:	eb02001f 	cmp	x0, x2
    a3ec:	54000061 	b.ne	a3f8 <memchr+0x18>  // b.any
/home/thesis/Desktop/optee_rpi3bplus/optee_os/lib/libutils/isoc/newlib/memchr.c:159
    a3f0:	d2800000 	mov	x0, #0x0                   	// #0
/home/thesis/Desktop/optee_rpi3bplus/optee_os/lib/libutils/isoc/newlib/memchr.c:160
    a3f4:	d65f03c0 	ret
/home/thesis/Desktop/optee_rpi3bplus/optee_os/lib/libutils/isoc/newlib/memchr.c:154
    a3f8:	39400003 	ldrb	w3, [x0]
    a3fc:	6b01007f 	cmp	w3, w1
    a400:	54ffffa0 	b.eq	a3f4 <memchr+0x14>  // b.none
/home/thesis/Desktop/optee_rpi3bplus/optee_os/lib/libutils/isoc/newlib/memchr.c:156
    a404:	91000400 	add	x0, x0, #0x1
    a408:	17fffff8 	b	a3e8 <memchr+0x8>
