
a404e568-54cc-4c6f-a6f0-60299611e30d.elf:     file format elf64-littleaarch64
a404e568-54cc-4c6f-a6f0-60299611e30d.elf
architecture: aarch64, flags 0x00000150:
HAS_SYMS, DYNAMIC, D_PAGED
start address 0x000000000000064c

Program Header:
    LOAD off    0x0000000000001000 vaddr 0x0000000000000000 paddr 0x0000000000000000 align 2**12
         filesz 0x000000000000e268 memsz 0x000000000000e268 flags r-x
    LOAD off    0x0000000000010000 vaddr 0x000000000000f000 paddr 0x000000000000f000 align 2**12
         filesz 0x0000000000000414 memsz 0x000000000000b4a0 flags rw-
 DYNAMIC off    0x00000000000101c0 vaddr 0x000000000000f1c0 paddr 0x000000000000f1c0 align 2**3
         filesz 0x0000000000000110 memsz 0x0000000000000110 flags rw-
   STACK off    0x0000000000000000 vaddr 0x0000000000000000 paddr 0x0000000000000000 align 2**4
         filesz 0x0000000000000000 memsz 0x0000000000000000 flags rw-

Dynamic Section:
  HASH                 0x000000000000e0a0
  GNU_HASH             0x000000000000e030
  STRTAB               0x000000000000e098
  SYMTAB               0x000000000000e050
  STRSZ                0x0000000000000001
  SYMENT               0x0000000000000018
  DEBUG                0x0000000000000000
  RELA                 0x000000000000e0b8
  RELASZ               0x00000000000002e8
  RELAENT              0x0000000000000018
  FLAGS_1              0x0000000008000000
  RELACOUNT            0x0000000000000012
private flags = 0:

Sections:
Idx Name          Size      VMA               LMA               File off  Algn
  0 .ta_head      00000020  0000000000000000  0000000000000000  00001000  2**3
                  CONTENTS, ALLOC, LOAD, READONLY, DATA
  1 .text         0000a3ec  0000000000000020  0000000000000020  00001020  2**2
                  CONTENTS, ALLOC, LOAD, READONLY, CODE
  2 .eh_frame     00002304  000000000000a410  000000000000a410  0000b410  2**3
                  CONTENTS, ALLOC, LOAD, READONLY, DATA
  3 .rodata       00001911  000000000000c718  000000000000c718  0000d718  2**3
                  CONTENTS, ALLOC, LOAD, READONLY, DATA
  4 .gnu.hash     0000001c  000000000000e030  000000000000e030  0000f030  2**3
                  CONTENTS, ALLOC, LOAD, READONLY, DATA
  5 .dynsym       00000048  000000000000e050  000000000000e050  0000f050  2**3
                  CONTENTS, ALLOC, LOAD, READONLY, DATA
  6 .dynstr       00000001  000000000000e098  000000000000e098  0000f098  2**0
                  CONTENTS, ALLOC, LOAD, READONLY, DATA
  7 .hash         00000018  000000000000e0a0  000000000000e0a0  0000f0a0  2**3
                  CONTENTS, ALLOC, LOAD, READONLY, DATA
  8 .rela.dyn     000001b0  000000000000e0b8  000000000000e0b8  0000f0b8  2**3
                  CONTENTS, ALLOC, LOAD, READONLY, DATA
  9 .got          00000088  000000000000f000  000000000000f000  00010000  2**3
                  CONTENTS, ALLOC, LOAD, DATA
 10 .rela.got     00000138  000000000000f088  000000000000f088  00010088  2**3
                  CONTENTS, ALLOC, LOAD, READONLY, DATA
 11 .dynamic      00000110  000000000000f1c0  000000000000f1c0  000101c0  2**3
                  CONTENTS, ALLOC, LOAD, DATA
 12 .data         00000144  000000000000f2d0  000000000000f2d0  000102d0  2**3
                  CONTENTS, ALLOC, LOAD, DATA
 13 .bss          0000b088  000000000000f418  000000000000f418  00010414  2**3
                  ALLOC
 14 .debug_info   00013574  0000000000000000  0000000000000000  00010414  2**0
                  CONTENTS, READONLY, DEBUGGING
 15 .debug_abbrev 00002ff1  0000000000000000  0000000000000000  00023988  2**0
                  CONTENTS, READONLY, DEBUGGING
 16 .debug_loc    0001b174  0000000000000000  0000000000000000  00026979  2**0
                  CONTENTS, READONLY, DEBUGGING
 17 .debug_aranges 00000860  0000000000000000  0000000000000000  00041af0  2**4
                  CONTENTS, READONLY, DEBUGGING
 18 .debug_ranges 00001970  0000000000000000  0000000000000000  00042350  2**4
                  CONTENTS, READONLY, DEBUGGING
 19 .debug_macro  00011e9f  0000000000000000  0000000000000000  00043cc0  2**0
                  CONTENTS, READONLY, DEBUGGING
 20 .debug_line   0000a90e  0000000000000000  0000000000000000  00055b5f  2**0
                  CONTENTS, READONLY, DEBUGGING
 21 .debug_str    00011e54  0000000000000000  0000000000000000  0006046d  2**0
                  CONTENTS, READONLY, DEBUGGING
 22 .comment      00000055  0000000000000000  0000000000000000  000722c1  2**0
                  CONTENTS, READONLY
SYMBOL TABLE:
0000000000000000 l    d  .ta_head	0000000000000000 .ta_head
0000000000000020 l    d  .text	0000000000000000 .text
000000000000a410 l    d  .eh_frame	0000000000000000 .eh_frame
000000000000c718 l    d  .rodata	0000000000000000 .rodata
000000000000e030 l    d  .gnu.hash	0000000000000000 .gnu.hash
000000000000e050 l    d  .dynsym	0000000000000000 .dynsym
000000000000e098 l    d  .dynstr	0000000000000000 .dynstr
000000000000e0a0 l    d  .hash	0000000000000000 .hash
000000000000e0b8 l    d  .rela.dyn	0000000000000000 .rela.dyn
000000000000f000 l    d  .got	0000000000000000 .got
000000000000f088 l    d  .rela.got	0000000000000000 .rela.got
000000000000f1c0 l    d  .dynamic	0000000000000000 .dynamic
000000000000f2d0 l    d  .data	0000000000000000 .data
000000000000f418 l    d  .bss	0000000000000000 .bss
0000000000000000 l    d  .debug_info	0000000000000000 .debug_info
0000000000000000 l    d  .debug_abbrev	0000000000000000 .debug_abbrev
0000000000000000 l    d  .debug_loc	0000000000000000 .debug_loc
0000000000000000 l    d  .debug_aranges	0000000000000000 .debug_aranges
0000000000000000 l    d  .debug_ranges	0000000000000000 .debug_ranges
0000000000000000 l    d  .debug_macro	0000000000000000 .debug_macro
0000000000000000 l    d  .debug_line	0000000000000000 .debug_line
0000000000000000 l    d  .debug_str	0000000000000000 .debug_str
0000000000000000 l    d  .comment	0000000000000000 .comment
0000000000000000 l    df *ABS*	0000000000000000 user_ta_header.c
000000000000c720 l     O .rodata	0000000000000004 __compound_literal.4
000000000000c724 l     O .rodata	0000000000000004 __compound_literal.3
000000000000c728 l     O .rodata	0000000000000001 __compound_literal.2
000000000000c729 l     O .rodata	0000000000000001 __compound_literal.1
000000000000c72a l     O .rodata	0000000000000001 __compound_literal.0
0000000000000000 l    df *ABS*	0000000000000000 trusted_data_store.c
0000000000000000 l    df *ABS*	0000000000000000 tds_storage.c
0000000000000208 l     F .text	000000000000006c read_string
0000000000000000 l    df *ABS*	0000000000000000 bget_malloc.c
0000000000000668 l     F .text	0000000000000044 raw_malloc_return_hook.constprop.21
000000000000d590 l     O .rodata	0000000000000005 __func__.3627
000000000000d595 l     O .rodata	0000000000000006 __func__.3642
000000000000d59b l     O .rodata	0000000000000005 __func__.3660
000000000000d5a0 l     O .rodata	0000000000000006 __func__.3651
000000000000d5a6 l     O .rodata	0000000000000006 __func__.3669
000000000000d5ac l     O .rodata	0000000000000007 __func__.3679
000000000000d5b3 l     O .rodata	0000000000000014 __func__.3843
000000000000d5c7 l     O .rodata	000000000000000e __func__.3794
000000000000d5d5 l     O .rodata	0000000000000013 __func__.3741
000000000000f378 l     O .data	0000000000000080 malloc_ctx
0000000000000000 l    df *ABS*	0000000000000000 memcpy.c
0000000000000000 l    df *ABS*	0000000000000000 memset.c
0000000000000000 l    df *ABS*	0000000000000000 strlen.c
0000000000000000 l    df *ABS*	0000000000000000 assert.c
0000000000000000 l    df *ABS*	0000000000000000 tee_api_objects.c
0000000000000000 l    df *ABS*	0000000000000000 tee_api_panic.c
0000000000000000 l    df *ABS*	0000000000000000 user_ta_entry.c
0000000000002034 l     F .text	0000000000000028 ta_header_get_session
000000000000205c l     F .text	0000000000000094 ta_header_remove_session
00000000000020f0 l     F .text	0000000000000014 ta_header_save_params.part.0
000000000001a498 l     O .bss	0000000000000001 init_done
000000000000f3f8 l     O .data	0000000000000010 ta_sessions
0000000000000000 l    df *ABS*	0000000000000000 utee_syscalls_a64.o
0000000000000000 l    df *ABS*	0000000000000000 tee_api.c
000000000000f468 l     O .bss	0000000000000008 tee_api_instance_data
000000000000d1e7 l     O .rodata	000000000000000b __func__.4664
0000000000000000 l    df *ABS*	0000000000000000 tee_api_arith_mpi.c
0000000000002a8c l     F .text	0000000000000030 api_panic
0000000000002abc l     F .text	0000000000000030 mpi_panic
0000000000002aec l     F .text	0000000000000098 get_mpi
0000000000002b84 l     F .text	0000000000000064 copy_mpi_to_bigint
0000000000002be8 l     F .text	0000000000000118 bigint_binary
0000000000002d00 l     F .text	0000000000000020 mpi_is_odd
0000000000002d20 l     F .text	0000000000000028 rng_read
0000000000002d48 l     F .text	000000000000054c mpi_egcd
000000000000f470 l     O .bss	0000000000003000 data.4653
0000000000003630 l     F .text	0000000000000194 bigint_binary_mod
000000000000d8c4 l     O .rodata	0000000000000008 __func__.4687
000000000000d8cc l     O .rodata	000000000000000e __func__.4784
000000000000d8da l     O .rodata	0000000000000009 __func__.4930
000000000000d8e3 l     O .rodata	0000000000000012 __func__.4654
000000000000d8f5 l     O .rodata	000000000000000f __func__.4693
000000000000d904 l     O .rodata	000000000000001f __func__.4711
000000000000d923 l     O .rodata	0000000000000019 __func__.4718
000000000000d93c l     O .rodata	0000000000000012 __func__.4796
000000000000d94e l     O .rodata	0000000000000015 __func__.4749
000000000000d963 l     O .rodata	000000000000000e __func__.4824
000000000000d971 l     O .rodata	000000000000000e __func__.4853
000000000000d97f l     O .rodata	000000000000000e __func__.4861
000000000000d98d l     O .rodata	0000000000000011 __func__.4890
000000000000d99e l     O .rodata	0000000000000018 __func__.4907
000000000000d9b6 l     O .rodata	000000000000001d __func__.4987
000000000000d9d3 l     O .rodata	0000000000000019 __func__.5040
000000000000d9ec l     O .rodata	0000000000000015 __func__.5055
0000000000000000 l    df *ABS*	0000000000000000 trace_ext.c
0000000000000000 l    df *ABS*	0000000000000000 bignum.c
0000000000004544 l     F .text	0000000000000064 mpi_get_digit
00000000000045a8 l     F .text	0000000000000060 mpi_sub_hlp
0000000000004608 l     F .text	00000000000004d4 mpi_mul_hlp
00000000000064f0 l     F .text	00000000000000d4 mpi_write_hlp
0000000000006798 l     F .text	0000000000000098 mpi_check_small_factors
00000000000072ac l     F .text	0000000000000288 mpi_miller_rabin
000000000000d1f4 l     O .rodata	00000000000002a0 small_prime
000000000000d494 l     O .rodata	0000000000000024 gcd_pairs
0000000000000000 l    df *ABS*	0000000000000000 platform_util.c
000000000000f408 l     O .data	0000000000000008 memset_func
0000000000000000 l    df *ABS*	0000000000000000 entry.c
0000000000000000 l    df *ABS*	0000000000000000 hashtable.c
000000000000c740 l     O .rodata	0000000000000548 primes
0000000000012478 l     O .bss	0000000000000010 DELETED
00000000000081c4 l     F .text	000000000000008c basic_hash
0000000000008250 l     F .text	0000000000000048 hashtable_hash
0000000000008478 l     F .text	00000000000000f0 hashtable_resize
0000000000008568 l     F .text	0000000000000034 hashtable_resize_up
000000000000859c l     F .text	0000000000000038 hashtable_resize_down
00000000000086ec l     F .text	00000000000000e0 hashtable_get_entry_index
0000000000000000 l    df *ABS*	0000000000000000 hashtable_iterator.c
0000000000012488 l     O .bss	0000000000000010 DELETED
00000000000089ac l     F .text	0000000000000044 is_valid_entry
00000000000089f0 l     F .text	0000000000000094 find_next
0000000000000000 l    df *ABS*	0000000000000000 prime.c
000000000000cc88 l     O .rodata	0000000000000548 primes
0000000000000000 l    df *ABS*	0000000000000000 data_store.c
0000000000008f04 l     F .text	0000000000000064 delete_set
0000000000000000 l    df *ABS*	0000000000000000 data.c
0000000000000000 l    df *ABS*	0000000000000000 snprintf.c
0000000000000000 l    df *ABS*	0000000000000000 strdup.c
0000000000000000 l    df *ABS*	0000000000000000 memmove.c
0000000000000000 l    df *ABS*	0000000000000000 strcmp.c
0000000000000000 l    df *ABS*	0000000000000000 snprintk.c
000000000000df15 l     O .rodata	0000000000000011 hexdigits
000000000000df26 l     O .rodata	0000000000000011 HEXDIGITS
0000000000000000 l    df *ABS*	0000000000000000 trace.c
000000000000df6f l     O .rodata	0000000000000005 lvl_strs.3485
0000000000000000 l    df *ABS*	0000000000000000 mempool.c
000000000000df8e l     O .rodata	0000000000000013 __func__.3538
000000000000dfa1 l     O .rodata	000000000000000e __func__.3547
0000000000000000 l    df *ABS*	0000000000000000 consttime_memcmp.c
0000000000000000 l    df *ABS*	0000000000000000 memchr.c
0000000000000000 l    df *ABS*	0000000000000000 
000000000000f1c0 l     O *ABS*	0000000000000000 _DYNAMIC
000000000000f018 l     O *ABS*	0000000000000000 _GLOBAL_OFFSET_TABLE_
0000000000004508 g     F .text	000000000000003c putchar
0000000000008e68 g     F .text	000000000000009c data_store_delete_field
0000000000001748 g     F .text	00000000000000c0 TEE_PopulateTransientObject
0000000000008c34 g     F .text	0000000000000018 create_data_store
0000000000004218 g     F .text	0000000000000004 TEE_BigIntConvertToFMM
0000000000003d74 g     F .text	000000000000000c TEE_BigIntSquareMod
00000000000037c4 g     F .text	000000000000016c TEE_BigIntShiftRight
0000000000002504 g     F .text	000000000000000c utee_storage_obj_create
0000000000004b80 g     F .text	00000000000000f8 mbedtls_mpi_grow
000000000000230c g     F .text	000000000000000c utee_return
0000000000002a68 g     F .text	0000000000000008 TEE_Realloc
0000000000004400 g     F .text	00000000000000c8 printf
0000000000002318 g     F .text	000000000000000c utee_log
0000000000001808 g     F .text	0000000000000054 TEE_InitRefAttribute
0000000000002748 g     F .text	00000000000000b8 TEE_InvokeTACommand
0000000000004aec g     F .text	0000000000000028 mbedtls_mpi_init_mempool
00000000000052f4 g     F .text	00000000000000c4 mbedtls_mpi_write_binary
0000000000009e98 g     F .text	0000000000000054 vsnprintk
0000000000005a88 g     F .text	0000000000000040 mbedtls_mpi_sub_int
00000000000091e4 g     F .text	000000000000005c memmove
00000000000090d4 g     F .text	0000000000000078 snprintf
00000000000035e8 g     F .text	0000000000000048 TEE_BigIntCmpS32
0000000000008f68 g     F .text	000000000000006c data_store_delete_key
000000000000185c g     F .text	0000000000000050 TEE_InitValueAttribute
0000000000004c78 g     F .text	0000000000000120 mbedtls_mpi_shrink
00000000000039bc g     F .text	000000000000000c TEE_BigIntAdd
000000000000233c g     F .text	000000000000000c utee_get_property_name_to_index
000000000000c730 g     O .rodata	0000000000000008 ta_heap_size
00000000000016f4 g     F .text	0000000000000054 TEE_ResetTransientObject
00000000000023c0 g     F .text	000000000000000c utee_cryp_state_alloc
00000000000024c8 g     F .text	000000000000000c utee_authenc_enc_final
0000000000005c4c g     F .text	00000000000001e4 mbedtls_mpi_read_string
0000000000008d70 g     F .text	00000000000000f8 data_store_insert
00000000000039d4 g     F .text	00000000000000b0 TEE_BigIntNeg
0000000000000020 g       .text	0000000000000000 __text_start
0000000000001d50 g     F .text	0000000000000050 TEE_StartPersistentObjectEnumerator
00000000000054b8 g     F .text	00000000000000c8 mbedtls_mpi_shift_r
000000000000120c g     F .text	000000000000006c malloc_buffer_overlaps_heap
0000000000003d5c g     F .text	000000000000000c TEE_BigIntSubMod
0000000000007a24 g     F .text	000000000000030c mbedtls_mpi_gen_prime
00000000000050b8 g     F .text	000000000000002c mbedtls_mpi_get_bit
000000000000523c g     F .text	00000000000000b8 mbedtls_mpi_read_binary
0000000000009f8c g     F .text	0000000000000238 trace_printf
000000000000686c g     F .text	0000000000000134 mbedtls_mpi_montmul
0000000000001278 g     F .text	0000000000000020 memcpy
00000000000023d8 g     F .text	000000000000000c utee_cryp_state_free
000000000000421c g     F .text	000000000000009c TEE_BigIntConvertFromFMM
000000000000202c g     F .text	0000000000000008 TEE_Panic
00000000000044c8 g     F .text	0000000000000040 puts
00000000000042b8 g     F .text	0000000000000118 TEE_BigIntComputeFMM
0000000000000e04 g     F .text	0000000000000038 malloc_get_stats
0000000000002420 g     F .text	000000000000000c utee_cipher_final
00000000000029e4 g     F .text	0000000000000028 TEE_GetREETime
0000000000001ca0 g     F .text	0000000000000060 TEE_AllocatePersistentObjectEnumerator
000000000000f418 g     O .bss	0000000000000008 store
000000000000f2d0 g     O .data	00000000000000a8 ta_props
0000000000000e3c g     F .text	0000000000000050 malloc
000000000000245c g     F .text	000000000000000c utee_cryp_obj_close
0000000000008ce4 g     F .text	0000000000000054 data_store_get
000000000000914c g     F .text	0000000000000054 vsnprintf
00000000000019ac g     F .text	0000000000000088 TEE_GenerateKey
000000000000f410 g     O .data	0000000000000004 trace_level
0000000000003580 g     F .text	0000000000000068 TEE_BigIntCmp
000000000000c718 g     O .rodata	0000000000000008 ta_num_props
0000000000000bb4 g     F .text	00000000000000cc bgetr
00000000000024bc g     F .text	000000000000000c utee_authenc_update_payload
000000000000a32c g     F .text	0000000000000044 mempool_free
00000000000033e0 g     F .text	0000000000000094 TEE_BigIntConvertToOctetString
00000000000025a0 g     F .text	000000000000000c utee_cache_operation
00000000000051c4 g     F .text	000000000000005c mbedtls_mpi_bitlen
00000000000024a4 g     F .text	000000000000000c utee_authenc_init
0000000000003930 g     F .text	000000000000004c TEE_BigIntGetBit
000000000000c738 g     O .rodata	0000000000000003 trace_ext_prefix
000000000000086c g     F .text	000000000000008c bgetz
00000000000028a4 g     F .text	000000000000000c TEE_GetInstanceData
0000000000008298 g     F .text	0000000000000084 new_hashtable
00000000000028f0 g     F .text	000000000000003c TEE_Wait
0000000000002570 g     F .text	000000000000000c utee_storage_obj_write
0000000000005ac8 g     F .text	0000000000000150 mbedtls_mpi_mul_mpi
0000000000008120 g     F .text	0000000000000078 create_entry
0000000000002a7c g     F .text	0000000000000008 TEE_CacheFlush
000000000000002c g     F .text	0000000000000018 TA_DestroyEntryPoint
0000000000004adc g     F .text	0000000000000010 mbedtls_mpi_init
00000000000083ac g     F .text	00000000000000cc hashtable_insert_new_entry
0000000000005170 g     F .text	0000000000000054 mbedtls_mpi_lsb
00000000000012d0 g     F .text	0000000000000044 _assert_log
0000000000004210 g     F .text	0000000000000008 TEE_BigIntFMMContextSizeInU32
0000000000001c2c g     F .text	0000000000000074 TEE_RenamePersistentObject
0000000000008198 g     F .text	000000000000002c delete_entry
0000000000003294 g     F .text	0000000000000050 _TEE_MathAPI_Init
0000000000005934 g     F .text	0000000000000088 mbedtls_mpi_add_mpi
0000000000002558 g     F .text	000000000000000c utee_storage_next_enum
0000000000008bcc g     F .text	0000000000000068 new_data_store
0000000000012498 g     O .bss	0000000000008000 ta_heap
0000000000003d80 g     F .text	000000000000011c TEE_BigIntInvMod
0000000000000054 g     F .text	0000000000000004 TA_CloseSessionEntryPoint
0000000000001a34 g     F .text	00000000000000c0 TEE_OpenPersistentObject
00000000000059bc g     F .text	000000000000008c mbedtls_mpi_sub_mpi
000000000000a370 g     F .text	0000000000000070 consttime_memcmp
0000000000002324 g     F .text	000000000000000c __utee_panic
00000000000023cc g     F .text	000000000000000c utee_cryp_state_copy
0000000000000058 g     F .text	00000000000001b0 TA_InvokeCommandEntryPoint
0000000000000f58 g     F .text	0000000000000018 free_wipe
000000000000a230 g     F .text	00000000000000ac mempool_alloc
0000000000002450 g     F .text	000000000000000c utee_cryp_obj_alloc
00000000000023b4 g     F .text	000000000000000c utee_set_ta_time
0000000000002444 g     F .text	000000000000000c utee_cryp_obj_get_attr
000000000000a2dc g     F .text	0000000000000050 mempool_calloc
0000000000001958 g     F .text	0000000000000054 TEE_CopyObjectAttributes
0000000000000e8c g     F .text	0000000000000064 calloc
0000000000002a0c g     F .text	000000000000005c TEE_Malloc
0000000000002390 g     F .text	000000000000000c utee_mask_cancellation
0000000000002468 g     F .text	000000000000000c utee_cryp_obj_reset
0000000000002884 g     F .text	0000000000000014 TEE_CheckMemoryAccessRights
000000000001a4a0 g       .bss	0000000000000000 __gprof_buf_end
0000000000005050 g     F .text	0000000000000068 mbedtls_mpi_lset
0000000000001e20 g     F .text	000000000000006c TEE_ReadObjectData
0000000000001494 g     F .text	00000000000000ac TEE_GetObjectBufferAttribute
0000000000000044 g     F .text	0000000000000010 TA_OpenSessionEntryPoint
000000000000254c g     F .text	000000000000000c utee_storage_start_enum
000000000000251c g     F .text	000000000000000c utee_storage_obj_rename
000000000000f420 g     O .bss	0000000000000004 ta_param_types
000000000000635c g     F .text	0000000000000040 mbedtls_mpi_div_int
0000000000001328 g     F .text	0000000000000050 __utee_from_attr
000000000000796c g     F .text	00000000000000a8 mbedtls_mpi_is_prime_ext
00000000000041a8 g     F .text	0000000000000050 TEE_BigIntIsProbablePrime
0000000000005c18 g     F .text	0000000000000034 mbedtls_mpi_mul_int
0000000000001bb8 g     F .text	0000000000000048 TEE_CloseAndDeletePersistentObject1
00000000000069e0 g     F .text	000000000000068c mbedtls_mpi_exp_mod
0000000000004eac g     F .text	00000000000000c0 mbedtls_mpi_safe_cond_assign
0000000000002330 g     F .text	000000000000000c utee_get_property
00000000000032e4 g     F .text	0000000000000070 TEE_BigIntInit
00000000000028b0 g     F .text	0000000000000008 TEE_MemMove
000000000000810c g     F .text	0000000000000014 mbedtls_platform_zeroize
0000000000003354 g     F .text	000000000000008c TEE_BigIntConvertFromOctetString
0000000000005580 g     F .text	000000000000009c mbedtls_mpi_cmp_abs
000000000000a3e0 g     F .text	000000000000002c memchr
000000000000282c g     F .text	000000000000002c TEE_UnmaskCancellation
0000000000001378 g     F .text	0000000000000048 TEE_GetObjectInfo
0000000000007d30 g     F .text	00000000000003dc mbedtls_mpi_self_test
0000000000002510 g     F .text	000000000000000c utee_storage_obj_del
0000000000002588 g     F .text	000000000000000c utee_storage_obj_seek
00000000000016a0 g     F .text	0000000000000054 TEE_FreeTransientObject
00000000000056f4 g     F .text	0000000000000040 mbedtls_mpi_cmp_int
00000000000023f0 g     F .text	000000000000000c utee_hash_update
0000000000003cec g     F .text	0000000000000064 TEE_BigIntMod
0000000000006450 g     F .text	00000000000000a0 mbedtls_mpi_mod_int
0000000000002354 g     F .text	000000000000000c utee_close_ta_session
0000000000003b74 g     F .text	0000000000000178 TEE_BigIntDiv
0000000000004d98 g     F .text	00000000000000b4 mbedtls_mpi_copy
0000000000000dec g     F .text	0000000000000018 malloc_reset_stats
0000000000008b68 g     F .text	0000000000000064 next_prime
0000000000002414 g     F .text	000000000000000c utee_cipher_update
0000000000001400 g     F .text	0000000000000044 TEE_RestrictObjectUsage1
0000000000000ef0 g     F .text	0000000000000050 realloc
0000000000004e4c g     F .text	0000000000000060 mbedtls_mpi_swap
0000000000008968 g     F .text	0000000000000044 hashtable_get
000000000000a1c8 g     F .text	0000000000000068 mempool_alloc_pool
00000000000024ec g     F .text	000000000000000c utee_asymm_verify
0000000000003a84 g     F .text	00000000000000e8 TEE_BigIntMul
00000000000053b8 g     F .text	0000000000000100 mbedtls_mpi_shift_l
000000000000561c g     F .text	00000000000000d8 mbedtls_mpi_cmp_mpi
00000000000028c0 g     F .text	0000000000000008 TEE_MemFill
0000000000000f70 g     F .text	000000000000011c malloc_add_pool
0000000000009f7c g     F .text	0000000000000010 trace_get_level
0000000000005734 g     F .text	000000000000012c mbedtls_mpi_add_abs
0000000000002498 g     F .text	000000000000000c utee_cryp_random_number_generate
0000000000001444 g     F .text	0000000000000050 TEE_RestrictObjectUsage
0000000000004200 g     F .text	0000000000000010 TEE_BigIntFMMSizeInU32
00000000000041f8 g     F .text	0000000000000004 TEE_BigIntInitFMM
00000000000024e0 g     F .text	000000000000000c utee_asymm_operate
0000000000001614 g     F .text	0000000000000028 TEE_CloseObject
00000000000087cc g     F .text	0000000000000138 hashtable_delete
0000000000002104 g     F .text	00000000000001fc __utee_entry
000000000000a40c g       .text	0000000000000000 __text_end
0000000000003e9c g     F .text	00000000000000d4 TEE_BigIntRelativePrime
000000000000639c g     F .text	00000000000000b4 mbedtls_mpi_mod_mpi
0000000000000c80 g     F .text	00000000000000d4 bpool
00000000000091a0 g     F .text	0000000000000044 strdup
0000000000002800 g     F .text	000000000000002c TEE_GetCancellationFlag
000000000000706c g     F .text	00000000000001bc mbedtls_mpi_gcd
00000000000029a0 g     F .text	0000000000000044 TEE_SetTAPersistentTime
0000000000001298 g     F .text	000000000000001c memset
000000000000292c g     F .text	0000000000000074 TEE_GetTAPersistentTime
000000000000a1c4 g     F .text	0000000000000004 dhex_dump
0000000000001af4 g     F .text	00000000000000c4 TEE_CreatePersistentObject
0000000000002858 g     F .text	000000000000002c TEE_MaskCancellation
0000000000002564 g     F .text	000000000000000c utee_storage_obj_read
0000000000001ef4 g     F .text	0000000000000060 TEE_TruncateObjectData
0000000000002474 g     F .text	000000000000000c utee_cryp_obj_populate
000000000000831c g     F .text	0000000000000090 delete_hashtable
00000000000013c0 g     F .text	0000000000000040 TEE_GetObjectInfo1
0000000000009f60 g     F .text	000000000000001c trace_set_level
000000000000242c g     F .text	000000000000000c utee_cryp_obj_get_info
0000000000001540 g     F .text	00000000000000d4 TEE_GetObjectValueAttribute
0000000000002528 g     F .text	000000000000000c utee_storage_alloc_enum
0000000000002540 g     F .text	000000000000000c utee_storage_reset_enum
000000000000257c g     F .text	000000000000000c utee_storage_obj_trunc
0000000000008fd4 g     F .text	0000000000000070 set_data_value
0000000000008b48 g     F .text	0000000000000020 delete_hashtable_iterator
0000000000009240 g     F .text	0000000000000024 strcmp
00000000000034f8 g     F .text	0000000000000088 TEE_BigIntConvertToS32
00000000000039c8 g     F .text	000000000000000c TEE_BigIntSub
000000000000236c g     F .text	000000000000000c utee_get_cancellation_flag
00000000000023e4 g     F .text	000000000000000c utee_hash_init
0000000000000660 g     F .text	0000000000000008 tahead_get_trace_level
00000000000025ac g     F .text	0000000000000078 __utee_from_param
0000000000008a84 g     F .text	0000000000000060 create_hashtable_iterator
0000000000001f54 g     F .text	00000000000000d8 TEE_SeekObjectData
0000000000002624 g     F .text	000000000000006c __utee_to_param
00000000000069a0 g     F .text	0000000000000040 mbedtls_mpi_montred
0000000000003474 g     F .text	0000000000000084 TEE_BigIntConvertFromS32
0000000000005a48 g     F .text	0000000000000040 mbedtls_mpi_add_int
0000000000002438 g     F .text	000000000000000c utee_cryp_obj_restrict_usage
000000000000108c g     F .text	0000000000000180 malloc_buffer_is_within_alloced
0000000000002480 g     F .text	000000000000000c utee_cryp_obj_copy
00000000000041fc g     F .text	0000000000000004 TEE_BigIntInitFMMContext
000000000000248c g     F .text	000000000000000c utee_cryp_derive_key
0000000000008d38 g     F .text	0000000000000038 data_store_insert_new_entry
00000000000024d4 g     F .text	000000000000000c utee_authenc_dec_final
0000000000008b08 g     F .text	0000000000000040 next
0000000000001d28 g     F .text	0000000000000028 TEE_ResetPersistentObjectEnumerator
0000000000001e8c g     F .text	0000000000000068 TEE_WriteObjectData
0000000000003b6c g     F .text	0000000000000008 TEE_BigIntSquare
0000000000000020 g     F .text	000000000000000c TA_CreateEntryPoint
000000000000064c g     F .text	0000000000000014 __ta_entry
0000000000009eec g     F .text	0000000000000074 snprintk
0000000000006830 g     F .text	000000000000003c mbedtls_mpi_montg_init
000000000000397c g     F .text	0000000000000040 TEE_BigIntGetBitCount
0000000000003d68 g     F .text	000000000000000c TEE_BigIntMulMod
0000000000007534 g     F .text	0000000000000438 mbedtls_mpi_inv_mod
000000000000f428 g     O .bss	0000000000000040 ta_params
0000000000005e30 g     F .text	000000000000052c mbedtls_mpi_div_mpi
00000000000085d4 g     F .text	0000000000000118 hashtable_insert
0000000000005220 g     F .text	000000000000001c mbedtls_mpi_size
00000000000006ac g     F .text	00000000000001c0 bget
000000000000163c g     F .text	0000000000000064 TEE_AllocateTransientObject
00000000000050e4 g     F .text	000000000000008c mbedtls_mpi_set_bit
0000000000002a70 g     F .text	0000000000000004 TEE_Free
0000000000007a14 g     F .text	0000000000000010 mbedtls_mpi_is_prime
0000000000002a84 g     F .text	0000000000000008 TEE_CacheInvalidate
0000000000002408 g     F .text	000000000000000c utee_cipher_init
0000000000001314 g     F .text	0000000000000014 _assert_break
0000000000003d50 g     F .text	000000000000000c TEE_BigIntAddMod
0000000000009044 g     F .text	0000000000000064 create_data_struct
0000000000002534 g     F .text	000000000000000c utee_storage_free_enum
00000000000024b0 g     F .text	000000000000000c utee_authenc_update_aad
0000000000008c4c g     F .text	000000000000003c data_store_contains_key
00000000000028b8 g     F .text	0000000000000008 TEE_MemCompare
0000000000009264 g     F .text	0000000000000c34 __vsnprintf
0000000000001d00 g     F .text	0000000000000028 TEE_FreePersistentObjectEnumerator
0000000000008c88 g     F .text	000000000000005c data_store_contains_field
0000000000002690 g     F .text	0000000000000090 TEE_OpenTASession
0000000000002300 g     F .text	000000000000000c utee_panic
0000000000008ae4 g     F .text	0000000000000024 has_next
00000000000043d0 g     F .text	0000000000000028 trace_ext_puts
00000000000043f8 g     F .text	0000000000000008 trace_ext_get_thread_id
0000000000001c00 g     F .text	000000000000002c TEE_CloseAndDeletePersistentObject
0000000000000274 g     F .text	000000000000021c load_data_store
0000000000004b14 g     F .text	000000000000006c mbedtls_mpi_free
0000000000002a74 g     F .text	0000000000000008 TEE_CacheClean
0000000000002348 g     F .text	000000000000000c utee_open_ta_session
0000000000000490 g     F .text	00000000000001bc save_data_store
0000000000004f6c g     F .text	00000000000000e4 mbedtls_mpi_safe_cond_swap
00000000000090a8 g     F .text	000000000000002c delete_data
00000000000018ac g     F .text	00000000000000ac TEE_CopyObjectAttributes1
00000000000023fc g     F .text	000000000000000c utee_hash_final
00000000000012b4 g     F .text	000000000000001c strlen
0000000000003f70 g     F .text	0000000000000238 TEE_BigIntComputeExtendedGcd
00000000000024f8 g     F .text	000000000000000c utee_storage_obj_open
0000000000002360 g     F .text	000000000000000c utee_invoke_ta_command
000000000000239c g     F .text	000000000000000c utee_wait
00000000000028c8 g     F .text	0000000000000028 TEE_GetSystemTime
0000000000000000 g     O .ta_head	0000000000000020 ta_head
0000000000008904 g     F .text	0000000000000064 hashtable_get_entry
00000000000008f8 g     F .text	00000000000002bc brel
0000000000005860 g     F .text	00000000000000d4 mbedtls_mpi_sub_abs
00000000000023a8 g     F .text	000000000000000c utee_get_time
0000000000007228 g     F .text	0000000000000084 mbedtls_mpi_fill_random
0000000000002898 g     F .text	000000000000000c TEE_SetInstanceData
0000000000002384 g     F .text	000000000000000c utee_unmask_cancellation
0000000000002378 g     F .text	000000000000000c utee_check_access_rights
00000000000065c4 g     F .text	00000000000001d4 mbedtls_mpi_write_string
0000000000001da0 g     F .text	0000000000000080 TEE_GetNextPersistentObject
0000000000002594 g     F .text	000000000000000c utee_cryp_obj_generate_key
0000000000002720 g     F .text	0000000000000028 TEE_CloseTASession
000000000001a4a0 g       .bss	0000000000000000 __gprof_buf_start
0000000000000f40 g     F .text	0000000000000018 free
0000000000000d54 g     F .text	0000000000000098 bstats
0000000000012470 g     O .bss	0000000000000008 mbedtls_mpi_mempool



Disassembly of section .text:

0000000000000020 <TA_CreateEntryPoint>:
TA_CreateEntryPoint():
/home/thesis/Desktop/trusted_data_store/ta/trusted_data_store.c:38
      20:	f0000060 	adrp	x0, f000 <.got>
      24:	f9401400 	ldr	x0, [x0, #40]
      28:	14000093 	b	274 <load_data_store>

000000000000002c <TA_DestroyEntryPoint>:
TA_DestroyEntryPoint():
/home/thesis/Desktop/trusted_data_store/ta/trusted_data_store.c:47
      2c:	f0000060 	adrp	x0, f000 <.got>
      30:	f9401400 	ldr	x0, [x0, #40]
      34:	f9400000 	ldr	x0, [x0]
      38:	b4000040 	cbz	x0, 40 <TA_DestroyEntryPoint+0x14>
/home/thesis/Desktop/trusted_data_store/ta/trusted_data_store.c:47 (discriminator 1)
      3c:	14000115 	b	490 <save_data_store>
/home/thesis/Desktop/trusted_data_store/ta/trusted_data_store.c:48
      40:	d65f03c0 	ret

0000000000000044 <TA_OpenSessionEntryPoint>:
TA_OpenSessionEntryPoint():
/home/thesis/Desktop/trusted_data_store/ta/trusted_data_store.c:63
      44:	7100001f 	cmp	w0, #0x0
/home/thesis/Desktop/trusted_data_store/ta/trusted_data_store.c:67
      48:	129fff21 	mov	w1, #0xffff0006            	// #-65530
      4c:	1a810000 	csel	w0, w0, w1, eq  // eq = none
      50:	d65f03c0 	ret

0000000000000054 <TA_CloseSessionEntryPoint>:
TA_CloseSessionEntryPoint():
/home/thesis/Desktop/trusted_data_store/ta/trusted_data_store.c:76
      54:	d65f03c0 	ret

0000000000000058 <TA_InvokeCommandEntryPoint>:
TA_InvokeCommandEntryPoint():
/home/thesis/Desktop/trusted_data_store/ta/trusted_data_store.c:177
      58:	a9ba7bfd 	stp	x29, x30, [sp, #-96]!
      5c:	910003fd 	mov	x29, sp
      60:	a9025bf5 	stp	x21, x22, [sp, #32]
tds_delete_key():
/home/thesis/Desktop/trusted_data_store/ta/trusted_data_store.c:169
      64:	f0000075 	adrp	x21, f000 <.got>
TA_InvokeCommandEntryPoint():
/home/thesis/Desktop/trusted_data_store/ta/trusted_data_store.c:177
      68:	a9046bf9 	stp	x25, x26, [sp, #64]
/home/thesis/Desktop/trusted_data_store/ta/trusted_data_store.c:185
      6c:	b0000079 	adrp	x25, d000 <primes+0x378>
      70:	91074339 	add	x25, x25, #0x1d0
tds_delete_key():
/home/thesis/Desktop/trusted_data_store/ta/trusted_data_store.c:169
      74:	f94016ba 	ldr	x26, [x21, #40]
TA_InvokeCommandEntryPoint():
/home/thesis/Desktop/trusted_data_store/ta/trusted_data_store.c:177
      78:	a90153f3 	stp	x19, x20, [sp, #16]
      7c:	2a0203f4 	mov	w20, w2
      80:	aa0303f3 	mov	x19, x3
      84:	a90363f7 	stp	x23, x24, [sp, #48]
      88:	2a0103f8 	mov	w24, w1
      8c:	52800c97 	mov	w23, #0x64                  	// #100
      90:	f9002bfb 	str	x27, [sp, #80]
/home/thesis/Desktop/trusted_data_store/ta/trusted_data_store.c:185
      94:	7100171f 	cmp	w24, #0x5
      98:	54000b48 	b.hi	200 <TA_InvokeCommandEntryPoint+0x1a8>  // b.pmore
      9c:	38784b20 	ldrb	w0, [x25, w24, uxtw]
      a0:	10000061 	adr	x1, ac <TA_InvokeCommandEntryPoint+0x54>
      a4:	8b208820 	add	x0, x1, w0, sxtb #2
      a8:	d61f0000 	br	x0
tds_contains_key():
/home/thesis/Desktop/trusted_data_store/ta/trusted_data_store.c:85
      ac:	7100169f 	cmp	w20, #0x5
      b0:	54000a81 	b.ne	200 <TA_InvokeCommandEntryPoint+0x1a8>  // b.any
/home/thesis/Desktop/trusted_data_store/ta/trusted_data_store.c:87
      b4:	f94016a0 	ldr	x0, [x21, #40]
      b8:	f9400261 	ldr	x1, [x19]
      bc:	f9400000 	ldr	x0, [x0]
      c0:	940022e3 	bl	8c4c <data_store_contains_key>
      c4:	72001c1f 	tst	w0, #0xff
      c8:	54000160 	b.eq	f4 <TA_InvokeCommandEntryPoint+0x9c>  // b.none
      cc:	52800000 	mov	w0, #0x0                   	// #0
TA_InvokeCommandEntryPoint():
/home/thesis/Desktop/trusted_data_store/ta/trusted_data_store.c:182 (discriminator 2)
      d0:	710006f7 	subs	w23, w23, #0x1
      d4:	54fffe01 	b.ne	94 <TA_InvokeCommandEntryPoint+0x3c>  // b.any
/home/thesis/Desktop/trusted_data_store/ta/trusted_data_store.c:219
      d8:	a94153f3 	ldp	x19, x20, [sp, #16]
      dc:	a9425bf5 	ldp	x21, x22, [sp, #32]
      e0:	a94363f7 	ldp	x23, x24, [sp, #48]
      e4:	a9446bf9 	ldp	x25, x26, [sp, #64]
      e8:	f9402bfb 	ldr	x27, [sp, #80]
      ec:	a8c67bfd 	ldp	x29, x30, [sp], #96
      f0:	d65f03c0 	ret
tds_contains_key():
/home/thesis/Desktop/trusted_data_store/ta/trusted_data_store.c:88
      f4:	129ffee0 	mov	w0, #0xffff0008            	// #-65528
      f8:	17fffff6 	b	d0 <TA_InvokeCommandEntryPoint+0x78>
tds_contains_field():
/home/thesis/Desktop/trusted_data_store/ta/trusted_data_store.c:98
      fc:	7101569f 	cmp	w20, #0x55
     100:	54000801 	b.ne	200 <TA_InvokeCommandEntryPoint+0x1a8>  // b.any
/home/thesis/Desktop/trusted_data_store/ta/trusted_data_store.c:100
     104:	f94016a0 	ldr	x0, [x21, #40]
     108:	f9400261 	ldr	x1, [x19]
     10c:	f9400000 	ldr	x0, [x0]
     110:	f9400a62 	ldr	x2, [x19, #16]
     114:	940022dd 	bl	8c88 <data_store_contains_field>
     118:	17ffffeb 	b	c4 <TA_InvokeCommandEntryPoint+0x6c>
tds_get():
/home/thesis/Desktop/trusted_data_store/ta/trusted_data_store.c:111
     11c:	7119569f 	cmp	w20, #0x655
     120:	54000701 	b.ne	200 <TA_InvokeCommandEntryPoint+0x1a8>  // b.any
/home/thesis/Desktop/trusted_data_store/ta/trusted_data_store.c:113
     124:	f94016a0 	ldr	x0, [x21, #40]
     128:	f9400261 	ldr	x1, [x19]
     12c:	f9400000 	ldr	x0, [x0]
     130:	f9400a62 	ldr	x2, [x19, #16]
     134:	940022ec 	bl	8ce4 <data_store_get>
     138:	aa0003f6 	mov	x22, x0
/home/thesis/Desktop/trusted_data_store/ta/trusted_data_store.c:114
     13c:	b4fffdc0 	cbz	x0, f4 <TA_InvokeCommandEntryPoint+0x9c>
/home/thesis/Desktop/trusted_data_store/ta/trusted_data_store.c:116
     140:	f94006c2 	ldr	x2, [x22, #8]
     144:	b9402a60 	ldr	w0, [x19, #40]
     148:	eb02001f 	cmp	x0, x2
     14c:	54000563 	b.cc	1f8 <TA_InvokeCommandEntryPoint+0x1a0>  // b.lo, b.ul, b.last
/home/thesis/Desktop/trusted_data_store/ta/trusted_data_store.c:118
     150:	f94002c1 	ldr	x1, [x22]
     154:	f9401260 	ldr	x0, [x19, #32]
     158:	94000448 	bl	1278 <memcpy>
/home/thesis/Desktop/trusted_data_store/ta/trusted_data_store.c:119
     15c:	f94006c0 	ldr	x0, [x22, #8]
     160:	b9002a60 	str	w0, [x19, #40]
/home/thesis/Desktop/trusted_data_store/ta/trusted_data_store.c:121
     164:	2a1803e0 	mov	w0, w24
     168:	17ffffda 	b	d0 <TA_InvokeCommandEntryPoint+0x78>
tds_insert():
/home/thesis/Desktop/trusted_data_store/ta/trusted_data_store.c:133
     16c:	7115569f 	cmp	w20, #0x555
     170:	54000481 	b.ne	200 <TA_InvokeCommandEntryPoint+0x1a8>  // b.any
/home/thesis/Desktop/trusted_data_store/ta/trusted_data_store.c:135
     174:	f94016a0 	ldr	x0, [x21, #40]
     178:	b9402a64 	ldr	w4, [x19, #40]
     17c:	f9400261 	ldr	x1, [x19]
     180:	f9400000 	ldr	x0, [x0]
     184:	f9400a62 	ldr	x2, [x19, #16]
     188:	f9401263 	ldr	x3, [x19, #32]
     18c:	940022f9 	bl	8d70 <data_store_insert>
     190:	72001c1f 	tst	w0, #0xff
     194:	54fff9c1 	b.ne	cc <TA_InvokeCommandEntryPoint+0x74>  // b.any
/home/thesis/Desktop/trusted_data_store/ta/trusted_data_store.c:139
     198:	129ffe60 	mov	w0, #0xffff000c            	// #-65524
     19c:	17ffffcd 	b	d0 <TA_InvokeCommandEntryPoint+0x78>
tds_delete_field():
/home/thesis/Desktop/trusted_data_store/ta/trusted_data_store.c:149
     1a0:	7101569f 	cmp	w20, #0x55
     1a4:	540002e1 	b.ne	200 <TA_InvokeCommandEntryPoint+0x1a8>  // b.any
/home/thesis/Desktop/trusted_data_store/ta/trusted_data_store.c:151
     1a8:	f94016bb 	ldr	x27, [x21, #40]
     1ac:	b0000076 	adrp	x22, d000 <primes+0x378>
     1b0:	9112e2d6 	add	x22, x22, #0x4b8
     1b4:	d2800424 	mov	x4, #0x21                  	// #33
     1b8:	aa1603e2 	mov	x2, x22
     1bc:	aa1603e1 	mov	x1, x22
     1c0:	f9400360 	ldr	x0, [x27]
     1c4:	aa1603e3 	mov	x3, x22
     1c8:	940022ea 	bl	8d70 <data_store_insert>
/home/thesis/Desktop/trusted_data_store/ta/trusted_data_store.c:153
     1cc:	f9400360 	ldr	x0, [x27]
     1d0:	aa1603e2 	mov	x2, x22
     1d4:	aa1603e1 	mov	x1, x22
     1d8:	94002324 	bl	8e68 <data_store_delete_field>
     1dc:	17ffffba 	b	c4 <TA_InvokeCommandEntryPoint+0x6c>
tds_delete_key():
/home/thesis/Desktop/trusted_data_store/ta/trusted_data_store.c:167
     1e0:	7100169f 	cmp	w20, #0x5
     1e4:	540000e1 	b.ne	200 <TA_InvokeCommandEntryPoint+0x1a8>  // b.any
/home/thesis/Desktop/trusted_data_store/ta/trusted_data_store.c:169
     1e8:	f9400261 	ldr	x1, [x19]
     1ec:	f9400340 	ldr	x0, [x26]
     1f0:	9400235e 	bl	8f68 <data_store_delete_key>
     1f4:	17ffffb4 	b	c4 <TA_InvokeCommandEntryPoint+0x6c>
tds_get():
/home/thesis/Desktop/trusted_data_store/ta/trusted_data_store.c:116
     1f8:	129ffde0 	mov	w0, #0xffff0010            	// #-65520
     1fc:	17ffffb5 	b	d0 <TA_InvokeCommandEntryPoint+0x78>
tds_contains_key():
/home/thesis/Desktop/trusted_data_store/ta/trusted_data_store.c:85
     200:	129fff20 	mov	w0, #0xffff0006            	// #-65530
     204:	17ffffb3 	b	d0 <TA_InvokeCommandEntryPoint+0x78>

0000000000000208 <read_string>:
read_string():
/home/thesis/Desktop/trusted_data_store/ta/tds_storage.c:33
     208:	a9bc7bfd 	stp	x29, x30, [sp, #-64]!
/home/thesis/Desktop/trusted_data_store/ta/tds_storage.c:37
     20c:	52800102 	mov	w2, #0x8                   	// #8
/home/thesis/Desktop/trusted_data_store/ta/tds_storage.c:33
     210:	910003fd 	mov	x29, sp
     214:	a9025bf5 	stp	x21, x22, [sp, #32]
/home/thesis/Desktop/trusted_data_store/ta/tds_storage.c:37
     218:	9100d3f5 	add	x21, sp, #0x34
     21c:	aa1503e3 	mov	x3, x21
/home/thesis/Desktop/trusted_data_store/ta/tds_storage.c:33
     220:	aa0003f6 	mov	x22, x0
/home/thesis/Desktop/trusted_data_store/ta/tds_storage.c:37
     224:	9100e3e1 	add	x1, sp, #0x38
/home/thesis/Desktop/trusted_data_store/ta/tds_storage.c:33
     228:	a90153f3 	stp	x19, x20, [sp, #16]
/home/thesis/Desktop/trusted_data_store/ta/tds_storage.c:34
     22c:	b90037ff 	str	wzr, [sp, #52]
/home/thesis/Desktop/trusted_data_store/ta/tds_storage.c:36
     230:	f9001fff 	str	xzr, [sp, #56]
/home/thesis/Desktop/trusted_data_store/ta/tds_storage.c:37
     234:	940006fb 	bl	1e20 <TEE_ReadObjectData>
/home/thesis/Desktop/trusted_data_store/ta/tds_storage.c:39
     238:	f9401ff4 	ldr	x20, [sp, #56]
     23c:	d2800021 	mov	x1, #0x1                   	// #1
     240:	aa1403e0 	mov	x0, x20
     244:	94000312 	bl	e8c <calloc>
/home/thesis/Desktop/trusted_data_store/ta/tds_storage.c:40
     248:	aa1503e3 	mov	x3, x21
/home/thesis/Desktop/trusted_data_store/ta/tds_storage.c:39
     24c:	aa0003f3 	mov	x19, x0
/home/thesis/Desktop/trusted_data_store/ta/tds_storage.c:40
     250:	2a1403e2 	mov	w2, w20
     254:	aa0003e1 	mov	x1, x0
     258:	aa1603e0 	mov	x0, x22
     25c:	940006f1 	bl	1e20 <TEE_ReadObjectData>
/home/thesis/Desktop/trusted_data_store/ta/tds_storage.c:43
     260:	aa1303e0 	mov	x0, x19
     264:	a94153f3 	ldp	x19, x20, [sp, #16]
     268:	a9425bf5 	ldp	x21, x22, [sp, #32]
     26c:	a8c47bfd 	ldp	x29, x30, [sp], #64
     270:	d65f03c0 	ret

0000000000000274 <load_data_store>:
load_data_store():
/home/thesis/Desktop/trusted_data_store/ta/tds_storage.c:79
     274:	a9b37bfd 	stp	x29, x30, [sp, #-208]!
/home/thesis/Desktop/trusted_data_store/ta/tds_storage.c:84
     278:	52800223 	mov	w3, #0x11                  	// #17
     27c:	52800102 	mov	w2, #0x8                   	// #8
/home/thesis/Desktop/trusted_data_store/ta/tds_storage.c:79
     280:	910003fd 	mov	x29, sp
     284:	a90153f3 	stp	x19, x20, [sp, #16]
     288:	aa0003f4 	mov	x20, x0
/home/thesis/Desktop/trusted_data_store/ta/tds_storage.c:84
     28c:	9102a3e4 	add	x4, sp, #0xa8
     290:	b0000061 	adrp	x1, d000 <primes+0x378>
     294:	52800020 	mov	w0, #0x1                   	// #1
     298:	91136421 	add	x1, x1, #0x4d9
/home/thesis/Desktop/trusted_data_store/ta/tds_storage.c:79
     29c:	a9025bf5 	stp	x21, x22, [sp, #32]
     2a0:	a90363f7 	stp	x23, x24, [sp, #48]
     2a4:	a9046bf9 	stp	x25, x26, [sp, #64]
     2a8:	a90573fb 	stp	x27, x28, [sp, #80]
     2ac:	6d0627e8 	stp	d8, d9, [sp, #96]
     2b0:	fd003bea 	str	d10, [sp, #112]
/home/thesis/Desktop/trusted_data_store/ta/tds_storage.c:84
     2b4:	940005e0 	bl	1a34 <TEE_OpenPersistentObject>
/home/thesis/Desktop/trusted_data_store/ta/tds_storage.c:90
     2b8:	f900029f 	str	xzr, [x20]
/home/thesis/Desktop/trusted_data_store/ta/tds_storage.c:92
     2bc:	35000de0 	cbnz	w0, 478 <load_data_store+0x204>
     2c0:	2a0003f3 	mov	w19, w0
/home/thesis/Desktop/trusted_data_store/ta/tds_storage.c:97
     2c4:	910273f5 	add	x21, sp, #0x9c
     2c8:	f94057e0 	ldr	x0, [sp, #168]
     2cc:	aa1503e3 	mov	x3, x21
     2d0:	52800102 	mov	w2, #0x8                   	// #8
     2d4:	9102c3e1 	add	x1, sp, #0xb0
/home/thesis/Desktop/trusted_data_store/ta/tds_storage.c:94
     2d8:	b9009fff 	str	wzr, [sp, #156]
/home/thesis/Desktop/trusted_data_store/ta/tds_storage.c:96
     2dc:	f9005bff 	str	xzr, [sp, #176]
/home/thesis/Desktop/trusted_data_store/ta/tds_storage.c:97
     2e0:	940006d0 	bl	1e20 <TEE_ReadObjectData>
/home/thesis/Desktop/trusted_data_store/ta/tds_storage.c:99
     2e4:	f9405be0 	ldr	x0, [sp, #176]
     2e8:	94002239 	bl	8bcc <new_data_store>
     2ec:	f9000280 	str	x0, [x20]
/home/thesis/Desktop/trusted_data_store/ta/tds_storage.c:100
     2f0:	b4000c00 	cbz	x0, 470 <load_data_store+0x1fc>
/home/thesis/Desktop/trusted_data_store/ta/tds_storage.c:103
     2f4:	f94057e0 	ldr	x0, [sp, #168]
     2f8:	aa1503e3 	mov	x3, x21
     2fc:	52800102 	mov	w2, #0x8                   	// #8
     300:	9102e3e1 	add	x1, sp, #0xb8
/home/thesis/Desktop/trusted_data_store/ta/tds_storage.c:107
     304:	d2800016 	mov	x22, #0x0                   	// #0
read_hashtable():
/home/thesis/Desktop/trusted_data_store/ta/tds_storage.c:62
     308:	910283f7 	add	x23, sp, #0xa0
     30c:	910303f9 	add	x25, sp, #0xc0
/home/thesis/Desktop/trusted_data_store/ta/tds_storage.c:67
     310:	910323fa 	add	x26, sp, #0xc8
read_data():
/home/thesis/Desktop/trusted_data_store/ta/tds_storage.c:24
     314:	910293f8 	add	x24, sp, #0xa4
load_data_store():
/home/thesis/Desktop/trusted_data_store/ta/tds_storage.c:102
     318:	f9005fff 	str	xzr, [sp, #184]
/home/thesis/Desktop/trusted_data_store/ta/tds_storage.c:103
     31c:	940006c1 	bl	1e20 <TEE_ReadObjectData>
/home/thesis/Desktop/trusted_data_store/ta/tds_storage.c:107 (discriminator 1)
     320:	f9405fe1 	ldr	x1, [sp, #184]
     324:	f94057e0 	ldr	x0, [sp, #168]
     328:	eb16003f 	cmp	x1, x22
     32c:	54000049 	b.ls	334 <load_data_store+0xc0>  // b.plast
/home/thesis/Desktop/trusted_data_store/ta/tds_storage.c:107 (discriminator 3)
     330:	340001b3 	cbz	w19, 364 <load_data_store+0xf0>
/home/thesis/Desktop/trusted_data_store/ta/tds_storage.c:117 (discriminator 1)
     334:	f94057e0 	ldr	x0, [sp, #168]
     338:	940004b7 	bl	1614 <TEE_CloseObject>
/home/thesis/Desktop/trusted_data_store/ta/tds_storage.c:127
     33c:	2a1303e0 	mov	w0, w19
     340:	fd403bea 	ldr	d10, [sp, #112]
     344:	a94153f3 	ldp	x19, x20, [sp, #16]
     348:	a9425bf5 	ldp	x21, x22, [sp, #32]
     34c:	a94363f7 	ldp	x23, x24, [sp, #48]
     350:	a9446bf9 	ldp	x25, x26, [sp, #64]
     354:	a94573fb 	ldp	x27, x28, [sp, #80]
     358:	6d4627e8 	ldp	d8, d9, [sp, #96]
     35c:	a8cd7bfd 	ldp	x29, x30, [sp], #208
     360:	d65f03c0 	ret
/home/thesis/Desktop/trusted_data_store/ta/tds_storage.c:109
     364:	97ffffa9 	bl	208 <read_string>
     368:	9e67000a 	fmov	d10, x0
/home/thesis/Desktop/trusted_data_store/ta/tds_storage.c:110
     36c:	f94057f3 	ldr	x19, [sp, #168]
read_hashtable():
/home/thesis/Desktop/trusted_data_store/ta/tds_storage.c:62
     370:	aa1703e3 	mov	x3, x23
     374:	52800102 	mov	w2, #0x8                   	// #8
     378:	aa1903e1 	mov	x1, x25
     37c:	aa1303e0 	mov	x0, x19
/home/thesis/Desktop/trusted_data_store/ta/tds_storage.c:59
     380:	b900a3ff 	str	wzr, [sp, #160]
/home/thesis/Desktop/trusted_data_store/ta/tds_storage.c:61
     384:	f90063ff 	str	xzr, [sp, #192]
/home/thesis/Desktop/trusted_data_store/ta/tds_storage.c:62
     388:	940006a6 	bl	1e20 <TEE_ReadObjectData>
/home/thesis/Desktop/trusted_data_store/ta/tds_storage.c:64
     38c:	f94063e0 	ldr	x0, [sp, #192]
/home/thesis/Desktop/trusted_data_store/ta/tds_storage.c:67
     390:	d280001b 	mov	x27, #0x0                   	// #0
/home/thesis/Desktop/trusted_data_store/ta/tds_storage.c:64
     394:	94001fc1 	bl	8298 <new_hashtable>
     398:	aa0003fc 	mov	x28, x0
/home/thesis/Desktop/trusted_data_store/ta/tds_storage.c:67
     39c:	aa1703e3 	mov	x3, x23
     3a0:	52800102 	mov	w2, #0x8                   	// #8
     3a4:	aa1a03e1 	mov	x1, x26
     3a8:	aa1303e0 	mov	x0, x19
/home/thesis/Desktop/trusted_data_store/ta/tds_storage.c:66
     3ac:	f90067ff 	str	xzr, [sp, #200]
/home/thesis/Desktop/trusted_data_store/ta/tds_storage.c:67
     3b0:	9400069c 	bl	1e20 <TEE_ReadObjectData>
/home/thesis/Desktop/trusted_data_store/ta/tds_storage.c:69
     3b4:	f94067e0 	ldr	x0, [sp, #200]
     3b8:	eb00037f 	cmp	x27, x0
     3bc:	54000143 	b.cc	3e4 <load_data_store+0x170>  // b.lo, b.ul, b.last
load_data_store():
/home/thesis/Desktop/trusted_data_store/ta/tds_storage.c:111
     3c0:	9e660141 	fmov	x1, d10
     3c4:	aa1c03e2 	mov	x2, x28
     3c8:	f9400280 	ldr	x0, [x20]
/home/thesis/Desktop/trusted_data_store/ta/tds_storage.c:112
     3cc:	52bffff3 	mov	w19, #0xffff0000            	// #-65536
     3d0:	910006d6 	add	x22, x22, #0x1
/home/thesis/Desktop/trusted_data_store/ta/tds_storage.c:111
     3d4:	94002259 	bl	8d38 <data_store_insert_new_entry>
/home/thesis/Desktop/trusted_data_store/ta/tds_storage.c:112
     3d8:	72001c1f 	tst	w0, #0xff
     3dc:	1a9313f3 	csel	w19, wzr, w19, ne  // ne = any
     3e0:	17ffffd0 	b	320 <load_data_store+0xac>
read_hashtable_entry():
/home/thesis/Desktop/trusted_data_store/ta/tds_storage.c:47
     3e4:	aa1303e0 	mov	x0, x19
     3e8:	97ffff88 	bl	208 <read_string>
     3ec:	9e670008 	fmov	d8, x0
read_data():
/home/thesis/Desktop/trusted_data_store/ta/tds_storage.c:22
     3f0:	d2800201 	mov	x1, #0x10                  	// #16
     3f4:	d2800020 	mov	x0, #0x1                   	// #1
/home/thesis/Desktop/trusted_data_store/ta/tds_storage.c:20
     3f8:	b900a7ff 	str	wzr, [sp, #164]
/home/thesis/Desktop/trusted_data_store/ta/tds_storage.c:22
     3fc:	940002a4 	bl	e8c <calloc>
     400:	aa0003f5 	mov	x21, x0
/home/thesis/Desktop/trusted_data_store/ta/tds_storage.c:24
     404:	aa1803e3 	mov	x3, x24
     408:	52800102 	mov	w2, #0x8                   	// #8
     40c:	91002001 	add	x1, x0, #0x8
     410:	aa1303e0 	mov	x0, x19
     414:	94000683 	bl	1e20 <TEE_ReadObjectData>
/home/thesis/Desktop/trusted_data_store/ta/tds_storage.c:26
     418:	9100077b 	add	x27, x27, #0x1
     41c:	fd4006a9 	ldr	d9, [x21, #8]
     420:	d2800021 	mov	x1, #0x1                   	// #1
     424:	9e660120 	fmov	x0, d9
     428:	94000299 	bl	e8c <calloc>
/home/thesis/Desktop/trusted_data_store/ta/tds_storage.c:27
     42c:	1e260122 	fmov	w2, s9
/home/thesis/Desktop/trusted_data_store/ta/tds_storage.c:26
     430:	f90002a0 	str	x0, [x21]
/home/thesis/Desktop/trusted_data_store/ta/tds_storage.c:27
     434:	aa1803e3 	mov	x3, x24
     438:	aa0003e1 	mov	x1, x0
     43c:	aa1303e0 	mov	x0, x19
     440:	94000678 	bl	1e20 <TEE_ReadObjectData>
read_hashtable_entry():
/home/thesis/Desktop/trusted_data_store/ta/tds_storage.c:50
     444:	9e660100 	fmov	x0, d8
     448:	aa1503e1 	mov	x1, x21
     44c:	94001f35 	bl	8120 <create_entry>
     450:	aa0003e1 	mov	x1, x0
/home/thesis/Desktop/trusted_data_store/ta/tds_storage.c:52
     454:	9e660100 	fmov	x0, d8
/home/thesis/Desktop/trusted_data_store/ta/tds_storage.c:50
     458:	f90047e1 	str	x1, [sp, #136]
/home/thesis/Desktop/trusted_data_store/ta/tds_storage.c:52
     45c:	940002b9 	bl	f40 <free>
read_hashtable():
/home/thesis/Desktop/trusted_data_store/ta/tds_storage.c:72
     460:	f94047e1 	ldr	x1, [sp, #136]
     464:	aa1c03e0 	mov	x0, x28
     468:	94001fd1 	bl	83ac <hashtable_insert_new_entry>
     46c:	17ffffd2 	b	3b4 <load_data_store+0x140>
load_data_store():
/home/thesis/Desktop/trusted_data_store/ta/tds_storage.c:115
     470:	129ffe73 	mov	w19, #0xffff000c            	// #-65524
     474:	17ffffb0 	b	334 <load_data_store+0xc0>
/home/thesis/Desktop/trusted_data_store/ta/tds_storage.c:121
     478:	940021ef 	bl	8c34 <create_data_store>
/home/thesis/Desktop/trusted_data_store/ta/tds_storage.c:123
     47c:	f100001f 	cmp	x0, #0x0
     480:	129ffe73 	mov	w19, #0xffff000c            	// #-65524
     484:	1a9313f3 	csel	w19, wzr, w19, ne  // ne = any
/home/thesis/Desktop/trusted_data_store/ta/tds_storage.c:121
     488:	f9000280 	str	x0, [x20]
/home/thesis/Desktop/trusted_data_store/ta/tds_storage.c:122
     48c:	17ffffac 	b	33c <load_data_store+0xc8>

0000000000000490 <save_data_store>:
save_data_store():
/home/thesis/Desktop/trusted_data_store/ta/tds_storage.c:174
     490:	a9ba7bfd 	stp	x29, x30, [sp, #-96]!
/home/thesis/Desktop/trusted_data_store/ta/tds_storage.c:185
     494:	52800006 	mov	w6, #0x0                   	// #0
     498:	d2800005 	mov	x5, #0x0                   	// #0
/home/thesis/Desktop/trusted_data_store/ta/tds_storage.c:174
     49c:	910003fd 	mov	x29, sp
/home/thesis/Desktop/trusted_data_store/ta/tds_storage.c:185
     4a0:	910143e7 	add	x7, sp, #0x50
     4a4:	d2800004 	mov	x4, #0x0                   	// #0
     4a8:	528080e3 	mov	w3, #0x407                 	// #1031
     4ac:	52800102 	mov	w2, #0x8                   	// #8
     4b0:	b0000061 	adrp	x1, d000 <primes+0x378>
     4b4:	91136421 	add	x1, x1, #0x4d9
/home/thesis/Desktop/trusted_data_store/ta/tds_storage.c:174
     4b8:	a90153f3 	stp	x19, x20, [sp, #16]
     4bc:	aa0003f3 	mov	x19, x0
/home/thesis/Desktop/trusted_data_store/ta/tds_storage.c:185
     4c0:	52800020 	mov	w0, #0x1                   	// #1
/home/thesis/Desktop/trusted_data_store/ta/tds_storage.c:174
     4c4:	a9025bf5 	stp	x21, x22, [sp, #32]
     4c8:	a90363f7 	stp	x23, x24, [sp, #48]
     4cc:	f90023f9 	str	x25, [sp, #64]
/home/thesis/Desktop/trusted_data_store/ta/tds_storage.c:185
     4d0:	94000589 	bl	1af4 <TEE_CreatePersistentObject>
     4d4:	2a0003f7 	mov	w23, w0
/home/thesis/Desktop/trusted_data_store/ta/tds_storage.c:192
     4d8:	350002e0 	cbnz	w0, 534 <save_data_store+0xa4>
/home/thesis/Desktop/trusted_data_store/ta/tds_storage.c:195
     4dc:	f9400275 	ldr	x21, [x19]
save_hashtable_metadata():
/home/thesis/Desktop/trusted_data_store/ta/tds_storage.c:153
     4e0:	52800102 	mov	w2, #0x8                   	// #8
save_data_store():
/home/thesis/Desktop/trusted_data_store/ta/tds_storage.c:195
     4e4:	f9402bf4 	ldr	x20, [sp, #80]
save_hashtable_metadata():
/home/thesis/Desktop/trusted_data_store/ta/tds_storage.c:153
     4e8:	aa1503e1 	mov	x1, x21
     4ec:	aa1403e0 	mov	x0, x20
     4f0:	94000667 	bl	1e8c <TEE_WriteObjectData>
/home/thesis/Desktop/trusted_data_store/ta/tds_storage.c:154
     4f4:	910022a1 	add	x1, x21, #0x8
     4f8:	52800102 	mov	w2, #0x8                   	// #8
     4fc:	aa1403e0 	mov	x0, x20
     500:	94000663 	bl	1e8c <TEE_WriteObjectData>
save_data_store():
/home/thesis/Desktop/trusted_data_store/ta/tds_storage.c:198
     504:	f9400260 	ldr	x0, [x19]
save_data():
/home/thesis/Desktop/trusted_data_store/ta/tds_storage.c:133
     508:	910163f5 	add	x21, sp, #0x58
save_data_store():
/home/thesis/Desktop/trusted_data_store/ta/tds_storage.c:198
     50c:	9400215e 	bl	8a84 <create_hashtable_iterator>
     510:	aa0003f4 	mov	x20, x0
/home/thesis/Desktop/trusted_data_store/ta/tds_storage.c:199
     514:	aa1403e0 	mov	x0, x20
     518:	94002173 	bl	8ae4 <has_next>
     51c:	72001c1f 	tst	w0, #0xff
/home/thesis/Desktop/trusted_data_store/ta/tds_storage.c:201
     520:	aa1403e0 	mov	x0, x20
/home/thesis/Desktop/trusted_data_store/ta/tds_storage.c:199
     524:	54000161 	b.ne	550 <save_data_store+0xc0>  // b.any
/home/thesis/Desktop/trusted_data_store/ta/tds_storage.c:208
     528:	94002188 	bl	8b48 <delete_hashtable_iterator>
/home/thesis/Desktop/trusted_data_store/ta/tds_storage.c:210
     52c:	f9402be0 	ldr	x0, [sp, #80]
     530:	94000439 	bl	1614 <TEE_CloseObject>
/home/thesis/Desktop/trusted_data_store/ta/tds_storage.c:214
     534:	2a1703e0 	mov	w0, w23
     538:	a94153f3 	ldp	x19, x20, [sp, #16]
     53c:	a9425bf5 	ldp	x21, x22, [sp, #32]
     540:	a94363f7 	ldp	x23, x24, [sp, #48]
     544:	f94023f9 	ldr	x25, [sp, #64]
     548:	a8c67bfd 	ldp	x29, x30, [sp], #96
     54c:	d65f03c0 	ret
/home/thesis/Desktop/trusted_data_store/ta/tds_storage.c:201
     550:	9400216e 	bl	8b08 <next>
     554:	aa0003f6 	mov	x22, x0
/home/thesis/Desktop/trusted_data_store/ta/tds_storage.c:204
     558:	f9400018 	ldr	x24, [x0]
save_string():
/home/thesis/Desktop/trusted_data_store/ta/tds_storage.c:139
     55c:	aa1803e0 	mov	x0, x24
     560:	94000355 	bl	12b4 <strlen>
save_data_store():
/home/thesis/Desktop/trusted_data_store/ta/tds_storage.c:204
     564:	f9402bf3 	ldr	x19, [sp, #80]
save_string():
/home/thesis/Desktop/trusted_data_store/ta/tds_storage.c:139
     568:	91000400 	add	x0, x0, #0x1
save_data():
/home/thesis/Desktop/trusted_data_store/ta/tds_storage.c:133
     56c:	52800102 	mov	w2, #0x8                   	// #8
     570:	aa1503e1 	mov	x1, x21
     574:	f9002fe0 	str	x0, [sp, #88]
     578:	aa1303e0 	mov	x0, x19
     57c:	94000644 	bl	1e8c <TEE_WriteObjectData>
/home/thesis/Desktop/trusted_data_store/ta/tds_storage.c:134
     580:	b9405be2 	ldr	w2, [sp, #88]
     584:	aa1803e1 	mov	x1, x24
     588:	aa1303e0 	mov	x0, x19
     58c:	94000640 	bl	1e8c <TEE_WriteObjectData>
save_data_store():
/home/thesis/Desktop/trusted_data_store/ta/tds_storage.c:206
     590:	f94006d6 	ldr	x22, [x22, #8]
save_hashtable_metadata():
/home/thesis/Desktop/trusted_data_store/ta/tds_storage.c:153
     594:	52800102 	mov	w2, #0x8                   	// #8
save_data_store():
/home/thesis/Desktop/trusted_data_store/ta/tds_storage.c:206
     598:	f9402bf3 	ldr	x19, [sp, #80]
save_hashtable_metadata():
/home/thesis/Desktop/trusted_data_store/ta/tds_storage.c:153
     59c:	aa1603e1 	mov	x1, x22
     5a0:	aa1303e0 	mov	x0, x19
     5a4:	9400063a 	bl	1e8c <TEE_WriteObjectData>
/home/thesis/Desktop/trusted_data_store/ta/tds_storage.c:154
     5a8:	910022c1 	add	x1, x22, #0x8
     5ac:	52800102 	mov	w2, #0x8                   	// #8
     5b0:	aa1303e0 	mov	x0, x19
     5b4:	94000636 	bl	1e8c <TEE_WriteObjectData>
save_data_store_entry():
/home/thesis/Desktop/trusted_data_store/ta/tds_storage.c:165
     5b8:	aa1603e0 	mov	x0, x22
     5bc:	94002132 	bl	8a84 <create_hashtable_iterator>
     5c0:	aa0003f6 	mov	x22, x0
/home/thesis/Desktop/trusted_data_store/ta/tds_storage.c:166
     5c4:	aa1603e0 	mov	x0, x22
     5c8:	94002147 	bl	8ae4 <has_next>
     5cc:	72001c1f 	tst	w0, #0xff
/home/thesis/Desktop/trusted_data_store/ta/tds_storage.c:168
     5d0:	aa1603e0 	mov	x0, x22
/home/thesis/Desktop/trusted_data_store/ta/tds_storage.c:166
     5d4:	54000061 	b.ne	5e0 <save_data_store+0x150>  // b.any
/home/thesis/Desktop/trusted_data_store/ta/tds_storage.c:170
     5d8:	9400215c 	bl	8b48 <delete_hashtable_iterator>
     5dc:	17ffffce 	b	514 <save_data_store+0x84>
/home/thesis/Desktop/trusted_data_store/ta/tds_storage.c:168
     5e0:	9400214a 	bl	8b08 <next>
     5e4:	aa0003f8 	mov	x24, x0
save_hashtable_entry():
/home/thesis/Desktop/trusted_data_store/ta/tds_storage.c:145
     5e8:	f9400019 	ldr	x25, [x0]
save_string():
/home/thesis/Desktop/trusted_data_store/ta/tds_storage.c:139
     5ec:	aa1903e0 	mov	x0, x25
     5f0:	94000331 	bl	12b4 <strlen>
     5f4:	91000400 	add	x0, x0, #0x1
save_data():
/home/thesis/Desktop/trusted_data_store/ta/tds_storage.c:133
     5f8:	aa1503e1 	mov	x1, x21
     5fc:	52800102 	mov	w2, #0x8                   	// #8
     600:	f9002fe0 	str	x0, [sp, #88]
     604:	aa1303e0 	mov	x0, x19
     608:	94000621 	bl	1e8c <TEE_WriteObjectData>
/home/thesis/Desktop/trusted_data_store/ta/tds_storage.c:134
     60c:	b9405be2 	ldr	w2, [sp, #88]
     610:	aa1903e1 	mov	x1, x25
     614:	aa1303e0 	mov	x0, x19
     618:	9400061d 	bl	1e8c <TEE_WriteObjectData>
save_hashtable_entry():
/home/thesis/Desktop/trusted_data_store/ta/tds_storage.c:147
     61c:	f9400700 	ldr	x0, [x24, #8]
save_data():
/home/thesis/Desktop/trusted_data_store/ta/tds_storage.c:133
     620:	aa1503e1 	mov	x1, x21
     624:	52800102 	mov	w2, #0x8                   	// #8
     628:	a9400018 	ldp	x24, x0, [x0]
     62c:	f9002fe0 	str	x0, [sp, #88]
     630:	aa1303e0 	mov	x0, x19
     634:	94000616 	bl	1e8c <TEE_WriteObjectData>
/home/thesis/Desktop/trusted_data_store/ta/tds_storage.c:134
     638:	b9405be2 	ldr	w2, [sp, #88]
     63c:	aa1303e0 	mov	x0, x19
     640:	aa1803e1 	mov	x1, x24
     644:	94000612 	bl	1e8c <TEE_WriteObjectData>
     648:	17ffffdf 	b	5c4 <save_data_store+0x134>

000000000000064c <__ta_entry>:
__ta_entry():
/home/thesis/Desktop/optee_rpi3bplus/optee_os/out/arm/export-ta_arm64/src/user_ta_header.c:36
     64c:	a9bf7bfd 	stp	x29, x30, [sp, #-16]!
     650:	910003fd 	mov	x29, sp
/home/thesis/Desktop/optee_rpi3bplus/optee_os/out/arm/export-ta_arm64/src/user_ta_header.c:39
     654:	940006ac 	bl	2104 <__utee_entry>
/home/thesis/Desktop/optee_rpi3bplus/optee_os/out/arm/export-ta_arm64/src/user_ta_header.c:41
     658:	2a0003e0 	mov	w0, w0
     65c:	9400072c 	bl	230c <utee_return>

0000000000000660 <tahead_get_trace_level>:
tahead_get_trace_level():
/home/thesis/Desktop/optee_rpi3bplus/optee_os/out/arm/export-ta_arm64/src/user_ta_header.c:117
     660:	52800020 	mov	w0, #0x1                   	// #1
     664:	d65f03c0 	ret

0000000000000668 <raw_malloc_return_hook.constprop.21>:
raw_malloc_return_hook():
/home/thesis/Desktop/optee_rpi3bplus/optee_os/lib/libutils/isoc/bget_malloc.c:198
     668:	f0000062 	adrp	x2, f000 <.got>
     66c:	910de044 	add	x4, x2, #0x378
     670:	f9401083 	ldr	x3, [x4, #32]
     674:	b9406c85 	ldr	w5, [x4, #108]
     678:	eb05007f 	cmp	x3, x5
     67c:	5400004d 	b.le	684 <raw_malloc_return_hook.constprop.21+0x1c>
/home/thesis/Desktop/optee_rpi3bplus/optee_os/lib/libutils/isoc/bget_malloc.c:199
     680:	b9006c83 	str	w3, [x4, #108]
/home/thesis/Desktop/optee_rpi3bplus/optee_os/lib/libutils/isoc/bget_malloc.c:201
     684:	b5000120 	cbnz	x0, 6a8 <raw_malloc_return_hook.constprop.21+0x40>
/home/thesis/Desktop/optee_rpi3bplus/optee_os/lib/libutils/isoc/bget_malloc.c:202
     688:	910de040 	add	x0, x2, #0x378
     68c:	b9407402 	ldr	w2, [x0, #116]
     690:	11000442 	add	w2, w2, #0x1
     694:	b9007402 	str	w2, [x0, #116]
/home/thesis/Desktop/optee_rpi3bplus/optee_os/lib/libutils/isoc/bget_malloc.c:204
     698:	b9407802 	ldr	w2, [x0, #120]
     69c:	eb01005f 	cmp	x2, x1
     6a0:	54000042 	b.cs	6a8 <raw_malloc_return_hook.constprop.21+0x40>  // b.hs, b.nlast
/home/thesis/Desktop/optee_rpi3bplus/optee_os/lib/libutils/isoc/bget_malloc.c:206
     6a4:	290f0c01 	stp	w1, w3, [x0, #120]
/home/thesis/Desktop/optee_rpi3bplus/optee_os/lib/libutils/isoc/bget_malloc.c:210
     6a8:	d65f03c0 	ret

00000000000006ac <bget>:
bget():
/home/thesis/Desktop/optee_rpi3bplus/optee_os/lib/libutils/isoc/bget.c:583
     6ac:	a9bf7bfd 	stp	x29, x30, [sp, #-16]!
/home/thesis/Desktop/optee_rpi3bplus/optee_os/lib/libutils/isoc/bget.c:594
     6b0:	f100001f 	cmp	x0, #0x0
/home/thesis/Desktop/optee_rpi3bplus/optee_os/lib/libutils/isoc/bget.c:583
     6b4:	910003fd 	mov	x29, sp
/home/thesis/Desktop/optee_rpi3bplus/optee_os/lib/libutils/isoc/bget.c:594
     6b8:	5400014c 	b.gt	6e0 <bget+0x34>
/home/thesis/Desktop/optee_rpi3bplus/optee_os/lib/libutils/isoc/bget.c:594 (discriminator 1)
     6bc:	b0000063 	adrp	x3, d000 <primes+0x378>
     6c0:	b0000061 	adrp	x1, d000 <primes+0x378>
     6c4:	b0000060 	adrp	x0, d000 <primes+0x378>
     6c8:	91164063 	add	x3, x3, #0x590
     6cc:	9117a021 	add	x1, x1, #0x5e8
     6d0:	91215400 	add	x0, x0, #0x855
     6d4:	52804a42 	mov	w2, #0x252                 	// #594
/home/thesis/Desktop/optee_rpi3bplus/optee_os/lib/libutils/isoc/bget.c:658 (discriminator 1)
     6d8:	940002fe 	bl	12d0 <_assert_log>
     6dc:	9400030e 	bl	1314 <_assert_break>
/home/thesis/Desktop/optee_rpi3bplus/optee_os/lib/libutils/isoc/bget.c:601
     6e0:	f100401f 	cmp	x0, #0x10
     6e4:	d2800202 	mov	x2, #0x10                  	// #16
     6e8:	9a82a000 	csel	x0, x0, x2, ge  // ge = tcont
     6ec:	b1003c02 	adds	x2, x0, #0xf
     6f0:	54000144 	b.mi	718 <bget+0x6c>  // b.first
     6f4:	eb00005f 	cmp	x2, x0
     6f8:	54000103 	b.cc	718 <bget+0x6c>  // b.lo, b.ul, b.last
/home/thesis/Desktop/optee_rpi3bplus/optee_os/lib/libutils/isoc/bget.c:604
     6fc:	927cec40 	and	x0, x2, #0xfffffffffffffff0
/home/thesis/Desktop/optee_rpi3bplus/optee_os/lib/libutils/isoc/bget.c:609
     700:	91004003 	add	x3, x0, #0x10
     704:	eb00007f 	cmp	x3, x0
     708:	5400008b 	b.lt	718 <bget+0x6c>  // b.tstop
/home/thesis/Desktop/optee_rpi3bplus/optee_os/lib/libutils/isoc/bget.c:619
     70c:	f9400820 	ldr	x0, [x1, #16]
/home/thesis/Desktop/optee_rpi3bplus/optee_os/lib/libutils/isoc/bget.c:641
     710:	eb00003f 	cmp	x1, x0
     714:	54000061 	b.ne	720 <bget+0x74>  // b.any
/home/thesis/Desktop/optee_rpi3bplus/optee_os/lib/libutils/isoc/bget.c:602
     718:	d2800000 	mov	x0, #0x0                   	// #0
     71c:	1400001e 	b	794 <bget+0xe8>
/home/thesis/Desktop/optee_rpi3bplus/optee_os/lib/libutils/isoc/bget.c:642
     720:	f9400402 	ldr	x2, [x0, #8]
     724:	eb02007f 	cmp	x3, x2
     728:	540009ec 	b.gt	864 <bget+0x1b8>
/home/thesis/Desktop/optee_rpi3bplus/optee_os/lib/libutils/isoc/bget.c:653
     72c:	cb030044 	sub	x4, x2, x3
     730:	f100809f 	cmp	x4, #0x20
     734:	5400034d 	b.le	79c <bget+0xf0>
/home/thesis/Desktop/optee_rpi3bplus/optee_os/lib/libutils/isoc/bget.c:656
     738:	8b040005 	add	x5, x0, x4
/home/thesis/Desktop/optee_rpi3bplus/optee_os/lib/libutils/isoc/bget.c:658
     73c:	f86368a6 	ldr	x6, [x5, x3]
     740:	eb06005f 	cmp	x2, x6
     744:	54000120 	b.eq	768 <bget+0xbc>  // b.none
/home/thesis/Desktop/optee_rpi3bplus/optee_os/lib/libutils/isoc/bget.c:658 (discriminator 1)
     748:	b0000063 	adrp	x3, d000 <primes+0x378>
     74c:	b0000061 	adrp	x1, d000 <primes+0x378>
     750:	b0000060 	adrp	x0, d000 <primes+0x378>
     754:	91164063 	add	x3, x3, #0x590
     758:	52805242 	mov	w2, #0x292                 	// #658
     75c:	9117a021 	add	x1, x1, #0x5e8
     760:	91180400 	add	x0, x0, #0x601
     764:	17ffffdd 	b	6d8 <bget+0x2c>
/home/thesis/Desktop/optee_rpi3bplus/optee_os/lib/libutils/isoc/bget.c:660
     768:	f9000404 	str	x4, [x0, #8]
/home/thesis/Desktop/optee_rpi3bplus/optee_os/lib/libutils/isoc/bget.c:662
     76c:	f8246804 	str	x4, [x0, x4]
/home/thesis/Desktop/optee_rpi3bplus/optee_os/lib/libutils/isoc/bget.c:664
     770:	cb0303e0 	neg	x0, x3
     774:	f90004a0 	str	x0, [x5, #8]
/home/thesis/Desktop/optee_rpi3bplus/optee_os/lib/libutils/isoc/bget.c:669
     778:	f9401020 	ldr	x0, [x1, #32]
/home/thesis/Desktop/optee_rpi3bplus/optee_os/lib/libutils/isoc/bget.c:666
     77c:	f82368bf 	str	xzr, [x5, x3]
/home/thesis/Desktop/optee_rpi3bplus/optee_os/lib/libutils/isoc/bget.c:669
     780:	8b030003 	add	x3, x0, x3
/home/thesis/Desktop/optee_rpi3bplus/optee_os/lib/libutils/isoc/bget.c:670
     784:	f9401420 	ldr	x0, [x1, #40]
     788:	91000400 	add	x0, x0, #0x1
     78c:	a9020023 	stp	x3, x0, [x1, #32]
/home/thesis/Desktop/optee_rpi3bplus/optee_os/lib/libutils/isoc/bget.c:672
     790:	910040a0 	add	x0, x5, #0x10
/home/thesis/Desktop/optee_rpi3bplus/optee_os/lib/libutils/isoc/bget.c:770
     794:	a8c17bfd 	ldp	x29, x30, [sp], #16
     798:	d65f03c0 	ret
/home/thesis/Desktop/optee_rpi3bplus/optee_os/lib/libutils/isoc/bget.c:679
     79c:	f8626803 	ldr	x3, [x0, x2]
/home/thesis/Desktop/optee_rpi3bplus/optee_os/lib/libutils/isoc/bget.c:678
     7a0:	8b020005 	add	x5, x0, x2
/home/thesis/Desktop/optee_rpi3bplus/optee_os/lib/libutils/isoc/bget.c:679
     7a4:	eb03005f 	cmp	x2, x3
     7a8:	54000120 	b.eq	7cc <bget+0x120>  // b.none
/home/thesis/Desktop/optee_rpi3bplus/optee_os/lib/libutils/isoc/bget.c:679 (discriminator 1)
     7ac:	b0000063 	adrp	x3, d000 <primes+0x378>
     7b0:	b0000061 	adrp	x1, d000 <primes+0x378>
     7b4:	b0000060 	adrp	x0, d000 <primes+0x378>
     7b8:	91164063 	add	x3, x3, #0x590
     7bc:	528054e2 	mov	w2, #0x2a7                 	// #679
     7c0:	9117a021 	add	x1, x1, #0x5e8
     7c4:	91187400 	add	x0, x0, #0x61d
     7c8:	17ffffc4 	b	6d8 <bget+0x2c>
/home/thesis/Desktop/optee_rpi3bplus/optee_os/lib/libutils/isoc/bget.c:684
     7cc:	f9400c03 	ldr	x3, [x0, #24]
     7d0:	f9400864 	ldr	x4, [x3, #16]
     7d4:	eb00009f 	cmp	x4, x0
     7d8:	54000120 	b.eq	7fc <bget+0x150>  // b.none
/home/thesis/Desktop/optee_rpi3bplus/optee_os/lib/libutils/isoc/bget.c:684 (discriminator 1)
     7dc:	b0000063 	adrp	x3, d000 <primes+0x378>
     7e0:	b0000061 	adrp	x1, d000 <primes+0x378>
     7e4:	b0000060 	adrp	x0, d000 <primes+0x378>
     7e8:	91164063 	add	x3, x3, #0x590
     7ec:	52805582 	mov	w2, #0x2ac                 	// #684
     7f0:	9117a021 	add	x1, x1, #0x5e8
     7f4:	9118e400 	add	x0, x0, #0x639
     7f8:	17ffffb8 	b	6d8 <bget+0x2c>
/home/thesis/Desktop/optee_rpi3bplus/optee_os/lib/libutils/isoc/bget.c:685
     7fc:	f9400804 	ldr	x4, [x0, #16]
     800:	f9400c86 	ldr	x6, [x4, #24]
     804:	eb0000df 	cmp	x6, x0
     808:	54000120 	b.eq	82c <bget+0x180>  // b.none
/home/thesis/Desktop/optee_rpi3bplus/optee_os/lib/libutils/isoc/bget.c:685 (discriminator 1)
     80c:	b0000063 	adrp	x3, d000 <primes+0x378>
     810:	b0000061 	adrp	x1, d000 <primes+0x378>
     814:	b0000060 	adrp	x0, d000 <primes+0x378>
     818:	91164063 	add	x3, x3, #0x590
     81c:	528055a2 	mov	w2, #0x2ad                 	// #685
     820:	9117a021 	add	x1, x1, #0x5e8
     824:	91195000 	add	x0, x0, #0x654
     828:	17ffffac 	b	6d8 <bget+0x2c>
/home/thesis/Desktop/optee_rpi3bplus/optee_os/lib/libutils/isoc/bget.c:686
     82c:	f9000864 	str	x4, [x3, #16]
/home/thesis/Desktop/optee_rpi3bplus/optee_os/lib/libutils/isoc/bget.c:701
     830:	91004000 	add	x0, x0, #0x10
/home/thesis/Desktop/optee_rpi3bplus/optee_os/lib/libutils/isoc/bget.c:687
     834:	f9400004 	ldr	x4, [x0]
     838:	f9000c83 	str	x3, [x4, #24]
/home/thesis/Desktop/optee_rpi3bplus/optee_os/lib/libutils/isoc/bget.c:690
     83c:	f9401023 	ldr	x3, [x1, #32]
     840:	8b020063 	add	x3, x3, x2
     844:	f9001023 	str	x3, [x1, #32]
/home/thesis/Desktop/optee_rpi3bplus/optee_os/lib/libutils/isoc/bget.c:691
     848:	f9401423 	ldr	x3, [x1, #40]
/home/thesis/Desktop/optee_rpi3bplus/optee_os/lib/libutils/isoc/bget.c:694
     84c:	cb0203e2 	neg	x2, x2
/home/thesis/Desktop/optee_rpi3bplus/optee_os/lib/libutils/isoc/bget.c:691
     850:	91000463 	add	x3, x3, #0x1
     854:	f9001423 	str	x3, [x1, #40]
/home/thesis/Desktop/optee_rpi3bplus/optee_os/lib/libutils/isoc/bget.c:694
     858:	f81f8002 	stur	x2, [x0, #-8]
/home/thesis/Desktop/optee_rpi3bplus/optee_os/lib/libutils/isoc/bget.c:698
     85c:	f90000bf 	str	xzr, [x5]
/home/thesis/Desktop/optee_rpi3bplus/optee_os/lib/libutils/isoc/bget.c:703
     860:	17ffffcd 	b	794 <bget+0xe8>
/home/thesis/Desktop/optee_rpi3bplus/optee_os/lib/libutils/isoc/bget.c:706
     864:	f9400800 	ldr	x0, [x0, #16]
     868:	17ffffaa 	b	710 <bget+0x64>

000000000000086c <bgetz>:
bgetz():
/home/thesis/Desktop/optee_rpi3bplus/optee_os/lib/libutils/isoc/bget.c:779
     86c:	a9be7bfd 	stp	x29, x30, [sp, #-32]!
     870:	910003fd 	mov	x29, sp
     874:	f9000bf3 	str	x19, [sp, #16]
     878:	aa0003f3 	mov	x19, x0
/home/thesis/Desktop/optee_rpi3bplus/optee_os/lib/libutils/isoc/bget.c:780
     87c:	97ffff8c 	bl	6ac <bget>
     880:	aa0003e3 	mov	x3, x0
/home/thesis/Desktop/optee_rpi3bplus/optee_os/lib/libutils/isoc/bget.c:782
     884:	b4000320 	cbz	x0, 8e8 <bgetz+0x7c>
/home/thesis/Desktop/optee_rpi3bplus/optee_os/lib/libutils/isoc/bget.c:787
     888:	f85f8000 	ldur	x0, [x0, #-8]
/home/thesis/Desktop/optee_rpi3bplus/optee_os/lib/libutils/isoc/bget.c:788
     88c:	b50001e0 	cbnz	x0, 8c8 <bgetz+0x5c>
/home/thesis/Desktop/optee_rpi3bplus/optee_os/lib/libutils/isoc/bget.c:792
     890:	f85e8062 	ldur	x2, [x3, #-24]
     894:	d1006042 	sub	x2, x2, #0x18
/home/thesis/Desktop/optee_rpi3bplus/optee_os/lib/libutils/isoc/bget.c:796
     898:	eb13005f 	cmp	x2, x19
     89c:	540001ca 	b.ge	8d4 <bgetz+0x68>  // b.tcont
     8a0:	b0000063 	adrp	x3, d000 <primes+0x378>
     8a4:	91164063 	add	x3, x3, #0x590
     8a8:	91001463 	add	x3, x3, #0x5
     8ac:	b0000061 	adrp	x1, d000 <primes+0x378>
     8b0:	b0000060 	adrp	x0, d000 <primes+0x378>
     8b4:	9117a021 	add	x1, x1, #0x5e8
     8b8:	9119bc00 	add	x0, x0, #0x66f
     8bc:	52806382 	mov	w2, #0x31c                 	// #796
     8c0:	94000284 	bl	12d0 <_assert_log>
     8c4:	94000294 	bl	1314 <_assert_break>
/home/thesis/Desktop/optee_rpi3bplus/optee_os/lib/libutils/isoc/bget.c:794
     8c8:	928001e2 	mov	x2, #0xfffffffffffffff0    	// #-16
     8cc:	cb000042 	sub	x2, x2, x0
     8d0:	17fffff2 	b	898 <bgetz+0x2c>
memset_unchecked():
/home/thesis/Desktop/optee_rpi3bplus/optee_os/lib/libutils/isoc/bget_malloc.c:124
     8d4:	aa0303e0 	mov	x0, x3
     8d8:	93407c42 	sxtw	x2, w2
     8dc:	52800001 	mov	w1, #0x0                   	// #0
     8e0:	9400026e 	bl	1298 <memset>
     8e4:	aa0003e3 	mov	x3, x0
bgetz():
/home/thesis/Desktop/optee_rpi3bplus/optee_os/lib/libutils/isoc/bget.c:800
     8e8:	aa0303e0 	mov	x0, x3
     8ec:	f9400bf3 	ldr	x19, [sp, #16]
     8f0:	a8c27bfd 	ldp	x29, x30, [sp], #32
     8f4:	d65f03c0 	ret

00000000000008f8 <brel>:
brel():
/home/thesis/Desktop/optee_rpi3bplus/optee_os/lib/libutils/isoc/bget.c:852
     8f8:	a9be7bfd 	stp	x29, x30, [sp, #-32]!
     8fc:	910003fd 	mov	x29, sp
/home/thesis/Desktop/optee_rpi3bplus/optee_os/lib/libutils/isoc/bget.c:858
     900:	f9401823 	ldr	x3, [x1, #48]
/home/thesis/Desktop/optee_rpi3bplus/optee_os/lib/libutils/isoc/bget.c:852
     904:	a90153f3 	stp	x19, x20, [sp, #16]
/home/thesis/Desktop/optee_rpi3bplus/optee_os/lib/libutils/isoc/bget.c:858
     908:	91000463 	add	x3, x3, #0x1
     90c:	f9001823 	str	x3, [x1, #48]
/home/thesis/Desktop/optee_rpi3bplus/optee_os/lib/libutils/isoc/bget.c:860
     910:	b5000160 	cbnz	x0, 93c <brel+0x44>
/home/thesis/Desktop/optee_rpi3bplus/optee_os/lib/libutils/isoc/bget.c:860 (discriminator 1)
     914:	b0000063 	adrp	x3, d000 <primes+0x378>
     918:	91164063 	add	x3, x3, #0x590
     91c:	b0000061 	adrp	x1, d000 <primes+0x378>
     920:	b0000060 	adrp	x0, d000 <primes+0x378>
     924:	91002c63 	add	x3, x3, #0xb
     928:	9117a021 	add	x1, x1, #0x5e8
     92c:	9119f400 	add	x0, x0, #0x67d
     930:	52806b82 	mov	w2, #0x35c                 	// #860
/home/thesis/Desktop/optee_rpi3bplus/optee_os/lib/libutils/isoc/bget.c:895 (discriminator 1)
     934:	94000267 	bl	12d0 <_assert_log>
     938:	94000277 	bl	1314 <_assert_break>
/home/thesis/Desktop/optee_rpi3bplus/optee_os/lib/libutils/isoc/bget.c:892
     93c:	f85f8003 	ldur	x3, [x0, #-8]
/home/thesis/Desktop/optee_rpi3bplus/optee_os/lib/libutils/isoc/bget.c:895
     940:	b7f80143 	tbnz	x3, #63, 968 <brel+0x70>
/home/thesis/Desktop/optee_rpi3bplus/optee_os/lib/libutils/isoc/bget.c:895 (discriminator 1)
     944:	b0000063 	adrp	x3, d000 <primes+0x378>
     948:	91164063 	add	x3, x3, #0x590
     94c:	b0000061 	adrp	x1, d000 <primes+0x378>
     950:	b0000060 	adrp	x0, d000 <primes+0x378>
     954:	91002c63 	add	x3, x3, #0xb
     958:	52806fe2 	mov	w2, #0x37f                 	// #895
     95c:	9117a021 	add	x1, x1, #0x5e8
     960:	911a2400 	add	x0, x0, #0x689
     964:	17fffff4 	b	934 <brel+0x3c>
     968:	d1004013 	sub	x19, x0, #0x10
/home/thesis/Desktop/optee_rpi3bplus/optee_os/lib/libutils/isoc/bget.c:901
     96c:	cb030264 	sub	x4, x19, x3
     970:	f9400084 	ldr	x4, [x4]
     974:	b4000144 	cbz	x4, 99c <brel+0xa4>
/home/thesis/Desktop/optee_rpi3bplus/optee_os/lib/libutils/isoc/bget.c:901 (discriminator 1)
     978:	b0000063 	adrp	x3, d000 <primes+0x378>
     97c:	91164063 	add	x3, x3, #0x590
     980:	b0000061 	adrp	x1, d000 <primes+0x378>
     984:	b0000060 	adrp	x0, d000 <primes+0x378>
     988:	91002c63 	add	x3, x3, #0xb
     98c:	528070a2 	mov	w2, #0x385                 	// #901
     990:	9117a021 	add	x1, x1, #0x5e8
     994:	911a6400 	add	x0, x0, #0x699
     998:	17ffffe7 	b	934 <brel+0x3c>
/home/thesis/Desktop/optee_rpi3bplus/optee_os/lib/libutils/isoc/bget.c:904
     99c:	f9401024 	ldr	x4, [x1, #32]
     9a0:	8b040064 	add	x4, x3, x4
     9a4:	f9001024 	str	x4, [x1, #32]
/home/thesis/Desktop/optee_rpi3bplus/optee_os/lib/libutils/isoc/bget.c:905
     9a8:	b6f80144 	tbz	x4, #63, 9d0 <brel+0xd8>
/home/thesis/Desktop/optee_rpi3bplus/optee_os/lib/libutils/isoc/bget.c:905 (discriminator 1)
     9ac:	b0000063 	adrp	x3, d000 <primes+0x378>
     9b0:	91164063 	add	x3, x3, #0x590
     9b4:	b0000061 	adrp	x1, d000 <primes+0x378>
     9b8:	b0000060 	adrp	x0, d000 <primes+0x378>
     9bc:	91002c63 	add	x3, x3, #0xb
     9c0:	52807122 	mov	w2, #0x389                 	// #905
     9c4:	9117a021 	add	x1, x1, #0x5e8
     9c8:	911b1400 	add	x0, x0, #0x6c5
     9cc:	17ffffda 	b	934 <brel+0x3c>
/home/thesis/Desktop/optee_rpi3bplus/optee_os/lib/libutils/isoc/bget.c:910
     9d0:	f85f0004 	ldur	x4, [x0, #-16]
     9d4:	b4000424 	cbz	x4, a58 <brel+0x160>
/home/thesis/Desktop/optee_rpi3bplus/optee_os/lib/libutils/isoc/bget.c:921
     9d8:	cb040273 	sub	x19, x19, x4
     9dc:	f9400660 	ldr	x0, [x19, #8]
     9e0:	eb00009f 	cmp	x4, x0
     9e4:	54000140 	b.eq	a0c <brel+0x114>  // b.none
/home/thesis/Desktop/optee_rpi3bplus/optee_os/lib/libutils/isoc/bget.c:921 (discriminator 1)
     9e8:	b0000063 	adrp	x3, d000 <primes+0x378>
     9ec:	91164063 	add	x3, x3, #0x590
     9f0:	b0000061 	adrp	x1, d000 <primes+0x378>
     9f4:	b0000060 	adrp	x0, d000 <primes+0x378>
     9f8:	91002c63 	add	x3, x3, #0xb
     9fc:	52807322 	mov	w2, #0x399                 	// #921
     a00:	9117a021 	add	x1, x1, #0x5e8
     a04:	911b7000 	add	x0, x0, #0x6dc
     a08:	17ffffcb 	b	934 <brel+0x3c>
/home/thesis/Desktop/optee_rpi3bplus/optee_os/lib/libutils/isoc/bget.c:923
     a0c:	cb030083 	sub	x3, x4, x3
     a10:	f9000663 	str	x3, [x19, #8]
/home/thesis/Desktop/optee_rpi3bplus/optee_os/lib/libutils/isoc/bget.c:943
     a14:	f9400660 	ldr	x0, [x19, #8]
     a18:	8b000274 	add	x20, x19, x0
/home/thesis/Desktop/optee_rpi3bplus/optee_os/lib/libutils/isoc/bget.c:944
     a1c:	f9400681 	ldr	x1, [x20, #8]
     a20:	f100003f 	cmp	x1, #0x0
     a24:	540009ad 	b.le	b58 <brel+0x260>
/home/thesis/Desktop/optee_rpi3bplus/optee_os/lib/libutils/isoc/bget.c:949
     a28:	f8616a83 	ldr	x3, [x20, x1]
     a2c:	eb03003f 	cmp	x1, x3
     a30:	54000560 	b.eq	adc <brel+0x1e4>  // b.none
/home/thesis/Desktop/optee_rpi3bplus/optee_os/lib/libutils/isoc/bget.c:949 (discriminator 1)
     a34:	b0000063 	adrp	x3, d000 <primes+0x378>
     a38:	91164063 	add	x3, x3, #0x590
     a3c:	b0000061 	adrp	x1, d000 <primes+0x378>
     a40:	b0000060 	adrp	x0, d000 <primes+0x378>
     a44:	91002c63 	add	x3, x3, #0xb
     a48:	528076a2 	mov	w2, #0x3b5                 	// #949
     a4c:	9117a021 	add	x1, x1, #0x5e8
     a50:	911e2c00 	add	x0, x0, #0x78b
     a54:	17ffffb8 	b	934 <brel+0x3c>
/home/thesis/Desktop/optee_rpi3bplus/optee_os/lib/libutils/isoc/bget.c:929
     a58:	f9400c25 	ldr	x5, [x1, #24]
     a5c:	f94008a4 	ldr	x4, [x5, #16]
     a60:	eb01009f 	cmp	x4, x1
     a64:	54000140 	b.eq	a8c <brel+0x194>  // b.none
/home/thesis/Desktop/optee_rpi3bplus/optee_os/lib/libutils/isoc/bget.c:929 (discriminator 1)
     a68:	b0000063 	adrp	x3, d000 <primes+0x378>
     a6c:	91164063 	add	x3, x3, #0x590
     a70:	b0000061 	adrp	x1, d000 <primes+0x378>
     a74:	b0000060 	adrp	x0, d000 <primes+0x378>
     a78:	91002c63 	add	x3, x3, #0xb
     a7c:	52807422 	mov	w2, #0x3a1                 	// #929
     a80:	9117a021 	add	x1, x1, #0x5e8
     a84:	911c5400 	add	x0, x0, #0x715
     a88:	17ffffab 	b	934 <brel+0x3c>
/home/thesis/Desktop/optee_rpi3bplus/optee_os/lib/libutils/isoc/bget.c:930
     a8c:	f9400881 	ldr	x1, [x4, #16]
     a90:	f9400c21 	ldr	x1, [x1, #24]
     a94:	eb01009f 	cmp	x4, x1
     a98:	54000140 	b.eq	ac0 <brel+0x1c8>  // b.none
/home/thesis/Desktop/optee_rpi3bplus/optee_os/lib/libutils/isoc/bget.c:930 (discriminator 1)
     a9c:	b0000063 	adrp	x3, d000 <primes+0x378>
     aa0:	91164063 	add	x3, x3, #0x590
     aa4:	b0000061 	adrp	x1, d000 <primes+0x378>
     aa8:	b0000060 	adrp	x0, d000 <primes+0x378>
     aac:	91002c63 	add	x3, x3, #0xb
     ab0:	52807442 	mov	w2, #0x3a2                 	// #930
     ab4:	9117a021 	add	x1, x1, #0x5e8
     ab8:	911d4000 	add	x0, x0, #0x750
     abc:	17ffff9e 	b	934 <brel+0x3c>
/home/thesis/Desktop/optee_rpi3bplus/optee_os/lib/libutils/isoc/bget.c:932
     ac0:	a9011664 	stp	x4, x5, [x19, #16]
/home/thesis/Desktop/optee_rpi3bplus/optee_os/lib/libutils/isoc/bget.c:896
     ac4:	cb0303e3 	neg	x3, x3
/home/thesis/Desktop/optee_rpi3bplus/optee_os/lib/libutils/isoc/bget.c:933
     ac8:	f9000c93 	str	x19, [x4, #24]
/home/thesis/Desktop/optee_rpi3bplus/optee_os/lib/libutils/isoc/bget.c:934
     acc:	f9400e61 	ldr	x1, [x19, #24]
     ad0:	f9000833 	str	x19, [x1, #16]
/home/thesis/Desktop/optee_rpi3bplus/optee_os/lib/libutils/isoc/bget.c:935
     ad4:	f81f8003 	stur	x3, [x0, #-8]
     ad8:	17ffffcf 	b	a14 <brel+0x11c>
/home/thesis/Desktop/optee_rpi3bplus/optee_os/lib/libutils/isoc/bget.c:950
     adc:	f9400e84 	ldr	x4, [x20, #24]
     ae0:	f9400885 	ldr	x5, [x4, #16]
     ae4:	eb1400bf 	cmp	x5, x20
     ae8:	54000140 	b.eq	b10 <brel+0x218>  // b.none
/home/thesis/Desktop/optee_rpi3bplus/optee_os/lib/libutils/isoc/bget.c:950 (discriminator 1)
     aec:	b0000063 	adrp	x3, d000 <primes+0x378>
     af0:	91164063 	add	x3, x3, #0x590
     af4:	b0000061 	adrp	x1, d000 <primes+0x378>
     af8:	b0000060 	adrp	x0, d000 <primes+0x378>
     afc:	91002c63 	add	x3, x3, #0xb
     b00:	528076c2 	mov	w2, #0x3b6                 	// #950
     b04:	9117a021 	add	x1, x1, #0x5e8
     b08:	911f1000 	add	x0, x0, #0x7c4
     b0c:	17ffff8a 	b	934 <brel+0x3c>
/home/thesis/Desktop/optee_rpi3bplus/optee_os/lib/libutils/isoc/bget.c:951
     b10:	f94008a3 	ldr	x3, [x5, #16]
     b14:	f9400c66 	ldr	x6, [x3, #24]
     b18:	eb0500df 	cmp	x6, x5
     b1c:	54000140 	b.eq	b44 <brel+0x24c>  // b.none
/home/thesis/Desktop/optee_rpi3bplus/optee_os/lib/libutils/isoc/bget.c:951 (discriminator 1)
     b20:	b0000063 	adrp	x3, d000 <primes+0x378>
     b24:	91164063 	add	x3, x3, #0x590
     b28:	b0000061 	adrp	x1, d000 <primes+0x378>
     b2c:	b0000060 	adrp	x0, d000 <primes+0x378>
     b30:	91002c63 	add	x3, x3, #0xb
     b34:	528076e2 	mov	w2, #0x3b7                 	// #951
     b38:	9117a021 	add	x1, x1, #0x5e8
     b3c:	911f8400 	add	x0, x0, #0x7e1
     b40:	17ffff7d 	b	934 <brel+0x3c>
/home/thesis/Desktop/optee_rpi3bplus/optee_os/lib/libutils/isoc/bget.c:952
     b44:	f9000883 	str	x3, [x4, #16]
/home/thesis/Desktop/optee_rpi3bplus/optee_os/lib/libutils/isoc/bget.c:954
     b48:	8b010014 	add	x20, x0, x1
/home/thesis/Desktop/optee_rpi3bplus/optee_os/lib/libutils/isoc/bget.c:953
     b4c:	f9000c64 	str	x4, [x3, #24]
/home/thesis/Desktop/optee_rpi3bplus/optee_os/lib/libutils/isoc/bget.c:954
     b50:	f9000674 	str	x20, [x19, #8]
/home/thesis/Desktop/optee_rpi3bplus/optee_os/lib/libutils/isoc/bget.c:963
     b54:	8b140274 	add	x20, x19, x20
/home/thesis/Desktop/optee_rpi3bplus/optee_os/lib/libutils/isoc/bget.c:965
     b58:	340000e2 	cbz	w2, b74 <brel+0x27c>
/home/thesis/Desktop/optee_rpi3bplus/optee_os/lib/libutils/isoc/bget.c:967
     b5c:	f9400662 	ldr	x2, [x19, #8]
memset_unchecked():
/home/thesis/Desktop/optee_rpi3bplus/optee_os/lib/libutils/isoc/bget_malloc.c:124
     b60:	52800aa1 	mov	w1, #0x55                  	// #85
     b64:	91008260 	add	x0, x19, #0x20
brel():
/home/thesis/Desktop/optee_rpi3bplus/optee_os/lib/libutils/isoc/bget.c:967
     b68:	51008042 	sub	w2, w2, #0x20
memset_unchecked():
/home/thesis/Desktop/optee_rpi3bplus/optee_os/lib/libutils/isoc/bget_malloc.c:124
     b6c:	93407c42 	sxtw	x2, w2
     b70:	940001ca 	bl	1298 <memset>
brel():
/home/thesis/Desktop/optee_rpi3bplus/optee_os/lib/libutils/isoc/bget.c:969
     b74:	f9400680 	ldr	x0, [x20, #8]
     b78:	b7f80140 	tbnz	x0, #63, ba0 <brel+0x2a8>
/home/thesis/Desktop/optee_rpi3bplus/optee_os/lib/libutils/isoc/bget.c:969 (discriminator 1)
     b7c:	b0000063 	adrp	x3, d000 <primes+0x378>
     b80:	91164063 	add	x3, x3, #0x590
     b84:	b0000061 	adrp	x1, d000 <primes+0x378>
     b88:	b0000060 	adrp	x0, d000 <primes+0x378>
     b8c:	91002c63 	add	x3, x3, #0xb
     b90:	52807922 	mov	w2, #0x3c9                 	// #969
     b94:	9117a021 	add	x1, x1, #0x5e8
     b98:	911ff800 	add	x0, x0, #0x7fe
     b9c:	17ffff66 	b	934 <brel+0x3c>
/home/thesis/Desktop/optee_rpi3bplus/optee_os/lib/libutils/isoc/bget.c:974
     ba0:	f9400660 	ldr	x0, [x19, #8]
     ba4:	f9000280 	str	x0, [x20]
/home/thesis/Desktop/optee_rpi3bplus/optee_os/lib/libutils/isoc/bget.c:1002
     ba8:	a94153f3 	ldp	x19, x20, [sp, #16]
     bac:	a8c27bfd 	ldp	x29, x30, [sp], #32
     bb0:	d65f03c0 	ret

0000000000000bb4 <bgetr>:
bgetr():
/home/thesis/Desktop/optee_rpi3bplus/optee_os/lib/libutils/isoc/bget.c:811
     bb4:	a9bc7bfd 	stp	x29, x30, [sp, #-64]!
     bb8:	910003fd 	mov	x29, sp
     bbc:	a90153f3 	stp	x19, x20, [sp, #16]
     bc0:	aa0103f4 	mov	x20, x1
/home/thesis/Desktop/optee_rpi3bplus/optee_os/lib/libutils/isoc/bget.c:816
     bc4:	aa0203e1 	mov	x1, x2
/home/thesis/Desktop/optee_rpi3bplus/optee_os/lib/libutils/isoc/bget.c:811
     bc8:	a9025bf5 	stp	x21, x22, [sp, #32]
     bcc:	aa0003f5 	mov	x21, x0
/home/thesis/Desktop/optee_rpi3bplus/optee_os/lib/libutils/isoc/bget.c:816
     bd0:	aa1403e0 	mov	x0, x20
/home/thesis/Desktop/optee_rpi3bplus/optee_os/lib/libutils/isoc/bget.c:811
     bd4:	f9001bf7 	str	x23, [sp, #48]
     bd8:	aa0203f7 	mov	x23, x2
/home/thesis/Desktop/optee_rpi3bplus/optee_os/lib/libutils/isoc/bget.c:816
     bdc:	97fffeb4 	bl	6ac <bget>
     be0:	aa0003f6 	mov	x22, x0
     be4:	b4000420 	cbz	x0, c68 <bgetr+0xb4>
/home/thesis/Desktop/optee_rpi3bplus/optee_os/lib/libutils/isoc/bget.c:819
     be8:	b4000415 	cbz	x21, c68 <bgetr+0xb4>
/home/thesis/Desktop/optee_rpi3bplus/optee_os/lib/libutils/isoc/bget.c:833
     bec:	f85f82a1 	ldur	x1, [x21, #-8]
     bf0:	928001f3 	mov	x19, #0xfffffffffffffff0    	// #-16
     bf4:	cb010273 	sub	x19, x19, x1
/home/thesis/Desktop/optee_rpi3bplus/optee_os/lib/libutils/isoc/bget.c:834
     bf8:	f100027f 	cmp	x19, #0x0
     bfc:	5400016c 	b.gt	c28 <bgetr+0x74>
     c00:	b0000063 	adrp	x3, d000 <primes+0x378>
     c04:	91164063 	add	x3, x3, #0x590
     c08:	91004063 	add	x3, x3, #0x10
     c0c:	b0000061 	adrp	x1, d000 <primes+0x378>
     c10:	b0000060 	adrp	x0, d000 <primes+0x378>
     c14:	9117a021 	add	x1, x1, #0x5e8
     c18:	91203c00 	add	x0, x0, #0x80f
     c1c:	52806842 	mov	w2, #0x342                 	// #834
     c20:	940001ac 	bl	12d0 <_assert_log>
     c24:	940001bc 	bl	1314 <_assert_break>
/home/thesis/Desktop/optee_rpi3bplus/optee_os/lib/libutils/isoc/bget.c:835
     c28:	eb13029f 	cmp	x20, x19
     c2c:	93407e81 	sxtw	x1, w20
     c30:	93407e62 	sxtw	x2, w19
     c34:	9a81a042 	csel	x2, x2, x1, ge  // ge = tcont
     c38:	aa1503e1 	mov	x1, x21
     c3c:	9400018f 	bl	1278 <memcpy>
/home/thesis/Desktop/optee_rpi3bplus/optee_os/lib/libutils/isoc/bget.c:839
     c40:	eb13029f 	cmp	x20, x19
     c44:	540000ad 	b.le	c58 <bgetr+0xa4>
/home/thesis/Desktop/optee_rpi3bplus/optee_os/lib/libutils/isoc/bget.c:840
     c48:	cb130282 	sub	x2, x20, x19
     c4c:	52800001 	mov	w1, #0x0                   	// #0
     c50:	8b1302c0 	add	x0, x22, x19
     c54:	94000191 	bl	1298 <memset>
/home/thesis/Desktop/optee_rpi3bplus/optee_os/lib/libutils/isoc/bget.c:842
     c58:	52800002 	mov	w2, #0x0                   	// #0
     c5c:	aa1703e1 	mov	x1, x23
     c60:	aa1503e0 	mov	x0, x21
     c64:	97ffff25 	bl	8f8 <brel>
/home/thesis/Desktop/optee_rpi3bplus/optee_os/lib/libutils/isoc/bget.c:844
     c68:	aa1603e0 	mov	x0, x22
     c6c:	a94153f3 	ldp	x19, x20, [sp, #16]
     c70:	a9425bf5 	ldp	x21, x22, [sp, #32]
     c74:	f9401bf7 	ldr	x23, [sp, #48]
     c78:	a8c47bfd 	ldp	x29, x30, [sp], #64
     c7c:	d65f03c0 	ret

0000000000000c80 <bpool>:
bpool():
/home/thesis/Desktop/optee_rpi3bplus/optee_os/lib/libutils/isoc/bget.c:1028
     c80:	a9bf7bfd 	stp	x29, x30, [sp, #-16]!
/home/thesis/Desktop/optee_rpi3bplus/optee_os/lib/libutils/isoc/bget.c:1033
     c84:	927cec21 	and	x1, x1, #0xfffffffffffffff0
/home/thesis/Desktop/optee_rpi3bplus/optee_os/lib/libutils/isoc/bget.c:1052
     c88:	f1004021 	subs	x1, x1, #0x10
/home/thesis/Desktop/optee_rpi3bplus/optee_os/lib/libutils/isoc/bget.c:1028
     c8c:	910003fd 	mov	x29, sp
/home/thesis/Desktop/optee_rpi3bplus/optee_os/lib/libutils/isoc/bget.c:1052
     c90:	54000165 	b.pl	cbc <bpool+0x3c>  // b.nfrst
/home/thesis/Desktop/optee_rpi3bplus/optee_os/lib/libutils/isoc/bget.c:1052 (discriminator 1)
     c94:	b0000063 	adrp	x3, d000 <primes+0x378>
     c98:	91164063 	add	x3, x3, #0x590
     c9c:	b0000061 	adrp	x1, d000 <primes+0x378>
     ca0:	b0000060 	adrp	x0, d000 <primes+0x378>
     ca4:	91005863 	add	x3, x3, #0x16
     ca8:	9117a021 	add	x1, x1, #0x5e8
     cac:	91206400 	add	x0, x0, #0x819
     cb0:	52808382 	mov	w2, #0x41c                 	// #1052
/home/thesis/Desktop/optee_rpi3bplus/optee_os/lib/libutils/isoc/bget.c:1062 (discriminator 1)
     cb4:	94000187 	bl	12d0 <_assert_log>
     cb8:	94000197 	bl	1314 <_assert_break>
/home/thesis/Desktop/optee_rpi3bplus/optee_os/lib/libutils/isoc/bget.c:1062
     cbc:	f9400c44 	ldr	x4, [x2, #24]
     cc0:	f9400883 	ldr	x3, [x4, #16]
/home/thesis/Desktop/optee_rpi3bplus/optee_os/lib/libutils/isoc/bget.c:1058
     cc4:	f900001f 	str	xzr, [x0]
/home/thesis/Desktop/optee_rpi3bplus/optee_os/lib/libutils/isoc/bget.c:1062
     cc8:	eb02007f 	cmp	x3, x2
     ccc:	54000140 	b.eq	cf4 <bpool+0x74>  // b.none
/home/thesis/Desktop/optee_rpi3bplus/optee_os/lib/libutils/isoc/bget.c:1062 (discriminator 1)
     cd0:	b0000063 	adrp	x3, d000 <primes+0x378>
     cd4:	91164063 	add	x3, x3, #0x590
     cd8:	b0000061 	adrp	x1, d000 <primes+0x378>
     cdc:	b0000060 	adrp	x0, d000 <primes+0x378>
     ce0:	91005863 	add	x3, x3, #0x16
     ce4:	528084c2 	mov	w2, #0x426                 	// #1062
     ce8:	9117a021 	add	x1, x1, #0x5e8
     cec:	911c5400 	add	x0, x0, #0x715
     cf0:	17fffff1 	b	cb4 <bpool+0x34>
/home/thesis/Desktop/optee_rpi3bplus/optee_os/lib/libutils/isoc/bget.c:1063
     cf4:	f9400862 	ldr	x2, [x3, #16]
     cf8:	f9400c42 	ldr	x2, [x2, #24]
     cfc:	eb02007f 	cmp	x3, x2
     d00:	54000140 	b.eq	d28 <bpool+0xa8>  // b.none
     d04:	b0000063 	adrp	x3, d000 <primes+0x378>
     d08:	91164063 	add	x3, x3, #0x590
     d0c:	b0000061 	adrp	x1, d000 <primes+0x378>
     d10:	b0000060 	adrp	x0, d000 <primes+0x378>
     d14:	91005863 	add	x3, x3, #0x16
     d18:	528084e2 	mov	w2, #0x427                 	// #1063
     d1c:	9117a021 	add	x1, x1, #0x5e8
     d20:	911d4000 	add	x0, x0, #0x750
     d24:	17ffffe4 	b	cb4 <bpool+0x34>
/home/thesis/Desktop/optee_rpi3bplus/optee_os/lib/libutils/isoc/bget.c:1065
     d28:	a9011003 	stp	x3, x4, [x0, #16]
/home/thesis/Desktop/optee_rpi3bplus/optee_os/lib/libutils/isoc/bget.c:1066
     d2c:	f9000c60 	str	x0, [x3, #24]
/home/thesis/Desktop/optee_rpi3bplus/optee_os/lib/libutils/isoc/bget.c:1067
     d30:	f9400c02 	ldr	x2, [x0, #24]
     d34:	f9000840 	str	x0, [x2, #16]
/home/thesis/Desktop/optee_rpi3bplus/optee_os/lib/libutils/isoc/bget.c:1083
     d38:	8b010002 	add	x2, x0, x1
/home/thesis/Desktop/optee_rpi3bplus/optee_os/lib/libutils/isoc/bget.c:1078
     d3c:	f9000401 	str	x1, [x0, #8]
/home/thesis/Desktop/optee_rpi3bplus/optee_os/lib/libutils/isoc/bget.c:1084
     d40:	f8216801 	str	x1, [x0, x1]
/home/thesis/Desktop/optee_rpi3bplus/optee_os/lib/libutils/isoc/bget.c:1087
     d44:	d2f00000 	mov	x0, #0x8000000000000000    	// #-9223372036854775808
     d48:	f9000440 	str	x0, [x2, #8]
/home/thesis/Desktop/optee_rpi3bplus/optee_os/lib/libutils/isoc/bget.c:1088
     d4c:	a8c17bfd 	ldp	x29, x30, [sp], #16
     d50:	d65f03c0 	ret

0000000000000d54 <bstats>:
bstats():
/home/thesis/Desktop/optee_rpi3bplus/optee_os/lib/libutils/isoc/bget.c:1101
     d54:	f94014a7 	ldr	x7, [x5, #40]
/home/thesis/Desktop/optee_rpi3bplus/optee_os/lib/libutils/isoc/bget.c:1099
     d58:	f94008a6 	ldr	x6, [x5, #16]
/home/thesis/Desktop/optee_rpi3bplus/optee_os/lib/libutils/isoc/bget.c:1101
     d5c:	f9000067 	str	x7, [x3]
/home/thesis/Desktop/optee_rpi3bplus/optee_os/lib/libutils/isoc/bget.c:1102
     d60:	f94018a3 	ldr	x3, [x5, #48]
     d64:	f9000083 	str	x3, [x4]
/home/thesis/Desktop/optee_rpi3bplus/optee_os/lib/libutils/isoc/bget.c:1103
     d68:	f94010a3 	ldr	x3, [x5, #32]
     d6c:	f9000003 	str	x3, [x0]
/home/thesis/Desktop/optee_rpi3bplus/optee_os/lib/libutils/isoc/bget.c:1104
     d70:	f900003f 	str	xzr, [x1]
/home/thesis/Desktop/optee_rpi3bplus/optee_os/lib/libutils/isoc/bget.c:1105
     d74:	92800000 	mov	x0, #0xffffffffffffffff    	// #-1
     d78:	f9000040 	str	x0, [x2]
/home/thesis/Desktop/optee_rpi3bplus/optee_os/lib/libutils/isoc/bget.c:1106
     d7c:	eb0600bf 	cmp	x5, x6
     d80:	54000041 	b.ne	d88 <bstats+0x34>  // b.any
     d84:	d65f03c0 	ret
/home/thesis/Desktop/optee_rpi3bplus/optee_os/lib/libutils/isoc/bget.c:1107
     d88:	f94004c3 	ldr	x3, [x6, #8]
     d8c:	f100007f 	cmp	x3, #0x0
     d90:	540001ac 	b.gt	dc4 <bstats+0x70>
/home/thesis/Desktop/optee_rpi3bplus/optee_os/lib/libutils/isoc/bget.c:1107 (discriminator 1)
     d94:	b0000063 	adrp	x3, d000 <primes+0x378>
     d98:	91164063 	add	x3, x3, #0x590
     d9c:	91007063 	add	x3, x3, #0x1c
     da0:	b0000061 	adrp	x1, d000 <primes+0x378>
     da4:	b0000060 	adrp	x0, d000 <primes+0x378>
     da8:	9117a021 	add	x1, x1, #0x5e8
     dac:	91213800 	add	x0, x0, #0x84e
/home/thesis/Desktop/optee_rpi3bplus/optee_os/lib/libutils/isoc/bget.c:1098 (discriminator 1)
     db0:	a9bf7bfd 	stp	x29, x30, [sp, #-16]!
/home/thesis/Desktop/optee_rpi3bplus/optee_os/lib/libutils/isoc/bget.c:1107 (discriminator 1)
     db4:	52808a62 	mov	w2, #0x453                 	// #1107
/home/thesis/Desktop/optee_rpi3bplus/optee_os/lib/libutils/isoc/bget.c:1098 (discriminator 1)
     db8:	910003fd 	mov	x29, sp
/home/thesis/Desktop/optee_rpi3bplus/optee_os/lib/libutils/isoc/bget.c:1107 (discriminator 1)
     dbc:	94000145 	bl	12d0 <_assert_log>
     dc0:	94000155 	bl	1314 <_assert_break>
/home/thesis/Desktop/optee_rpi3bplus/optee_os/lib/libutils/isoc/bget.c:1108
     dc4:	f9400020 	ldr	x0, [x1]
     dc8:	8b030000 	add	x0, x0, x3
     dcc:	f9000020 	str	x0, [x1]
/home/thesis/Desktop/optee_rpi3bplus/optee_os/lib/libutils/isoc/bget.c:1109
     dd0:	f9400043 	ldr	x3, [x2]
     dd4:	f94004c0 	ldr	x0, [x6, #8]
     dd8:	eb03001f 	cmp	x0, x3
     ddc:	5400004d 	b.le	de4 <bstats+0x90>
/home/thesis/Desktop/optee_rpi3bplus/optee_os/lib/libutils/isoc/bget.c:1110
     de0:	f9000040 	str	x0, [x2]
/home/thesis/Desktop/optee_rpi3bplus/optee_os/lib/libutils/isoc/bget.c:1112
     de4:	f94008c6 	ldr	x6, [x6, #16]
     de8:	17ffffe5 	b	d7c <bstats+0x28>

0000000000000dec <malloc_reset_stats>:
gen_malloc_reset_stats():
/home/thesis/Desktop/optee_rpi3bplus/optee_os/lib/libutils/isoc/bget_malloc.c:216
     dec:	f0000060 	adrp	x0, f000 <.got>
     df0:	910de000 	add	x0, x0, #0x378
     df4:	b9006c1f 	str	wzr, [x0, #108]
/home/thesis/Desktop/optee_rpi3bplus/optee_os/lib/libutils/isoc/bget_malloc.c:217
     df8:	b900741f 	str	wzr, [x0, #116]
/home/thesis/Desktop/optee_rpi3bplus/optee_os/lib/libutils/isoc/bget_malloc.c:218
     dfc:	f9003c1f 	str	xzr, [x0, #120]
malloc_reset_stats():
/home/thesis/Desktop/optee_rpi3bplus/optee_os/lib/libutils/isoc/bget_malloc.c:226
     e00:	d65f03c0 	ret

0000000000000e04 <malloc_get_stats>:
malloc_get_stats():
/home/thesis/Desktop/optee_rpi3bplus/optee_os/lib/libutils/isoc/bget_malloc.c:239
     e04:	a9be7bfd 	stp	x29, x30, [sp, #-32]!
gen_malloc_get_stats():
/home/thesis/Desktop/optee_rpi3bplus/optee_os/lib/libutils/isoc/bget_malloc.c:233
     e08:	d2800702 	mov	x2, #0x38                  	// #56
malloc_get_stats():
/home/thesis/Desktop/optee_rpi3bplus/optee_os/lib/libutils/isoc/bget_malloc.c:239
     e0c:	910003fd 	mov	x29, sp
     e10:	f9000bf3 	str	x19, [sp, #16]
gen_malloc_get_stats():
/home/thesis/Desktop/optee_rpi3bplus/optee_os/lib/libutils/isoc/bget_malloc.c:233
     e14:	f0000073 	adrp	x19, f000 <.got>
     e18:	910de273 	add	x19, x19, #0x378
     e1c:	91012261 	add	x1, x19, #0x48
     e20:	94000116 	bl	1278 <memcpy>
     e24:	aa0003e3 	mov	x3, x0
/home/thesis/Desktop/optee_rpi3bplus/optee_os/lib/libutils/isoc/bget_malloc.c:234
     e28:	f9401260 	ldr	x0, [x19, #32]
malloc_get_stats():
/home/thesis/Desktop/optee_rpi3bplus/optee_os/lib/libutils/isoc/bget_malloc.c:241
     e2c:	f9400bf3 	ldr	x19, [sp, #16]
gen_malloc_get_stats():
/home/thesis/Desktop/optee_rpi3bplus/optee_os/lib/libutils/isoc/bget_malloc.c:234
     e30:	b9002060 	str	w0, [x3, #32]
malloc_get_stats():
/home/thesis/Desktop/optee_rpi3bplus/optee_os/lib/libutils/isoc/bget_malloc.c:241
     e34:	a8c27bfd 	ldp	x29, x30, [sp], #32
     e38:	d65f03c0 	ret

0000000000000e3c <malloc>:
malloc():
/home/thesis/Desktop/optee_rpi3bplus/optee_os/lib/libutils/isoc/bget_malloc.c:656
     e3c:	a9be7bfd 	stp	x29, x30, [sp, #-32]!
     e40:	910003fd 	mov	x29, sp
     e44:	f9000bf3 	str	x19, [sp, #16]
     e48:	aa0003f3 	mov	x19, x0
raw_malloc():
/home/thesis/Desktop/optee_rpi3bplus/optee_os/lib/libutils/isoc/bget_malloc.c:352
     e4c:	b7f801c0 	tbnz	x0, #63, e84 <malloc+0x48>
/home/thesis/Desktop/optee_rpi3bplus/optee_os/lib/libutils/isoc/bget_malloc.c:359
     e50:	f100001f 	cmp	x0, #0x0
/home/thesis/Desktop/optee_rpi3bplus/optee_os/lib/libutils/isoc/bget_malloc.c:361
     e54:	f0000061 	adrp	x1, f000 <.got>
     e58:	9a9f1400 	csinc	x0, x0, xzr, ne  // ne = any
     e5c:	910de021 	add	x1, x1, #0x378
     e60:	97fffe13 	bl	6ac <bget>
     e64:	aa0003e6 	mov	x6, x0
/home/thesis/Desktop/optee_rpi3bplus/optee_os/lib/libutils/isoc/bget_malloc.c:363
     e68:	aa1303e1 	mov	x1, x19
     e6c:	aa0603e0 	mov	x0, x6
     e70:	97fffdfe 	bl	668 <raw_malloc_return_hook.constprop.21>
malloc():
/home/thesis/Desktop/optee_rpi3bplus/optee_os/lib/libutils/isoc/bget_malloc.c:663
     e74:	aa0603e0 	mov	x0, x6
     e78:	f9400bf3 	ldr	x19, [sp, #16]
     e7c:	a8c27bfd 	ldp	x29, x30, [sp], #32
     e80:	d65f03c0 	ret
raw_malloc():
/home/thesis/Desktop/optee_rpi3bplus/optee_os/lib/libutils/isoc/bget_malloc.c:339
     e84:	d2800006 	mov	x6, #0x0                   	// #0
     e88:	17fffff8 	b	e68 <malloc+0x2c>

0000000000000e8c <calloc>:
calloc():
/home/thesis/Desktop/optee_rpi3bplus/optee_os/lib/libutils/isoc/bget_malloc.c:674
     e8c:	a9be7bfd 	stp	x29, x30, [sp, #-32]!
     e90:	910003fd 	mov	x29, sp
     e94:	f9000bf3 	str	x19, [sp, #16]
raw_calloc():
/home/thesis/Desktop/optee_rpi3bplus/optee_os/lib/libutils/isoc/bget_malloc.c:385
     e98:	9b017c13 	mul	x19, x0, x1
     e9c:	9bc17c00 	umulh	x0, x0, x1
     ea0:	f100001f 	cmp	x0, #0x0
     ea4:	d2800020 	mov	x0, #0x1                   	// #1
     ea8:	9a9f07e1 	cset	x1, ne  // ne = any
     eac:	f100027f 	cmp	x19, #0x0
     eb0:	9a80a021 	csel	x1, x1, x0, ge  // ge = tcont
     eb4:	b50001a1 	cbnz	x1, ee8 <calloc+0x5c>
/home/thesis/Desktop/optee_rpi3bplus/optee_os/lib/libutils/isoc/bget_malloc.c:396
     eb8:	f0000061 	adrp	x1, f000 <.got>
     ebc:	9a801260 	csel	x0, x19, x0, ne  // ne = any
     ec0:	910de021 	add	x1, x1, #0x378
     ec4:	97fffe6a 	bl	86c <bgetz>
     ec8:	aa0003e6 	mov	x6, x0
/home/thesis/Desktop/optee_rpi3bplus/optee_os/lib/libutils/isoc/bget_malloc.c:398
     ecc:	aa1303e1 	mov	x1, x19
     ed0:	aa0603e0 	mov	x0, x6
     ed4:	97fffde5 	bl	668 <raw_malloc_return_hook.constprop.21>
calloc():
/home/thesis/Desktop/optee_rpi3bplus/optee_os/lib/libutils/isoc/bget_malloc.c:681
     ed8:	aa0603e0 	mov	x0, x6
     edc:	f9400bf3 	ldr	x19, [sp, #16]
     ee0:	a8c27bfd 	ldp	x29, x30, [sp], #32
     ee4:	d65f03c0 	ret
raw_calloc():
/home/thesis/Desktop/optee_rpi3bplus/optee_os/lib/libutils/isoc/bget_malloc.c:379
     ee8:	d2800006 	mov	x6, #0x0                   	// #0
     eec:	17fffff8 	b	ecc <calloc+0x40>

0000000000000ef0 <realloc>:
realloc():
/home/thesis/Desktop/optee_rpi3bplus/optee_os/lib/libutils/isoc/bget_malloc.c:690
     ef0:	a9be7bfd 	stp	x29, x30, [sp, #-32]!
     ef4:	910003fd 	mov	x29, sp
     ef8:	f9000bf3 	str	x19, [sp, #16]
     efc:	aa0103f3 	mov	x19, x1
raw_realloc():
/home/thesis/Desktop/optee_rpi3bplus/optee_os/lib/libutils/isoc/bget_malloc.c:410
     f00:	b7f801c1 	tbnz	x1, #63, f38 <realloc+0x48>
/home/thesis/Desktop/optee_rpi3bplus/optee_os/lib/libutils/isoc/bget_malloc.c:419
     f04:	f100003f 	cmp	x1, #0x0
/home/thesis/Desktop/optee_rpi3bplus/optee_os/lib/libutils/isoc/bget_malloc.c:421
     f08:	f0000062 	adrp	x2, f000 <.got>
     f0c:	9a9f1421 	csinc	x1, x1, xzr, ne  // ne = any
     f10:	910de042 	add	x2, x2, #0x378
     f14:	97ffff28 	bl	bb4 <bgetr>
     f18:	aa0003e6 	mov	x6, x0
/home/thesis/Desktop/optee_rpi3bplus/optee_os/lib/libutils/isoc/bget_malloc.c:423
     f1c:	aa1303e1 	mov	x1, x19
     f20:	aa0603e0 	mov	x0, x6
     f24:	97fffdd1 	bl	668 <raw_malloc_return_hook.constprop.21>
realloc():
/home/thesis/Desktop/optee_rpi3bplus/optee_os/lib/libutils/isoc/bget_malloc.c:697
     f28:	aa0603e0 	mov	x0, x6
     f2c:	f9400bf3 	ldr	x19, [sp, #16]
     f30:	a8c27bfd 	ldp	x29, x30, [sp], #32
     f34:	d65f03c0 	ret
raw_realloc():
/home/thesis/Desktop/optee_rpi3bplus/optee_os/lib/libutils/isoc/bget_malloc.c:406
     f38:	d2800006 	mov	x6, #0x0                   	// #0
     f3c:	17fffff8 	b	f1c <realloc+0x2c>

0000000000000f40 <free>:
raw_free():
/home/thesis/Desktop/optee_rpi3bplus/optee_os/lib/libutils/isoc/bget_malloc.c:372
     f40:	b40000a0 	cbz	x0, f54 <free+0x14>
/home/thesis/Desktop/optee_rpi3bplus/optee_os/lib/libutils/isoc/bget_malloc.c:373
     f44:	52800002 	mov	w2, #0x0                   	// #0
     f48:	f0000061 	adrp	x1, f000 <.got>
     f4c:	910de021 	add	x1, x1, #0x378
     f50:	17fffe6a 	b	8f8 <brel>
free():
/home/thesis/Desktop/optee_rpi3bplus/optee_os/lib/libutils/isoc/bget_malloc.c:710
     f54:	d65f03c0 	ret

0000000000000f58 <free_wipe>:
raw_free():
/home/thesis/Desktop/optee_rpi3bplus/optee_os/lib/libutils/isoc/bget_malloc.c:372
     f58:	b40000a0 	cbz	x0, f6c <free_wipe+0x14>
/home/thesis/Desktop/optee_rpi3bplus/optee_os/lib/libutils/isoc/bget_malloc.c:373
     f5c:	52800022 	mov	w2, #0x1                   	// #1
     f60:	f0000061 	adrp	x1, f000 <.got>
     f64:	910de021 	add	x1, x1, #0x378
     f68:	17fffe64 	b	8f8 <brel>
free_wipe():
/home/thesis/Desktop/optee_rpi3bplus/optee_os/lib/libutils/isoc/bget_malloc.c:715
     f6c:	d65f03c0 	ret

0000000000000f70 <malloc_add_pool>:
malloc_add_pool():
/home/thesis/Desktop/optee_rpi3bplus/optee_os/lib/libutils/isoc/bget_malloc.c:823
     f70:	a9bc7bfd 	stp	x29, x30, [sp, #-64]!
     f74:	910003fd 	mov	x29, sp
     f78:	a90153f3 	stp	x19, x20, [sp, #16]
gen_malloc_add_pool():
/home/thesis/Desktop/optee_rpi3bplus/optee_os/lib/libutils/isoc/bget_malloc.c:723
     f7c:	8b010014 	add	x20, x0, x1
/home/thesis/Desktop/optee_rpi3bplus/optee_os/lib/libutils/isoc/bget_malloc.c:729
     f80:	91003c00 	add	x0, x0, #0xf
malloc_add_pool():
/home/thesis/Desktop/optee_rpi3bplus/optee_os/lib/libutils/isoc/bget_malloc.c:823
     f84:	a9025bf5 	stp	x21, x22, [sp, #32]
gen_malloc_add_pool():
/home/thesis/Desktop/optee_rpi3bplus/optee_os/lib/libutils/isoc/bget_malloc.c:730
     f88:	927cee94 	and	x20, x20, #0xfffffffffffffff0
/home/thesis/Desktop/optee_rpi3bplus/optee_os/lib/libutils/isoc/bget_malloc.c:729
     f8c:	927cec16 	and	x22, x0, #0xfffffffffffffff0
malloc_add_pool():
/home/thesis/Desktop/optee_rpi3bplus/optee_os/lib/libutils/isoc/bget_malloc.c:823
     f90:	a90363f7 	stp	x23, x24, [sp, #48]
gen_malloc_add_pool():
/home/thesis/Desktop/optee_rpi3bplus/optee_os/lib/libutils/isoc/bget_malloc.c:731
     f94:	eb1402df 	cmp	x22, x20
     f98:	54000163 	b.cc	fc4 <malloc_add_pool+0x54>  // b.lo, b.ul, b.last
     f9c:	b0000063 	adrp	x3, d000 <primes+0x378>
     fa0:	91164063 	add	x3, x3, #0x590
     fa4:	b0000061 	adrp	x1, d000 <primes+0x378>
     fa8:	b0000060 	adrp	x0, d000 <primes+0x378>
     fac:	91008c63 	add	x3, x3, #0x23
     fb0:	91217821 	add	x1, x1, #0x85e
     fb4:	9121f800 	add	x0, x0, #0x87e
     fb8:	52805b62 	mov	w2, #0x2db                 	// #731
/home/thesis/Desktop/optee_rpi3bplus/optee_os/lib/libutils/isoc/bget_malloc.c:744
     fbc:	940000c5 	bl	12d0 <_assert_log>
     fc0:	940000d5 	bl	1314 <_assert_break>
/home/thesis/Desktop/optee_rpi3bplus/optee_os/lib/libutils/isoc/bget_malloc.c:733
     fc4:	cb160294 	sub	x20, x20, x22
     fc8:	f100be9f 	cmp	x20, #0x2f
     fcc:	54000569 	b.ls	1078 <malloc_add_pool+0x108>  // b.plast
/home/thesis/Desktop/optee_rpi3bplus/optee_os/lib/libutils/isoc/bget_malloc.c:741
     fd0:	f0000073 	adrp	x19, f000 <.got>
     fd4:	910de278 	add	x24, x19, #0x378
     fd8:	aa1803e2 	mov	x2, x24
     fdc:	aa1403e1 	mov	x1, x20
     fe0:	aa1603e0 	mov	x0, x22
     fe4:	97ffff27 	bl	c80 <bpool>
/home/thesis/Desktop/optee_rpi3bplus/optee_os/lib/libutils/isoc/bget_malloc.c:742
     fe8:	f9402317 	ldr	x23, [x24, #64]
     fec:	910006f7 	add	x23, x23, #0x1
/home/thesis/Desktop/optee_rpi3bplus/optee_os/lib/libutils/isoc/bget_malloc.c:743
     ff0:	d37ceef5 	lsl	x21, x23, #4
raw_realloc():
/home/thesis/Desktop/optee_rpi3bplus/optee_os/lib/libutils/isoc/bget_malloc.c:410
     ff4:	b7f80295 	tbnz	x21, #63, 1044 <malloc_add_pool+0xd4>
/home/thesis/Desktop/optee_rpi3bplus/optee_os/lib/libutils/isoc/bget_malloc.c:421
     ff8:	f9401f00 	ldr	x0, [x24, #56]
/home/thesis/Desktop/optee_rpi3bplus/optee_os/lib/libutils/isoc/bget_malloc.c:419
     ffc:	f10002bf 	cmp	x21, #0x0
/home/thesis/Desktop/optee_rpi3bplus/optee_os/lib/libutils/isoc/bget_malloc.c:421
    1000:	aa1803e2 	mov	x2, x24
    1004:	9a9f16a1 	csinc	x1, x21, xzr, ne  // ne = any
    1008:	97fffeeb 	bl	bb4 <bgetr>
    100c:	aa0003e6 	mov	x6, x0
/home/thesis/Desktop/optee_rpi3bplus/optee_os/lib/libutils/isoc/bget_malloc.c:423
    1010:	aa1503e1 	mov	x1, x21
    1014:	aa0603e0 	mov	x0, x6
    1018:	97fffd94 	bl	668 <raw_malloc_return_hook.constprop.21>
gen_malloc_add_pool():
/home/thesis/Desktop/optee_rpi3bplus/optee_os/lib/libutils/isoc/bget_malloc.c:744
    101c:	b5000186 	cbnz	x6, 104c <malloc_add_pool+0xdc>
    1020:	90000063 	adrp	x3, d000 <primes+0x378>
    1024:	91164063 	add	x3, x3, #0x590
    1028:	90000061 	adrp	x1, d000 <primes+0x378>
    102c:	90000060 	adrp	x0, d000 <primes+0x378>
    1030:	91008c63 	add	x3, x3, #0x23
    1034:	52805d02 	mov	w2, #0x2e8                 	// #744
    1038:	91217821 	add	x1, x1, #0x85e
    103c:	91222800 	add	x0, x0, #0x88a
    1040:	17ffffdf 	b	fbc <malloc_add_pool+0x4c>
raw_realloc():
/home/thesis/Desktop/optee_rpi3bplus/optee_os/lib/libutils/isoc/bget_malloc.c:406
    1044:	d2800006 	mov	x6, #0x0                   	// #0
    1048:	17fffff2 	b	1010 <malloc_add_pool+0xa0>
gen_malloc_add_pool():
/home/thesis/Desktop/optee_rpi3bplus/optee_os/lib/libutils/isoc/bget_malloc.c:745
    104c:	910de260 	add	x0, x19, #0x378
/home/thesis/Desktop/optee_rpi3bplus/optee_os/lib/libutils/isoc/bget_malloc.c:746
    1050:	f9402001 	ldr	x1, [x0, #64]
/home/thesis/Desktop/optee_rpi3bplus/optee_os/lib/libutils/isoc/bget_malloc.c:745
    1054:	f9001c06 	str	x6, [x0, #56]
/home/thesis/Desktop/optee_rpi3bplus/optee_os/lib/libutils/isoc/bget_malloc.c:746
    1058:	d37cec21 	lsl	x1, x1, #4
    105c:	8b0100c2 	add	x2, x6, x1
    1060:	f82168d6 	str	x22, [x6, x1]
/home/thesis/Desktop/optee_rpi3bplus/optee_os/lib/libutils/isoc/bget_malloc.c:749
    1064:	b9407001 	ldr	w1, [x0, #112]
/home/thesis/Desktop/optee_rpi3bplus/optee_os/lib/libutils/isoc/bget_malloc.c:747
    1068:	f9000454 	str	x20, [x2, #8]
/home/thesis/Desktop/optee_rpi3bplus/optee_os/lib/libutils/isoc/bget_malloc.c:749
    106c:	0b140034 	add	w20, w1, w20
/home/thesis/Desktop/optee_rpi3bplus/optee_os/lib/libutils/isoc/bget_malloc.c:751
    1070:	f9002017 	str	x23, [x0, #64]
/home/thesis/Desktop/optee_rpi3bplus/optee_os/lib/libutils/isoc/bget_malloc.c:749
    1074:	b9007014 	str	w20, [x0, #112]
malloc_add_pool():
/home/thesis/Desktop/optee_rpi3bplus/optee_os/lib/libutils/isoc/bget_malloc.c:825
    1078:	a94153f3 	ldp	x19, x20, [sp, #16]
    107c:	a9425bf5 	ldp	x21, x22, [sp, #32]
    1080:	a94363f7 	ldp	x23, x24, [sp, #48]
    1084:	a8c47bfd 	ldp	x29, x30, [sp], #64
    1088:	d65f03c0 	ret

000000000000108c <malloc_buffer_is_within_alloced>:
gen_malloc_buffer_is_within_alloced():
/home/thesis/Desktop/optee_rpi3bplus/optee_os/lib/libutils/isoc/bget_malloc.c:761
    108c:	8b010001 	add	x1, x0, x1
/home/thesis/Desktop/optee_rpi3bplus/optee_os/lib/libutils/isoc/bget_malloc.c:768
    1090:	eb01001f 	cmp	x0, x1
    1094:	54000b88 	b.hi	1204 <malloc_buffer_is_within_alloced+0x178>  // b.pmore
    1098:	aa0003e4 	mov	x4, x0
/home/thesis/Desktop/optee_rpi3bplus/optee_os/lib/libutils/isoc/bget_malloc.c:771
    109c:	d0000060 	adrp	x0, f000 <.got>
    10a0:	910de000 	add	x0, x0, #0x378
bpool_foreach_iterator_init():
/home/thesis/Desktop/optee_rpi3bplus/optee_os/lib/libutils/isoc/bget_malloc.c:276
    10a4:	d2800005 	mov	x5, #0x0                   	// #0
bpool_foreach_pool():
/home/thesis/Desktop/optee_rpi3bplus/optee_os/lib/libutils/isoc/bget_malloc.c:286
    10a8:	d2f0000a 	mov	x10, #0x8000000000000000    	// #-9223372036854775808
    10ac:	928001eb 	mov	x11, #0xfffffffffffffff0    	// #-16
bpool_foreach():
/home/thesis/Desktop/optee_rpi3bplus/optee_os/lib/libutils/isoc/bget_malloc.c:323
    10b0:	a943a406 	ldp	x6, x9, [x0, #56]
bpool_foreach_iterator_init():
/home/thesis/Desktop/optee_rpi3bplus/optee_os/lib/libutils/isoc/bget_malloc.c:277
    10b4:	f94000c3 	ldr	x3, [x6]
/home/thesis/Desktop/optee_rpi3bplus/optee_os/lib/libutils/isoc/bget_malloc.c:276
    10b8:	aa0303e0 	mov	x0, x3
bpool_foreach_pool():
/home/thesis/Desktop/optee_rpi3bplus/optee_os/lib/libutils/isoc/bget_malloc.c:284
    10bc:	f9400462 	ldr	x2, [x3, #8]
/home/thesis/Desktop/optee_rpi3bplus/optee_os/lib/libutils/isoc/bget_malloc.c:286
    10c0:	eb0a005f 	cmp	x2, x10
    10c4:	540009a0 	b.eq	11f8 <malloc_buffer_is_within_alloced+0x16c>  // b.none
malloc_buffer_is_within_alloced():
/home/thesis/Desktop/optee_rpi3bplus/optee_os/lib/libutils/isoc/bget_malloc.c:828
    10c8:	a9bf7bfd 	stp	x29, x30, [sp, #-16]!
    10cc:	910003fd 	mov	x29, sp
    10d0:	1400000d 	b	1104 <malloc_buffer_is_within_alloced+0x78>
bpool_foreach_pool():
/home/thesis/Desktop/optee_rpi3bplus/optee_os/lib/libutils/isoc/bget_malloc.c:303
    10d4:	91004000 	add	x0, x0, #0x10
gen_malloc_buffer_is_within_alloced():
/home/thesis/Desktop/optee_rpi3bplus/optee_os/lib/libutils/isoc/bget_malloc.c:777
    10d8:	8b020002 	add	x2, x0, x2
/home/thesis/Desktop/optee_rpi3bplus/optee_os/lib/libutils/isoc/bget_malloc.c:779
    10dc:	eb02003f 	cmp	x1, x2
    10e0:	1a9f87e2 	cset	w2, ls  // ls = plast
    10e4:	eb00009f 	cmp	x4, x0
    10e8:	1a9f37e0 	cset	w0, cs  // cs = hs, nlast
    10ec:	6a000040 	ands	w0, w2, w0
    10f0:	540007a1 	b.ne	11e4 <malloc_buffer_is_within_alloced+0x158>  // b.any
bpool_foreach_pool():
/home/thesis/Desktop/optee_rpi3bplus/optee_os/lib/libutils/isoc/bget_malloc.c:284
    10f4:	f9400462 	ldr	x2, [x3, #8]
bpool_foreach_iterator_init():
/home/thesis/Desktop/optee_rpi3bplus/optee_os/lib/libutils/isoc/bget_malloc.c:276
    10f8:	aa0303e0 	mov	x0, x3
bpool_foreach_pool():
/home/thesis/Desktop/optee_rpi3bplus/optee_os/lib/libutils/isoc/bget_malloc.c:286
    10fc:	eb0a005f 	cmp	x2, x10
    1100:	540006a0 	b.eq	11d4 <malloc_buffer_is_within_alloced+0x148>  // b.none
/home/thesis/Desktop/optee_rpi3bplus/optee_os/lib/libutils/isoc/bget_malloc.c:289
    1104:	b6f80242 	tbz	x2, #63, 114c <malloc_buffer_is_within_alloced+0xc0>
/home/thesis/Desktop/optee_rpi3bplus/optee_os/lib/libutils/isoc/bget_malloc.c:291
    1108:	cb0203e8 	neg	x8, x2
/home/thesis/Desktop/optee_rpi3bplus/optee_os/lib/libutils/isoc/bget_malloc.c:293
    110c:	52800007 	mov	w7, #0x0                   	// #0
/home/thesis/Desktop/optee_rpi3bplus/optee_os/lib/libutils/isoc/bget_malloc.c:306
    1110:	8b080063 	add	x3, x3, x8
bpool_foreach():
/home/thesis/Desktop/optee_rpi3bplus/optee_os/lib/libutils/isoc/bget_malloc.c:318
    1114:	35ffff07 	cbnz	w7, 10f4 <malloc_buffer_is_within_alloced+0x68>
bget_buf_size():
/home/thesis/Desktop/optee_rpi3bplus/optee_os/lib/libutils/isoc/bget_malloc.c:445
    1118:	cb020162 	sub	x2, x11, x2
/home/thesis/Desktop/optee_rpi3bplus/optee_os/lib/libutils/isoc/bget_malloc.c:446
    111c:	f100005f 	cmp	x2, #0x0
    1120:	54fffdac 	b.gt	10d4 <malloc_buffer_is_within_alloced+0x48>
    1124:	90000063 	adrp	x3, d000 <primes+0x378>
    1128:	91164063 	add	x3, x3, #0x590
    112c:	9100dc63 	add	x3, x3, #0x37
    1130:	90000061 	adrp	x1, d000 <primes+0x378>
    1134:	90000060 	adrp	x0, d000 <primes+0x378>
    1138:	91217821 	add	x1, x1, #0x85e
    113c:	91203c00 	add	x0, x0, #0x80f
    1140:	528037c2 	mov	w2, #0x1be                 	// #446
    1144:	94000063 	bl	12d0 <_assert_log>
    1148:	94000073 	bl	1314 <_assert_break>
bpool_foreach_pool():
/home/thesis/Desktop/optee_rpi3bplus/optee_os/lib/libutils/isoc/bget_malloc.c:299
    114c:	f9400c67 	ldr	x7, [x3, #24]
    1150:	f94008e7 	ldr	x7, [x7, #16]
    1154:	eb0300ff 	cmp	x7, x3
    1158:	54000160 	b.eq	1184 <malloc_buffer_is_within_alloced+0xf8>  // b.none
    115c:	90000063 	adrp	x3, d000 <primes+0x378>
    1160:	91164063 	add	x3, x3, #0x590
    1164:	91011463 	add	x3, x3, #0x45
    1168:	90000061 	adrp	x1, d000 <primes+0x378>
    116c:	90000060 	adrp	x0, d000 <primes+0x378>
    1170:	91217821 	add	x1, x1, #0x85e
    1174:	9118e400 	add	x0, x0, #0x639
    1178:	52802562 	mov	w2, #0x12b                 	// #299
    117c:	94000055 	bl	12d0 <_assert_log>
    1180:	94000065 	bl	1314 <_assert_break>
/home/thesis/Desktop/optee_rpi3bplus/optee_os/lib/libutils/isoc/bget_malloc.c:300
    1184:	f9400867 	ldr	x7, [x3, #16]
    1188:	f9400ce7 	ldr	x7, [x7, #24]
    118c:	eb0300ff 	cmp	x7, x3
    1190:	54000160 	b.eq	11bc <malloc_buffer_is_within_alloced+0x130>  // b.none
    1194:	90000063 	adrp	x3, d000 <primes+0x378>
    1198:	91164063 	add	x3, x3, #0x590
    119c:	91011463 	add	x3, x3, #0x45
    11a0:	90000061 	adrp	x1, d000 <primes+0x378>
    11a4:	90000060 	adrp	x0, d000 <primes+0x378>
    11a8:	91217821 	add	x1, x1, #0x85e
    11ac:	91195000 	add	x0, x0, #0x654
    11b0:	52802582 	mov	w2, #0x12c                 	// #300
    11b4:	94000047 	bl	12d0 <_assert_log>
    11b8:	94000057 	bl	1314 <_assert_break>
    11bc:	aa0203e8 	mov	x8, x2
/home/thesis/Desktop/optee_rpi3bplus/optee_os/lib/libutils/isoc/bget_malloc.c:296
    11c0:	52800027 	mov	w7, #0x1                   	// #1
    11c4:	17ffffd3 	b	1110 <malloc_buffer_is_within_alloced+0x84>
bpool_foreach():
/home/thesis/Desktop/optee_rpi3bplus/optee_os/lib/libutils/isoc/bget_malloc.c:327
    11c8:	d37ceca0 	lsl	x0, x5, #4
    11cc:	f86068c3 	ldr	x3, [x6, x0]
    11d0:	17ffffc9 	b	10f4 <malloc_buffer_is_within_alloced+0x68>
/home/thesis/Desktop/optee_rpi3bplus/optee_os/lib/libutils/isoc/bget_malloc.c:323
    11d4:	910004a5 	add	x5, x5, #0x1
    11d8:	eb0900bf 	cmp	x5, x9
    11dc:	54ffff63 	b.cc	11c8 <malloc_buffer_is_within_alloced+0x13c>  // b.lo, b.ul, b.last
gen_malloc_buffer_is_within_alloced():
/home/thesis/Desktop/optee_rpi3bplus/optee_os/lib/libutils/isoc/bget_malloc.c:762
    11e0:	52800000 	mov	w0, #0x0                   	// #0
malloc_buffer_is_within_alloced():
/home/thesis/Desktop/optee_rpi3bplus/optee_os/lib/libutils/isoc/bget_malloc.c:830
    11e4:	a8c17bfd 	ldp	x29, x30, [sp], #16
    11e8:	d65f03c0 	ret
bpool_foreach():
/home/thesis/Desktop/optee_rpi3bplus/optee_os/lib/libutils/isoc/bget_malloc.c:327
    11ec:	d37ceca0 	lsl	x0, x5, #4
    11f0:	f86068c3 	ldr	x3, [x6, x0]
    11f4:	17ffffb1 	b	10b8 <malloc_buffer_is_within_alloced+0x2c>
/home/thesis/Desktop/optee_rpi3bplus/optee_os/lib/libutils/isoc/bget_malloc.c:323
    11f8:	910004a5 	add	x5, x5, #0x1
    11fc:	eb0900bf 	cmp	x5, x9
    1200:	54ffff63 	b.cc	11ec <malloc_buffer_is_within_alloced+0x160>  // b.lo, b.ul, b.last
gen_malloc_buffer_is_within_alloced():
/home/thesis/Desktop/optee_rpi3bplus/optee_os/lib/libutils/isoc/bget_malloc.c:762
    1204:	52800000 	mov	w0, #0x0                   	// #0
malloc_buffer_is_within_alloced():
/home/thesis/Desktop/optee_rpi3bplus/optee_os/lib/libutils/isoc/bget_malloc.c:830
    1208:	d65f03c0 	ret

000000000000120c <malloc_buffer_overlaps_heap>:
gen_malloc_buffer_overlaps_heap():
/home/thesis/Desktop/optee_rpi3bplus/optee_os/lib/libutils/isoc/bget_malloc.c:802
    120c:	d0000062 	adrp	x2, f000 <.got>
    1210:	910de042 	add	x2, x2, #0x378
/home/thesis/Desktop/optee_rpi3bplus/optee_os/lib/libutils/isoc/bget_malloc.c:795
    1214:	8b010001 	add	x1, x0, x1
/home/thesis/Desktop/optee_rpi3bplus/optee_os/lib/libutils/isoc/bget_malloc.c:802
    1218:	d2800005 	mov	x5, #0x0                   	// #0
    121c:	a9439c43 	ldp	x3, x7, [x2, #56]
    1220:	eb0700bf 	cmp	x5, x7
    1224:	54000081 	b.ne	1234 <malloc_buffer_overlaps_heap+0x28>  // b.any
/home/thesis/Desktop/optee_rpi3bplus/optee_os/lib/libutils/isoc/bget_malloc.c:797
    1228:	52800002 	mov	w2, #0x0                   	// #0
malloc_buffer_overlaps_heap():
/home/thesis/Desktop/optee_rpi3bplus/optee_os/lib/libutils/isoc/bget_malloc.c:835
    122c:	2a0203e0 	mov	w0, w2
    1230:	d65f03c0 	ret
gen_malloc_buffer_overlaps_heap():
/home/thesis/Desktop/optee_rpi3bplus/optee_os/lib/libutils/isoc/bget_malloc.c:804
    1234:	a9401066 	ldp	x6, x4, [x3]
/home/thesis/Desktop/optee_rpi3bplus/optee_os/lib/libutils/isoc/bget_malloc.c:806
    1238:	eb01001f 	cmp	x0, x1
    123c:	1a9f97e2 	cset	w2, hi  // hi = pmore
/home/thesis/Desktop/optee_rpi3bplus/optee_os/lib/libutils/isoc/bget_malloc.c:804
    1240:	8b0400c4 	add	x4, x6, x4
/home/thesis/Desktop/optee_rpi3bplus/optee_os/lib/libutils/isoc/bget_malloc.c:806
    1244:	eb0400df 	cmp	x6, x4
    1248:	1a9f97e8 	cset	w8, hi  // hi = pmore
    124c:	2a080042 	orr	w2, w2, w8
    1250:	35fffee2 	cbnz	w2, 122c <malloc_buffer_overlaps_heap+0x20>
/home/thesis/Desktop/optee_rpi3bplus/optee_os/lib/libutils/isoc/bget_malloc.c:811
    1254:	eb06003f 	cmp	x1, x6
    1258:	91004063 	add	x3, x3, #0x10
    125c:	1a9f97e2 	cset	w2, hi  // hi = pmore
    1260:	eb04001f 	cmp	x0, x4
    1264:	1a9f27e4 	cset	w4, cc  // cc = lo, ul, last
    1268:	2a040042 	orr	w2, w2, w4
    126c:	35fffe02 	cbnz	w2, 122c <malloc_buffer_overlaps_heap+0x20>
/home/thesis/Desktop/optee_rpi3bplus/optee_os/lib/libutils/isoc/bget_malloc.c:802
    1270:	910004a5 	add	x5, x5, #0x1
    1274:	17ffffeb 	b	1220 <malloc_buffer_overlaps_heap+0x14>

0000000000001278 <memcpy>:
memcpy():
/home/thesis/Desktop/optee_rpi3bplus/optee_os/lib/libutils/isoc/newlib/memcpy.c:94
    1278:	d2800003 	mov	x3, #0x0                   	// #0
    127c:	eb03005f 	cmp	x2, x3
    1280:	54000041 	b.ne	1288 <memcpy+0x10>  // b.any
/home/thesis/Desktop/optee_rpi3bplus/optee_os/lib/libutils/isoc/newlib/memcpy.c:135
    1284:	d65f03c0 	ret
/home/thesis/Desktop/optee_rpi3bplus/optee_os/lib/libutils/isoc/newlib/memcpy.c:95
    1288:	38636824 	ldrb	w4, [x1, x3]
    128c:	38236804 	strb	w4, [x0, x3]
    1290:	91000463 	add	x3, x3, #0x1
    1294:	17fffffa 	b	127c <memcpy+0x4>

0000000000001298 <memset>:
memset():
/home/thesis/Desktop/optee_rpi3bplus/optee_os/lib/libutils/isoc/newlib/memset.c:125
    1298:	d2800003 	mov	x3, #0x0                   	// #0
    129c:	eb03005f 	cmp	x2, x3
    12a0:	54000041 	b.ne	12a8 <memset+0x10>  // b.any
/home/thesis/Desktop/optee_rpi3bplus/optee_os/lib/libutils/isoc/newlib/memset.c:129
    12a4:	d65f03c0 	ret
/home/thesis/Desktop/optee_rpi3bplus/optee_os/lib/libutils/isoc/newlib/memset.c:126
    12a8:	38236801 	strb	w1, [x0, x3]
    12ac:	91000463 	add	x3, x3, #0x1
    12b0:	17fffffb 	b	129c <memset+0x4>

00000000000012b4 <strlen>:
strlen():
/home/thesis/Desktop/optee_rpi3bplus/optee_os/lib/libutils/isoc/newlib/strlen.c:117
    12b4:	aa0003e1 	mov	x1, x0
    12b8:	39400022 	ldrb	w2, [x1]
    12bc:	35000062 	cbnz	w2, 12c8 <strlen+0x14>
/home/thesis/Desktop/optee_rpi3bplus/optee_os/lib/libutils/isoc/newlib/strlen.c:120
    12c0:	cb000020 	sub	x0, x1, x0
    12c4:	d65f03c0 	ret
/home/thesis/Desktop/optee_rpi3bplus/optee_os/lib/libutils/isoc/newlib/strlen.c:118
    12c8:	91000421 	add	x1, x1, #0x1
    12cc:	17fffffb 	b	12b8 <strlen+0x4>

00000000000012d0 <_assert_log>:
_assert_log():
/home/thesis/Desktop/optee_rpi3bplus/optee_os/lib/libutee/assert.c:17
    12d0:	d10083ff 	sub	sp, sp, #0x20
/home/thesis/Desktop/optee_rpi3bplus/optee_os/lib/libutee/assert.c:18
    12d4:	2a0203e7 	mov	w7, w2
    12d8:	aa0103e6 	mov	x6, x1
    12dc:	aa0003e5 	mov	x5, x0
    12e0:	52800022 	mov	w2, #0x1                   	// #1
    12e4:	52800001 	mov	w1, #0x0                   	// #0
/home/thesis/Desktop/optee_rpi3bplus/optee_os/lib/libutee/assert.c:17
    12e8:	a9017bfd 	stp	x29, x30, [sp, #16]
    12ec:	910043fd 	add	x29, sp, #0x10
/home/thesis/Desktop/optee_rpi3bplus/optee_os/lib/libutee/assert.c:18
    12f0:	d2800000 	mov	x0, #0x0                   	// #0
    12f4:	90000064 	adrp	x4, d000 <primes+0x378>
    12f8:	f90003e3 	str	x3, [sp]
    12fc:	91223084 	add	x4, x4, #0x88c
    1300:	52800023 	mov	w3, #0x1                   	// #1
    1304:	94002322 	bl	9f8c <trace_printf>
/home/thesis/Desktop/optee_rpi3bplus/optee_os/lib/libutee/assert.c:20
    1308:	a9417bfd 	ldp	x29, x30, [sp, #16]
    130c:	910083ff 	add	sp, sp, #0x20
    1310:	d65f03c0 	ret

0000000000001314 <_assert_break>:
_assert_break():
/home/thesis/Desktop/optee_rpi3bplus/optee_os/lib/libutee/assert.c:23
    1314:	a9bf7bfd 	stp	x29, x30, [sp, #-16]!
/home/thesis/Desktop/optee_rpi3bplus/optee_os/lib/libutee/assert.c:24
    1318:	d2bfffe0 	mov	x0, #0xffff0000            	// #4294901760
/home/thesis/Desktop/optee_rpi3bplus/optee_os/lib/libutee/assert.c:23
    131c:	910003fd 	mov	x29, sp
/home/thesis/Desktop/optee_rpi3bplus/optee_os/lib/libutee/assert.c:24
    1320:	940003f8 	bl	2300 <utee_panic>
/home/thesis/Desktop/optee_rpi3bplus/optee_os/lib/libutee/assert.c:27 (discriminator 1)
    1324:	14000000 	b	1324 <_assert_break+0x10>

0000000000001328 <__utee_from_attr>:
__utee_from_attr():
/home/thesis/Desktop/optee_rpi3bplus/optee_os/lib/libutee/tee_api_objects.c:22
    1328:	2a0203e2 	mov	w2, w2
    132c:	d2800003 	mov	x3, #0x0                   	// #0
/home/thesis/Desktop/optee_rpi3bplus/optee_os/lib/libutee/tee_api_objects.c:22 (discriminator 1)
    1330:	eb03005f 	cmp	x2, x3
    1334:	54000048 	b.hi	133c <__utee_from_attr+0x14>  // b.pmore
/home/thesis/Desktop/optee_rpi3bplus/optee_os/lib/libutee/tee_api_objects.c:32
    1338:	d65f03c0 	ret
/home/thesis/Desktop/optee_rpi3bplus/optee_os/lib/libutee/tee_api_objects.c:23
    133c:	b9400024 	ldr	w4, [x1]
    1340:	b9001004 	str	w4, [x0, #16]
/home/thesis/Desktop/optee_rpi3bplus/optee_os/lib/libutee/tee_api_objects.c:24
    1344:	36e80124 	tbz	w4, #29, 1368 <__utee_from_attr+0x40>
/home/thesis/Desktop/optee_rpi3bplus/optee_os/lib/libutee/tee_api_objects.c:25
    1348:	b9400824 	ldr	w4, [x1, #8]
    134c:	f9000004 	str	x4, [x0]
/home/thesis/Desktop/optee_rpi3bplus/optee_os/lib/libutee/tee_api_objects.c:26
    1350:	b9400c24 	ldr	w4, [x1, #12]
/home/thesis/Desktop/optee_rpi3bplus/optee_os/lib/libutee/tee_api_objects.c:22
    1354:	91000463 	add	x3, x3, #0x1
    1358:	91006021 	add	x1, x1, #0x18
    135c:	91006000 	add	x0, x0, #0x18
/home/thesis/Desktop/optee_rpi3bplus/optee_os/lib/libutee/tee_api_objects.c:29
    1360:	f81f0004 	stur	x4, [x0, #-16]
    1364:	17fffff3 	b	1330 <__utee_from_attr+0x8>
/home/thesis/Desktop/optee_rpi3bplus/optee_os/lib/libutee/tee_api_objects.c:28
    1368:	f9400424 	ldr	x4, [x1, #8]
    136c:	f9000004 	str	x4, [x0]
/home/thesis/Desktop/optee_rpi3bplus/optee_os/lib/libutee/tee_api_objects.c:29
    1370:	b9401024 	ldr	w4, [x1, #16]
    1374:	17fffff8 	b	1354 <__utee_from_attr+0x2c>

0000000000001378 <TEE_GetObjectInfo>:
TEE_GetObjectInfo():
/home/thesis/Desktop/optee_rpi3bplus/optee_os/lib/libutee/tee_api_objects.c:42
    1378:	a9be7bfd 	stp	x29, x30, [sp, #-32]!
    137c:	910003fd 	mov	x29, sp
    1380:	f9000bf3 	str	x19, [sp, #16]
    1384:	aa0103f3 	mov	x19, x1
/home/thesis/Desktop/optee_rpi3bplus/optee_os/lib/libutee/tee_api_objects.c:45
    1388:	94000429 	bl	242c <utee_cryp_obj_get_info>
/home/thesis/Desktop/optee_rpi3bplus/optee_os/lib/libutee/tee_api_objects.c:47
    138c:	34000040 	cbz	w0, 1394 <TEE_GetObjectInfo+0x1c>
/home/thesis/Desktop/optee_rpi3bplus/optee_os/lib/libutee/tee_api_objects.c:48
    1390:	94000327 	bl	202c <TEE_Panic>
/home/thesis/Desktop/optee_rpi3bplus/optee_os/lib/libutee/tee_api_objects.c:50
    1394:	b9400261 	ldr	w1, [x19]
    1398:	528017c0 	mov	w0, #0xbe                  	// #190
    139c:	72b40000 	movk	w0, #0xa000, lsl #16
    13a0:	6b00003f 	cmp	w1, w0
    13a4:	54000081 	b.ne	13b4 <TEE_GetObjectInfo+0x3c>  // b.any
/home/thesis/Desktop/optee_rpi3bplus/optee_os/lib/libutee/tee_api_objects.c:52
    13a8:	2900fe7f 	stp	wzr, wzr, [x19, #4]
/home/thesis/Desktop/optee_rpi3bplus/optee_os/lib/libutee/tee_api_objects.c:54
    13ac:	2901fe7f 	stp	wzr, wzr, [x19, #12]
/home/thesis/Desktop/optee_rpi3bplus/optee_os/lib/libutee/tee_api_objects.c:56
    13b0:	2902fe7f 	stp	wzr, wzr, [x19, #20]
/home/thesis/Desktop/optee_rpi3bplus/optee_os/lib/libutee/tee_api_objects.c:58
    13b4:	f9400bf3 	ldr	x19, [sp, #16]
    13b8:	a8c27bfd 	ldp	x29, x30, [sp], #32
    13bc:	d65f03c0 	ret

00000000000013c0 <TEE_GetObjectInfo1>:
TEE_GetObjectInfo1():
/home/thesis/Desktop/optee_rpi3bplus/optee_os/lib/libutee/tee_api_objects.c:61
    13c0:	a9be7bfd 	stp	x29, x30, [sp, #-32]!
    13c4:	910003fd 	mov	x29, sp
    13c8:	f9000bf3 	str	x19, [sp, #16]
/home/thesis/Desktop/optee_rpi3bplus/optee_os/lib/libutee/tee_api_objects.c:64
    13cc:	94000418 	bl	242c <utee_cryp_obj_get_info>
/home/thesis/Desktop/optee_rpi3bplus/optee_os/lib/libutee/tee_api_objects.c:66
    13d0:	52800021 	mov	w1, #0x1                   	// #1
/home/thesis/Desktop/optee_rpi3bplus/optee_os/lib/libutee/tee_api_objects.c:67
    13d4:	121e7802 	and	w2, w0, #0xfffffffd
/home/thesis/Desktop/optee_rpi3bplus/optee_os/lib/libutee/tee_api_objects.c:66
    13d8:	7100001f 	cmp	w0, #0x0
    13dc:	72be0201 	movk	w1, #0xf010, lsl #16
/home/thesis/Desktop/optee_rpi3bplus/optee_os/lib/libutee/tee_api_objects.c:64
    13e0:	2a0003f3 	mov	w19, w0
/home/thesis/Desktop/optee_rpi3bplus/optee_os/lib/libutee/tee_api_objects.c:66
    13e4:	7a411044 	ccmp	w2, w1, #0x4, ne  // ne = any
    13e8:	54000040 	b.eq	13f0 <TEE_GetObjectInfo1+0x30>  // b.none
/home/thesis/Desktop/optee_rpi3bplus/optee_os/lib/libutee/tee_api_objects.c:69
    13ec:	94000310 	bl	202c <TEE_Panic>
/home/thesis/Desktop/optee_rpi3bplus/optee_os/lib/libutee/tee_api_objects.c:72
    13f0:	2a1303e0 	mov	w0, w19
    13f4:	f9400bf3 	ldr	x19, [sp, #16]
    13f8:	a8c27bfd 	ldp	x29, x30, [sp], #32
    13fc:	d65f03c0 	ret

0000000000001400 <TEE_RestrictObjectUsage1>:
TEE_RestrictObjectUsage1():
/home/thesis/Desktop/optee_rpi3bplus/optee_os/lib/libutee/tee_api_objects.c:96
    1400:	a9be7bfd 	stp	x29, x30, [sp, #-32]!
/home/thesis/Desktop/optee_rpi3bplus/optee_os/lib/libutee/tee_api_objects.c:99
    1404:	2a0103e1 	mov	w1, w1
/home/thesis/Desktop/optee_rpi3bplus/optee_os/lib/libutee/tee_api_objects.c:96
    1408:	910003fd 	mov	x29, sp
    140c:	f9000bf3 	str	x19, [sp, #16]
/home/thesis/Desktop/optee_rpi3bplus/optee_os/lib/libutee/tee_api_objects.c:99
    1410:	9400040a 	bl	2438 <utee_cryp_obj_restrict_usage>
/home/thesis/Desktop/optee_rpi3bplus/optee_os/lib/libutee/tee_api_objects.c:101
    1414:	52800021 	mov	w1, #0x1                   	// #1
/home/thesis/Desktop/optee_rpi3bplus/optee_os/lib/libutee/tee_api_objects.c:102
    1418:	121e7802 	and	w2, w0, #0xfffffffd
/home/thesis/Desktop/optee_rpi3bplus/optee_os/lib/libutee/tee_api_objects.c:101
    141c:	7100001f 	cmp	w0, #0x0
    1420:	72be0201 	movk	w1, #0xf010, lsl #16
/home/thesis/Desktop/optee_rpi3bplus/optee_os/lib/libutee/tee_api_objects.c:99
    1424:	2a0003f3 	mov	w19, w0
/home/thesis/Desktop/optee_rpi3bplus/optee_os/lib/libutee/tee_api_objects.c:101
    1428:	7a411044 	ccmp	w2, w1, #0x4, ne  // ne = any
    142c:	54000040 	b.eq	1434 <TEE_RestrictObjectUsage1+0x34>  // b.none
/home/thesis/Desktop/optee_rpi3bplus/optee_os/lib/libutee/tee_api_objects.c:104
    1430:	940002ff 	bl	202c <TEE_Panic>
/home/thesis/Desktop/optee_rpi3bplus/optee_os/lib/libutee/tee_api_objects.c:107
    1434:	2a1303e0 	mov	w0, w19
    1438:	f9400bf3 	ldr	x19, [sp, #16]
    143c:	a8c27bfd 	ldp	x29, x30, [sp], #32
    1440:	d65f03c0 	ret

0000000000001444 <TEE_RestrictObjectUsage>:
TEE_RestrictObjectUsage():
/home/thesis/Desktop/optee_rpi3bplus/optee_os/lib/libutee/tee_api_objects.c:81
    1444:	a9bc7bfd 	stp	x29, x30, [sp, #-64]!
    1448:	910003fd 	mov	x29, sp
    144c:	a90153f3 	stp	x19, x20, [sp, #16]
    1450:	aa0003f3 	mov	x19, x0
    1454:	2a0103f4 	mov	w20, w1
/home/thesis/Desktop/optee_rpi3bplus/optee_os/lib/libutee/tee_api_objects.c:85
    1458:	910083e1 	add	x1, sp, #0x20
    145c:	940003f4 	bl	242c <utee_cryp_obj_get_info>
/home/thesis/Desktop/optee_rpi3bplus/optee_os/lib/libutee/tee_api_objects.c:86
    1460:	b94023e1 	ldr	w1, [sp, #32]
    1464:	528017c0 	mov	w0, #0xbe                  	// #190
    1468:	72b40000 	movk	w0, #0xa000, lsl #16
    146c:	6b00003f 	cmp	w1, w0
    1470:	540000c0 	b.eq	1488 <TEE_RestrictObjectUsage+0x44>  // b.none
/home/thesis/Desktop/optee_rpi3bplus/optee_os/lib/libutee/tee_api_objects.c:89
    1474:	2a1403e1 	mov	w1, w20
    1478:	aa1303e0 	mov	x0, x19
    147c:	97ffffe1 	bl	1400 <TEE_RestrictObjectUsage1>
/home/thesis/Desktop/optee_rpi3bplus/optee_os/lib/libutee/tee_api_objects.c:91
    1480:	34000040 	cbz	w0, 1488 <TEE_RestrictObjectUsage+0x44>
/home/thesis/Desktop/optee_rpi3bplus/optee_os/lib/libutee/tee_api_objects.c:92
    1484:	940002ea 	bl	202c <TEE_Panic>
/home/thesis/Desktop/optee_rpi3bplus/optee_os/lib/libutee/tee_api_objects.c:93
    1488:	a94153f3 	ldp	x19, x20, [sp, #16]
    148c:	a8c47bfd 	ldp	x29, x30, [sp], #64
    1490:	d65f03c0 	ret

0000000000001494 <TEE_GetObjectBufferAttribute>:
TEE_GetObjectBufferAttribute():
/home/thesis/Desktop/optee_rpi3bplus/optee_os/lib/libutee/tee_api_objects.c:112
    1494:	a9b97bfd 	stp	x29, x30, [sp, #-112]!
    1498:	910003fd 	mov	x29, sp
    149c:	a90153f3 	stp	x19, x20, [sp, #16]
    14a0:	aa0303f4 	mov	x20, x3
    14a4:	a9025bf5 	stp	x21, x22, [sp, #32]
    14a8:	aa0003f6 	mov	x22, x0
    14ac:	2a0103f5 	mov	w21, w1
/home/thesis/Desktop/optee_rpi3bplus/optee_os/lib/libutee/tee_api_objects.c:117
    14b0:	910143e1 	add	x1, sp, #0x50
/home/thesis/Desktop/optee_rpi3bplus/optee_os/lib/libutee/tee_api_objects.c:112
    14b4:	f9001fe2 	str	x2, [sp, #56]
/home/thesis/Desktop/optee_rpi3bplus/optee_os/lib/libutee/tee_api_objects.c:117
    14b8:	940003dd 	bl	242c <utee_cryp_obj_get_info>
    14bc:	2a0003f3 	mov	w19, w0
/home/thesis/Desktop/optee_rpi3bplus/optee_os/lib/libutee/tee_api_objects.c:118
    14c0:	35000180 	cbnz	w0, 14f0 <TEE_GetObjectBufferAttribute+0x5c>
/home/thesis/Desktop/optee_rpi3bplus/optee_os/lib/libutee/tee_api_objects.c:122
    14c4:	37e803b5 	tbnz	w21, #29, 1538 <TEE_GetObjectBufferAttribute+0xa4>
/home/thesis/Desktop/optee_rpi3bplus/optee_os/lib/libutee/tee_api_objects.c:128
    14c8:	f9401fe2 	ldr	x2, [sp, #56]
    14cc:	910123e3 	add	x3, sp, #0x48
/home/thesis/Desktop/optee_rpi3bplus/optee_os/lib/libutee/tee_api_objects.c:127
    14d0:	b9400280 	ldr	w0, [x20]
/home/thesis/Desktop/optee_rpi3bplus/optee_os/lib/libutee/tee_api_objects.c:128
    14d4:	2a1503e1 	mov	w1, w21
/home/thesis/Desktop/optee_rpi3bplus/optee_os/lib/libutee/tee_api_objects.c:127
    14d8:	f90027e0 	str	x0, [sp, #72]
/home/thesis/Desktop/optee_rpi3bplus/optee_os/lib/libutee/tee_api_objects.c:128
    14dc:	aa1603e0 	mov	x0, x22
    14e0:	940003d9 	bl	2444 <utee_cryp_obj_get_attr>
    14e4:	2a0003f3 	mov	w19, w0
/home/thesis/Desktop/optee_rpi3bplus/optee_os/lib/libutee/tee_api_objects.c:130
    14e8:	f94027e0 	ldr	x0, [sp, #72]
    14ec:	b9000280 	str	w0, [x20]
/home/thesis/Desktop/optee_rpi3bplus/optee_os/lib/libutee/tee_api_objects.c:133
    14f0:	7100027f 	cmp	w19, #0x0
    14f4:	129ffee0 	mov	w0, #0xffff0008            	// #-65528
    14f8:	7a401264 	ccmp	w19, w0, #0x4, ne  // ne = any
    14fc:	54000140 	b.eq	1524 <TEE_GetObjectBufferAttribute+0x90>  // b.none
/home/thesis/Desktop/optee_rpi3bplus/optee_os/lib/libutee/tee_api_objects.c:136
    1500:	121e7a61 	and	w1, w19, #0xfffffffd
/home/thesis/Desktop/optee_rpi3bplus/optee_os/lib/libutee/tee_api_objects.c:135
    1504:	52800020 	mov	w0, #0x1                   	// #1
    1508:	72be0200 	movk	w0, #0xf010, lsl #16
    150c:	6b00003f 	cmp	w1, w0
    1510:	129ffde0 	mov	w0, #0xffff0010            	// #-65520
    1514:	7a401264 	ccmp	w19, w0, #0x4, ne  // ne = any
    1518:	54000060 	b.eq	1524 <TEE_GetObjectBufferAttribute+0x90>  // b.none
/home/thesis/Desktop/optee_rpi3bplus/optee_os/lib/libutee/tee_api_objects.c:138
    151c:	2a1303e0 	mov	w0, w19
    1520:	940002c3 	bl	202c <TEE_Panic>
/home/thesis/Desktop/optee_rpi3bplus/optee_os/lib/libutee/tee_api_objects.c:141
    1524:	2a1303e0 	mov	w0, w19
    1528:	a94153f3 	ldp	x19, x20, [sp, #16]
    152c:	a9425bf5 	ldp	x21, x22, [sp, #32]
    1530:	a8c77bfd 	ldp	x29, x30, [sp], #112
    1534:	d65f03c0 	ret
/home/thesis/Desktop/optee_rpi3bplus/optee_os/lib/libutee/tee_api_objects.c:123
    1538:	129fff33 	mov	w19, #0xffff0006            	// #-65530
    153c:	17ffffed 	b	14f0 <TEE_GetObjectBufferAttribute+0x5c>

0000000000001540 <TEE_GetObjectValueAttribute>:
TEE_GetObjectValueAttribute():
/home/thesis/Desktop/optee_rpi3bplus/optee_os/lib/libutee/tee_api_objects.c:146
    1540:	a9b97bfd 	stp	x29, x30, [sp, #-112]!
    1544:	910003fd 	mov	x29, sp
    1548:	a9025bf5 	stp	x21, x22, [sp, #32]
    154c:	2a0103f6 	mov	w22, w1
/home/thesis/Desktop/optee_rpi3bplus/optee_os/lib/libutee/tee_api_objects.c:150
    1550:	d2800101 	mov	x1, #0x8                   	// #8
/home/thesis/Desktop/optee_rpi3bplus/optee_os/lib/libutee/tee_api_objects.c:146
    1554:	aa0203f5 	mov	x21, x2
    1558:	a90153f3 	stp	x19, x20, [sp, #16]
    155c:	aa0303f4 	mov	x20, x3
    1560:	f9001bf7 	str	x23, [sp, #48]
    1564:	aa0003f7 	mov	x23, x0
/home/thesis/Desktop/optee_rpi3bplus/optee_os/lib/libutee/tee_api_objects.c:150
    1568:	f90027e1 	str	x1, [sp, #72]
/home/thesis/Desktop/optee_rpi3bplus/optee_os/lib/libutee/tee_api_objects.c:152
    156c:	910143e1 	add	x1, sp, #0x50
    1570:	940003af 	bl	242c <utee_cryp_obj_get_info>
    1574:	2a0003f3 	mov	w19, w0
/home/thesis/Desktop/optee_rpi3bplus/optee_os/lib/libutee/tee_api_objects.c:153
    1578:	35000100 	cbnz	w0, 1598 <TEE_GetObjectValueAttribute+0x58>
/home/thesis/Desktop/optee_rpi3bplus/optee_os/lib/libutee/tee_api_objects.c:157
    157c:	36e80496 	tbz	w22, #29, 160c <TEE_GetObjectValueAttribute+0xcc>
/home/thesis/Desktop/optee_rpi3bplus/optee_os/lib/libutee/tee_api_objects.c:162
    1580:	910123e3 	add	x3, sp, #0x48
    1584:	910103e2 	add	x2, sp, #0x40
    1588:	2a1603e1 	mov	w1, w22
    158c:	aa1703e0 	mov	x0, x23
    1590:	940003ad 	bl	2444 <utee_cryp_obj_get_attr>
    1594:	2a0003f3 	mov	w19, w0
/home/thesis/Desktop/optee_rpi3bplus/optee_os/lib/libutee/tee_api_objects.c:166
    1598:	7100027f 	cmp	w19, #0x0
    159c:	129ffee0 	mov	w0, #0xffff0008            	// #-65528
    15a0:	7a401264 	ccmp	w19, w0, #0x4, ne  // ne = any
    15a4:	54000100 	b.eq	15c4 <TEE_GetObjectValueAttribute+0x84>  // b.none
/home/thesis/Desktop/optee_rpi3bplus/optee_os/lib/libutee/tee_api_objects.c:168
    15a8:	121e7a61 	and	w1, w19, #0xfffffffd
    15ac:	52800020 	mov	w0, #0x1                   	// #1
    15b0:	72be0200 	movk	w0, #0xf010, lsl #16
    15b4:	6b00003f 	cmp	w1, w0
    15b8:	54000060 	b.eq	15c4 <TEE_GetObjectValueAttribute+0x84>  // b.none
/home/thesis/Desktop/optee_rpi3bplus/optee_os/lib/libutee/tee_api_objects.c:170
    15bc:	2a1303e0 	mov	w0, w19
    15c0:	9400029b 	bl	202c <TEE_Panic>
/home/thesis/Desktop/optee_rpi3bplus/optee_os/lib/libutee/tee_api_objects.c:172
    15c4:	f94027e0 	ldr	x0, [sp, #72]
    15c8:	f100201f 	cmp	x0, #0x8
    15cc:	54000060 	b.eq	15d8 <TEE_GetObjectValueAttribute+0x98>  // b.none
/home/thesis/Desktop/optee_rpi3bplus/optee_os/lib/libutee/tee_api_objects.c:173
    15d0:	52800000 	mov	w0, #0x0                   	// #0
    15d4:	94000296 	bl	202c <TEE_Panic>
/home/thesis/Desktop/optee_rpi3bplus/optee_os/lib/libutee/tee_api_objects.c:175
    15d8:	350000f3 	cbnz	w19, 15f4 <TEE_GetObjectValueAttribute+0xb4>
/home/thesis/Desktop/optee_rpi3bplus/optee_os/lib/libutee/tee_api_objects.c:176
    15dc:	b4000075 	cbz	x21, 15e8 <TEE_GetObjectValueAttribute+0xa8>
/home/thesis/Desktop/optee_rpi3bplus/optee_os/lib/libutee/tee_api_objects.c:177
    15e0:	b94043e0 	ldr	w0, [sp, #64]
    15e4:	b90002a0 	str	w0, [x21]
/home/thesis/Desktop/optee_rpi3bplus/optee_os/lib/libutee/tee_api_objects.c:178
    15e8:	b4000074 	cbz	x20, 15f4 <TEE_GetObjectValueAttribute+0xb4>
/home/thesis/Desktop/optee_rpi3bplus/optee_os/lib/libutee/tee_api_objects.c:179
    15ec:	b94047e0 	ldr	w0, [sp, #68]
    15f0:	b9000280 	str	w0, [x20]
/home/thesis/Desktop/optee_rpi3bplus/optee_os/lib/libutee/tee_api_objects.c:183
    15f4:	2a1303e0 	mov	w0, w19
    15f8:	a94153f3 	ldp	x19, x20, [sp, #16]
    15fc:	a9425bf5 	ldp	x21, x22, [sp, #32]
    1600:	f9401bf7 	ldr	x23, [sp, #48]
    1604:	a8c77bfd 	ldp	x29, x30, [sp], #112
    1608:	d65f03c0 	ret
/home/thesis/Desktop/optee_rpi3bplus/optee_os/lib/libutee/tee_api_objects.c:158
    160c:	129fff33 	mov	w19, #0xffff0006            	// #-65530
    1610:	17ffffe2 	b	1598 <TEE_GetObjectValueAttribute+0x58>

0000000000001614 <TEE_CloseObject>:
TEE_CloseObject():
/home/thesis/Desktop/optee_rpi3bplus/optee_os/lib/libutee/tee_api_objects.c:189
    1614:	b4000120 	cbz	x0, 1638 <TEE_CloseObject+0x24>
/home/thesis/Desktop/optee_rpi3bplus/optee_os/lib/libutee/tee_api_objects.c:186
    1618:	a9bf7bfd 	stp	x29, x30, [sp, #-16]!
    161c:	910003fd 	mov	x29, sp
/home/thesis/Desktop/optee_rpi3bplus/optee_os/lib/libutee/tee_api_objects.c:192
    1620:	9400038f 	bl	245c <utee_cryp_obj_close>
/home/thesis/Desktop/optee_rpi3bplus/optee_os/lib/libutee/tee_api_objects.c:193
    1624:	34000060 	cbz	w0, 1630 <TEE_CloseObject+0x1c>
/home/thesis/Desktop/optee_rpi3bplus/optee_os/lib/libutee/tee_api_objects.c:195
    1628:	a8c17bfd 	ldp	x29, x30, [sp], #16
/home/thesis/Desktop/optee_rpi3bplus/optee_os/lib/libutee/tee_api_objects.c:194
    162c:	14000280 	b	202c <TEE_Panic>
/home/thesis/Desktop/optee_rpi3bplus/optee_os/lib/libutee/tee_api_objects.c:195
    1630:	a8c17bfd 	ldp	x29, x30, [sp], #16
    1634:	d65f03c0 	ret
    1638:	d65f03c0 	ret

000000000000163c <TEE_AllocateTransientObject>:
TEE_AllocateTransientObject():
/home/thesis/Desktop/optee_rpi3bplus/optee_os/lib/libutee/tee_api_objects.c:202
    163c:	a9bd7bfd 	stp	x29, x30, [sp, #-48]!
/home/thesis/Desktop/optee_rpi3bplus/optee_os/lib/libutee/tee_api_objects.c:206
    1640:	2a0103e1 	mov	w1, w1
    1644:	2a0003e0 	mov	w0, w0
/home/thesis/Desktop/optee_rpi3bplus/optee_os/lib/libutee/tee_api_objects.c:202
    1648:	910003fd 	mov	x29, sp
    164c:	a90153f3 	stp	x19, x20, [sp, #16]
    1650:	aa0203f4 	mov	x20, x2
/home/thesis/Desktop/optee_rpi3bplus/optee_os/lib/libutee/tee_api_objects.c:206
    1654:	9100b3e2 	add	x2, sp, #0x2c
    1658:	9400037e 	bl	2450 <utee_cryp_obj_alloc>
/home/thesis/Desktop/optee_rpi3bplus/optee_os/lib/libutee/tee_api_objects.c:208
    165c:	7100001f 	cmp	w0, #0x0
    1660:	129ffe61 	mov	w1, #0xffff000c            	// #-65524
/home/thesis/Desktop/optee_rpi3bplus/optee_os/lib/libutee/tee_api_objects.c:206
    1664:	2a0003f3 	mov	w19, w0
/home/thesis/Desktop/optee_rpi3bplus/optee_os/lib/libutee/tee_api_objects.c:208
    1668:	7a411004 	ccmp	w0, w1, #0x4, ne  // ne = any
    166c:	54000120 	b.eq	1690 <TEE_AllocateTransientObject+0x54>  // b.none
/home/thesis/Desktop/optee_rpi3bplus/optee_os/lib/libutee/tee_api_objects.c:209
    1670:	129ffea1 	mov	w1, #0xffff000a            	// #-65526
    1674:	6b01001f 	cmp	w0, w1
    1678:	54000040 	b.eq	1680 <TEE_AllocateTransientObject+0x44>  // b.none
/home/thesis/Desktop/optee_rpi3bplus/optee_os/lib/libutee/tee_api_objects.c:211
    167c:	9400026c 	bl	202c <TEE_Panic>
/home/thesis/Desktop/optee_rpi3bplus/optee_os/lib/libutee/tee_api_objects.c:217
    1680:	2a1303e0 	mov	w0, w19
    1684:	a94153f3 	ldp	x19, x20, [sp, #16]
    1688:	a8c37bfd 	ldp	x29, x30, [sp], #48
    168c:	d65f03c0 	ret
/home/thesis/Desktop/optee_rpi3bplus/optee_os/lib/libutee/tee_api_objects.c:213
    1690:	35ffff80 	cbnz	w0, 1680 <TEE_AllocateTransientObject+0x44>
/home/thesis/Desktop/optee_rpi3bplus/optee_os/lib/libutee/tee_api_objects.c:214
    1694:	b9402fe0 	ldr	w0, [sp, #44]
    1698:	f9000280 	str	x0, [x20]
/home/thesis/Desktop/optee_rpi3bplus/optee_os/lib/libutee/tee_api_objects.c:216
    169c:	17fffff9 	b	1680 <TEE_AllocateTransientObject+0x44>

00000000000016a0 <TEE_FreeTransientObject>:
TEE_FreeTransientObject():
/home/thesis/Desktop/optee_rpi3bplus/optee_os/lib/libutee/tee_api_objects.c:224
    16a0:	b4000280 	cbz	x0, 16f0 <TEE_FreeTransientObject+0x50>
/home/thesis/Desktop/optee_rpi3bplus/optee_os/lib/libutee/tee_api_objects.c:220
    16a4:	a9bc7bfd 	stp	x29, x30, [sp, #-64]!
    16a8:	910003fd 	mov	x29, sp
/home/thesis/Desktop/optee_rpi3bplus/optee_os/lib/libutee/tee_api_objects.c:227
    16ac:	910083e1 	add	x1, sp, #0x20
/home/thesis/Desktop/optee_rpi3bplus/optee_os/lib/libutee/tee_api_objects.c:220
    16b0:	f9000bf3 	str	x19, [sp, #16]
    16b4:	aa0003f3 	mov	x19, x0
/home/thesis/Desktop/optee_rpi3bplus/optee_os/lib/libutee/tee_api_objects.c:227
    16b8:	9400035d 	bl	242c <utee_cryp_obj_get_info>
/home/thesis/Desktop/optee_rpi3bplus/optee_os/lib/libutee/tee_api_objects.c:228
    16bc:	34000040 	cbz	w0, 16c4 <TEE_FreeTransientObject+0x24>
/home/thesis/Desktop/optee_rpi3bplus/optee_os/lib/libutee/tee_api_objects.c:229
    16c0:	9400025b 	bl	202c <TEE_Panic>
/home/thesis/Desktop/optee_rpi3bplus/optee_os/lib/libutee/tee_api_objects.c:231
    16c4:	b9403be0 	ldr	w0, [sp, #56]
    16c8:	36800060 	tbz	w0, #16, 16d4 <TEE_FreeTransientObject+0x34>
/home/thesis/Desktop/optee_rpi3bplus/optee_os/lib/libutee/tee_api_objects.c:232
    16cc:	52800000 	mov	w0, #0x0                   	// #0
    16d0:	94000257 	bl	202c <TEE_Panic>
/home/thesis/Desktop/optee_rpi3bplus/optee_os/lib/libutee/tee_api_objects.c:234
    16d4:	aa1303e0 	mov	x0, x19
    16d8:	94000361 	bl	245c <utee_cryp_obj_close>
/home/thesis/Desktop/optee_rpi3bplus/optee_os/lib/libutee/tee_api_objects.c:235
    16dc:	34000040 	cbz	w0, 16e4 <TEE_FreeTransientObject+0x44>
/home/thesis/Desktop/optee_rpi3bplus/optee_os/lib/libutee/tee_api_objects.c:236
    16e0:	94000253 	bl	202c <TEE_Panic>
/home/thesis/Desktop/optee_rpi3bplus/optee_os/lib/libutee/tee_api_objects.c:237
    16e4:	f9400bf3 	ldr	x19, [sp, #16]
    16e8:	a8c47bfd 	ldp	x29, x30, [sp], #64
    16ec:	d65f03c0 	ret
    16f0:	d65f03c0 	ret

00000000000016f4 <TEE_ResetTransientObject>:
TEE_ResetTransientObject():
/home/thesis/Desktop/optee_rpi3bplus/optee_os/lib/libutee/tee_api_objects.c:244
    16f4:	b4000280 	cbz	x0, 1744 <TEE_ResetTransientObject+0x50>
/home/thesis/Desktop/optee_rpi3bplus/optee_os/lib/libutee/tee_api_objects.c:240
    16f8:	a9bc7bfd 	stp	x29, x30, [sp, #-64]!
    16fc:	910003fd 	mov	x29, sp
/home/thesis/Desktop/optee_rpi3bplus/optee_os/lib/libutee/tee_api_objects.c:247
    1700:	910083e1 	add	x1, sp, #0x20
/home/thesis/Desktop/optee_rpi3bplus/optee_os/lib/libutee/tee_api_objects.c:240
    1704:	f9000bf3 	str	x19, [sp, #16]
    1708:	aa0003f3 	mov	x19, x0
/home/thesis/Desktop/optee_rpi3bplus/optee_os/lib/libutee/tee_api_objects.c:247
    170c:	94000348 	bl	242c <utee_cryp_obj_get_info>
/home/thesis/Desktop/optee_rpi3bplus/optee_os/lib/libutee/tee_api_objects.c:248
    1710:	34000040 	cbz	w0, 1718 <TEE_ResetTransientObject+0x24>
/home/thesis/Desktop/optee_rpi3bplus/optee_os/lib/libutee/tee_api_objects.c:249
    1714:	94000246 	bl	202c <TEE_Panic>
/home/thesis/Desktop/optee_rpi3bplus/optee_os/lib/libutee/tee_api_objects.c:251
    1718:	b9403be0 	ldr	w0, [sp, #56]
    171c:	36800060 	tbz	w0, #16, 1728 <TEE_ResetTransientObject+0x34>
/home/thesis/Desktop/optee_rpi3bplus/optee_os/lib/libutee/tee_api_objects.c:252
    1720:	52800000 	mov	w0, #0x0                   	// #0
    1724:	94000242 	bl	202c <TEE_Panic>
/home/thesis/Desktop/optee_rpi3bplus/optee_os/lib/libutee/tee_api_objects.c:254
    1728:	aa1303e0 	mov	x0, x19
    172c:	9400034f 	bl	2468 <utee_cryp_obj_reset>
/home/thesis/Desktop/optee_rpi3bplus/optee_os/lib/libutee/tee_api_objects.c:255
    1730:	34000040 	cbz	w0, 1738 <TEE_ResetTransientObject+0x44>
/home/thesis/Desktop/optee_rpi3bplus/optee_os/lib/libutee/tee_api_objects.c:256
    1734:	9400023e 	bl	202c <TEE_Panic>
/home/thesis/Desktop/optee_rpi3bplus/optee_os/lib/libutee/tee_api_objects.c:257
    1738:	f9400bf3 	ldr	x19, [sp, #16]
    173c:	a8c47bfd 	ldp	x29, x30, [sp], #64
    1740:	d65f03c0 	ret
    1744:	d65f03c0 	ret

0000000000001748 <TEE_PopulateTransientObject>:
TEE_PopulateTransientObject():
/home/thesis/Desktop/optee_rpi3bplus/optee_os/lib/libutee/tee_api_objects.c:262
    1748:	a9ba7bfd 	stp	x29, x30, [sp, #-96]!
    174c:	910003fd 	mov	x29, sp
    1750:	a9025bf5 	stp	x21, x22, [sp, #32]
    1754:	2a0203f6 	mov	w22, w2
    1758:	aa0003f5 	mov	x21, x0
    175c:	f9001bf7 	str	x23, [sp, #48]
    1760:	aa0103f7 	mov	x23, x1
/home/thesis/Desktop/optee_rpi3bplus/optee_os/lib/libutee/tee_api_objects.c:265
    1764:	52800301 	mov	w1, #0x18                  	// #24
/home/thesis/Desktop/optee_rpi3bplus/optee_os/lib/libutee/tee_api_objects.c:262
    1768:	a90153f3 	stp	x19, x20, [sp, #16]
    176c:	aa1603f3 	mov	x19, x22
/home/thesis/Desktop/optee_rpi3bplus/optee_os/lib/libutee/tee_api_objects.c:265
    1770:	9ba17ec1 	umull	x1, w22, w1
    1774:	91003c21 	add	x1, x1, #0xf
    1778:	927c8421 	and	x1, x1, #0x3ffffffff0
    177c:	cb2163ff 	sub	sp, sp, x1
/home/thesis/Desktop/optee_rpi3bplus/optee_os/lib/libutee/tee_api_objects.c:267
    1780:	910103a1 	add	x1, x29, #0x40
/home/thesis/Desktop/optee_rpi3bplus/optee_os/lib/libutee/tee_api_objects.c:265
    1784:	910003f4 	mov	x20, sp
/home/thesis/Desktop/optee_rpi3bplus/optee_os/lib/libutee/tee_api_objects.c:267
    1788:	94000329 	bl	242c <utee_cryp_obj_get_info>
/home/thesis/Desktop/optee_rpi3bplus/optee_os/lib/libutee/tee_api_objects.c:268
    178c:	34000040 	cbz	w0, 1794 <TEE_PopulateTransientObject+0x4c>
/home/thesis/Desktop/optee_rpi3bplus/optee_os/lib/libutee/tee_api_objects.c:269
    1790:	94000227 	bl	202c <TEE_Panic>
/home/thesis/Desktop/optee_rpi3bplus/optee_os/lib/libutee/tee_api_objects.c:272
    1794:	b9405ba0 	ldr	w0, [x29, #88]
    1798:	36800060 	tbz	w0, #16, 17a4 <TEE_PopulateTransientObject+0x5c>
/home/thesis/Desktop/optee_rpi3bplus/optee_os/lib/libutee/tee_api_objects.c:273
    179c:	52800000 	mov	w0, #0x0                   	// #0
    17a0:	94000223 	bl	202c <TEE_Panic>
/home/thesis/Desktop/optee_rpi3bplus/optee_os/lib/libutee/tee_api_objects.c:276
    17a4:	b9405ba0 	ldr	w0, [x29, #88]
    17a8:	36880060 	tbz	w0, #17, 17b4 <TEE_PopulateTransientObject+0x6c>
/home/thesis/Desktop/optee_rpi3bplus/optee_os/lib/libutee/tee_api_objects.c:277
    17ac:	52800000 	mov	w0, #0x0                   	// #0
    17b0:	9400021f 	bl	202c <TEE_Panic>
/home/thesis/Desktop/optee_rpi3bplus/optee_os/lib/libutee/tee_api_objects.c:279
    17b4:	2a1303e2 	mov	w2, w19
    17b8:	aa1703e1 	mov	x1, x23
    17bc:	aa1403e0 	mov	x0, x20
    17c0:	97fffeda 	bl	1328 <__utee_from_attr>
/home/thesis/Desktop/optee_rpi3bplus/optee_os/lib/libutee/tee_api_objects.c:280
    17c4:	aa1403e1 	mov	x1, x20
    17c8:	aa1603e2 	mov	x2, x22
    17cc:	aa1503e0 	mov	x0, x21
    17d0:	94000329 	bl	2474 <utee_cryp_obj_populate>
/home/thesis/Desktop/optee_rpi3bplus/optee_os/lib/libutee/tee_api_objects.c:281
    17d4:	7100001f 	cmp	w0, #0x0
    17d8:	129fff21 	mov	w1, #0xffff0006            	// #-65530
/home/thesis/Desktop/optee_rpi3bplus/optee_os/lib/libutee/tee_api_objects.c:280
    17dc:	2a0003f3 	mov	w19, w0
/home/thesis/Desktop/optee_rpi3bplus/optee_os/lib/libutee/tee_api_objects.c:281
    17e0:	7a411004 	ccmp	w0, w1, #0x4, ne  // ne = any
    17e4:	54000040 	b.eq	17ec <TEE_PopulateTransientObject+0xa4>  // b.none
/home/thesis/Desktop/optee_rpi3bplus/optee_os/lib/libutee/tee_api_objects.c:282
    17e8:	94000211 	bl	202c <TEE_Panic>
/home/thesis/Desktop/optee_rpi3bplus/optee_os/lib/libutee/tee_api_objects.c:284
    17ec:	910003bf 	mov	sp, x29
    17f0:	2a1303e0 	mov	w0, w19
    17f4:	a94153f3 	ldp	x19, x20, [sp, #16]
    17f8:	a9425bf5 	ldp	x21, x22, [sp, #32]
    17fc:	f9401bf7 	ldr	x23, [sp, #48]
    1800:	a8c67bfd 	ldp	x29, x30, [sp], #96
    1804:	d65f03c0 	ret

0000000000001808 <TEE_InitRefAttribute>:
TEE_InitRefAttribute():
/home/thesis/Desktop/optee_rpi3bplus/optee_os/lib/libutee/tee_api_objects.c:288
    1808:	a9bd7bfd 	stp	x29, x30, [sp, #-48]!
    180c:	910003fd 	mov	x29, sp
    1810:	a90153f3 	stp	x19, x20, [sp, #16]
    1814:	aa0003f3 	mov	x19, x0
    1818:	2a0103f4 	mov	w20, w1
    181c:	a9025bf5 	stp	x21, x22, [sp, #32]
    1820:	aa0203f6 	mov	x22, x2
    1824:	2a0303f5 	mov	w21, w3
/home/thesis/Desktop/optee_rpi3bplus/optee_os/lib/libutee/tee_api_objects.c:289
    1828:	b5000060 	cbnz	x0, 1834 <TEE_InitRefAttribute+0x2c>
/home/thesis/Desktop/optee_rpi3bplus/optee_os/lib/libutee/tee_api_objects.c:290
    182c:	52800000 	mov	w0, #0x0                   	// #0
    1830:	940001ff 	bl	202c <TEE_Panic>
/home/thesis/Desktop/optee_rpi3bplus/optee_os/lib/libutee/tee_api_objects.c:291
    1834:	36e80074 	tbz	w20, #29, 1840 <TEE_InitRefAttribute+0x38>
/home/thesis/Desktop/optee_rpi3bplus/optee_os/lib/libutee/tee_api_objects.c:292
    1838:	52800000 	mov	w0, #0x0                   	// #0
    183c:	940001fc 	bl	202c <TEE_Panic>
/home/thesis/Desktop/optee_rpi3bplus/optee_os/lib/libutee/tee_api_objects.c:293
    1840:	b9000274 	str	w20, [x19]
/home/thesis/Desktop/optee_rpi3bplus/optee_os/lib/libutee/tee_api_objects.c:294
    1844:	f9000676 	str	x22, [x19, #8]
/home/thesis/Desktop/optee_rpi3bplus/optee_os/lib/libutee/tee_api_objects.c:295
    1848:	b9001275 	str	w21, [x19, #16]
/home/thesis/Desktop/optee_rpi3bplus/optee_os/lib/libutee/tee_api_objects.c:296
    184c:	a94153f3 	ldp	x19, x20, [sp, #16]
    1850:	a9425bf5 	ldp	x21, x22, [sp, #32]
    1854:	a8c37bfd 	ldp	x29, x30, [sp], #48
    1858:	d65f03c0 	ret

000000000000185c <TEE_InitValueAttribute>:
TEE_InitValueAttribute():
/home/thesis/Desktop/optee_rpi3bplus/optee_os/lib/libutee/tee_api_objects.c:300
    185c:	a9bd7bfd 	stp	x29, x30, [sp, #-48]!
    1860:	910003fd 	mov	x29, sp
    1864:	a90153f3 	stp	x19, x20, [sp, #16]
    1868:	aa0003f3 	mov	x19, x0
    186c:	2a0103f4 	mov	w20, w1
    1870:	a9025bf5 	stp	x21, x22, [sp, #32]
    1874:	2a0203f6 	mov	w22, w2
    1878:	2a0303f5 	mov	w21, w3
/home/thesis/Desktop/optee_rpi3bplus/optee_os/lib/libutee/tee_api_objects.c:301
    187c:	b5000060 	cbnz	x0, 1888 <TEE_InitValueAttribute+0x2c>
/home/thesis/Desktop/optee_rpi3bplus/optee_os/lib/libutee/tee_api_objects.c:302
    1880:	52800000 	mov	w0, #0x0                   	// #0
    1884:	940001ea 	bl	202c <TEE_Panic>
/home/thesis/Desktop/optee_rpi3bplus/optee_os/lib/libutee/tee_api_objects.c:303
    1888:	37e80074 	tbnz	w20, #29, 1894 <TEE_InitValueAttribute+0x38>
/home/thesis/Desktop/optee_rpi3bplus/optee_os/lib/libutee/tee_api_objects.c:304
    188c:	52800000 	mov	w0, #0x0                   	// #0
    1890:	940001e7 	bl	202c <TEE_Panic>
/home/thesis/Desktop/optee_rpi3bplus/optee_os/lib/libutee/tee_api_objects.c:305
    1894:	b9000274 	str	w20, [x19]
/home/thesis/Desktop/optee_rpi3bplus/optee_os/lib/libutee/tee_api_objects.c:307
    1898:	29015676 	stp	w22, w21, [x19, #8]
/home/thesis/Desktop/optee_rpi3bplus/optee_os/lib/libutee/tee_api_objects.c:308
    189c:	a94153f3 	ldp	x19, x20, [sp, #16]
    18a0:	a9425bf5 	ldp	x21, x22, [sp, #32]
    18a4:	a8c37bfd 	ldp	x29, x30, [sp], #48
    18a8:	d65f03c0 	ret

00000000000018ac <TEE_CopyObjectAttributes1>:
TEE_CopyObjectAttributes1():
/home/thesis/Desktop/optee_rpi3bplus/optee_os/lib/libutee/tee_api_objects.c:333
    18ac:	a9b97bfd 	stp	x29, x30, [sp, #-112]!
    18b0:	910003fd 	mov	x29, sp
    18b4:	a90153f3 	stp	x19, x20, [sp, #16]
    18b8:	aa0103f4 	mov	x20, x1
/home/thesis/Desktop/optee_rpi3bplus/optee_os/lib/libutee/tee_api_objects.c:338
    18bc:	9100c3e1 	add	x1, sp, #0x30
/home/thesis/Desktop/optee_rpi3bplus/optee_os/lib/libutee/tee_api_objects.c:333
    18c0:	f90013f5 	str	x21, [sp, #32]
    18c4:	aa0003f5 	mov	x21, x0
/home/thesis/Desktop/optee_rpi3bplus/optee_os/lib/libutee/tee_api_objects.c:338
    18c8:	940002d9 	bl	242c <utee_cryp_obj_get_info>
    18cc:	2a0003f3 	mov	w19, w0
/home/thesis/Desktop/optee_rpi3bplus/optee_os/lib/libutee/tee_api_objects.c:339
    18d0:	350002a0 	cbnz	w0, 1924 <TEE_CopyObjectAttributes1+0x78>
/home/thesis/Desktop/optee_rpi3bplus/optee_os/lib/libutee/tee_api_objects.c:342
    18d4:	910143e1 	add	x1, sp, #0x50
    18d8:	aa1403e0 	mov	x0, x20
    18dc:	940002d4 	bl	242c <utee_cryp_obj_get_info>
    18e0:	2a0003f3 	mov	w19, w0
/home/thesis/Desktop/optee_rpi3bplus/optee_os/lib/libutee/tee_api_objects.c:343
    18e4:	35000200 	cbnz	w0, 1924 <TEE_CopyObjectAttributes1+0x78>
/home/thesis/Desktop/optee_rpi3bplus/optee_os/lib/libutee/tee_api_objects.c:346
    18e8:	b9406be1 	ldr	w1, [sp, #104]
    18ec:	37880041 	tbnz	w1, #17, 18f4 <TEE_CopyObjectAttributes1+0x48>
/home/thesis/Desktop/optee_rpi3bplus/optee_os/lib/libutee/tee_api_objects.c:347
    18f0:	940001cf 	bl	202c <TEE_Panic>
/home/thesis/Desktop/optee_rpi3bplus/optee_os/lib/libutee/tee_api_objects.c:349
    18f4:	b9404be0 	ldr	w0, [sp, #72]
    18f8:	36800060 	tbz	w0, #16, 1904 <TEE_CopyObjectAttributes1+0x58>
/home/thesis/Desktop/optee_rpi3bplus/optee_os/lib/libutee/tee_api_objects.c:350
    18fc:	52800000 	mov	w0, #0x0                   	// #0
    1900:	940001cb 	bl	202c <TEE_Panic>
/home/thesis/Desktop/optee_rpi3bplus/optee_os/lib/libutee/tee_api_objects.c:352
    1904:	b9404be0 	ldr	w0, [sp, #72]
    1908:	36880060 	tbz	w0, #17, 1914 <TEE_CopyObjectAttributes1+0x68>
/home/thesis/Desktop/optee_rpi3bplus/optee_os/lib/libutee/tee_api_objects.c:353
    190c:	52800000 	mov	w0, #0x0                   	// #0
    1910:	940001c7 	bl	202c <TEE_Panic>
/home/thesis/Desktop/optee_rpi3bplus/optee_os/lib/libutee/tee_api_objects.c:355
    1914:	aa1403e1 	mov	x1, x20
    1918:	aa1503e0 	mov	x0, x21
    191c:	940002d9 	bl	2480 <utee_cryp_obj_copy>
    1920:	2a0003f3 	mov	w19, w0
/home/thesis/Desktop/optee_rpi3bplus/optee_os/lib/libutee/tee_api_objects.c:360
    1924:	121e7a60 	and	w0, w19, #0xfffffffd
/home/thesis/Desktop/optee_rpi3bplus/optee_os/lib/libutee/tee_api_objects.c:359
    1928:	7100027f 	cmp	w19, #0x0
    192c:	52800021 	mov	w1, #0x1                   	// #1
    1930:	72be0201 	movk	w1, #0xf010, lsl #16
    1934:	7a411004 	ccmp	w0, w1, #0x4, ne  // ne = any
    1938:	54000060 	b.eq	1944 <TEE_CopyObjectAttributes1+0x98>  // b.none
/home/thesis/Desktop/optee_rpi3bplus/optee_os/lib/libutee/tee_api_objects.c:362
    193c:	2a1303e0 	mov	w0, w19
    1940:	940001bb 	bl	202c <TEE_Panic>
/home/thesis/Desktop/optee_rpi3bplus/optee_os/lib/libutee/tee_api_objects.c:365
    1944:	2a1303e0 	mov	w0, w19
    1948:	a94153f3 	ldp	x19, x20, [sp, #16]
    194c:	f94013f5 	ldr	x21, [sp, #32]
    1950:	a8c77bfd 	ldp	x29, x30, [sp], #112
    1954:	d65f03c0 	ret

0000000000001958 <TEE_CopyObjectAttributes>:
TEE_CopyObjectAttributes():
/home/thesis/Desktop/optee_rpi3bplus/optee_os/lib/libutee/tee_api_objects.c:318
    1958:	a9bc7bfd 	stp	x29, x30, [sp, #-64]!
    195c:	910003fd 	mov	x29, sp
    1960:	a90153f3 	stp	x19, x20, [sp, #16]
    1964:	aa0103f3 	mov	x19, x1
    1968:	aa0003f4 	mov	x20, x0
/home/thesis/Desktop/optee_rpi3bplus/optee_os/lib/libutee/tee_api_objects.c:322
    196c:	910083e1 	add	x1, sp, #0x20
    1970:	aa1303e0 	mov	x0, x19
    1974:	940002ae 	bl	242c <utee_cryp_obj_get_info>
/home/thesis/Desktop/optee_rpi3bplus/optee_os/lib/libutee/tee_api_objects.c:323
    1978:	b94023e1 	ldr	w1, [sp, #32]
    197c:	528017c0 	mov	w0, #0xbe                  	// #190
    1980:	72b40000 	movk	w0, #0xa000, lsl #16
    1984:	6b00003f 	cmp	w1, w0
    1988:	540000c0 	b.eq	19a0 <TEE_CopyObjectAttributes+0x48>  // b.none
/home/thesis/Desktop/optee_rpi3bplus/optee_os/lib/libutee/tee_api_objects.c:326
    198c:	aa1303e1 	mov	x1, x19
    1990:	aa1403e0 	mov	x0, x20
    1994:	97ffffc6 	bl	18ac <TEE_CopyObjectAttributes1>
/home/thesis/Desktop/optee_rpi3bplus/optee_os/lib/libutee/tee_api_objects.c:327
    1998:	34000040 	cbz	w0, 19a0 <TEE_CopyObjectAttributes+0x48>
/home/thesis/Desktop/optee_rpi3bplus/optee_os/lib/libutee/tee_api_objects.c:328
    199c:	940001a4 	bl	202c <TEE_Panic>
/home/thesis/Desktop/optee_rpi3bplus/optee_os/lib/libutee/tee_api_objects.c:329
    19a0:	a94153f3 	ldp	x19, x20, [sp, #16]
    19a4:	a8c47bfd 	ldp	x29, x30, [sp], #64
    19a8:	d65f03c0 	ret

00000000000019ac <TEE_GenerateKey>:
TEE_GenerateKey():
/home/thesis/Desktop/optee_rpi3bplus/optee_os/lib/libutee/tee_api_objects.c:369
    19ac:	a9bd7bfd 	stp	x29, x30, [sp, #-48]!
    19b0:	910003fd 	mov	x29, sp
    19b4:	a9025bf5 	stp	x21, x22, [sp, #32]
    19b8:	aa0003f5 	mov	x21, x0
/home/thesis/Desktop/optee_rpi3bplus/optee_os/lib/libutee/tee_api_objects.c:371
    19bc:	52800300 	mov	w0, #0x18                  	// #24
/home/thesis/Desktop/optee_rpi3bplus/optee_os/lib/libutee/tee_api_objects.c:369
    19c0:	a90153f3 	stp	x19, x20, [sp, #16]
    19c4:	2a0103f6 	mov	w22, w1
/home/thesis/Desktop/optee_rpi3bplus/optee_os/lib/libutee/tee_api_objects.c:371
    19c8:	9ba07c60 	umull	x0, w3, w0
/home/thesis/Desktop/optee_rpi3bplus/optee_os/lib/libutee/tee_api_objects.c:369
    19cc:	2a0303f3 	mov	w19, w3
    19d0:	aa0203e1 	mov	x1, x2
/home/thesis/Desktop/optee_rpi3bplus/optee_os/lib/libutee/tee_api_objects.c:371
    19d4:	91003c00 	add	x0, x0, #0xf
/home/thesis/Desktop/optee_rpi3bplus/optee_os/lib/libutee/tee_api_objects.c:373
    19d8:	2a0303e2 	mov	w2, w3
/home/thesis/Desktop/optee_rpi3bplus/optee_os/lib/libutee/tee_api_objects.c:371
    19dc:	927c8400 	and	x0, x0, #0x3ffffffff0
    19e0:	cb2063ff 	sub	sp, sp, x0
    19e4:	910003f4 	mov	x20, sp
/home/thesis/Desktop/optee_rpi3bplus/optee_os/lib/libutee/tee_api_objects.c:373
    19e8:	aa1403e0 	mov	x0, x20
    19ec:	97fffe4f 	bl	1328 <__utee_from_attr>
/home/thesis/Desktop/optee_rpi3bplus/optee_os/lib/libutee/tee_api_objects.c:374
    19f0:	2a1303e3 	mov	w3, w19
    19f4:	2a1603e1 	mov	w1, w22
    19f8:	aa1403e2 	mov	x2, x20
    19fc:	aa1503e0 	mov	x0, x21
    1a00:	940002e5 	bl	2594 <utee_cryp_obj_generate_key>
/home/thesis/Desktop/optee_rpi3bplus/optee_os/lib/libutee/tee_api_objects.c:377
    1a04:	7100001f 	cmp	w0, #0x0
    1a08:	129fff21 	mov	w1, #0xffff0006            	// #-65530
/home/thesis/Desktop/optee_rpi3bplus/optee_os/lib/libutee/tee_api_objects.c:374
    1a0c:	2a0003f3 	mov	w19, w0
/home/thesis/Desktop/optee_rpi3bplus/optee_os/lib/libutee/tee_api_objects.c:377
    1a10:	7a411004 	ccmp	w0, w1, #0x4, ne  // ne = any
    1a14:	54000040 	b.eq	1a1c <TEE_GenerateKey+0x70>  // b.none
/home/thesis/Desktop/optee_rpi3bplus/optee_os/lib/libutee/tee_api_objects.c:378
    1a18:	94000185 	bl	202c <TEE_Panic>
/home/thesis/Desktop/optee_rpi3bplus/optee_os/lib/libutee/tee_api_objects.c:381
    1a1c:	910003bf 	mov	sp, x29
    1a20:	2a1303e0 	mov	w0, w19
    1a24:	a94153f3 	ldp	x19, x20, [sp, #16]
    1a28:	a9425bf5 	ldp	x21, x22, [sp, #32]
    1a2c:	a8c37bfd 	ldp	x29, x30, [sp], #48
    1a30:	d65f03c0 	ret

0000000000001a34 <TEE_OpenPersistentObject>:
TEE_OpenPersistentObject():
/home/thesis/Desktop/optee_rpi3bplus/optee_os/lib/libutee/tee_api_objects.c:388
    1a34:	a9bc7bfd 	stp	x29, x30, [sp, #-64]!
    1a38:	910003fd 	mov	x29, sp
    1a3c:	a90153f3 	stp	x19, x20, [sp, #16]
    1a40:	aa0403f4 	mov	x20, x4
    1a44:	f90013f5 	str	x21, [sp, #32]
/home/thesis/Desktop/optee_rpi3bplus/optee_os/lib/libutee/tee_api_objects.c:392
    1a48:	b40004e1 	cbz	x1, 1ae4 <TEE_OpenPersistentObject+0xb0>
/home/thesis/Desktop/optee_rpi3bplus/optee_os/lib/libutee/tee_api_objects.c:397
    1a4c:	7101005f 	cmp	w2, #0x40
    1a50:	540004e8 	b.hi	1aec <TEE_OpenPersistentObject+0xb8>  // b.pmore
/home/thesis/Desktop/optee_rpi3bplus/optee_os/lib/libutee/tee_api_objects.c:402
    1a54:	b40004c4 	cbz	x4, 1aec <TEE_OpenPersistentObject+0xb8>
/home/thesis/Desktop/optee_rpi3bplus/optee_os/lib/libutee/tee_api_objects.c:407
    1a58:	9100f3e4 	add	x4, sp, #0x3c
    1a5c:	2a0303e3 	mov	w3, w3
    1a60:	2a0203e2 	mov	w2, w2
    1a64:	2a0003e0 	mov	w0, w0
    1a68:	940002a4 	bl	24f8 <utee_storage_obj_open>
    1a6c:	2a0003f3 	mov	w19, w0
/home/thesis/Desktop/optee_rpi3bplus/optee_os/lib/libutee/tee_api_objects.c:409
    1a70:	35000060 	cbnz	w0, 1a7c <TEE_OpenPersistentObject+0x48>
/home/thesis/Desktop/optee_rpi3bplus/optee_os/lib/libutee/tee_api_objects.c:410
    1a74:	b9403fe0 	ldr	w0, [sp, #60]
    1a78:	f9000280 	str	x0, [x20]
/home/thesis/Desktop/optee_rpi3bplus/optee_os/lib/libutee/tee_api_objects.c:413
    1a7c:	7100027f 	cmp	w19, #0x0
/home/thesis/Desktop/optee_rpi3bplus/optee_os/lib/libutee/tee_api_objects.c:414
    1a80:	121d7a60 	and	w0, w19, #0xfffffffb
/home/thesis/Desktop/optee_rpi3bplus/optee_os/lib/libutee/tee_api_objects.c:413
    1a84:	1a9f07f5 	cset	w21, ne  // ne = any
    1a88:	129ffee1 	mov	w1, #0xffff0008            	// #-65528
    1a8c:	710002bf 	cmp	w21, #0x0
    1a90:	7a411004 	ccmp	w0, w1, #0x4, ne  // ne = any
    1a94:	54000160 	b.eq	1ac0 <TEE_OpenPersistentObject+0x8c>  // b.none
/home/thesis/Desktop/optee_rpi3bplus/optee_os/lib/libutee/tee_api_objects.c:415
    1a98:	129fff80 	mov	w0, #0xffff0003            	// #-65533
    1a9c:	6b00027f 	cmp	w19, w0
    1aa0:	54000100 	b.eq	1ac0 <TEE_OpenPersistentObject+0x8c>  // b.none
/home/thesis/Desktop/optee_rpi3bplus/optee_os/lib/libutee/tee_api_objects.c:417
    1aa4:	121e7a61 	and	w1, w19, #0xfffffffd
    1aa8:	52800020 	mov	w0, #0x1                   	// #1
    1aac:	72be0200 	movk	w0, #0xf010, lsl #16
    1ab0:	6b00003f 	cmp	w1, w0
    1ab4:	54000060 	b.eq	1ac0 <TEE_OpenPersistentObject+0x8c>  // b.none
/home/thesis/Desktop/optee_rpi3bplus/optee_os/lib/libutee/tee_api_objects.c:419
    1ab8:	2a1303e0 	mov	w0, w19
    1abc:	9400015c 	bl	202c <TEE_Panic>
/home/thesis/Desktop/optee_rpi3bplus/optee_os/lib/libutee/tee_api_objects.c:421
    1ac0:	f100029f 	cmp	x20, #0x0
    1ac4:	7a401aa4 	ccmp	w21, #0x0, #0x4, ne  // ne = any
    1ac8:	54000040 	b.eq	1ad0 <TEE_OpenPersistentObject+0x9c>  // b.none
/home/thesis/Desktop/optee_rpi3bplus/optee_os/lib/libutee/tee_api_objects.c:422
    1acc:	f900029f 	str	xzr, [x20]
/home/thesis/Desktop/optee_rpi3bplus/optee_os/lib/libutee/tee_api_objects.c:425
    1ad0:	2a1303e0 	mov	w0, w19
    1ad4:	a94153f3 	ldp	x19, x20, [sp, #16]
    1ad8:	f94013f5 	ldr	x21, [sp, #32]
    1adc:	a8c47bfd 	ldp	x29, x30, [sp], #64
    1ae0:	d65f03c0 	ret
/home/thesis/Desktop/optee_rpi3bplus/optee_os/lib/libutee/tee_api_objects.c:393
    1ae4:	129ffef3 	mov	w19, #0xffff0008            	// #-65528
    1ae8:	17ffffe5 	b	1a7c <TEE_OpenPersistentObject+0x48>
/home/thesis/Desktop/optee_rpi3bplus/optee_os/lib/libutee/tee_api_objects.c:398
    1aec:	129fff33 	mov	w19, #0xffff0006            	// #-65530
    1af0:	17ffffe3 	b	1a7c <TEE_OpenPersistentObject+0x48>

0000000000001af4 <TEE_CreatePersistentObject>:
TEE_CreatePersistentObject():
/home/thesis/Desktop/optee_rpi3bplus/optee_os/lib/libutee/tee_api_objects.c:433
    1af4:	a9bd7bfd 	stp	x29, x30, [sp, #-48]!
    1af8:	910003fd 	mov	x29, sp
    1afc:	f9000bf3 	str	x19, [sp, #16]
    1b00:	aa0703f3 	mov	x19, x7
/home/thesis/Desktop/optee_rpi3bplus/optee_os/lib/libutee/tee_api_objects.c:437
    1b04:	b40004e1 	cbz	x1, 1ba0 <TEE_CreatePersistentObject+0xac>
/home/thesis/Desktop/optee_rpi3bplus/optee_os/lib/libutee/tee_api_objects.c:442
    1b08:	7101005f 	cmp	w2, #0x40
    1b0c:	54000508 	b.hi	1bac <TEE_CreatePersistentObject+0xb8>  // b.pmore
/home/thesis/Desktop/optee_rpi3bplus/optee_os/lib/libutee/tee_api_objects.c:447
    1b10:	9100b3e7 	add	x7, sp, #0x2c
    1b14:	2a0603e6 	mov	w6, w6
    1b18:	2a0303e3 	mov	w3, w3
    1b1c:	2a0203e2 	mov	w2, w2
    1b20:	2a0003e0 	mov	w0, w0
    1b24:	94000278 	bl	2504 <utee_storage_obj_create>
/home/thesis/Desktop/optee_rpi3bplus/optee_os/lib/libutee/tee_api_objects.c:450
    1b28:	35000360 	cbnz	w0, 1b94 <TEE_CreatePersistentObject+0xa0>
/home/thesis/Desktop/optee_rpi3bplus/optee_os/lib/libutee/tee_api_objects.c:451
    1b2c:	b9402fe1 	ldr	w1, [sp, #44]
    1b30:	b40000b3 	cbz	x19, 1b44 <TEE_CreatePersistentObject+0x50>
/home/thesis/Desktop/optee_rpi3bplus/optee_os/lib/libutee/tee_api_objects.c:452
    1b34:	f9000261 	str	x1, [x19]
/home/thesis/Desktop/optee_rpi3bplus/optee_os/lib/libutee/tee_api_objects.c:471
    1b38:	f9400bf3 	ldr	x19, [sp, #16]
    1b3c:	a8c37bfd 	ldp	x29, x30, [sp], #48
    1b40:	d65f03c0 	ret
/home/thesis/Desktop/optee_rpi3bplus/optee_os/lib/libutee/tee_api_objects.c:454
    1b44:	aa0103e0 	mov	x0, x1
    1b48:	94000245 	bl	245c <utee_cryp_obj_close>
/home/thesis/Desktop/optee_rpi3bplus/optee_os/lib/libutee/tee_api_objects.c:455
    1b4c:	34ffff60 	cbz	w0, 1b38 <TEE_CreatePersistentObject+0x44>
/home/thesis/Desktop/optee_rpi3bplus/optee_os/lib/libutee/tee_api_objects.c:461
    1b50:	121d7802 	and	w2, w0, #0xfffffffb
    1b54:	129ffee1 	mov	w1, #0xffff0008            	// #-65528
    1b58:	6b01005f 	cmp	w2, w1
    1b5c:	129fff81 	mov	w1, #0xffff0003            	// #-65533
    1b60:	7a411004 	ccmp	w0, w1, #0x4, ne  // ne = any
    1b64:	54fffea0 	b.eq	1b38 <TEE_CreatePersistentObject+0x44>  // b.none
/home/thesis/Desktop/optee_rpi3bplus/optee_os/lib/libutee/tee_api_objects.c:463
    1b68:	1299f7c1 	mov	w1, #0xffff3041            	// #-53183
    1b6c:	6b01001f 	cmp	w0, w1
    1b70:	54fffe40 	b.eq	1b38 <TEE_CreatePersistentObject+0x44>  // b.none
/home/thesis/Desktop/optee_rpi3bplus/optee_os/lib/libutee/tee_api_objects.c:465
    1b74:	121e7802 	and	w2, w0, #0xfffffffd
    1b78:	52800021 	mov	w1, #0x1                   	// #1
    1b7c:	72be0201 	movk	w1, #0xf010, lsl #16
    1b80:	6b01005f 	cmp	w2, w1
    1b84:	54fffda0 	b.eq	1b38 <TEE_CreatePersistentObject+0x44>  // b.none
/home/thesis/Desktop/optee_rpi3bplus/optee_os/lib/libutee/tee_api_objects.c:468
    1b88:	94000129 	bl	202c <TEE_Panic>
/home/thesis/Desktop/optee_rpi3bplus/optee_os/lib/libutee/tee_api_objects.c:470
    1b8c:	52800000 	mov	w0, #0x0                   	// #0
    1b90:	17ffffea 	b	1b38 <TEE_CreatePersistentObject+0x44>
/home/thesis/Desktop/optee_rpi3bplus/optee_os/lib/libutee/tee_api_objects.c:459
    1b94:	b4fffdf3 	cbz	x19, 1b50 <TEE_CreatePersistentObject+0x5c>
/home/thesis/Desktop/optee_rpi3bplus/optee_os/lib/libutee/tee_api_objects.c:460
    1b98:	f900027f 	str	xzr, [x19]
    1b9c:	17ffffed 	b	1b50 <TEE_CreatePersistentObject+0x5c>
/home/thesis/Desktop/optee_rpi3bplus/optee_os/lib/libutee/tee_api_objects.c:438
    1ba0:	129ffee0 	mov	w0, #0xffff0008            	// #-65528
/home/thesis/Desktop/optee_rpi3bplus/optee_os/lib/libutee/tee_api_objects.c:459
    1ba4:	b5ffffa7 	cbnz	x7, 1b98 <TEE_CreatePersistentObject+0xa4>
    1ba8:	17ffffe4 	b	1b38 <TEE_CreatePersistentObject+0x44>
/home/thesis/Desktop/optee_rpi3bplus/optee_os/lib/libutee/tee_api_objects.c:443
    1bac:	129fff20 	mov	w0, #0xffff0006            	// #-65530
/home/thesis/Desktop/optee_rpi3bplus/optee_os/lib/libutee/tee_api_objects.c:459
    1bb0:	b5ffff47 	cbnz	x7, 1b98 <TEE_CreatePersistentObject+0xa4>
    1bb4:	17fffff5 	b	1b88 <TEE_CreatePersistentObject+0x94>

0000000000001bb8 <TEE_CloseAndDeletePersistentObject1>:
TEE_CloseAndDeletePersistentObject1():
/home/thesis/Desktop/optee_rpi3bplus/optee_os/lib/libutee/tee_api_objects.c:493
    1bb8:	a9be7bfd 	stp	x29, x30, [sp, #-32]!
    1bbc:	910003fd 	mov	x29, sp
    1bc0:	a90153f3 	stp	x19, x20, [sp, #16]
    1bc4:	52800074 	mov	w20, #0x3                   	// #3
    1bc8:	72be0214 	movk	w20, #0xf010, lsl #16
/home/thesis/Desktop/optee_rpi3bplus/optee_os/lib/libutee/tee_api_objects.c:496
    1bcc:	b4000160 	cbz	x0, 1bf8 <TEE_CloseAndDeletePersistentObject1+0x40>
/home/thesis/Desktop/optee_rpi3bplus/optee_os/lib/libutee/tee_api_objects.c:499
    1bd0:	94000250 	bl	2510 <utee_storage_obj_del>
/home/thesis/Desktop/optee_rpi3bplus/optee_os/lib/libutee/tee_api_objects.c:501
    1bd4:	7100001f 	cmp	w0, #0x0
/home/thesis/Desktop/optee_rpi3bplus/optee_os/lib/libutee/tee_api_objects.c:499
    1bd8:	2a0003f3 	mov	w19, w0
/home/thesis/Desktop/optee_rpi3bplus/optee_os/lib/libutee/tee_api_objects.c:501
    1bdc:	7a541004 	ccmp	w0, w20, #0x4, ne  // ne = any
    1be0:	54000040 	b.eq	1be8 <TEE_CloseAndDeletePersistentObject1+0x30>  // b.none
/home/thesis/Desktop/optee_rpi3bplus/optee_os/lib/libutee/tee_api_objects.c:502
    1be4:	94000112 	bl	202c <TEE_Panic>
/home/thesis/Desktop/optee_rpi3bplus/optee_os/lib/libutee/tee_api_objects.c:505
    1be8:	2a1303e0 	mov	w0, w19
    1bec:	a94153f3 	ldp	x19, x20, [sp, #16]
    1bf0:	a8c27bfd 	ldp	x29, x30, [sp], #32
    1bf4:	d65f03c0 	ret
/home/thesis/Desktop/optee_rpi3bplus/optee_os/lib/libutee/tee_api_objects.c:497
    1bf8:	2a1403f3 	mov	w19, w20
    1bfc:	17fffffb 	b	1be8 <TEE_CloseAndDeletePersistentObject1+0x30>

0000000000001c00 <TEE_CloseAndDeletePersistentObject>:
TEE_CloseAndDeletePersistentObject():
/home/thesis/Desktop/optee_rpi3bplus/optee_os/lib/libutee/tee_api_objects.c:483
    1c00:	b4000140 	cbz	x0, 1c28 <TEE_CloseAndDeletePersistentObject+0x28>
/home/thesis/Desktop/optee_rpi3bplus/optee_os/lib/libutee/tee_api_objects.c:480
    1c04:	a9bf7bfd 	stp	x29, x30, [sp, #-16]!
    1c08:	910003fd 	mov	x29, sp
/home/thesis/Desktop/optee_rpi3bplus/optee_os/lib/libutee/tee_api_objects.c:486
    1c0c:	97ffffeb 	bl	1bb8 <TEE_CloseAndDeletePersistentObject1>
/home/thesis/Desktop/optee_rpi3bplus/optee_os/lib/libutee/tee_api_objects.c:488
    1c10:	34000080 	cbz	w0, 1c20 <TEE_CloseAndDeletePersistentObject+0x20>
/home/thesis/Desktop/optee_rpi3bplus/optee_os/lib/libutee/tee_api_objects.c:490
    1c14:	a8c17bfd 	ldp	x29, x30, [sp], #16
/home/thesis/Desktop/optee_rpi3bplus/optee_os/lib/libutee/tee_api_objects.c:489
    1c18:	52800000 	mov	w0, #0x0                   	// #0
    1c1c:	14000104 	b	202c <TEE_Panic>
/home/thesis/Desktop/optee_rpi3bplus/optee_os/lib/libutee/tee_api_objects.c:490
    1c20:	a8c17bfd 	ldp	x29, x30, [sp], #16
    1c24:	d65f03c0 	ret
    1c28:	d65f03c0 	ret

0000000000001c2c <TEE_RenamePersistentObject>:
TEE_RenamePersistentObject():
/home/thesis/Desktop/optee_rpi3bplus/optee_os/lib/libutee/tee_api_objects.c:511
    1c2c:	a9be7bfd 	stp	x29, x30, [sp, #-32]!
    1c30:	910003fd 	mov	x29, sp
    1c34:	f9000bf3 	str	x19, [sp, #16]
/home/thesis/Desktop/optee_rpi3bplus/optee_os/lib/libutee/tee_api_objects.c:514
    1c38:	b40002c0 	cbz	x0, 1c90 <TEE_RenamePersistentObject+0x64>
/home/thesis/Desktop/optee_rpi3bplus/optee_os/lib/libutee/tee_api_objects.c:519
    1c3c:	b40002e1 	cbz	x1, 1c98 <TEE_RenamePersistentObject+0x6c>
/home/thesis/Desktop/optee_rpi3bplus/optee_os/lib/libutee/tee_api_objects.c:524
    1c40:	7101005f 	cmp	w2, #0x40
    1c44:	540002a8 	b.hi	1c98 <TEE_RenamePersistentObject+0x6c>  // b.pmore
/home/thesis/Desktop/optee_rpi3bplus/optee_os/lib/libutee/tee_api_objects.c:529
    1c48:	2a0203e2 	mov	w2, w2
    1c4c:	94000234 	bl	251c <utee_storage_obj_rename>
    1c50:	2a0003f3 	mov	w19, w0
/home/thesis/Desktop/optee_rpi3bplus/optee_os/lib/libutee/tee_api_objects.c:533
    1c54:	7100027f 	cmp	w19, #0x0
    1c58:	129fff80 	mov	w0, #0xffff0003            	// #-65533
    1c5c:	7a401264 	ccmp	w19, w0, #0x4, ne  // ne = any
    1c60:	54000100 	b.eq	1c80 <TEE_RenamePersistentObject+0x54>  // b.none
/home/thesis/Desktop/optee_rpi3bplus/optee_os/lib/libutee/tee_api_objects.c:535
    1c64:	121e7a61 	and	w1, w19, #0xfffffffd
    1c68:	52800020 	mov	w0, #0x1                   	// #1
    1c6c:	72be0200 	movk	w0, #0xf010, lsl #16
    1c70:	6b00003f 	cmp	w1, w0
    1c74:	54000060 	b.eq	1c80 <TEE_RenamePersistentObject+0x54>  // b.none
/home/thesis/Desktop/optee_rpi3bplus/optee_os/lib/libutee/tee_api_objects.c:537
    1c78:	2a1303e0 	mov	w0, w19
    1c7c:	940000ec 	bl	202c <TEE_Panic>
/home/thesis/Desktop/optee_rpi3bplus/optee_os/lib/libutee/tee_api_objects.c:540
    1c80:	2a1303e0 	mov	w0, w19
    1c84:	f9400bf3 	ldr	x19, [sp, #16]
    1c88:	a8c27bfd 	ldp	x29, x30, [sp], #32
    1c8c:	d65f03c0 	ret
/home/thesis/Desktop/optee_rpi3bplus/optee_os/lib/libutee/tee_api_objects.c:515
    1c90:	129ffef3 	mov	w19, #0xffff0008            	// #-65528
    1c94:	17fffff0 	b	1c54 <TEE_RenamePersistentObject+0x28>
/home/thesis/Desktop/optee_rpi3bplus/optee_os/lib/libutee/tee_api_objects.c:520
    1c98:	129fff33 	mov	w19, #0xffff0006            	// #-65530
    1c9c:	17ffffee 	b	1c54 <TEE_RenamePersistentObject+0x28>

0000000000001ca0 <TEE_AllocatePersistentObjectEnumerator>:
TEE_AllocatePersistentObjectEnumerator():
/home/thesis/Desktop/optee_rpi3bplus/optee_os/lib/libutee/tee_api_objects.c:544
    1ca0:	a9bd7bfd 	stp	x29, x30, [sp, #-48]!
    1ca4:	910003fd 	mov	x29, sp
    1ca8:	a90153f3 	stp	x19, x20, [sp, #16]
/home/thesis/Desktop/optee_rpi3bplus/optee_os/lib/libutee/tee_api_objects.c:548
    1cac:	b4000260 	cbz	x0, 1cf8 <TEE_AllocatePersistentObjectEnumerator+0x58>
    1cb0:	aa0003f4 	mov	x20, x0
/home/thesis/Desktop/optee_rpi3bplus/optee_os/lib/libutee/tee_api_objects.c:551
    1cb4:	9100b3e0 	add	x0, sp, #0x2c
    1cb8:	9400021c 	bl	2528 <utee_storage_alloc_enum>
    1cbc:	2a0003f3 	mov	w19, w0
/home/thesis/Desktop/optee_rpi3bplus/optee_os/lib/libutee/tee_api_objects.c:553
    1cc0:	34000040 	cbz	w0, 1cc8 <TEE_AllocatePersistentObjectEnumerator+0x28>
/home/thesis/Desktop/optee_rpi3bplus/optee_os/lib/libutee/tee_api_objects.c:554
    1cc4:	b9002fff 	str	wzr, [sp, #44]
/home/thesis/Desktop/optee_rpi3bplus/optee_os/lib/libutee/tee_api_objects.c:556
    1cc8:	b9402fe0 	ldr	w0, [sp, #44]
/home/thesis/Desktop/optee_rpi3bplus/optee_os/lib/libutee/tee_api_objects.c:558
    1ccc:	7100027f 	cmp	w19, #0x0
/home/thesis/Desktop/optee_rpi3bplus/optee_os/lib/libutee/tee_api_objects.c:556
    1cd0:	f9000280 	str	x0, [x20]
/home/thesis/Desktop/optee_rpi3bplus/optee_os/lib/libutee/tee_api_objects.c:558
    1cd4:	129fff80 	mov	w0, #0xffff0003            	// #-65533
    1cd8:	7a401264 	ccmp	w19, w0, #0x4, ne  // ne = any
    1cdc:	54000060 	b.eq	1ce8 <TEE_AllocatePersistentObjectEnumerator+0x48>  // b.none
/home/thesis/Desktop/optee_rpi3bplus/optee_os/lib/libutee/tee_api_objects.c:560
    1ce0:	2a1303e0 	mov	w0, w19
    1ce4:	940000d2 	bl	202c <TEE_Panic>
/home/thesis/Desktop/optee_rpi3bplus/optee_os/lib/libutee/tee_api_objects.c:563
    1ce8:	2a1303e0 	mov	w0, w19
    1cec:	a94153f3 	ldp	x19, x20, [sp, #16]
    1cf0:	a8c37bfd 	ldp	x29, x30, [sp], #48
    1cf4:	d65f03c0 	ret
/home/thesis/Desktop/optee_rpi3bplus/optee_os/lib/libutee/tee_api_objects.c:549
    1cf8:	129fff33 	mov	w19, #0xffff0006            	// #-65530
    1cfc:	17fffffb 	b	1ce8 <TEE_AllocatePersistentObjectEnumerator+0x48>

0000000000001d00 <TEE_FreePersistentObjectEnumerator>:
TEE_FreePersistentObjectEnumerator():
/home/thesis/Desktop/optee_rpi3bplus/optee_os/lib/libutee/tee_api_objects.c:569
    1d00:	b4000120 	cbz	x0, 1d24 <TEE_FreePersistentObjectEnumerator+0x24>
/home/thesis/Desktop/optee_rpi3bplus/optee_os/lib/libutee/tee_api_objects.c:566
    1d04:	a9bf7bfd 	stp	x29, x30, [sp, #-16]!
    1d08:	910003fd 	mov	x29, sp
/home/thesis/Desktop/optee_rpi3bplus/optee_os/lib/libutee/tee_api_objects.c:572
    1d0c:	9400020a 	bl	2534 <utee_storage_free_enum>
/home/thesis/Desktop/optee_rpi3bplus/optee_os/lib/libutee/tee_api_objects.c:574
    1d10:	34000060 	cbz	w0, 1d1c <TEE_FreePersistentObjectEnumerator+0x1c>
/home/thesis/Desktop/optee_rpi3bplus/optee_os/lib/libutee/tee_api_objects.c:576
    1d14:	a8c17bfd 	ldp	x29, x30, [sp], #16
/home/thesis/Desktop/optee_rpi3bplus/optee_os/lib/libutee/tee_api_objects.c:575
    1d18:	140000c5 	b	202c <TEE_Panic>
/home/thesis/Desktop/optee_rpi3bplus/optee_os/lib/libutee/tee_api_objects.c:576
    1d1c:	a8c17bfd 	ldp	x29, x30, [sp], #16
    1d20:	d65f03c0 	ret
    1d24:	d65f03c0 	ret

0000000000001d28 <TEE_ResetPersistentObjectEnumerator>:
TEE_ResetPersistentObjectEnumerator():
/home/thesis/Desktop/optee_rpi3bplus/optee_os/lib/libutee/tee_api_objects.c:582
    1d28:	b4000120 	cbz	x0, 1d4c <TEE_ResetPersistentObjectEnumerator+0x24>
/home/thesis/Desktop/optee_rpi3bplus/optee_os/lib/libutee/tee_api_objects.c:579
    1d2c:	a9bf7bfd 	stp	x29, x30, [sp, #-16]!
    1d30:	910003fd 	mov	x29, sp
/home/thesis/Desktop/optee_rpi3bplus/optee_os/lib/libutee/tee_api_objects.c:585
    1d34:	94000203 	bl	2540 <utee_storage_reset_enum>
/home/thesis/Desktop/optee_rpi3bplus/optee_os/lib/libutee/tee_api_objects.c:587
    1d38:	34000060 	cbz	w0, 1d44 <TEE_ResetPersistentObjectEnumerator+0x1c>
/home/thesis/Desktop/optee_rpi3bplus/optee_os/lib/libutee/tee_api_objects.c:589
    1d3c:	a8c17bfd 	ldp	x29, x30, [sp], #16
/home/thesis/Desktop/optee_rpi3bplus/optee_os/lib/libutee/tee_api_objects.c:588
    1d40:	140000bb 	b	202c <TEE_Panic>
/home/thesis/Desktop/optee_rpi3bplus/optee_os/lib/libutee/tee_api_objects.c:589
    1d44:	a8c17bfd 	ldp	x29, x30, [sp], #16
    1d48:	d65f03c0 	ret
    1d4c:	d65f03c0 	ret

0000000000001d50 <TEE_StartPersistentObjectEnumerator>:
TEE_StartPersistentObjectEnumerator():
/home/thesis/Desktop/optee_rpi3bplus/optee_os/lib/libutee/tee_api_objects.c:594
    1d50:	a9be7bfd 	stp	x29, x30, [sp, #-32]!
/home/thesis/Desktop/optee_rpi3bplus/optee_os/lib/libutee/tee_api_objects.c:597
    1d54:	2a0103e1 	mov	w1, w1
/home/thesis/Desktop/optee_rpi3bplus/optee_os/lib/libutee/tee_api_objects.c:594
    1d58:	910003fd 	mov	x29, sp
    1d5c:	f9000bf3 	str	x19, [sp, #16]
/home/thesis/Desktop/optee_rpi3bplus/optee_os/lib/libutee/tee_api_objects.c:597
    1d60:	940001fb 	bl	254c <utee_storage_start_enum>
/home/thesis/Desktop/optee_rpi3bplus/optee_os/lib/libutee/tee_api_objects.c:600
    1d64:	7100001f 	cmp	w0, #0x0
    1d68:	129ffee1 	mov	w1, #0xffff0008            	// #-65528
/home/thesis/Desktop/optee_rpi3bplus/optee_os/lib/libutee/tee_api_objects.c:597
    1d6c:	2a0003f3 	mov	w19, w0
/home/thesis/Desktop/optee_rpi3bplus/optee_os/lib/libutee/tee_api_objects.c:600
    1d70:	7a411004 	ccmp	w0, w1, #0x4, ne  // ne = any
    1d74:	540000e0 	b.eq	1d90 <TEE_StartPersistentObjectEnumerator+0x40>  // b.none
/home/thesis/Desktop/optee_rpi3bplus/optee_os/lib/libutee/tee_api_objects.c:602
    1d78:	121e7802 	and	w2, w0, #0xfffffffd
    1d7c:	52800021 	mov	w1, #0x1                   	// #1
    1d80:	72be0201 	movk	w1, #0xf010, lsl #16
    1d84:	6b01005f 	cmp	w2, w1
    1d88:	54000040 	b.eq	1d90 <TEE_StartPersistentObjectEnumerator+0x40>  // b.none
/home/thesis/Desktop/optee_rpi3bplus/optee_os/lib/libutee/tee_api_objects.c:604
    1d8c:	940000a8 	bl	202c <TEE_Panic>
/home/thesis/Desktop/optee_rpi3bplus/optee_os/lib/libutee/tee_api_objects.c:607
    1d90:	2a1303e0 	mov	w0, w19
    1d94:	f9400bf3 	ldr	x19, [sp, #16]
    1d98:	a8c27bfd 	ldp	x29, x30, [sp], #32
    1d9c:	d65f03c0 	ret

0000000000001da0 <TEE_GetNextPersistentObject>:
TEE_GetNextPersistentObject():
/home/thesis/Desktop/optee_rpi3bplus/optee_os/lib/libutee/tee_api_objects.c:612
    1da0:	a9bb7bfd 	stp	x29, x30, [sp, #-80]!
    1da4:	910003fd 	mov	x29, sp
    1da8:	a90153f3 	stp	x19, x20, [sp, #16]
/home/thesis/Desktop/optee_rpi3bplus/optee_os/lib/libutee/tee_api_objects.c:618
    1dac:	b4000362 	cbz	x2, 1e18 <TEE_GetNextPersistentObject+0x78>
    1db0:	aa0303f4 	mov	x20, x3
/home/thesis/Desktop/optee_rpi3bplus/optee_os/lib/libutee/tee_api_objects.c:623
    1db4:	b4000323 	cbz	x3, 1e18 <TEE_GetNextPersistentObject+0x78>
/home/thesis/Desktop/optee_rpi3bplus/optee_os/lib/libutee/tee_api_objects.c:628
    1db8:	b5000041 	cbnz	x1, 1dc0 <TEE_GetNextPersistentObject+0x20>
/home/thesis/Desktop/optee_rpi3bplus/optee_os/lib/libutee/tee_api_objects.c:631
    1dbc:	9100c3e1 	add	x1, sp, #0x30
/home/thesis/Desktop/optee_rpi3bplus/optee_os/lib/libutee/tee_api_objects.c:632
    1dc0:	b9400283 	ldr	w3, [x20]
    1dc4:	f90017e3 	str	x3, [sp, #40]
/home/thesis/Desktop/optee_rpi3bplus/optee_os/lib/libutee/tee_api_objects.c:633
    1dc8:	9100a3e3 	add	x3, sp, #0x28
    1dcc:	940001e3 	bl	2558 <utee_storage_next_enum>
    1dd0:	2a0003f3 	mov	w19, w0
/home/thesis/Desktop/optee_rpi3bplus/optee_os/lib/libutee/tee_api_objects.c:635
    1dd4:	f94017e0 	ldr	x0, [sp, #40]
    1dd8:	b9000280 	str	w0, [x20]
/home/thesis/Desktop/optee_rpi3bplus/optee_os/lib/libutee/tee_api_objects.c:638
    1ddc:	7100027f 	cmp	w19, #0x0
    1de0:	129ffee0 	mov	w0, #0xffff0008            	// #-65528
    1de4:	7a401264 	ccmp	w19, w0, #0x4, ne  // ne = any
    1de8:	54000100 	b.eq	1e08 <TEE_GetNextPersistentObject+0x68>  // b.none
/home/thesis/Desktop/optee_rpi3bplus/optee_os/lib/libutee/tee_api_objects.c:640
    1dec:	121e7a61 	and	w1, w19, #0xfffffffd
    1df0:	52800020 	mov	w0, #0x1                   	// #1
    1df4:	72be0200 	movk	w0, #0xf010, lsl #16
    1df8:	6b00003f 	cmp	w1, w0
    1dfc:	54000060 	b.eq	1e08 <TEE_GetNextPersistentObject+0x68>  // b.none
/home/thesis/Desktop/optee_rpi3bplus/optee_os/lib/libutee/tee_api_objects.c:642
    1e00:	2a1303e0 	mov	w0, w19
    1e04:	9400008a 	bl	202c <TEE_Panic>
/home/thesis/Desktop/optee_rpi3bplus/optee_os/lib/libutee/tee_api_objects.c:645
    1e08:	2a1303e0 	mov	w0, w19
    1e0c:	a94153f3 	ldp	x19, x20, [sp, #16]
    1e10:	a8c57bfd 	ldp	x29, x30, [sp], #80
    1e14:	d65f03c0 	ret
/home/thesis/Desktop/optee_rpi3bplus/optee_os/lib/libutee/tee_api_objects.c:619
    1e18:	129fff33 	mov	w19, #0xffff0006            	// #-65530
    1e1c:	17fffff0 	b	1ddc <TEE_GetNextPersistentObject+0x3c>

0000000000001e20 <TEE_ReadObjectData>:
TEE_ReadObjectData():
/home/thesis/Desktop/optee_rpi3bplus/optee_os/lib/libutee/tee_api_objects.c:651
    1e20:	a9bd7bfd 	stp	x29, x30, [sp, #-48]!
    1e24:	910003fd 	mov	x29, sp
    1e28:	a90153f3 	stp	x19, x20, [sp, #16]
/home/thesis/Desktop/optee_rpi3bplus/optee_os/lib/libutee/tee_api_objects.c:655
    1e2c:	b40002c0 	cbz	x0, 1e84 <TEE_ReadObjectData+0x64>
    1e30:	aa0303f4 	mov	x20, x3
/home/thesis/Desktop/optee_rpi3bplus/optee_os/lib/libutee/tee_api_objects.c:660
    1e34:	b9400063 	ldr	w3, [x3]
/home/thesis/Desktop/optee_rpi3bplus/optee_os/lib/libutee/tee_api_objects.c:661
    1e38:	2a0203e2 	mov	w2, w2
/home/thesis/Desktop/optee_rpi3bplus/optee_os/lib/libutee/tee_api_objects.c:660
    1e3c:	f90017e3 	str	x3, [sp, #40]
/home/thesis/Desktop/optee_rpi3bplus/optee_os/lib/libutee/tee_api_objects.c:661
    1e40:	9100a3e3 	add	x3, sp, #0x28
    1e44:	940001c8 	bl	2564 <utee_storage_obj_read>
    1e48:	2a0003f3 	mov	w19, w0
/home/thesis/Desktop/optee_rpi3bplus/optee_os/lib/libutee/tee_api_objects.c:663
    1e4c:	f94017e0 	ldr	x0, [sp, #40]
    1e50:	b9000280 	str	w0, [x20]
/home/thesis/Desktop/optee_rpi3bplus/optee_os/lib/libutee/tee_api_objects.c:667
    1e54:	121e7a60 	and	w0, w19, #0xfffffffd
/home/thesis/Desktop/optee_rpi3bplus/optee_os/lib/libutee/tee_api_objects.c:666
    1e58:	7100027f 	cmp	w19, #0x0
    1e5c:	52800021 	mov	w1, #0x1                   	// #1
    1e60:	72be0201 	movk	w1, #0xf010, lsl #16
    1e64:	7a411004 	ccmp	w0, w1, #0x4, ne  // ne = any
    1e68:	54000060 	b.eq	1e74 <TEE_ReadObjectData+0x54>  // b.none
/home/thesis/Desktop/optee_rpi3bplus/optee_os/lib/libutee/tee_api_objects.c:669
    1e6c:	2a1303e0 	mov	w0, w19
    1e70:	9400006f 	bl	202c <TEE_Panic>
/home/thesis/Desktop/optee_rpi3bplus/optee_os/lib/libutee/tee_api_objects.c:672
    1e74:	2a1303e0 	mov	w0, w19
    1e78:	a94153f3 	ldp	x19, x20, [sp, #16]
    1e7c:	a8c37bfd 	ldp	x29, x30, [sp], #48
    1e80:	d65f03c0 	ret
/home/thesis/Desktop/optee_rpi3bplus/optee_os/lib/libutee/tee_api_objects.c:656
    1e84:	129fff33 	mov	w19, #0xffff0006            	// #-65530
    1e88:	17fffff3 	b	1e54 <TEE_ReadObjectData+0x34>

0000000000001e8c <TEE_WriteObjectData>:
TEE_WriteObjectData():
/home/thesis/Desktop/optee_rpi3bplus/optee_os/lib/libutee/tee_api_objects.c:676
    1e8c:	a9be7bfd 	stp	x29, x30, [sp, #-32]!
    1e90:	910003fd 	mov	x29, sp
    1e94:	f9000bf3 	str	x19, [sp, #16]
/home/thesis/Desktop/optee_rpi3bplus/optee_os/lib/libutee/tee_api_objects.c:679
    1e98:	b40002a0 	cbz	x0, 1eec <TEE_WriteObjectData+0x60>
/home/thesis/Desktop/optee_rpi3bplus/optee_os/lib/libutee/tee_api_objects.c:689
    1e9c:	2a0203e2 	mov	w2, w2
    1ea0:	940001b4 	bl	2570 <utee_storage_obj_write>
    1ea4:	2a0003f3 	mov	w19, w0
/home/thesis/Desktop/optee_rpi3bplus/optee_os/lib/libutee/tee_api_objects.c:692
    1ea8:	7100027f 	cmp	w19, #0x0
    1eac:	1299f7c0 	mov	w0, #0xffff3041            	// #-53183
    1eb0:	7a401264 	ccmp	w19, w0, #0x4, ne  // ne = any
    1eb4:	54000140 	b.eq	1edc <TEE_WriteObjectData+0x50>  // b.none
/home/thesis/Desktop/optee_rpi3bplus/optee_os/lib/libutee/tee_api_objects.c:695
    1eb8:	121e7a61 	and	w1, w19, #0xfffffffd
/home/thesis/Desktop/optee_rpi3bplus/optee_os/lib/libutee/tee_api_objects.c:694
    1ebc:	52800020 	mov	w0, #0x1                   	// #1
    1ec0:	72be0200 	movk	w0, #0xf010, lsl #16
    1ec4:	6b00003f 	cmp	w1, w0
    1ec8:	1299fe00 	mov	w0, #0xffff300f            	// #-53233
    1ecc:	7a401264 	ccmp	w19, w0, #0x4, ne  // ne = any
    1ed0:	54000060 	b.eq	1edc <TEE_WriteObjectData+0x50>  // b.none
/home/thesis/Desktop/optee_rpi3bplus/optee_os/lib/libutee/tee_api_objects.c:697
    1ed4:	2a1303e0 	mov	w0, w19
    1ed8:	94000055 	bl	202c <TEE_Panic>
/home/thesis/Desktop/optee_rpi3bplus/optee_os/lib/libutee/tee_api_objects.c:700
    1edc:	2a1303e0 	mov	w0, w19
    1ee0:	f9400bf3 	ldr	x19, [sp, #16]
    1ee4:	a8c27bfd 	ldp	x29, x30, [sp], #32
    1ee8:	d65f03c0 	ret
/home/thesis/Desktop/optee_rpi3bplus/optee_os/lib/libutee/tee_api_objects.c:680
    1eec:	129fff33 	mov	w19, #0xffff0006            	// #-65530
    1ef0:	17ffffee 	b	1ea8 <TEE_WriteObjectData+0x1c>

0000000000001ef4 <TEE_TruncateObjectData>:
TEE_TruncateObjectData():
/home/thesis/Desktop/optee_rpi3bplus/optee_os/lib/libutee/tee_api_objects.c:703
    1ef4:	a9be7bfd 	stp	x29, x30, [sp, #-32]!
    1ef8:	910003fd 	mov	x29, sp
    1efc:	f9000bf3 	str	x19, [sp, #16]
/home/thesis/Desktop/optee_rpi3bplus/optee_os/lib/libutee/tee_api_objects.c:706
    1f00:	b4000260 	cbz	x0, 1f4c <TEE_TruncateObjectData+0x58>
/home/thesis/Desktop/optee_rpi3bplus/optee_os/lib/libutee/tee_api_objects.c:711
    1f04:	2a0103e1 	mov	w1, w1
    1f08:	9400019d 	bl	257c <utee_storage_obj_trunc>
    1f0c:	2a0003f3 	mov	w19, w0
/home/thesis/Desktop/optee_rpi3bplus/optee_os/lib/libutee/tee_api_objects.c:714
    1f10:	7100027f 	cmp	w19, #0x0
    1f14:	1299f7c0 	mov	w0, #0xffff3041            	// #-53183
    1f18:	7a401264 	ccmp	w19, w0, #0x4, ne  // ne = any
    1f1c:	54000100 	b.eq	1f3c <TEE_TruncateObjectData+0x48>  // b.none
/home/thesis/Desktop/optee_rpi3bplus/optee_os/lib/libutee/tee_api_objects.c:716
    1f20:	121e7a61 	and	w1, w19, #0xfffffffd
    1f24:	52800020 	mov	w0, #0x1                   	// #1
    1f28:	72be0200 	movk	w0, #0xf010, lsl #16
    1f2c:	6b00003f 	cmp	w1, w0
    1f30:	54000060 	b.eq	1f3c <TEE_TruncateObjectData+0x48>  // b.none
/home/thesis/Desktop/optee_rpi3bplus/optee_os/lib/libutee/tee_api_objects.c:718
    1f34:	2a1303e0 	mov	w0, w19
    1f38:	9400003d 	bl	202c <TEE_Panic>
/home/thesis/Desktop/optee_rpi3bplus/optee_os/lib/libutee/tee_api_objects.c:721
    1f3c:	2a1303e0 	mov	w0, w19
    1f40:	f9400bf3 	ldr	x19, [sp, #16]
    1f44:	a8c27bfd 	ldp	x29, x30, [sp], #32
    1f48:	d65f03c0 	ret
/home/thesis/Desktop/optee_rpi3bplus/optee_os/lib/libutee/tee_api_objects.c:707
    1f4c:	129fff33 	mov	w19, #0xffff0006            	// #-65530
    1f50:	17fffff0 	b	1f10 <TEE_TruncateObjectData+0x1c>

0000000000001f54 <TEE_SeekObjectData>:
TEE_SeekObjectData():
/home/thesis/Desktop/optee_rpi3bplus/optee_os/lib/libutee/tee_api_objects.c:725
    1f54:	a9bb7bfd 	stp	x29, x30, [sp, #-80]!
    1f58:	910003fd 	mov	x29, sp
    1f5c:	a90153f3 	stp	x19, x20, [sp, #16]
    1f60:	a9025bf5 	stp	x21, x22, [sp, #32]
/home/thesis/Desktop/optee_rpi3bplus/optee_os/lib/libutee/tee_api_objects.c:729
    1f64:	b40005c0 	cbz	x0, 201c <TEE_SeekObjectData+0xc8>
    1f68:	aa0003f6 	mov	x22, x0
    1f6c:	2a0103f4 	mov	w20, w1
    1f70:	2a0203f5 	mov	w21, w2
/home/thesis/Desktop/optee_rpi3bplus/optee_os/lib/libutee/tee_api_objects.c:734
    1f74:	9100c3e1 	add	x1, sp, #0x30
    1f78:	9400012d 	bl	242c <utee_cryp_obj_get_info>
    1f7c:	2a0003f3 	mov	w19, w0
/home/thesis/Desktop/optee_rpi3bplus/optee_os/lib/libutee/tee_api_objects.c:735
    1f80:	350000e0 	cbnz	w0, 1f9c <TEE_SeekObjectData+0x48>
/home/thesis/Desktop/optee_rpi3bplus/optee_os/lib/libutee/tee_api_objects.c:738
    1f84:	710006bf 	cmp	w21, #0x1
    1f88:	540002a0 	b.eq	1fdc <TEE_SeekObjectData+0x88>  // b.none
    1f8c:	34000355 	cbz	w21, 1ff4 <TEE_SeekObjectData+0xa0>
    1f90:	71000abf 	cmp	w21, #0x2
    1f94:	540003c0 	b.eq	200c <TEE_SeekObjectData+0xb8>  // b.none
/home/thesis/Desktop/optee_rpi3bplus/optee_os/lib/libutee/tee_api_objects.c:764
    1f98:	129ffef3 	mov	w19, #0xffff0008            	// #-65528
/home/thesis/Desktop/optee_rpi3bplus/optee_os/lib/libutee/tee_api_objects.c:771
    1f9c:	7100027f 	cmp	w19, #0x0
    1fa0:	1299fe00 	mov	w0, #0xffff300f            	// #-53233
    1fa4:	7a401264 	ccmp	w19, w0, #0x4, ne  // ne = any
    1fa8:	54000100 	b.eq	1fc8 <TEE_SeekObjectData+0x74>  // b.none
/home/thesis/Desktop/optee_rpi3bplus/optee_os/lib/libutee/tee_api_objects.c:773
    1fac:	121e7a61 	and	w1, w19, #0xfffffffd
    1fb0:	52800020 	mov	w0, #0x1                   	// #1
    1fb4:	72be0200 	movk	w0, #0xf010, lsl #16
    1fb8:	6b00003f 	cmp	w1, w0
    1fbc:	54000060 	b.eq	1fc8 <TEE_SeekObjectData+0x74>  // b.none
/home/thesis/Desktop/optee_rpi3bplus/optee_os/lib/libutee/tee_api_objects.c:775
    1fc0:	2a1303e0 	mov	w0, w19
    1fc4:	9400001a 	bl	202c <TEE_Panic>
/home/thesis/Desktop/optee_rpi3bplus/optee_os/lib/libutee/tee_api_objects.c:778
    1fc8:	2a1303e0 	mov	w0, w19
    1fcc:	a94153f3 	ldp	x19, x20, [sp, #16]
    1fd0:	a9425bf5 	ldp	x21, x22, [sp, #32]
    1fd4:	a8c57bfd 	ldp	x29, x30, [sp], #80
    1fd8:	d65f03c0 	ret
/home/thesis/Desktop/optee_rpi3bplus/optee_os/lib/libutee/tee_api_objects.c:746
    1fdc:	7100029f 	cmp	w20, #0x0
    1fe0:	540000ad 	b.le	1ff4 <TEE_SeekObjectData+0xa0>
/home/thesis/Desktop/optee_rpi3bplus/optee_os/lib/libutee/tee_api_objects.c:749 (discriminator 1)
    1fe4:	b94047e0 	ldr	w0, [sp, #68]
/home/thesis/Desktop/optee_rpi3bplus/optee_os/lib/libutee/tee_api_objects.c:758 (discriminator 1)
    1fe8:	0b000281 	add	w1, w20, w0
/home/thesis/Desktop/optee_rpi3bplus/optee_os/lib/libutee/tee_api_objects.c:756 (discriminator 1)
    1fec:	6b01001f 	cmp	w0, w1
    1ff0:	540001a8 	b.hi	2024 <TEE_SeekObjectData+0xd0>  // b.pmore
/home/thesis/Desktop/optee_rpi3bplus/optee_os/lib/libutee/tee_api_objects.c:768
    1ff4:	2a1503e2 	mov	w2, w21
    1ff8:	2a1403e1 	mov	w1, w20
    1ffc:	aa1603e0 	mov	x0, x22
    2000:	94000162 	bl	2588 <utee_storage_obj_seek>
    2004:	2a0003f3 	mov	w19, w0
    2008:	17ffffe5 	b	1f9c <TEE_SeekObjectData+0x48>
/home/thesis/Desktop/optee_rpi3bplus/optee_os/lib/libutee/tee_api_objects.c:756
    200c:	7100029f 	cmp	w20, #0x0
    2010:	54ffff2d 	b.le	1ff4 <TEE_SeekObjectData+0xa0>
/home/thesis/Desktop/optee_rpi3bplus/optee_os/lib/libutee/tee_api_objects.c:758 (discriminator 1)
    2014:	b94043e0 	ldr	w0, [sp, #64]
    2018:	17fffff4 	b	1fe8 <TEE_SeekObjectData+0x94>
/home/thesis/Desktop/optee_rpi3bplus/optee_os/lib/libutee/tee_api_objects.c:730
    201c:	129fff33 	mov	w19, #0xffff0006            	// #-65530
    2020:	17ffffdf 	b	1f9c <TEE_SeekObjectData+0x48>
/home/thesis/Desktop/optee_rpi3bplus/optee_os/lib/libutee/tee_api_objects.c:751
    2024:	1299fe13 	mov	w19, #0xffff300f            	// #-53233
    2028:	17ffffdd 	b	1f9c <TEE_SeekObjectData+0x48>

000000000000202c <TEE_Panic>:
TEE_Panic():
/home/thesis/Desktop/optee_rpi3bplus/optee_os/lib/libutee/tee_api_panic.c:12
    202c:	2a0003e0 	mov	w0, w0
    2030:	140000b4 	b	2300 <utee_panic>

0000000000002034 <ta_header_get_session>:
ta_header_get_session():
/home/thesis/Desktop/optee_rpi3bplus/optee_os/lib/libutee/arch/arm/user_ta_entry.c:65
    2034:	2a0003e1 	mov	w1, w0
/home/thesis/Desktop/optee_rpi3bplus/optee_os/lib/libutee/arch/arm/user_ta_entry.c:68
    2038:	b0000060 	adrp	x0, f000 <.got>
    203c:	f941fc00 	ldr	x0, [x0, #1016]
/home/thesis/Desktop/optee_rpi3bplus/optee_os/lib/libutee/arch/arm/user_ta_entry.c:68 (discriminator 1)
    2040:	b5000040 	cbnz	x0, 2048 <ta_header_get_session+0x14>
/home/thesis/Desktop/optee_rpi3bplus/optee_os/lib/libutee/arch/arm/user_ta_entry.c:73
    2044:	d65f03c0 	ret
/home/thesis/Desktop/optee_rpi3bplus/optee_os/lib/libutee/arch/arm/user_ta_entry.c:69
    2048:	b9400002 	ldr	w2, [x0]
    204c:	6b01005f 	cmp	w2, w1
    2050:	54ffffa0 	b.eq	2044 <ta_header_get_session+0x10>  // b.none
/home/thesis/Desktop/optee_rpi3bplus/optee_os/lib/libutee/arch/arm/user_ta_entry.c:68 (discriminator 2)
    2054:	f9400800 	ldr	x0, [x0, #16]
    2058:	17fffffa 	b	2040 <ta_header_get_session+0xc>

000000000000205c <ta_header_remove_session>:
ta_header_remove_session():
/home/thesis/Desktop/optee_rpi3bplus/optee_os/lib/libutee/arch/arm/user_ta_entry.c:102
    205c:	a9be7bfd 	stp	x29, x30, [sp, #-32]!
    2060:	2a0003e2 	mov	w2, w0
    2064:	910003fd 	mov	x29, sp
    2068:	f9000bf3 	str	x19, [sp, #16]
/home/thesis/Desktop/optee_rpi3bplus/optee_os/lib/libutee/arch/arm/user_ta_entry.c:106
    206c:	b0000073 	adrp	x19, f000 <.got>
    2070:	f941fe60 	ldr	x0, [x19, #1016]
/home/thesis/Desktop/optee_rpi3bplus/optee_os/lib/libutee/arch/arm/user_ta_entry.c:106 (discriminator 1)
    2074:	b5000080 	cbnz	x0, 2084 <ta_header_remove_session+0x28>
/home/thesis/Desktop/optee_rpi3bplus/optee_os/lib/libutee/arch/arm/user_ta_entry.c:120
    2078:	f9400bf3 	ldr	x19, [sp, #16]
    207c:	a8c27bfd 	ldp	x29, x30, [sp], #32
    2080:	d65f03c0 	ret
/home/thesis/Desktop/optee_rpi3bplus/optee_os/lib/libutee/arch/arm/user_ta_entry.c:107
    2084:	b9400003 	ldr	w3, [x0]
    2088:	f9400801 	ldr	x1, [x0, #16]
    208c:	6b02007f 	cmp	w3, w2
    2090:	540002c1 	b.ne	20e8 <ta_header_remove_session+0x8c>  // b.any
/home/thesis/Desktop/optee_rpi3bplus/optee_os/lib/libutee/arch/arm/user_ta_entry.c:108
    2094:	f9400c02 	ldr	x2, [x0, #24]
    2098:	b4000221 	cbz	x1, 20dc <ta_header_remove_session+0x80>
/home/thesis/Desktop/optee_rpi3bplus/optee_os/lib/libutee/arch/arm/user_ta_entry.c:108 (discriminator 1)
    209c:	f9000c22 	str	x2, [x1, #24]
/home/thesis/Desktop/optee_rpi3bplus/optee_os/lib/libutee/arch/arm/user_ta_entry.c:108 (discriminator 4)
    20a0:	f9400c02 	ldr	x2, [x0, #24]
    20a4:	f9000041 	str	x1, [x2]
/home/thesis/Desktop/optee_rpi3bplus/optee_os/lib/libutee/arch/arm/user_ta_entry.c:109 (discriminator 4)
    20a8:	94000272 	bl	2a70 <TEE_Free>
/home/thesis/Desktop/optee_rpi3bplus/optee_os/lib/libutee/arch/arm/user_ta_entry.c:114 (discriminator 4)
    20ac:	f941fe60 	ldr	x0, [x19, #1016]
    20b0:	b5fffe40 	cbnz	x0, 2078 <ta_header_remove_session+0x1c>
/home/thesis/Desktop/optee_rpi3bplus/optee_os/lib/libutee/arch/arm/user_ta_entry.c:112 (discriminator 1)
    20b4:	b0000060 	adrp	x0, f000 <.got>
    20b8:	52800281 	mov	w1, #0x14                  	// #20
    20bc:	f9403c00 	ldr	x0, [x0, #120]
    20c0:	b9401400 	ldr	w0, [x0, #20]
    20c4:	0a010000 	and	w0, w0, w1
/home/thesis/Desktop/optee_rpi3bplus/optee_os/lib/libutee/arch/arm/user_ta_entry.c:114 (discriminator 1)
    20c8:	6b01001f 	cmp	w0, w1
    20cc:	54fffd60 	b.eq	2078 <ta_header_remove_session+0x1c>  // b.none
/home/thesis/Desktop/optee_rpi3bplus/optee_os/lib/libutee/arch/arm/user_ta_entry.c:120
    20d0:	f9400bf3 	ldr	x19, [sp, #16]
    20d4:	a8c27bfd 	ldp	x29, x30, [sp], #32
uninit_instance():
/home/thesis/Desktop/optee_rpi3bplus/optee_os/lib/libutee/arch/arm/user_ta_entry.c:50
    20d8:	17fff7d5 	b	2c <TA_DestroyEntryPoint>
ta_header_remove_session():
/home/thesis/Desktop/optee_rpi3bplus/optee_os/lib/libutee/arch/arm/user_ta_entry.c:108 (discriminator 2)
    20dc:	910fe263 	add	x3, x19, #0x3f8
    20e0:	f9000462 	str	x2, [x3, #8]
    20e4:	17ffffef 	b	20a0 <ta_header_remove_session+0x44>
    20e8:	aa0103e0 	mov	x0, x1
    20ec:	17ffffe2 	b	2074 <ta_header_remove_session+0x18>

00000000000020f0 <ta_header_save_params.part.0>:
ta_header_save_params():
/home/thesis/Desktop/optee_rpi3bplus/optee_os/lib/libutee/arch/arm/user_ta_entry.c:61
    20f0:	b0000060 	adrp	x0, f000 <.got>
    20f4:	d2800802 	mov	x2, #0x40                  	// #64
    20f8:	52800001 	mov	w1, #0x0                   	// #0
    20fc:	f9403800 	ldr	x0, [x0, #112]
    2100:	17fffc66 	b	1298 <memset>

0000000000002104 <__utee_entry>:
__utee_entry():
/home/thesis/Desktop/optee_rpi3bplus/optee_os/lib/libutee/arch/arm/user_ta_entry.c:187
    2104:	a9b77bfd 	stp	x29, x30, [sp, #-144]!
/home/thesis/Desktop/optee_rpi3bplus/optee_os/lib/libutee/arch/arm/user_ta_entry.c:198
    2108:	f100041f 	cmp	x0, #0x1
/home/thesis/Desktop/optee_rpi3bplus/optee_os/lib/libutee/arch/arm/user_ta_entry.c:187
    210c:	910003fd 	mov	x29, sp
    2110:	a90153f3 	stp	x19, x20, [sp, #16]
    2114:	b0000074 	adrp	x20, f000 <.got>
    2118:	a9025bf5 	stp	x21, x22, [sp, #32]
    211c:	aa0103f5 	mov	x21, x1
    2120:	a90363f7 	stp	x23, x24, [sp, #48]
/home/thesis/Desktop/optee_rpi3bplus/optee_os/lib/libutee/arch/arm/user_ta_entry.c:198
    2124:	54000a00 	b.eq	2264 <__utee_entry+0x160>  // b.none
    2128:	aa0203f7 	mov	x23, x2
    212c:	b40000e0 	cbz	x0, 2148 <__utee_entry+0x44>
    2130:	f100081f 	cmp	x0, #0x2
    2134:	54000aa0 	b.eq	2288 <__utee_entry+0x184>  // b.none
/home/thesis/Desktop/optee_rpi3bplus/optee_os/lib/libutee/arch/arm/user_ta_entry.c:210
    2138:	52800000 	mov	w0, #0x0                   	// #0
/home/thesis/Desktop/optee_rpi3bplus/optee_os/lib/libutee/arch/arm/user_ta_entry.c:209
    213c:	12800013 	mov	w19, #0xffffffff            	// #-1
/home/thesis/Desktop/optee_rpi3bplus/optee_os/lib/libutee/arch/arm/user_ta_entry.c:210
    2140:	97ffffbb 	bl	202c <TEE_Panic>
/home/thesis/Desktop/optee_rpi3bplus/optee_os/lib/libutee/arch/arm/user_ta_entry.c:211
    2144:	14000019 	b	21a8 <__utee_entry+0xa4>
ta_header_add_session():
/home/thesis/Desktop/optee_rpi3bplus/optee_os/lib/libutee/arch/arm/user_ta_entry.c:77
    2148:	2a0103e0 	mov	w0, w1
    214c:	97ffffba 	bl	2034 <ta_header_get_session>
/home/thesis/Desktop/optee_rpi3bplus/optee_os/lib/libutee/arch/arm/user_ta_entry.c:80
    2150:	b5000500 	cbnz	x0, 21f0 <__utee_entry+0xec>
/home/thesis/Desktop/optee_rpi3bplus/optee_os/lib/libutee/arch/arm/user_ta_entry.c:83
    2154:	900000c0 	adrp	x0, 1a000 <ta_heap+0x7b68>
    2158:	39526001 	ldrb	w1, [x0, #1176]
    215c:	340000e1 	cbz	w1, 2178 <__utee_entry+0x74>
/home/thesis/Desktop/optee_rpi3bplus/optee_os/lib/libutee/arch/arm/user_ta_entry.c:90
    2160:	52b00001 	mov	w1, #0x80000000            	// #-2147483648
    2164:	52800400 	mov	w0, #0x20                  	// #32
    2168:	94000229 	bl	2a0c <TEE_Malloc>
/home/thesis/Desktop/optee_rpi3bplus/optee_os/lib/libutee/arch/arm/user_ta_entry.c:92
    216c:	b5000300 	cbnz	x0, 21cc <__utee_entry+0xc8>
/home/thesis/Desktop/optee_rpi3bplus/optee_os/lib/libutee/arch/arm/user_ta_entry.c:93
    2170:	129ffe73 	mov	w19, #0xffff000c            	// #-65524
    2174:	1400000d 	b	21a8 <__utee_entry+0xa4>
/home/thesis/Desktop/optee_rpi3bplus/optee_os/lib/libutee/arch/arm/user_ta_entry.c:84
    2178:	52800021 	mov	w1, #0x1                   	// #1
    217c:	39126001 	strb	w1, [x0, #1176]
init_instance():
/home/thesis/Desktop/optee_rpi3bplus/optee_os/lib/libutee/arch/arm/user_ta_entry.c:40
    2180:	97fff938 	bl	660 <tahead_get_trace_level>
    2184:	94001f77 	bl	9f60 <trace_set_level>
/home/thesis/Desktop/optee_rpi3bplus/optee_os/lib/libutee/arch/arm/user_ta_entry.c:42
    2188:	f9401280 	ldr	x0, [x20, #32]
    218c:	f9400001 	ldr	x1, [x0]
    2190:	f9402a80 	ldr	x0, [x20, #80]
    2194:	97fffb77 	bl	f70 <malloc_add_pool>
/home/thesis/Desktop/optee_rpi3bplus/optee_os/lib/libutee/arch/arm/user_ta_entry.c:43
    2198:	9400043f 	bl	3294 <_TEE_MathAPI_Init>
/home/thesis/Desktop/optee_rpi3bplus/optee_os/lib/libutee/arch/arm/user_ta_entry.c:44
    219c:	97fff7a1 	bl	20 <TA_CreateEntryPoint>
    21a0:	2a0003f3 	mov	w19, w0
ta_header_add_session():
/home/thesis/Desktop/optee_rpi3bplus/optee_os/lib/libutee/arch/arm/user_ta_entry.c:86
    21a4:	34fffde0 	cbz	w0, 2160 <__utee_entry+0x5c>
ta_header_save_params():
/home/thesis/Desktop/optee_rpi3bplus/optee_os/lib/libutee/arch/arm/user_ta_entry.c:56
    21a8:	f9403294 	ldr	x20, [x20, #96]
    21ac:	b900029f 	str	wzr, [x20]
/home/thesis/Desktop/optee_rpi3bplus/optee_os/lib/libutee/arch/arm/user_ta_entry.c:58
    21b0:	97ffffd0 	bl	20f0 <ta_header_save_params.part.0>
__utee_entry():
/home/thesis/Desktop/optee_rpi3bplus/optee_os/lib/libutee/arch/arm/user_ta_entry.c:216
    21b4:	2a1303e0 	mov	w0, w19
    21b8:	a94153f3 	ldp	x19, x20, [sp, #16]
    21bc:	a9425bf5 	ldp	x21, x22, [sp, #32]
    21c0:	a94363f7 	ldp	x23, x24, [sp, #48]
    21c4:	a8c97bfd 	ldp	x29, x30, [sp], #144
    21c8:	d65f03c0 	ret
ta_header_add_session():
/home/thesis/Desktop/optee_rpi3bplus/optee_os/lib/libutee/arch/arm/user_ta_entry.c:96
    21cc:	b0000061 	adrp	x1, f000 <.got>
    21d0:	910fe021 	add	x1, x1, #0x3f8
    21d4:	f9400422 	ldr	x2, [x1, #8]
/home/thesis/Desktop/optee_rpi3bplus/optee_os/lib/libutee/arch/arm/user_ta_entry.c:94
    21d8:	b9000015 	str	w21, [x0]
/home/thesis/Desktop/optee_rpi3bplus/optee_os/lib/libutee/arch/arm/user_ta_entry.c:96
    21dc:	a900fc1f 	stp	xzr, xzr, [x0, #8]
    21e0:	f9000c02 	str	x2, [x0, #24]
    21e4:	f9000040 	str	x0, [x2]
    21e8:	91004000 	add	x0, x0, #0x10
    21ec:	f9000420 	str	x0, [x1, #8]
entry_open_session():
/home/thesis/Desktop/optee_rpi3bplus/optee_os/lib/libutee/arch/arm/user_ta_entry.c:134
    21f0:	2a1503e0 	mov	w0, w21
    21f4:	97ffff90 	bl	2034 <ta_header_get_session>
    21f8:	aa0003f8 	mov	x24, x0
/home/thesis/Desktop/optee_rpi3bplus/optee_os/lib/libutee/arch/arm/user_ta_entry.c:135
    21fc:	b40007e0 	cbz	x0, 22f8 <__utee_entry+0x1f4>
/home/thesis/Desktop/optee_rpi3bplus/optee_os/lib/libutee/arch/arm/user_ta_entry.c:138
    2200:	910143f6 	add	x22, sp, #0x50
    2204:	aa1703e2 	mov	x2, x23
    2208:	910133e1 	add	x1, sp, #0x4c
    220c:	aa1603e0 	mov	x0, x22
    2210:	94000105 	bl	2624 <__utee_to_param>
/home/thesis/Desktop/optee_rpi3bplus/optee_os/lib/libutee/arch/arm/user_ta_entry.c:139
    2214:	b9404ff3 	ldr	w19, [sp, #76]
ta_header_save_params():
/home/thesis/Desktop/optee_rpi3bplus/optee_os/lib/libutee/arch/arm/user_ta_entry.c:56
    2218:	f9403280 	ldr	x0, [x20, #96]
/home/thesis/Desktop/optee_rpi3bplus/optee_os/lib/libutee/arch/arm/user_ta_entry.c:59
    221c:	d2800802 	mov	x2, #0x40                  	// #64
    2220:	aa1603e1 	mov	x1, x22
/home/thesis/Desktop/optee_rpi3bplus/optee_os/lib/libutee/arch/arm/user_ta_entry.c:56
    2224:	b9000013 	str	w19, [x0]
/home/thesis/Desktop/optee_rpi3bplus/optee_os/lib/libutee/arch/arm/user_ta_entry.c:59
    2228:	f9403a80 	ldr	x0, [x20, #112]
    222c:	97fffc13 	bl	1278 <memcpy>
entry_open_session():
/home/thesis/Desktop/optee_rpi3bplus/optee_os/lib/libutee/arch/arm/user_ta_entry.c:141
    2230:	91002302 	add	x2, x24, #0x8
    2234:	aa1603e1 	mov	x1, x22
    2238:	2a1303e0 	mov	w0, w19
    223c:	97fff782 	bl	44 <TA_OpenSessionEntryPoint>
/home/thesis/Desktop/optee_rpi3bplus/optee_os/lib/libutee/arch/arm/user_ta_entry.c:144
    2240:	b9404fe1 	ldr	w1, [sp, #76]
/home/thesis/Desktop/optee_rpi3bplus/optee_os/lib/libutee/arch/arm/user_ta_entry.c:141
    2244:	2a0003f3 	mov	w19, w0
/home/thesis/Desktop/optee_rpi3bplus/optee_os/lib/libutee/arch/arm/user_ta_entry.c:144
    2248:	aa1603e2 	mov	x2, x22
    224c:	aa1703e0 	mov	x0, x23
    2250:	940000d7 	bl	25ac <__utee_from_param>
/home/thesis/Desktop/optee_rpi3bplus/optee_os/lib/libutee/arch/arm/user_ta_entry.c:146
    2254:	34fffab3 	cbz	w19, 21a8 <__utee_entry+0xa4>
/home/thesis/Desktop/optee_rpi3bplus/optee_os/lib/libutee/arch/arm/user_ta_entry.c:147
    2258:	2a1503e0 	mov	w0, w21
    225c:	97ffff80 	bl	205c <ta_header_remove_session>
    2260:	17ffffd2 	b	21a8 <__utee_entry+0xa4>
entry_close_session():
/home/thesis/Desktop/optee_rpi3bplus/optee_os/lib/libutee/arch/arm/user_ta_entry.c:153
    2264:	2a0103e0 	mov	w0, w1
    2268:	97ffff73 	bl	2034 <ta_header_get_session>
/home/thesis/Desktop/optee_rpi3bplus/optee_os/lib/libutee/arch/arm/user_ta_entry.c:155
    226c:	b4000460 	cbz	x0, 22f8 <__utee_entry+0x1f4>
/home/thesis/Desktop/optee_rpi3bplus/optee_os/lib/libutee/arch/arm/user_ta_entry.c:158
    2270:	f9400400 	ldr	x0, [x0, #8]
/home/thesis/Desktop/optee_rpi3bplus/optee_os/lib/libutee/arch/arm/user_ta_entry.c:161
    2274:	52800013 	mov	w19, #0x0                   	// #0
/home/thesis/Desktop/optee_rpi3bplus/optee_os/lib/libutee/arch/arm/user_ta_entry.c:158
    2278:	97fff777 	bl	54 <TA_CloseSessionEntryPoint>
/home/thesis/Desktop/optee_rpi3bplus/optee_os/lib/libutee/arch/arm/user_ta_entry.c:160
    227c:	2a1503e0 	mov	w0, w21
    2280:	97ffff77 	bl	205c <ta_header_remove_session>
/home/thesis/Desktop/optee_rpi3bplus/optee_os/lib/libutee/arch/arm/user_ta_entry.c:161
    2284:	17ffffc9 	b	21a8 <__utee_entry+0xa4>
entry_invoke_command():
/home/thesis/Desktop/optee_rpi3bplus/optee_os/lib/libutee/arch/arm/user_ta_entry.c:170
    2288:	2a0103e0 	mov	w0, w1
    228c:	97ffff6a 	bl	2034 <ta_header_get_session>
    2290:	aa0003f3 	mov	x19, x0
/home/thesis/Desktop/optee_rpi3bplus/optee_os/lib/libutee/arch/arm/user_ta_entry.c:172
    2294:	b4000320 	cbz	x0, 22f8 <__utee_entry+0x1f4>
/home/thesis/Desktop/optee_rpi3bplus/optee_os/lib/libutee/arch/arm/user_ta_entry.c:175
    2298:	910143f5 	add	x21, sp, #0x50
    229c:	aa0303f8 	mov	x24, x3
    22a0:	aa1703e2 	mov	x2, x23
    22a4:	910133e1 	add	x1, sp, #0x4c
    22a8:	aa1503e0 	mov	x0, x21
    22ac:	940000de 	bl	2624 <__utee_to_param>
ta_header_save_params():
/home/thesis/Desktop/optee_rpi3bplus/optee_os/lib/libutee/arch/arm/user_ta_entry.c:56
    22b0:	f9403280 	ldr	x0, [x20, #96]
/home/thesis/Desktop/optee_rpi3bplus/optee_os/lib/libutee/arch/arm/user_ta_entry.c:59
    22b4:	aa1503e1 	mov	x1, x21
entry_invoke_command():
/home/thesis/Desktop/optee_rpi3bplus/optee_os/lib/libutee/arch/arm/user_ta_entry.c:176
    22b8:	b9404ff6 	ldr	w22, [sp, #76]
ta_header_save_params():
/home/thesis/Desktop/optee_rpi3bplus/optee_os/lib/libutee/arch/arm/user_ta_entry.c:59
    22bc:	d2800802 	mov	x2, #0x40                  	// #64
/home/thesis/Desktop/optee_rpi3bplus/optee_os/lib/libutee/arch/arm/user_ta_entry.c:56
    22c0:	b9000016 	str	w22, [x0]
/home/thesis/Desktop/optee_rpi3bplus/optee_os/lib/libutee/arch/arm/user_ta_entry.c:59
    22c4:	f9403a80 	ldr	x0, [x20, #112]
    22c8:	97fffbec 	bl	1278 <memcpy>
entry_invoke_command():
/home/thesis/Desktop/optee_rpi3bplus/optee_os/lib/libutee/arch/arm/user_ta_entry.c:178
    22cc:	f9400660 	ldr	x0, [x19, #8]
    22d0:	2a1603e2 	mov	w2, w22
    22d4:	2a1803e1 	mov	w1, w24
    22d8:	aa1503e3 	mov	x3, x21
    22dc:	97fff75f 	bl	58 <TA_InvokeCommandEntryPoint>
    22e0:	2a0003f3 	mov	w19, w0
/home/thesis/Desktop/optee_rpi3bplus/optee_os/lib/libutee/arch/arm/user_ta_entry.c:181
    22e4:	b9404fe1 	ldr	w1, [sp, #76]
    22e8:	aa1503e2 	mov	x2, x21
    22ec:	aa1703e0 	mov	x0, x23
    22f0:	940000af 	bl	25ac <__utee_from_param>
/home/thesis/Desktop/optee_rpi3bplus/optee_os/lib/libutee/arch/arm/user_ta_entry.c:182
    22f4:	17ffffad 	b	21a8 <__utee_entry+0xa4>
entry_close_session():
/home/thesis/Desktop/optee_rpi3bplus/optee_os/lib/libutee/arch/arm/user_ta_entry.c:156
    22f8:	129fff13 	mov	w19, #0xffff0007            	// #-65529
    22fc:	17ffffab 	b	21a8 <__utee_entry+0xa4>

0000000000002300 <utee_panic>:
utee_panic():
/home/thesis/Desktop/optee_rpi3bplus/optee_os/lib/libutee/arch/arm/utee_syscalls_a64.S:24
    2300:	a9bf7bfd 	stp	x29, x30, [sp, #-16]!
/home/thesis/Desktop/optee_rpi3bplus/optee_os/lib/libutee/arch/arm/utee_syscalls_a64.S:25
    2304:	910003e1 	mov	x1, sp
/home/thesis/Desktop/optee_rpi3bplus/optee_os/lib/libutee/arch/arm/utee_syscalls_a64.S:26
    2308:	94000007 	bl	2324 <__utee_panic>

000000000000230c <utee_return>:
utee_return():
/home/thesis/Desktop/optee_rpi3bplus/optee_os/lib/libutee/arch/arm/utee_syscalls_asm.S:8
    230c:	d2800008 	mov	x8, #0x0                   	// #0
    2310:	d4000001 	svc	#0x0
    2314:	d65f03c0 	ret

0000000000002318 <utee_log>:
utee_log():
/home/thesis/Desktop/optee_rpi3bplus/optee_os/lib/libutee/arch/arm/utee_syscalls_asm.S:10
    2318:	d2800028 	mov	x8, #0x1                   	// #1
    231c:	d4000001 	svc	#0x0
    2320:	d65f03c0 	ret

0000000000002324 <__utee_panic>:
__utee_panic():
/home/thesis/Desktop/optee_rpi3bplus/optee_os/lib/libutee/arch/arm/utee_syscalls_asm.S:12
    2324:	d2800048 	mov	x8, #0x2                   	// #2
    2328:	d4000001 	svc	#0x0
    232c:	d65f03c0 	ret

0000000000002330 <utee_get_property>:
utee_get_property():
/home/thesis/Desktop/optee_rpi3bplus/optee_os/lib/libutee/arch/arm/utee_syscalls_asm.S:14
    2330:	d2800068 	mov	x8, #0x3                   	// #3
    2334:	d4000001 	svc	#0x0
    2338:	d65f03c0 	ret

000000000000233c <utee_get_property_name_to_index>:
utee_get_property_name_to_index():
/home/thesis/Desktop/optee_rpi3bplus/optee_os/lib/libutee/arch/arm/utee_syscalls_asm.S:16
    233c:	d2800088 	mov	x8, #0x4                   	// #4
    2340:	d4000001 	svc	#0x0
    2344:	d65f03c0 	ret

0000000000002348 <utee_open_ta_session>:
utee_open_ta_session():
/home/thesis/Desktop/optee_rpi3bplus/optee_os/lib/libutee/arch/arm/utee_syscalls_asm.S:19
    2348:	d28000a8 	mov	x8, #0x5                   	// #5
    234c:	d4000001 	svc	#0x0
    2350:	d65f03c0 	ret

0000000000002354 <utee_close_ta_session>:
utee_close_ta_session():
/home/thesis/Desktop/optee_rpi3bplus/optee_os/lib/libutee/arch/arm/utee_syscalls_asm.S:21
    2354:	d28000c8 	mov	x8, #0x6                   	// #6
    2358:	d4000001 	svc	#0x0
    235c:	d65f03c0 	ret

0000000000002360 <utee_invoke_ta_command>:
utee_invoke_ta_command():
/home/thesis/Desktop/optee_rpi3bplus/optee_os/lib/libutee/arch/arm/utee_syscalls_asm.S:23
    2360:	d28000e8 	mov	x8, #0x7                   	// #7
    2364:	d4000001 	svc	#0x0
    2368:	d65f03c0 	ret

000000000000236c <utee_get_cancellation_flag>:
utee_get_cancellation_flag():
/home/thesis/Desktop/optee_rpi3bplus/optee_os/lib/libutee/arch/arm/utee_syscalls_asm.S:25
    236c:	d2800128 	mov	x8, #0x9                   	// #9
    2370:	d4000001 	svc	#0x0
    2374:	d65f03c0 	ret

0000000000002378 <utee_check_access_rights>:
utee_check_access_rights():
/home/thesis/Desktop/optee_rpi3bplus/optee_os/lib/libutee/arch/arm/utee_syscalls_asm.S:28
    2378:	d2800108 	mov	x8, #0x8                   	// #8
    237c:	d4000001 	svc	#0x0
    2380:	d65f03c0 	ret

0000000000002384 <utee_unmask_cancellation>:
utee_unmask_cancellation():
/home/thesis/Desktop/optee_rpi3bplus/optee_os/lib/libutee/arch/arm/utee_syscalls_asm.S:30
    2384:	d2800148 	mov	x8, #0xa                   	// #10
    2388:	d4000001 	svc	#0x0
    238c:	d65f03c0 	ret

0000000000002390 <utee_mask_cancellation>:
utee_mask_cancellation():
/home/thesis/Desktop/optee_rpi3bplus/optee_os/lib/libutee/arch/arm/utee_syscalls_asm.S:32
    2390:	d2800168 	mov	x8, #0xb                   	// #11
    2394:	d4000001 	svc	#0x0
    2398:	d65f03c0 	ret

000000000000239c <utee_wait>:
utee_wait():
/home/thesis/Desktop/optee_rpi3bplus/optee_os/lib/libutee/arch/arm/utee_syscalls_asm.S:34
    239c:	d2800188 	mov	x8, #0xc                   	// #12
    23a0:	d4000001 	svc	#0x0
    23a4:	d65f03c0 	ret

00000000000023a8 <utee_get_time>:
utee_get_time():
/home/thesis/Desktop/optee_rpi3bplus/optee_os/lib/libutee/arch/arm/utee_syscalls_asm.S:36
    23a8:	d28001a8 	mov	x8, #0xd                   	// #13
    23ac:	d4000001 	svc	#0x0
    23b0:	d65f03c0 	ret

00000000000023b4 <utee_set_ta_time>:
utee_set_ta_time():
/home/thesis/Desktop/optee_rpi3bplus/optee_os/lib/libutee/arch/arm/utee_syscalls_asm.S:38
    23b4:	d28001c8 	mov	x8, #0xe                   	// #14
    23b8:	d4000001 	svc	#0x0
    23bc:	d65f03c0 	ret

00000000000023c0 <utee_cryp_state_alloc>:
utee_cryp_state_alloc():
/home/thesis/Desktop/optee_rpi3bplus/optee_os/lib/libutee/arch/arm/utee_syscalls_asm.S:40
    23c0:	d28001e8 	mov	x8, #0xf                   	// #15
    23c4:	d4000001 	svc	#0x0
    23c8:	d65f03c0 	ret

00000000000023cc <utee_cryp_state_copy>:
utee_cryp_state_copy():
/home/thesis/Desktop/optee_rpi3bplus/optee_os/lib/libutee/arch/arm/utee_syscalls_asm.S:42
    23cc:	d2800208 	mov	x8, #0x10                  	// #16
    23d0:	d4000001 	svc	#0x0
    23d4:	d65f03c0 	ret

00000000000023d8 <utee_cryp_state_free>:
utee_cryp_state_free():
/home/thesis/Desktop/optee_rpi3bplus/optee_os/lib/libutee/arch/arm/utee_syscalls_asm.S:44
    23d8:	d2800228 	mov	x8, #0x11                  	// #17
    23dc:	d4000001 	svc	#0x0
    23e0:	d65f03c0 	ret

00000000000023e4 <utee_hash_init>:
utee_hash_init():
/home/thesis/Desktop/optee_rpi3bplus/optee_os/lib/libutee/arch/arm/utee_syscalls_asm.S:46
    23e4:	d2800248 	mov	x8, #0x12                  	// #18
    23e8:	d4000001 	svc	#0x0
    23ec:	d65f03c0 	ret

00000000000023f0 <utee_hash_update>:
utee_hash_update():
/home/thesis/Desktop/optee_rpi3bplus/optee_os/lib/libutee/arch/arm/utee_syscalls_asm.S:48
    23f0:	d2800268 	mov	x8, #0x13                  	// #19
    23f4:	d4000001 	svc	#0x0
    23f8:	d65f03c0 	ret

00000000000023fc <utee_hash_final>:
utee_hash_final():
/home/thesis/Desktop/optee_rpi3bplus/optee_os/lib/libutee/arch/arm/utee_syscalls_asm.S:50
    23fc:	d2800288 	mov	x8, #0x14                  	// #20
    2400:	d4000001 	svc	#0x0
    2404:	d65f03c0 	ret

0000000000002408 <utee_cipher_init>:
utee_cipher_init():
/home/thesis/Desktop/optee_rpi3bplus/optee_os/lib/libutee/arch/arm/utee_syscalls_asm.S:52
    2408:	d28002a8 	mov	x8, #0x15                  	// #21
    240c:	d4000001 	svc	#0x0
    2410:	d65f03c0 	ret

0000000000002414 <utee_cipher_update>:
utee_cipher_update():
/home/thesis/Desktop/optee_rpi3bplus/optee_os/lib/libutee/arch/arm/utee_syscalls_asm.S:54
    2414:	d28002c8 	mov	x8, #0x16                  	// #22
    2418:	d4000001 	svc	#0x0
    241c:	d65f03c0 	ret

0000000000002420 <utee_cipher_final>:
utee_cipher_final():
/home/thesis/Desktop/optee_rpi3bplus/optee_os/lib/libutee/arch/arm/utee_syscalls_asm.S:56
    2420:	d28002e8 	mov	x8, #0x17                  	// #23
    2424:	d4000001 	svc	#0x0
    2428:	d65f03c0 	ret

000000000000242c <utee_cryp_obj_get_info>:
utee_cryp_obj_get_info():
/home/thesis/Desktop/optee_rpi3bplus/optee_os/lib/libutee/arch/arm/utee_syscalls_asm.S:58
    242c:	d2800308 	mov	x8, #0x18                  	// #24
    2430:	d4000001 	svc	#0x0
    2434:	d65f03c0 	ret

0000000000002438 <utee_cryp_obj_restrict_usage>:
utee_cryp_obj_restrict_usage():
/home/thesis/Desktop/optee_rpi3bplus/optee_os/lib/libutee/arch/arm/utee_syscalls_asm.S:60
    2438:	d2800328 	mov	x8, #0x19                  	// #25
    243c:	d4000001 	svc	#0x0
    2440:	d65f03c0 	ret

0000000000002444 <utee_cryp_obj_get_attr>:
utee_cryp_obj_get_attr():
/home/thesis/Desktop/optee_rpi3bplus/optee_os/lib/libutee/arch/arm/utee_syscalls_asm.S:63
    2444:	d2800348 	mov	x8, #0x1a                  	// #26
    2448:	d4000001 	svc	#0x0
    244c:	d65f03c0 	ret

0000000000002450 <utee_cryp_obj_alloc>:
utee_cryp_obj_alloc():
/home/thesis/Desktop/optee_rpi3bplus/optee_os/lib/libutee/arch/arm/utee_syscalls_asm.S:65
    2450:	d2800368 	mov	x8, #0x1b                  	// #27
    2454:	d4000001 	svc	#0x0
    2458:	d65f03c0 	ret

000000000000245c <utee_cryp_obj_close>:
utee_cryp_obj_close():
/home/thesis/Desktop/optee_rpi3bplus/optee_os/lib/libutee/arch/arm/utee_syscalls_asm.S:67
    245c:	d2800388 	mov	x8, #0x1c                  	// #28
    2460:	d4000001 	svc	#0x0
    2464:	d65f03c0 	ret

0000000000002468 <utee_cryp_obj_reset>:
utee_cryp_obj_reset():
/home/thesis/Desktop/optee_rpi3bplus/optee_os/lib/libutee/arch/arm/utee_syscalls_asm.S:69
    2468:	d28003a8 	mov	x8, #0x1d                  	// #29
    246c:	d4000001 	svc	#0x0
    2470:	d65f03c0 	ret

0000000000002474 <utee_cryp_obj_populate>:
utee_cryp_obj_populate():
/home/thesis/Desktop/optee_rpi3bplus/optee_os/lib/libutee/arch/arm/utee_syscalls_asm.S:71
    2474:	d28003c8 	mov	x8, #0x1e                  	// #30
    2478:	d4000001 	svc	#0x0
    247c:	d65f03c0 	ret

0000000000002480 <utee_cryp_obj_copy>:
utee_cryp_obj_copy():
/home/thesis/Desktop/optee_rpi3bplus/optee_os/lib/libutee/arch/arm/utee_syscalls_asm.S:73
    2480:	d28003e8 	mov	x8, #0x1f                  	// #31
    2484:	d4000001 	svc	#0x0
    2488:	d65f03c0 	ret

000000000000248c <utee_cryp_derive_key>:
utee_cryp_derive_key():
/home/thesis/Desktop/optee_rpi3bplus/optee_os/lib/libutee/arch/arm/utee_syscalls_asm.S:75
    248c:	d2800408 	mov	x8, #0x20                  	// #32
    2490:	d4000001 	svc	#0x0
    2494:	d65f03c0 	ret

0000000000002498 <utee_cryp_random_number_generate>:
utee_cryp_random_number_generate():
/home/thesis/Desktop/optee_rpi3bplus/optee_os/lib/libutee/arch/arm/utee_syscalls_asm.S:77
    2498:	d2800428 	mov	x8, #0x21                  	// #33
    249c:	d4000001 	svc	#0x0
    24a0:	d65f03c0 	ret

00000000000024a4 <utee_authenc_init>:
utee_authenc_init():
/home/thesis/Desktop/optee_rpi3bplus/optee_os/lib/libutee/arch/arm/utee_syscalls_asm.S:80
    24a4:	d2800448 	mov	x8, #0x22                  	// #34
    24a8:	d4000001 	svc	#0x0
    24ac:	d65f03c0 	ret

00000000000024b0 <utee_authenc_update_aad>:
utee_authenc_update_aad():
/home/thesis/Desktop/optee_rpi3bplus/optee_os/lib/libutee/arch/arm/utee_syscalls_asm.S:82
    24b0:	d2800468 	mov	x8, #0x23                  	// #35
    24b4:	d4000001 	svc	#0x0
    24b8:	d65f03c0 	ret

00000000000024bc <utee_authenc_update_payload>:
utee_authenc_update_payload():
/home/thesis/Desktop/optee_rpi3bplus/optee_os/lib/libutee/arch/arm/utee_syscalls_asm.S:84
    24bc:	d2800488 	mov	x8, #0x24                  	// #36
    24c0:	d4000001 	svc	#0x0
    24c4:	d65f03c0 	ret

00000000000024c8 <utee_authenc_enc_final>:
utee_authenc_enc_final():
/home/thesis/Desktop/optee_rpi3bplus/optee_os/lib/libutee/arch/arm/utee_syscalls_asm.S:87
    24c8:	d28004a8 	mov	x8, #0x25                  	// #37
    24cc:	d4000001 	svc	#0x0
    24d0:	d65f03c0 	ret

00000000000024d4 <utee_authenc_dec_final>:
utee_authenc_dec_final():
/home/thesis/Desktop/optee_rpi3bplus/optee_os/lib/libutee/arch/arm/utee_syscalls_asm.S:89
    24d4:	d28004c8 	mov	x8, #0x26                  	// #38
    24d8:	d4000001 	svc	#0x0
    24dc:	d65f03c0 	ret

00000000000024e0 <utee_asymm_operate>:
utee_asymm_operate():
/home/thesis/Desktop/optee_rpi3bplus/optee_os/lib/libutee/arch/arm/utee_syscalls_asm.S:91
    24e0:	d28004e8 	mov	x8, #0x27                  	// #39
    24e4:	d4000001 	svc	#0x0
    24e8:	d65f03c0 	ret

00000000000024ec <utee_asymm_verify>:
utee_asymm_verify():
/home/thesis/Desktop/optee_rpi3bplus/optee_os/lib/libutee/arch/arm/utee_syscalls_asm.S:93
    24ec:	d2800508 	mov	x8, #0x28                  	// #40
    24f0:	d4000001 	svc	#0x0
    24f4:	d65f03c0 	ret

00000000000024f8 <utee_storage_obj_open>:
utee_storage_obj_open():
/home/thesis/Desktop/optee_rpi3bplus/optee_os/lib/libutee/arch/arm/utee_syscalls_asm.S:95
    24f8:	d2800528 	mov	x8, #0x29                  	// #41
    24fc:	d4000001 	svc	#0x0
    2500:	d65f03c0 	ret

0000000000002504 <utee_storage_obj_create>:
utee_storage_obj_create():
/home/thesis/Desktop/optee_rpi3bplus/optee_os/lib/libutee/arch/arm/utee_syscalls_asm.S:97
    2504:	d2800548 	mov	x8, #0x2a                  	// #42
    2508:	d4000001 	svc	#0x0
    250c:	d65f03c0 	ret

0000000000002510 <utee_storage_obj_del>:
utee_storage_obj_del():
/home/thesis/Desktop/optee_rpi3bplus/optee_os/lib/libutee/arch/arm/utee_syscalls_asm.S:99
    2510:	d2800568 	mov	x8, #0x2b                  	// #43
    2514:	d4000001 	svc	#0x0
    2518:	d65f03c0 	ret

000000000000251c <utee_storage_obj_rename>:
utee_storage_obj_rename():
/home/thesis/Desktop/optee_rpi3bplus/optee_os/lib/libutee/arch/arm/utee_syscalls_asm.S:101
    251c:	d2800588 	mov	x8, #0x2c                  	// #44
    2520:	d4000001 	svc	#0x0
    2524:	d65f03c0 	ret

0000000000002528 <utee_storage_alloc_enum>:
utee_storage_alloc_enum():
/home/thesis/Desktop/optee_rpi3bplus/optee_os/lib/libutee/arch/arm/utee_syscalls_asm.S:103
    2528:	d28005a8 	mov	x8, #0x2d                  	// #45
    252c:	d4000001 	svc	#0x0
    2530:	d65f03c0 	ret

0000000000002534 <utee_storage_free_enum>:
utee_storage_free_enum():
/home/thesis/Desktop/optee_rpi3bplus/optee_os/lib/libutee/arch/arm/utee_syscalls_asm.S:105
    2534:	d28005c8 	mov	x8, #0x2e                  	// #46
    2538:	d4000001 	svc	#0x0
    253c:	d65f03c0 	ret

0000000000002540 <utee_storage_reset_enum>:
utee_storage_reset_enum():
/home/thesis/Desktop/optee_rpi3bplus/optee_os/lib/libutee/arch/arm/utee_syscalls_asm.S:107
    2540:	d28005e8 	mov	x8, #0x2f                  	// #47
    2544:	d4000001 	svc	#0x0
    2548:	d65f03c0 	ret

000000000000254c <utee_storage_start_enum>:
utee_storage_start_enum():
/home/thesis/Desktop/optee_rpi3bplus/optee_os/lib/libutee/arch/arm/utee_syscalls_asm.S:109
    254c:	d2800608 	mov	x8, #0x30                  	// #48
    2550:	d4000001 	svc	#0x0
    2554:	d65f03c0 	ret

0000000000002558 <utee_storage_next_enum>:
utee_storage_next_enum():
/home/thesis/Desktop/optee_rpi3bplus/optee_os/lib/libutee/arch/arm/utee_syscalls_asm.S:111
    2558:	d2800628 	mov	x8, #0x31                  	// #49
    255c:	d4000001 	svc	#0x0
    2560:	d65f03c0 	ret

0000000000002564 <utee_storage_obj_read>:
utee_storage_obj_read():
/home/thesis/Desktop/optee_rpi3bplus/optee_os/lib/libutee/arch/arm/utee_syscalls_asm.S:113
    2564:	d2800648 	mov	x8, #0x32                  	// #50
    2568:	d4000001 	svc	#0x0
    256c:	d65f03c0 	ret

0000000000002570 <utee_storage_obj_write>:
utee_storage_obj_write():
/home/thesis/Desktop/optee_rpi3bplus/optee_os/lib/libutee/arch/arm/utee_syscalls_asm.S:115
    2570:	d2800668 	mov	x8, #0x33                  	// #51
    2574:	d4000001 	svc	#0x0
    2578:	d65f03c0 	ret

000000000000257c <utee_storage_obj_trunc>:
utee_storage_obj_trunc():
/home/thesis/Desktop/optee_rpi3bplus/optee_os/lib/libutee/arch/arm/utee_syscalls_asm.S:117
    257c:	d2800688 	mov	x8, #0x34                  	// #52
    2580:	d4000001 	svc	#0x0
    2584:	d65f03c0 	ret

0000000000002588 <utee_storage_obj_seek>:
utee_storage_obj_seek():
/home/thesis/Desktop/optee_rpi3bplus/optee_os/lib/libutee/arch/arm/utee_syscalls_asm.S:119
    2588:	d28006a8 	mov	x8, #0x35                  	// #53
    258c:	d4000001 	svc	#0x0
    2590:	d65f03c0 	ret

0000000000002594 <utee_cryp_obj_generate_key>:
utee_cryp_obj_generate_key():
/home/thesis/Desktop/optee_rpi3bplus/optee_os/lib/libutee/arch/arm/utee_syscalls_asm.S:121
    2594:	d28006c8 	mov	x8, #0x36                  	// #54
    2598:	d4000001 	svc	#0x0
    259c:	d65f03c0 	ret

00000000000025a0 <utee_cache_operation>:
utee_cache_operation():
/home/thesis/Desktop/optee_rpi3bplus/optee_os/lib/libutee/arch/arm/utee_syscalls_asm.S:124
    25a0:	d28008c8 	mov	x8, #0x46                  	// #70
    25a4:	d4000001 	svc	#0x0
    25a8:	d65f03c0 	ret

00000000000025ac <__utee_from_param>:
__utee_from_param():
/home/thesis/Desktop/optee_rpi3bplus/optee_os/lib/libutee/tee_api.c:26
    25ac:	f0000045 	adrp	x5, d000 <primes+0x378>
    25b0:	910760a5 	add	x5, x5, #0x1d8
/home/thesis/Desktop/optee_rpi3bplus/optee_os/lib/libutee/tee_api.c:24
    25b4:	2a0103e3 	mov	w3, w1
    25b8:	52800004 	mov	w4, #0x0                   	// #0
    25bc:	f8008403 	str	x3, [x0], #8
/home/thesis/Desktop/optee_rpi3bplus/optee_os/lib/libutee/tee_api.c:26
    25c0:	1ac42423 	lsr	w3, w1, w4
    25c4:	12000c63 	and	w3, w3, #0xf
    25c8:	51000463 	sub	w3, w3, #0x1
    25cc:	7100187f 	cmp	w3, #0x6
    25d0:	54000268 	b.hi	261c <__utee_from_param+0x70>  // b.pmore
    25d4:	386348a3 	ldrb	w3, [x5, w3, uxtw]
    25d8:	10000066 	adr	x6, 25e4 <__utee_from_param+0x38>
    25dc:	8b2388c3 	add	x3, x6, w3, sxtb #2
    25e0:	d61f0060 	br	x3
/home/thesis/Desktop/optee_rpi3bplus/optee_os/lib/libutee/tee_api.c:30
    25e4:	b9400043 	ldr	w3, [x2]
    25e8:	f9000003 	str	x3, [x0]
/home/thesis/Desktop/optee_rpi3bplus/optee_os/lib/libutee/tee_api.c:31
    25ec:	b9400443 	ldr	w3, [x2, #4]
/home/thesis/Desktop/optee_rpi3bplus/optee_os/lib/libutee/tee_api.c:37
    25f0:	f9000403 	str	x3, [x0, #8]
/home/thesis/Desktop/optee_rpi3bplus/optee_os/lib/libutee/tee_api.c:38
    25f4:	11001084 	add	w4, w4, #0x4
    25f8:	91004042 	add	x2, x2, #0x10
    25fc:	91004000 	add	x0, x0, #0x10
/home/thesis/Desktop/optee_rpi3bplus/optee_os/lib/libutee/tee_api.c:25 (discriminator 2)
    2600:	7100409f 	cmp	w4, #0x10
    2604:	54fffde1 	b.ne	25c0 <__utee_from_param+0x14>  // b.any
/home/thesis/Desktop/optee_rpi3bplus/optee_os/lib/libutee/tee_api.c:45
    2608:	d65f03c0 	ret
/home/thesis/Desktop/optee_rpi3bplus/optee_os/lib/libutee/tee_api.c:36
    260c:	f9400043 	ldr	x3, [x2]
    2610:	f9000003 	str	x3, [x0]
/home/thesis/Desktop/optee_rpi3bplus/optee_os/lib/libutee/tee_api.c:37
    2614:	b9400843 	ldr	w3, [x2, #8]
    2618:	17fffff6 	b	25f0 <__utee_from_param+0x44>
/home/thesis/Desktop/optee_rpi3bplus/optee_os/lib/libutee/tee_api.c:41
    261c:	a9007c1f 	stp	xzr, xzr, [x0]
/home/thesis/Desktop/optee_rpi3bplus/optee_os/lib/libutee/tee_api.c:42
    2620:	17fffff5 	b	25f4 <__utee_from_param+0x48>

0000000000002624 <__utee_to_param>:
__utee_to_param():
/home/thesis/Desktop/optee_rpi3bplus/optee_os/lib/libutee/tee_api.c:51
    2624:	f8408446 	ldr	x6, [x2], #8
/home/thesis/Desktop/optee_rpi3bplus/optee_os/lib/libutee/tee_api.c:57
    2628:	f0000045 	adrp	x5, d000 <primes+0x378>
    262c:	910780a5 	add	x5, x5, #0x1e0
/home/thesis/Desktop/optee_rpi3bplus/optee_os/lib/libutee/tee_api.c:51
    2630:	52800004 	mov	w4, #0x0                   	// #0
    2634:	2a0603e9 	mov	w9, w6
/home/thesis/Desktop/optee_rpi3bplus/optee_os/lib/libutee/tee_api.c:57
    2638:	1ac42523 	lsr	w3, w9, w4
    263c:	12000c63 	and	w3, w3, #0xf
    2640:	51000463 	sub	w3, w3, #0x1
    2644:	7100187f 	cmp	w3, #0x6
/home/thesis/Desktop/optee_rpi3bplus/optee_os/lib/libutee/tee_api.c:55
    2648:	a9401c48 	ldp	x8, x7, [x2]
/home/thesis/Desktop/optee_rpi3bplus/optee_os/lib/libutee/tee_api.c:57
    264c:	540000c8 	b.hi	2664 <__utee_to_param+0x40>  // b.pmore
    2650:	386348a3 	ldrb	w3, [x5, w3, uxtw]
    2654:	1000006a 	adr	x10, 2660 <__utee_to_param+0x3c>
    2658:	8b238943 	add	x3, x10, w3, sxtb #2
    265c:	d61f0060 	br	x3
/home/thesis/Desktop/optee_rpi3bplus/optee_os/lib/libutee/tee_api.c:62
    2660:	29001c08 	stp	w8, w7, [x0]
/home/thesis/Desktop/optee_rpi3bplus/optee_os/lib/libutee/tee_api.c:63
    2664:	11001084 	add	w4, w4, #0x4
    2668:	91004042 	add	x2, x2, #0x10
    266c:	91004000 	add	x0, x0, #0x10
/home/thesis/Desktop/optee_rpi3bplus/optee_os/lib/libutee/tee_api.c:53 (discriminator 2)
    2670:	7100409f 	cmp	w4, #0x10
    2674:	54fffe21 	b.ne	2638 <__utee_to_param+0x14>  // b.any
/home/thesis/Desktop/optee_rpi3bplus/optee_os/lib/libutee/tee_api.c:75
    2678:	b4000041 	cbz	x1, 2680 <__utee_to_param+0x5c>
/home/thesis/Desktop/optee_rpi3bplus/optee_os/lib/libutee/tee_api.c:76
    267c:	b9000026 	str	w6, [x1]
/home/thesis/Desktop/optee_rpi3bplus/optee_os/lib/libutee/tee_api.c:77
    2680:	d65f03c0 	ret
/home/thesis/Desktop/optee_rpi3bplus/optee_os/lib/libutee/tee_api.c:67
    2684:	f9000008 	str	x8, [x0]
/home/thesis/Desktop/optee_rpi3bplus/optee_os/lib/libutee/tee_api.c:68
    2688:	b9000807 	str	w7, [x0, #8]
/home/thesis/Desktop/optee_rpi3bplus/optee_os/lib/libutee/tee_api.c:69
    268c:	17fffff6 	b	2664 <__utee_to_param+0x40>

0000000000002690 <TEE_OpenTASession>:
TEE_OpenTASession():
/home/thesis/Desktop/optee_rpi3bplus/optee_os/lib/libutee/tee_api.c:85
    2690:	a9b67bfd 	stp	x29, x30, [sp, #-160]!
    2694:	910003fd 	mov	x29, sp
    2698:	a90153f3 	stp	x19, x20, [sp, #16]
/home/thesis/Desktop/optee_rpi3bplus/optee_os/lib/libutee/tee_api.c:90
    269c:	910163f3 	add	x19, sp, #0x58
/home/thesis/Desktop/optee_rpi3bplus/optee_os/lib/libutee/tee_api.c:85
    26a0:	aa0003f4 	mov	x20, x0
/home/thesis/Desktop/optee_rpi3bplus/optee_os/lib/libutee/tee_api.c:90
    26a4:	aa1303e0 	mov	x0, x19
/home/thesis/Desktop/optee_rpi3bplus/optee_os/lib/libutee/tee_api.c:85
    26a8:	a9025bf5 	stp	x21, x22, [sp, #32]
    26ac:	aa0303f5 	mov	x21, x3
    26b0:	aa0403f6 	mov	x22, x4
    26b4:	f9001bf7 	str	x23, [sp, #48]
    26b8:	2a0103f7 	mov	w23, w1
    26bc:	2a0203e1 	mov	w1, w2
/home/thesis/Desktop/optee_rpi3bplus/optee_os/lib/libutee/tee_api.c:90
    26c0:	aa0303e2 	mov	x2, x3
/home/thesis/Desktop/optee_rpi3bplus/optee_os/lib/libutee/tee_api.c:85
    26c4:	f90027e5 	str	x5, [sp, #72]
/home/thesis/Desktop/optee_rpi3bplus/optee_os/lib/libutee/tee_api.c:90
    26c8:	97ffffb9 	bl	25ac <__utee_from_param>
/home/thesis/Desktop/optee_rpi3bplus/optee_os/lib/libutee/tee_api.c:91
    26cc:	f94027e4 	ldr	x4, [sp, #72]
    26d0:	910153e3 	add	x3, sp, #0x54
    26d4:	aa1303e2 	mov	x2, x19
    26d8:	2a1703e1 	mov	w1, w23
    26dc:	aa1403e0 	mov	x0, x20
    26e0:	97ffff1a 	bl	2348 <utee_open_ta_session>
    26e4:	2a0003f4 	mov	w20, w0
/home/thesis/Desktop/optee_rpi3bplus/optee_os/lib/libutee/tee_api.c:93
    26e8:	aa1303e2 	mov	x2, x19
    26ec:	d2800001 	mov	x1, #0x0                   	// #0
    26f0:	aa1503e0 	mov	x0, x21
    26f4:	97ffffcc 	bl	2624 <__utee_to_param>
/home/thesis/Desktop/optee_rpi3bplus/optee_os/lib/libutee/tee_api.c:99
    26f8:	34000054 	cbz	w20, 2700 <TEE_OpenTASession+0x70>
/home/thesis/Desktop/optee_rpi3bplus/optee_os/lib/libutee/tee_api.c:100
    26fc:	b90057ff 	str	wzr, [sp, #84]
/home/thesis/Desktop/optee_rpi3bplus/optee_os/lib/libutee/tee_api.c:102
    2700:	b94057e0 	ldr	w0, [sp, #84]
/home/thesis/Desktop/optee_rpi3bplus/optee_os/lib/libutee/tee_api.c:104
    2704:	f9401bf7 	ldr	x23, [sp, #48]
/home/thesis/Desktop/optee_rpi3bplus/optee_os/lib/libutee/tee_api.c:102
    2708:	f90002c0 	str	x0, [x22]
/home/thesis/Desktop/optee_rpi3bplus/optee_os/lib/libutee/tee_api.c:104
    270c:	2a1403e0 	mov	w0, w20
    2710:	a94153f3 	ldp	x19, x20, [sp, #16]
    2714:	a9425bf5 	ldp	x21, x22, [sp, #32]
    2718:	a8ca7bfd 	ldp	x29, x30, [sp], #160
    271c:	d65f03c0 	ret

0000000000002720 <TEE_CloseTASession>:
TEE_CloseTASession():
/home/thesis/Desktop/optee_rpi3bplus/optee_os/lib/libutee/tee_api.c:108
    2720:	b4000120 	cbz	x0, 2744 <TEE_CloseTASession+0x24>
/home/thesis/Desktop/optee_rpi3bplus/optee_os/lib/libutee/tee_api.c:107
    2724:	a9bf7bfd 	stp	x29, x30, [sp, #-16]!
    2728:	910003fd 	mov	x29, sp
/home/thesis/Desktop/optee_rpi3bplus/optee_os/lib/libutee/tee_api.c:109
    272c:	97ffff0a 	bl	2354 <utee_close_ta_session>
/home/thesis/Desktop/optee_rpi3bplus/optee_os/lib/libutee/tee_api.c:111
    2730:	34000060 	cbz	w0, 273c <TEE_CloseTASession+0x1c>
/home/thesis/Desktop/optee_rpi3bplus/optee_os/lib/libutee/tee_api.c:114
    2734:	a8c17bfd 	ldp	x29, x30, [sp], #16
/home/thesis/Desktop/optee_rpi3bplus/optee_os/lib/libutee/tee_api.c:112
    2738:	17fffe3d 	b	202c <TEE_Panic>
/home/thesis/Desktop/optee_rpi3bplus/optee_os/lib/libutee/tee_api.c:114
    273c:	a8c17bfd 	ldp	x29, x30, [sp], #16
    2740:	d65f03c0 	ret
    2744:	d65f03c0 	ret

0000000000002748 <TEE_InvokeTACommand>:
TEE_InvokeTACommand():
/home/thesis/Desktop/optee_rpi3bplus/optee_os/lib/libutee/tee_api.c:121
    2748:	a9b77bfd 	stp	x29, x30, [sp, #-144]!
    274c:	910003fd 	mov	x29, sp
    2750:	a90153f3 	stp	x19, x20, [sp, #16]
/home/thesis/Desktop/optee_rpi3bplus/optee_os/lib/libutee/tee_api.c:126
    2754:	910123f4 	add	x20, sp, #0x48
/home/thesis/Desktop/optee_rpi3bplus/optee_os/lib/libutee/tee_api.c:121
    2758:	aa0003f3 	mov	x19, x0
/home/thesis/Desktop/optee_rpi3bplus/optee_os/lib/libutee/tee_api.c:126
    275c:	aa1403e0 	mov	x0, x20
/home/thesis/Desktop/optee_rpi3bplus/optee_os/lib/libutee/tee_api.c:121
    2760:	a9025bf5 	stp	x21, x22, [sp, #32]
    2764:	aa0403f6 	mov	x22, x4
    2768:	aa0503f5 	mov	x21, x5
    276c:	a90363f7 	stp	x23, x24, [sp, #48]
    2770:	2a0103f7 	mov	w23, w1
    2774:	2a0203f8 	mov	w24, w2
/home/thesis/Desktop/optee_rpi3bplus/optee_os/lib/libutee/tee_api.c:126
    2778:	2a0303e1 	mov	w1, w3
    277c:	aa0403e2 	mov	x2, x4
    2780:	97ffff8b 	bl	25ac <__utee_from_param>
/home/thesis/Desktop/optee_rpi3bplus/optee_os/lib/libutee/tee_api.c:127
    2784:	910113e4 	add	x4, sp, #0x44
    2788:	aa1403e3 	mov	x3, x20
    278c:	2a1803e2 	mov	w2, w24
    2790:	2a1703e1 	mov	w1, w23
    2794:	aa1303e0 	mov	x0, x19
    2798:	97fffef2 	bl	2360 <utee_invoke_ta_command>
/home/thesis/Desktop/optee_rpi3bplus/optee_os/lib/libutee/tee_api.c:130
    279c:	aa1403e2 	mov	x2, x20
/home/thesis/Desktop/optee_rpi3bplus/optee_os/lib/libutee/tee_api.c:127
    27a0:	2a0003f3 	mov	w19, w0
/home/thesis/Desktop/optee_rpi3bplus/optee_os/lib/libutee/tee_api.c:130
    27a4:	d2800001 	mov	x1, #0x0                   	// #0
    27a8:	aa1603e0 	mov	x0, x22
    27ac:	97ffff9e 	bl	2624 <__utee_to_param>
/home/thesis/Desktop/optee_rpi3bplus/optee_os/lib/libutee/tee_api.c:132
    27b0:	b94047e0 	ldr	w0, [sp, #68]
    27b4:	b4000055 	cbz	x21, 27bc <TEE_InvokeTACommand+0x74>
/home/thesis/Desktop/optee_rpi3bplus/optee_os/lib/libutee/tee_api.c:133
    27b8:	b90002a0 	str	w0, [x21]
/home/thesis/Desktop/optee_rpi3bplus/optee_os/lib/libutee/tee_api.c:135
    27bc:	7100101f 	cmp	w0, #0x4
    27c0:	54000140 	b.eq	27e8 <TEE_InvokeTACommand+0xa0>  // b.none
/home/thesis/Desktop/optee_rpi3bplus/optee_os/lib/libutee/tee_api.c:138
    27c4:	7100027f 	cmp	w19, #0x0
    27c8:	129ffe60 	mov	w0, #0xffff000c            	// #-65524
    27cc:	7a401264 	ccmp	w19, w0, #0x4, ne  // ne = any
    27d0:	540000c0 	b.eq	27e8 <TEE_InvokeTACommand+0xa0>  // b.none
/home/thesis/Desktop/optee_rpi3bplus/optee_os/lib/libutee/tee_api.c:139
    27d4:	1299fb60 	mov	w0, #0xffff3024            	// #-53212
    27d8:	6b00027f 	cmp	w19, w0
    27dc:	54000060 	b.eq	27e8 <TEE_InvokeTACommand+0xa0>  // b.none
/home/thesis/Desktop/optee_rpi3bplus/optee_os/lib/libutee/tee_api.c:141
    27e0:	2a1303e0 	mov	w0, w19
    27e4:	97fffe12 	bl	202c <TEE_Panic>
/home/thesis/Desktop/optee_rpi3bplus/optee_os/lib/libutee/tee_api.c:144
    27e8:	2a1303e0 	mov	w0, w19
    27ec:	a94153f3 	ldp	x19, x20, [sp, #16]
    27f0:	a9425bf5 	ldp	x21, x22, [sp, #32]
    27f4:	a94363f7 	ldp	x23, x24, [sp, #48]
    27f8:	a8c97bfd 	ldp	x29, x30, [sp], #144
    27fc:	d65f03c0 	ret

0000000000002800 <TEE_GetCancellationFlag>:
TEE_GetCancellationFlag():
/home/thesis/Desktop/optee_rpi3bplus/optee_os/lib/libutee/tee_api.c:149
    2800:	a9be7bfd 	stp	x29, x30, [sp, #-32]!
    2804:	910003fd 	mov	x29, sp
/home/thesis/Desktop/optee_rpi3bplus/optee_os/lib/libutee/tee_api.c:151
    2808:	910073e0 	add	x0, sp, #0x1c
    280c:	97fffed8 	bl	236c <utee_get_cancellation_flag>
/home/thesis/Desktop/optee_rpi3bplus/optee_os/lib/libutee/tee_api.c:153
    2810:	34000040 	cbz	w0, 2818 <TEE_GetCancellationFlag+0x18>
/home/thesis/Desktop/optee_rpi3bplus/optee_os/lib/libutee/tee_api.c:154
    2814:	b9001fff 	str	wzr, [sp, #28]
/home/thesis/Desktop/optee_rpi3bplus/optee_os/lib/libutee/tee_api.c:155
    2818:	b9401fe0 	ldr	w0, [sp, #28]
/home/thesis/Desktop/optee_rpi3bplus/optee_os/lib/libutee/tee_api.c:156
    281c:	a8c27bfd 	ldp	x29, x30, [sp], #32
/home/thesis/Desktop/optee_rpi3bplus/optee_os/lib/libutee/tee_api.c:155
    2820:	7100001f 	cmp	w0, #0x0
/home/thesis/Desktop/optee_rpi3bplus/optee_os/lib/libutee/tee_api.c:156
    2824:	1a9f07e0 	cset	w0, ne  // ne = any
    2828:	d65f03c0 	ret

000000000000282c <TEE_UnmaskCancellation>:
TEE_UnmaskCancellation():
/home/thesis/Desktop/optee_rpi3bplus/optee_os/lib/libutee/tee_api.c:159
    282c:	a9be7bfd 	stp	x29, x30, [sp, #-32]!
    2830:	910003fd 	mov	x29, sp
/home/thesis/Desktop/optee_rpi3bplus/optee_os/lib/libutee/tee_api.c:161
    2834:	910073e0 	add	x0, sp, #0x1c
    2838:	97fffed3 	bl	2384 <utee_unmask_cancellation>
/home/thesis/Desktop/optee_rpi3bplus/optee_os/lib/libutee/tee_api.c:163
    283c:	34000040 	cbz	w0, 2844 <TEE_UnmaskCancellation+0x18>
/home/thesis/Desktop/optee_rpi3bplus/optee_os/lib/libutee/tee_api.c:164
    2840:	97fffdfb 	bl	202c <TEE_Panic>
/home/thesis/Desktop/optee_rpi3bplus/optee_os/lib/libutee/tee_api.c:165
    2844:	b9401fe0 	ldr	w0, [sp, #28]
/home/thesis/Desktop/optee_rpi3bplus/optee_os/lib/libutee/tee_api.c:166
    2848:	a8c27bfd 	ldp	x29, x30, [sp], #32
/home/thesis/Desktop/optee_rpi3bplus/optee_os/lib/libutee/tee_api.c:165
    284c:	7100001f 	cmp	w0, #0x0
/home/thesis/Desktop/optee_rpi3bplus/optee_os/lib/libutee/tee_api.c:166
    2850:	1a9f07e0 	cset	w0, ne  // ne = any
    2854:	d65f03c0 	ret

0000000000002858 <TEE_MaskCancellation>:
TEE_MaskCancellation():
/home/thesis/Desktop/optee_rpi3bplus/optee_os/lib/libutee/tee_api.c:169
    2858:	a9be7bfd 	stp	x29, x30, [sp, #-32]!
    285c:	910003fd 	mov	x29, sp
/home/thesis/Desktop/optee_rpi3bplus/optee_os/lib/libutee/tee_api.c:171
    2860:	910073e0 	add	x0, sp, #0x1c
    2864:	97fffecb 	bl	2390 <utee_mask_cancellation>
/home/thesis/Desktop/optee_rpi3bplus/optee_os/lib/libutee/tee_api.c:173
    2868:	34000040 	cbz	w0, 2870 <TEE_MaskCancellation+0x18>
/home/thesis/Desktop/optee_rpi3bplus/optee_os/lib/libutee/tee_api.c:174
    286c:	97fffdf0 	bl	202c <TEE_Panic>
/home/thesis/Desktop/optee_rpi3bplus/optee_os/lib/libutee/tee_api.c:175
    2870:	b9401fe0 	ldr	w0, [sp, #28]
/home/thesis/Desktop/optee_rpi3bplus/optee_os/lib/libutee/tee_api.c:176
    2874:	a8c27bfd 	ldp	x29, x30, [sp], #32
/home/thesis/Desktop/optee_rpi3bplus/optee_os/lib/libutee/tee_api.c:175
    2878:	7100001f 	cmp	w0, #0x0
/home/thesis/Desktop/optee_rpi3bplus/optee_os/lib/libutee/tee_api.c:176
    287c:	1a9f07e0 	cset	w0, ne  // ne = any
    2880:	d65f03c0 	ret

0000000000002884 <TEE_CheckMemoryAccessRights>:
TEE_CheckMemoryAccessRights():
/home/thesis/Desktop/optee_rpi3bplus/optee_os/lib/libutee/tee_api.c:185
    2884:	34000062 	cbz	w2, 2890 <TEE_CheckMemoryAccessRights+0xc>
/home/thesis/Desktop/optee_rpi3bplus/optee_os/lib/libutee/tee_api.c:189
    2888:	2a0203e2 	mov	w2, w2
    288c:	17fffebb 	b	2378 <utee_check_access_rights>
/home/thesis/Desktop/optee_rpi3bplus/optee_os/lib/libutee/tee_api.c:201
    2890:	52800000 	mov	w0, #0x0                   	// #0
    2894:	d65f03c0 	ret

0000000000002898 <TEE_SetInstanceData>:
TEE_SetInstanceData():
/home/thesis/Desktop/optee_rpi3bplus/optee_os/lib/libutee/tee_api.c:205
    2898:	b0000061 	adrp	x1, f000 <.got>
    289c:	f9023420 	str	x0, [x1, #1128]
/home/thesis/Desktop/optee_rpi3bplus/optee_os/lib/libutee/tee_api.c:206
    28a0:	d65f03c0 	ret

00000000000028a4 <TEE_GetInstanceData>:
TEE_GetInstanceData():
/home/thesis/Desktop/optee_rpi3bplus/optee_os/lib/libutee/tee_api.c:211
    28a4:	b0000060 	adrp	x0, f000 <.got>
    28a8:	f9423400 	ldr	x0, [x0, #1128]
    28ac:	d65f03c0 	ret

00000000000028b0 <TEE_MemMove>:
TEE_MemMove():
/home/thesis/Desktop/optee_rpi3bplus/optee_os/lib/libutee/tee_api.c:215
    28b0:	2a0203e2 	mov	w2, w2
    28b4:	14001a4c 	b	91e4 <memmove>

00000000000028b8 <TEE_MemCompare>:
TEE_MemCompare():
/home/thesis/Desktop/optee_rpi3bplus/optee_os/lib/libutee/tee_api.c:220
    28b8:	2a0203e2 	mov	w2, w2
    28bc:	14001ead 	b	a370 <consttime_memcmp>

00000000000028c0 <TEE_MemFill>:
TEE_MemFill():
/home/thesis/Desktop/optee_rpi3bplus/optee_os/lib/libutee/tee_api.c:225
    28c0:	2a0203e2 	mov	w2, w2
    28c4:	17fffa75 	b	1298 <memset>

00000000000028c8 <TEE_GetSystemTime>:
TEE_GetSystemTime():
/home/thesis/Desktop/optee_rpi3bplus/optee_os/lib/libutee/tee_api.c:231
    28c8:	a9bf7bfd 	stp	x29, x30, [sp, #-16]!
/home/thesis/Desktop/optee_rpi3bplus/optee_os/lib/libutee/tee_api.c:232
    28cc:	aa0003e1 	mov	x1, x0
    28d0:	d2800000 	mov	x0, #0x0                   	// #0
/home/thesis/Desktop/optee_rpi3bplus/optee_os/lib/libutee/tee_api.c:231
    28d4:	910003fd 	mov	x29, sp
/home/thesis/Desktop/optee_rpi3bplus/optee_os/lib/libutee/tee_api.c:232
    28d8:	97fffeb4 	bl	23a8 <utee_get_time>
/home/thesis/Desktop/optee_rpi3bplus/optee_os/lib/libutee/tee_api.c:234
    28dc:	34000060 	cbz	w0, 28e8 <TEE_GetSystemTime+0x20>
/home/thesis/Desktop/optee_rpi3bplus/optee_os/lib/libutee/tee_api.c:236
    28e0:	a8c17bfd 	ldp	x29, x30, [sp], #16
/home/thesis/Desktop/optee_rpi3bplus/optee_os/lib/libutee/tee_api.c:235
    28e4:	17fffdd2 	b	202c <TEE_Panic>
/home/thesis/Desktop/optee_rpi3bplus/optee_os/lib/libutee/tee_api.c:236
    28e8:	a8c17bfd 	ldp	x29, x30, [sp], #16
    28ec:	d65f03c0 	ret

00000000000028f0 <TEE_Wait>:
TEE_Wait():
/home/thesis/Desktop/optee_rpi3bplus/optee_os/lib/libutee/tee_api.c:239
    28f0:	a9be7bfd 	stp	x29, x30, [sp, #-32]!
/home/thesis/Desktop/optee_rpi3bplus/optee_os/lib/libutee/tee_api.c:240
    28f4:	2a0003e0 	mov	w0, w0
/home/thesis/Desktop/optee_rpi3bplus/optee_os/lib/libutee/tee_api.c:239
    28f8:	910003fd 	mov	x29, sp
    28fc:	f9000bf3 	str	x19, [sp, #16]
/home/thesis/Desktop/optee_rpi3bplus/optee_os/lib/libutee/tee_api.c:240
    2900:	97fffea7 	bl	239c <utee_wait>
/home/thesis/Desktop/optee_rpi3bplus/optee_os/lib/libutee/tee_api.c:242
    2904:	7100001f 	cmp	w0, #0x0
    2908:	129fffa1 	mov	w1, #0xffff0002            	// #-65534
/home/thesis/Desktop/optee_rpi3bplus/optee_os/lib/libutee/tee_api.c:240
    290c:	2a0003f3 	mov	w19, w0
/home/thesis/Desktop/optee_rpi3bplus/optee_os/lib/libutee/tee_api.c:242
    2910:	7a411004 	ccmp	w0, w1, #0x4, ne  // ne = any
    2914:	54000040 	b.eq	291c <TEE_Wait+0x2c>  // b.none
/home/thesis/Desktop/optee_rpi3bplus/optee_os/lib/libutee/tee_api.c:243
    2918:	97fffdc5 	bl	202c <TEE_Panic>
/home/thesis/Desktop/optee_rpi3bplus/optee_os/lib/libutee/tee_api.c:246
    291c:	2a1303e0 	mov	w0, w19
    2920:	f9400bf3 	ldr	x19, [sp, #16]
    2924:	a8c27bfd 	ldp	x29, x30, [sp], #32
    2928:	d65f03c0 	ret

000000000000292c <TEE_GetTAPersistentTime>:
TEE_GetTAPersistentTime():
/home/thesis/Desktop/optee_rpi3bplus/optee_os/lib/libutee/tee_api.c:249
    292c:	a9be7bfd 	stp	x29, x30, [sp, #-32]!
/home/thesis/Desktop/optee_rpi3bplus/optee_os/lib/libutee/tee_api.c:252
    2930:	aa0003e1 	mov	x1, x0
/home/thesis/Desktop/optee_rpi3bplus/optee_os/lib/libutee/tee_api.c:249
    2934:	910003fd 	mov	x29, sp
    2938:	a90153f3 	stp	x19, x20, [sp, #16]
    293c:	aa0003f4 	mov	x20, x0
/home/thesis/Desktop/optee_rpi3bplus/optee_os/lib/libutee/tee_api.c:252
    2940:	d2800020 	mov	x0, #0x1                   	// #1
    2944:	97fffe99 	bl	23a8 <utee_get_time>
/home/thesis/Desktop/optee_rpi3bplus/optee_os/lib/libutee/tee_api.c:254
    2948:	7100001f 	cmp	w0, #0x0
/home/thesis/Desktop/optee_rpi3bplus/optee_os/lib/libutee/tee_api.c:252
    294c:	2a0003f3 	mov	w19, w0
/home/thesis/Desktop/optee_rpi3bplus/optee_os/lib/libutee/tee_api.c:254
    2950:	1a9f07e2 	cset	w2, ne  // ne = any
    2954:	1299fe00 	mov	w0, #0xffff300f            	// #-53233
    2958:	6b00027f 	cmp	w19, w0
    295c:	1a9f1041 	csel	w1, w2, wzr, ne  // ne = any
    2960:	34000041 	cbz	w1, 2968 <TEE_GetTAPersistentTime+0x3c>
/home/thesis/Desktop/optee_rpi3bplus/optee_os/lib/libutee/tee_api.c:256
    2964:	29007e9f 	stp	wzr, wzr, [x20]
/home/thesis/Desktop/optee_rpi3bplus/optee_os/lib/libutee/tee_api.c:260
    2968:	11402e60 	add	w0, w19, #0xb, lsl #12
/home/thesis/Desktop/optee_rpi3bplus/optee_os/lib/libutee/tee_api.c:259
    296c:	7100005f 	cmp	w2, #0x0
    2970:	7a411800 	ccmp	w0, #0x1, #0x0, ne  // ne = any
    2974:	540000e9 	b.ls	2990 <TEE_GetTAPersistentTime+0x64>  // b.plast
/home/thesis/Desktop/optee_rpi3bplus/optee_os/lib/libutee/tee_api.c:261
    2978:	340000c1 	cbz	w1, 2990 <TEE_GetTAPersistentTime+0x64>
/home/thesis/Desktop/optee_rpi3bplus/optee_os/lib/libutee/tee_api.c:262
    297c:	129ffe60 	mov	w0, #0xffff000c            	// #-65524
    2980:	6b00027f 	cmp	w19, w0
    2984:	54000060 	b.eq	2990 <TEE_GetTAPersistentTime+0x64>  // b.none
/home/thesis/Desktop/optee_rpi3bplus/optee_os/lib/libutee/tee_api.c:264
    2988:	2a1303e0 	mov	w0, w19
    298c:	97fffda8 	bl	202c <TEE_Panic>
/home/thesis/Desktop/optee_rpi3bplus/optee_os/lib/libutee/tee_api.c:267
    2990:	2a1303e0 	mov	w0, w19
    2994:	a94153f3 	ldp	x19, x20, [sp, #16]
    2998:	a8c27bfd 	ldp	x29, x30, [sp], #32
    299c:	d65f03c0 	ret

00000000000029a0 <TEE_SetTAPersistentTime>:
TEE_SetTAPersistentTime():
/home/thesis/Desktop/optee_rpi3bplus/optee_os/lib/libutee/tee_api.c:270
    29a0:	a9be7bfd 	stp	x29, x30, [sp, #-32]!
    29a4:	910003fd 	mov	x29, sp
    29a8:	f9000bf3 	str	x19, [sp, #16]
/home/thesis/Desktop/optee_rpi3bplus/optee_os/lib/libutee/tee_api.c:273
    29ac:	97fffe82 	bl	23b4 <utee_set_ta_time>
/home/thesis/Desktop/optee_rpi3bplus/optee_os/lib/libutee/tee_api.c:275
    29b0:	7100001f 	cmp	w0, #0x0
    29b4:	129ffe61 	mov	w1, #0xffff000c            	// #-65524
/home/thesis/Desktop/optee_rpi3bplus/optee_os/lib/libutee/tee_api.c:273
    29b8:	2a0003f3 	mov	w19, w0
/home/thesis/Desktop/optee_rpi3bplus/optee_os/lib/libutee/tee_api.c:275
    29bc:	7a411004 	ccmp	w0, w1, #0x4, ne  // ne = any
    29c0:	540000a0 	b.eq	29d4 <TEE_SetTAPersistentTime+0x34>  // b.none
/home/thesis/Desktop/optee_rpi3bplus/optee_os/lib/libutee/tee_api.c:276
    29c4:	1299f7c1 	mov	w1, #0xffff3041            	// #-53183
    29c8:	6b01001f 	cmp	w0, w1
    29cc:	54000040 	b.eq	29d4 <TEE_SetTAPersistentTime+0x34>  // b.none
/home/thesis/Desktop/optee_rpi3bplus/optee_os/lib/libutee/tee_api.c:278
    29d0:	97fffd97 	bl	202c <TEE_Panic>
/home/thesis/Desktop/optee_rpi3bplus/optee_os/lib/libutee/tee_api.c:281
    29d4:	2a1303e0 	mov	w0, w19
    29d8:	f9400bf3 	ldr	x19, [sp, #16]
    29dc:	a8c27bfd 	ldp	x29, x30, [sp], #32
    29e0:	d65f03c0 	ret

00000000000029e4 <TEE_GetREETime>:
TEE_GetREETime():
/home/thesis/Desktop/optee_rpi3bplus/optee_os/lib/libutee/tee_api.c:284
    29e4:	a9bf7bfd 	stp	x29, x30, [sp, #-16]!
/home/thesis/Desktop/optee_rpi3bplus/optee_os/lib/libutee/tee_api.c:285
    29e8:	aa0003e1 	mov	x1, x0
    29ec:	d2800040 	mov	x0, #0x2                   	// #2
/home/thesis/Desktop/optee_rpi3bplus/optee_os/lib/libutee/tee_api.c:284
    29f0:	910003fd 	mov	x29, sp
/home/thesis/Desktop/optee_rpi3bplus/optee_os/lib/libutee/tee_api.c:285
    29f4:	97fffe6d 	bl	23a8 <utee_get_time>
/home/thesis/Desktop/optee_rpi3bplus/optee_os/lib/libutee/tee_api.c:287
    29f8:	34000060 	cbz	w0, 2a04 <TEE_GetREETime+0x20>
/home/thesis/Desktop/optee_rpi3bplus/optee_os/lib/libutee/tee_api.c:289
    29fc:	a8c17bfd 	ldp	x29, x30, [sp], #16
/home/thesis/Desktop/optee_rpi3bplus/optee_os/lib/libutee/tee_api.c:288
    2a00:	17fffd8b 	b	202c <TEE_Panic>
/home/thesis/Desktop/optee_rpi3bplus/optee_os/lib/libutee/tee_api.c:289
    2a04:	a8c17bfd 	ldp	x29, x30, [sp], #16
    2a08:	d65f03c0 	ret

0000000000002a0c <TEE_Malloc>:
TEE_Malloc():
/home/thesis/Desktop/optee_rpi3bplus/optee_os/lib/libutee/tee_api.c:293
    2a0c:	35000081 	cbnz	w1, 2a1c <TEE_Malloc+0x10>
/home/thesis/Desktop/optee_rpi3bplus/optee_os/lib/libutee/tee_api.c:294
    2a10:	2a0003e1 	mov	w1, w0
    2a14:	d2800020 	mov	x0, #0x1                   	// #1
    2a18:	17fff91d 	b	e8c <calloc>
/home/thesis/Desktop/optee_rpi3bplus/optee_os/lib/libutee/tee_api.c:295
    2a1c:	52b00002 	mov	w2, #0x80000000            	// #-2147483648
    2a20:	6b02003f 	cmp	w1, w2
    2a24:	54000061 	b.ne	2a30 <TEE_Malloc+0x24>  // b.any
/home/thesis/Desktop/optee_rpi3bplus/optee_os/lib/libutee/tee_api.c:296
    2a28:	2a0003e0 	mov	w0, w0
    2a2c:	17fff904 	b	e3c <malloc>
/home/thesis/Desktop/optee_rpi3bplus/optee_os/lib/libutee/tee_api.c:292
    2a30:	a9bf7bfd 	stp	x29, x30, [sp, #-16]!
    2a34:	2a0103e5 	mov	w5, w1
/home/thesis/Desktop/optee_rpi3bplus/optee_os/lib/libutee/tee_api.c:298
    2a38:	52800023 	mov	w3, #0x1                   	// #1
/home/thesis/Desktop/optee_rpi3bplus/optee_os/lib/libutee/tee_api.c:292
    2a3c:	910003fd 	mov	x29, sp
/home/thesis/Desktop/optee_rpi3bplus/optee_os/lib/libutee/tee_api.c:298
    2a40:	52800022 	mov	w2, #0x1                   	// #1
    2a44:	52802541 	mov	w1, #0x12a                 	// #298
    2a48:	f0000044 	adrp	x4, d000 <primes+0x378>
    2a4c:	f0000040 	adrp	x0, d000 <primes+0x378>
    2a50:	9122cc84 	add	x4, x4, #0x8b3
    2a54:	91079c00 	add	x0, x0, #0x1e7
    2a58:	94001d4d 	bl	9f8c <trace_printf>
/home/thesis/Desktop/optee_rpi3bplus/optee_os/lib/libutee/tee_api.c:301
    2a5c:	d2800000 	mov	x0, #0x0                   	// #0
    2a60:	a8c17bfd 	ldp	x29, x30, [sp], #16
    2a64:	d65f03c0 	ret

0000000000002a68 <TEE_Realloc>:
TEE_Realloc():
/home/thesis/Desktop/optee_rpi3bplus/optee_os/lib/libutee/tee_api.c:305
    2a68:	2a0103e1 	mov	w1, w1
    2a6c:	17fff921 	b	ef0 <realloc>

0000000000002a70 <TEE_Free>:
TEE_Free():
/home/thesis/Desktop/optee_rpi3bplus/optee_os/lib/libutee/tee_api.c:310
    2a70:	17fff934 	b	f40 <free>

0000000000002a74 <TEE_CacheClean>:
TEE_CacheClean():
/home/thesis/Desktop/optee_rpi3bplus/optee_os/lib/libutee/tee_api.c:316
    2a74:	d2800002 	mov	x2, #0x0                   	// #0
    2a78:	17fffeca 	b	25a0 <utee_cache_operation>

0000000000002a7c <TEE_CacheFlush>:
TEE_CacheFlush():
/home/thesis/Desktop/optee_rpi3bplus/optee_os/lib/libutee/tee_api.c:320
    2a7c:	d2800022 	mov	x2, #0x1                   	// #1
    2a80:	17fffec8 	b	25a0 <utee_cache_operation>

0000000000002a84 <TEE_CacheInvalidate>:
TEE_CacheInvalidate():
/home/thesis/Desktop/optee_rpi3bplus/optee_os/lib/libutee/tee_api.c:325
    2a84:	d2800042 	mov	x2, #0x2                   	// #2
    2a88:	17fffec6 	b	25a0 <utee_cache_operation>

0000000000002a8c <api_panic>:
api_panic():
/home/thesis/Desktop/optee_rpi3bplus/optee_os/lib/libutee/tee_api_arith_mpi.c:19
    2a8c:	a9bf7bfd 	stp	x29, x30, [sp, #-16]!
/home/thesis/Desktop/optee_rpi3bplus/optee_os/lib/libutee/tee_api_arith_mpi.c:20
    2a90:	aa0203e3 	mov	x3, x2
    2a94:	2a0103e2 	mov	w2, w1
    2a98:	aa0003e1 	mov	x1, x0
/home/thesis/Desktop/optee_rpi3bplus/optee_os/lib/libutee/tee_api_arith_mpi.c:19
    2a9c:	910003fd 	mov	x29, sp
/home/thesis/Desktop/optee_rpi3bplus/optee_os/lib/libutee/tee_api_arith_mpi.c:20
    2aa0:	f0000040 	adrp	x0, d000 <primes+0x378>
    2aa4:	91280400 	add	x0, x0, #0xa01
    2aa8:	94000656 	bl	4400 <printf>
/home/thesis/Desktop/optee_rpi3bplus/optee_os/lib/libutee/tee_api_arith_mpi.c:21
    2aac:	528c24e0 	mov	w0, #0x6127                	// #24871
    2ab0:	72a01620 	movk	w0, #0xb1, lsl #16
    2ab4:	97fffd5e 	bl	202c <TEE_Panic>
/home/thesis/Desktop/optee_rpi3bplus/optee_os/lib/libutee/tee_api_arith_mpi.c:23 (discriminator 1)
    2ab8:	14000000 	b	2ab8 <api_panic+0x2c>

0000000000002abc <mpi_panic>:
mpi_panic():
