
8ffd8245-f85a-4320-82ff-7095f28fd714.elf:     file format elf64-littleaarch64
8ffd8245-f85a-4320-82ff-7095f28fd714.elf
architecture: aarch64, flags 0x00000150:
HAS_SYMS, DYNAMIC, D_PAGED
start address 0x00000000000008f0

Program Header:
    LOAD off    0x0000000000001000 vaddr 0x0000000000000000 paddr 0x0000000000000000 align 2**12
         filesz 0x000000000000b5e0 memsz 0x000000000000b5e0 flags r-x
    LOAD off    0x000000000000d000 vaddr 0x000000000000c000 paddr 0x000000000000c000 align 2**12
         filesz 0x0000000000000414 memsz 0x000000000000b490 flags rw-
 DYNAMIC off    0x000000000000d1c0 vaddr 0x000000000000c1c0 paddr 0x000000000000c1c0 align 2**3
         filesz 0x0000000000000110 memsz 0x0000000000000110 flags rw-
   STACK off    0x0000000000000000 vaddr 0x0000000000000000 paddr 0x0000000000000000 align 2**4
         filesz 0x0000000000000000 memsz 0x0000000000000000 flags rw-

Dynamic Section:
  HASH                 0x000000000000b418
  GNU_HASH             0x000000000000b3a8
  STRTAB               0x000000000000b410
  SYMTAB               0x000000000000b3c8
  STRSZ                0x0000000000000001
  SYMENT               0x0000000000000018
  DEBUG                0x0000000000000000
  RELA                 0x000000000000b430
  RELASZ               0x00000000000002e8
  RELAENT              0x0000000000000018
  FLAGS_1              0x0000000008000000
  RELACOUNT            0x0000000000000012
private flags = 0:

Sections:
Idx Name          Size      VMA               LMA               File off  Algn
  0 .ta_head      00000020  0000000000000000  0000000000000000  00001000  2**3
                  CONTENTS, ALLOC, LOAD, READONLY, DATA
  1 .text         00008970  0000000000000020  0000000000000020  00001020  2**2
                  CONTENTS, ALLOC, LOAD, READONLY, CODE
  2 .eh_frame     00001b4c  0000000000008990  0000000000008990  00009990  2**3
                  CONTENTS, ALLOC, LOAD, READONLY, DATA
  3 .rodata       00000ec6  000000000000a4e0  000000000000a4e0  0000b4e0  2**3
                  CONTENTS, ALLOC, LOAD, READONLY, DATA
  4 .gnu.hash     0000001c  000000000000b3a8  000000000000b3a8  0000c3a8  2**3
                  CONTENTS, ALLOC, LOAD, READONLY, DATA
  5 .dynsym       00000048  000000000000b3c8  000000000000b3c8  0000c3c8  2**3
                  CONTENTS, ALLOC, LOAD, READONLY, DATA
  6 .dynstr       00000001  000000000000b410  000000000000b410  0000c410  2**0
                  CONTENTS, ALLOC, LOAD, READONLY, DATA
  7 .hash         00000018  000000000000b418  000000000000b418  0000c418  2**3
                  CONTENTS, ALLOC, LOAD, READONLY, DATA
  8 .rela.dyn     000001b0  000000000000b430  000000000000b430  0000c430  2**3
                  CONTENTS, ALLOC, LOAD, READONLY, DATA
  9 .got          00000088  000000000000c000  000000000000c000  0000d000  2**3
                  CONTENTS, ALLOC, LOAD, DATA
 10 .rela.got     00000138  000000000000c088  000000000000c088  0000d088  2**3
                  CONTENTS, ALLOC, LOAD, READONLY, DATA
 11 .dynamic      00000110  000000000000c1c0  000000000000c1c0  0000d1c0  2**3
                  CONTENTS, ALLOC, LOAD, DATA
 12 .data         00000144  000000000000c2d0  000000000000c2d0  0000d2d0  2**3
                  CONTENTS, ALLOC, LOAD, DATA
 13 .bss          0000b078  000000000000c418  000000000000c418  0000d414  2**3
                  ALLOC
 14 .debug_info   00011bcd  0000000000000000  0000000000000000  0000d414  2**0
                  CONTENTS, READONLY, DEBUGGING
 15 .debug_abbrev 00003027  0000000000000000  0000000000000000  0001efe1  2**0
                  CONTENTS, READONLY, DEBUGGING
 16 .debug_loc    0001940b  0000000000000000  0000000000000000  00022008  2**0
                  CONTENTS, READONLY, DEBUGGING
 17 .debug_aranges 00000860  0000000000000000  0000000000000000  0003b420  2**4
                  CONTENTS, READONLY, DEBUGGING
 18 .debug_macro  00011f54  0000000000000000  0000000000000000  0003bc80  2**0
                  CONTENTS, READONLY, DEBUGGING
 19 .debug_line   0000a3af  0000000000000000  0000000000000000  0004dbd4  2**0
                  CONTENTS, READONLY, DEBUGGING
 20 .debug_str    000119bb  0000000000000000  0000000000000000  00057f83  2**0
                  CONTENTS, READONLY, DEBUGGING
 21 .comment      00000055  0000000000000000  0000000000000000  0006993e  2**0
                  CONTENTS, READONLY
 22 .debug_ranges 00001740  0000000000000000  0000000000000000  000699a0  2**4
                  CONTENTS, READONLY, DEBUGGING
SYMBOL TABLE:
0000000000000000 l    d  .ta_head	0000000000000000 .ta_head
0000000000000020 l    d  .text	0000000000000000 .text
0000000000008990 l    d  .eh_frame	0000000000000000 .eh_frame
000000000000a4e0 l    d  .rodata	0000000000000000 .rodata
000000000000b3a8 l    d  .gnu.hash	0000000000000000 .gnu.hash
000000000000b3c8 l    d  .dynsym	0000000000000000 .dynsym
000000000000b410 l    d  .dynstr	0000000000000000 .dynstr
000000000000b418 l    d  .hash	0000000000000000 .hash
000000000000b430 l    d  .rela.dyn	0000000000000000 .rela.dyn
000000000000c000 l    d  .got	0000000000000000 .got
000000000000c088 l    d  .rela.got	0000000000000000 .rela.got
000000000000c1c0 l    d  .dynamic	0000000000000000 .dynamic
000000000000c2d0 l    d  .data	0000000000000000 .data
000000000000c418 l    d  .bss	0000000000000000 .bss
0000000000000000 l    d  .debug_info	0000000000000000 .debug_info
0000000000000000 l    d  .debug_abbrev	0000000000000000 .debug_abbrev
0000000000000000 l    d  .debug_loc	0000000000000000 .debug_loc
0000000000000000 l    d  .debug_aranges	0000000000000000 .debug_aranges
0000000000000000 l    d  .debug_macro	0000000000000000 .debug_macro
0000000000000000 l    d  .debug_line	0000000000000000 .debug_line
0000000000000000 l    d  .debug_str	0000000000000000 .debug_str
0000000000000000 l    d  .comment	0000000000000000 .comment
0000000000000000 l    d  .debug_ranges	0000000000000000 .debug_ranges
0000000000000000 l    df *ABS*	0000000000000000 user_ta_header.c
000000000000a4e8 l     O .rodata	0000000000000004 __compound_literal.4
000000000000a4ec l     O .rodata	0000000000000004 __compound_literal.3
000000000000a4f0 l     O .rodata	0000000000000001 __compound_literal.2
000000000000a4f1 l     O .rodata	0000000000000001 __compound_literal.1
000000000000a4f2 l     O .rodata	0000000000000001 __compound_literal.0
0000000000000000 l    df *ABS*	0000000000000000 tds_ta_to_ta_entry.c
000000000000c418 l     O .bss	0000000000000008 tds_session
0000000000000000 l    df *ABS*	0000000000000000 snfc_ta_to_ta_entry.c
000000000000c420 l     O .bss	0000000000000008 snfc_session
0000000000000000 l    df *ABS*	0000000000000000 hce.c
0000000000000000 l    df *ABS*	0000000000000000 trusted_hce.c
000000000000a528 l     O .rodata	000000000000000c dummy
0000000000000000 l    df *ABS*	0000000000000000 trusted_hce_ta.c
0000000000000000 l    df *ABS*	0000000000000000 bget_malloc.c
000000000000090c l     F .text	0000000000000044 raw_malloc_return_hook.constprop.21
000000000000a90d l     O .rodata	0000000000000005 __func__.3627
000000000000a912 l     O .rodata	0000000000000006 __func__.3642
000000000000a918 l     O .rodata	0000000000000005 __func__.3660
000000000000a91d l     O .rodata	0000000000000006 __func__.3651
000000000000a923 l     O .rodata	0000000000000006 __func__.3669
000000000000a929 l     O .rodata	0000000000000007 __func__.3679
000000000000a930 l     O .rodata	0000000000000014 __func__.3843
000000000000a944 l     O .rodata	000000000000000e __func__.3794
000000000000a952 l     O .rodata	0000000000000013 __func__.3741
000000000000c378 l     O .data	0000000000000080 malloc_ctx
0000000000000000 l    df *ABS*	0000000000000000 snprintf.c
0000000000000000 l    df *ABS*	0000000000000000 memcpy.c
0000000000000000 l    df *ABS*	0000000000000000 memset.c
0000000000000000 l    df *ABS*	0000000000000000 strlen.c
0000000000000000 l    df *ABS*	0000000000000000 snprintk.c
000000000000ac09 l     O .rodata	0000000000000011 hexdigits
000000000000ac1a l     O .rodata	0000000000000011 HEXDIGITS
0000000000000000 l    df *ABS*	0000000000000000 memchr.c
0000000000000000 l    df *ABS*	0000000000000000 trace_ext.c
0000000000000000 l    df *ABS*	0000000000000000 assert.c
0000000000000000 l    df *ABS*	0000000000000000 tee_api.c
000000000000c430 l     O .bss	0000000000000008 tee_api_instance_data
000000000000a543 l     O .rodata	000000000000000b __func__.4664
0000000000000000 l    df *ABS*	0000000000000000 tee_api_panic.c
0000000000000000 l    df *ABS*	0000000000000000 user_ta_entry.c
0000000000002a1c l     F .text	0000000000000028 ta_header_get_session
0000000000002a44 l     F .text	0000000000000094 ta_header_remove_session
0000000000002ad8 l     F .text	0000000000000014 ta_header_save_params.part.0
0000000000017488 l     O .bss	0000000000000001 init_done
000000000000c3f8 l     O .data	0000000000000010 ta_sessions
0000000000000000 l    df *ABS*	0000000000000000 utee_syscalls_a64.o
0000000000000000 l    df *ABS*	0000000000000000 tee_api_arith_mpi.c
0000000000002f94 l     F .text	0000000000000030 api_panic
0000000000002fc4 l     F .text	0000000000000030 mpi_panic
0000000000002ff4 l     F .text	0000000000000098 get_mpi
000000000000308c l     F .text	0000000000000064 copy_mpi_to_bigint
00000000000030f0 l     F .text	0000000000000118 bigint_binary
0000000000003208 l     F .text	0000000000000020 mpi_is_odd
0000000000003228 l     F .text	0000000000000028 rng_read
0000000000003250 l     F .text	000000000000054c mpi_egcd
000000000000c480 l     O .bss	0000000000003000 data.4653
0000000000003b38 l     F .text	0000000000000194 bigint_binary_mod
000000000000ac9b l     O .rodata	0000000000000008 __func__.4687
000000000000aca3 l     O .rodata	000000000000000e __func__.4784
000000000000acb1 l     O .rodata	0000000000000009 __func__.4930
000000000000acba l     O .rodata	0000000000000012 __func__.4654
000000000000accc l     O .rodata	000000000000000f __func__.4693
000000000000acdb l     O .rodata	000000000000001f __func__.4711
000000000000acfa l     O .rodata	0000000000000019 __func__.4718
000000000000ad13 l     O .rodata	0000000000000012 __func__.4796
000000000000ad25 l     O .rodata	0000000000000015 __func__.4749
000000000000ad3a l     O .rodata	000000000000000e __func__.4824
000000000000ad48 l     O .rodata	000000000000000e __func__.4853
000000000000ad56 l     O .rodata	000000000000000e __func__.4861
000000000000ad64 l     O .rodata	0000000000000011 __func__.4890
000000000000ad75 l     O .rodata	0000000000000018 __func__.4907
000000000000ad8d l     O .rodata	000000000000001d __func__.4987
000000000000adaa l     O .rodata	0000000000000019 __func__.5040
000000000000adc3 l     O .rodata	0000000000000015 __func__.5055
0000000000000000 l    df *ABS*	0000000000000000 bignum.c
00000000000048d8 l     F .text	0000000000000064 mpi_get_digit
000000000000493c l     F .text	0000000000000060 mpi_sub_hlp
000000000000499c l     F .text	00000000000004d4 mpi_mul_hlp
0000000000006884 l     F .text	00000000000000d4 mpi_write_hlp
0000000000006b2c l     F .text	0000000000000098 mpi_check_small_factors
0000000000007640 l     F .text	0000000000000288 mpi_miller_rabin
000000000000a550 l     O .rodata	00000000000002a0 small_prime
000000000000a7f0 l     O .rodata	0000000000000024 gcd_pairs
0000000000000000 l    df *ABS*	0000000000000000 platform_util.c
000000000000c408 l     O .data	0000000000000008 memset_func
0000000000000000 l    df *ABS*	0000000000000000 memmove.c
0000000000000000 l    df *ABS*	0000000000000000 trace.c
000000000000b2ec l     O .rodata	0000000000000005 lvl_strs.3485
0000000000000000 l    df *ABS*	0000000000000000 mempool.c
000000000000b30b l     O .rodata	0000000000000013 __func__.3538
000000000000b31e l     O .rodata	000000000000000e __func__.3547
0000000000000000 l    df *ABS*	0000000000000000 consttime_memcmp.c
0000000000000000 l    df *ABS*	0000000000000000 
000000000000c1c0 l     O *ABS*	0000000000000000 _DYNAMIC
000000000000c018 l     O *ABS*	0000000000000000 _GLOBAL_OFFSET_TABLE_
00000000000024a0 g     F .text	000000000000003c putchar
0000000000004720 g     F .text	0000000000000004 TEE_BigIntConvertToFMM
000000000000427c g     F .text	000000000000000c TEE_BigIntSquareMod
0000000000003ccc g     F .text	000000000000016c TEE_BigIntShiftRight
0000000000000274 g     F .text	0000000000000078 tds_delete
0000000000002eec g     F .text	000000000000000c utee_storage_obj_create
0000000000004f14 g     F .text	00000000000000f8 mbedtls_mpi_grow
0000000000002cf4 g     F .text	000000000000000c utee_return
00000000000029f0 g     F .text	0000000000000008 TEE_Realloc
0000000000002398 g     F .text	00000000000000c8 printf
0000000000002d00 g     F .text	000000000000000c utee_log
00000000000026d0 g     F .text	00000000000000b8 TEE_InvokeTACommand
0000000000004e80 g     F .text	0000000000000028 mbedtls_mpi_init_mempool
0000000000005688 g     F .text	00000000000000c4 mbedtls_mpi_write_binary
00000000000001ec g     F .text	0000000000000088 tds_insert
0000000000002274 g     F .text	0000000000000054 vsnprintk
0000000000005e1c g     F .text	0000000000000040 mbedtls_mpi_sub_int
00000000000084b4 g     F .text	000000000000005c memmove
00000000000003b0 g     F .text	0000000000000060 process_snfc_packet
000000000000151c g     F .text	0000000000000078 snprintf
0000000000003af0 g     F .text	0000000000000048 TEE_BigIntCmpS32
0000000000000084 g     F .text	000000000000005c tds_contains_key
000000000000500c g     F .text	0000000000000120 mbedtls_mpi_shrink
0000000000003ec4 g     F .text	000000000000000c TEE_BigIntAdd
0000000000002d24 g     F .text	000000000000000c utee_get_property_name_to_index
000000000000a4f8 g     O .rodata	0000000000000008 ta_heap_size
0000000000002da8 g     F .text	000000000000000c utee_cryp_state_alloc
0000000000002eb0 g     F .text	000000000000000c utee_authenc_enc_final
0000000000005fe0 g     F .text	00000000000001e4 mbedtls_mpi_read_string
0000000000003edc g     F .text	00000000000000b0 TEE_BigIntNeg
0000000000000020 g       .text	0000000000000000 __text_start
000000000000584c g     F .text	00000000000000c8 mbedtls_mpi_shift_r
00000000000014b0 g     F .text	000000000000006c malloc_buffer_overlaps_heap
00000000000002ec g     F .text	0000000000000058 init_snfc_ta
0000000000004264 g     F .text	000000000000000c TEE_BigIntSubMod
0000000000007db8 g     F .text	000000000000030c mbedtls_mpi_gen_prime
000000000000544c g     F .text	000000000000002c mbedtls_mpi_get_bit
00000000000055d0 g     F .text	00000000000000b8 mbedtls_mpi_read_binary
000000000000853c g     F .text	0000000000000238 trace_printf
0000000000006c00 g     F .text	0000000000000134 mbedtls_mpi_montmul
00000000000015e8 g     F .text	0000000000000020 memcpy
0000000000002dc0 g     F .text	000000000000000c utee_cryp_state_free
0000000000004724 g     F .text	000000000000009c TEE_BigIntConvertFromFMM
0000000000002a14 g     F .text	0000000000000008 TEE_Panic
0000000000002460 g     F .text	0000000000000040 puts
00000000000047c0 g     F .text	0000000000000118 TEE_BigIntComputeFMM
00000000000010a8 g     F .text	0000000000000038 malloc_get_stats
0000000000002e08 g     F .text	000000000000000c utee_cipher_final
000000000000296c g     F .text	0000000000000028 TEE_GetREETime
000000000000c2d0 g     O .data	00000000000000a8 ta_props
00000000000010e0 g     F .text	0000000000000050 malloc
0000000000002e44 g     F .text	000000000000000c utee_cryp_obj_close
0000000000001594 g     F .text	0000000000000054 vsnprintf
000000000000c410 g     O .data	0000000000000004 trace_level
0000000000003a88 g     F .text	0000000000000068 TEE_BigIntCmp
000000000000a4e0 g     O .rodata	0000000000000008 ta_num_props
0000000000000e58 g     F .text	00000000000000cc bgetr
0000000000002ea4 g     F .text	000000000000000c utee_authenc_update_payload
00000000000088dc g     F .text	0000000000000044 mempool_free
00000000000038e8 g     F .text	0000000000000094 TEE_BigIntConvertToOctetString
0000000000002f88 g     F .text	000000000000000c utee_cache_operation
0000000000005558 g     F .text	000000000000005c mbedtls_mpi_bitlen
0000000000002e8c g     F .text	000000000000000c utee_authenc_init
0000000000003e38 g     F .text	000000000000004c TEE_BigIntGetBit
000000000000a500 g     O .rodata	0000000000000003 trace_ext_prefix
0000000000000b10 g     F .text	000000000000008c bgetz
000000000000282c g     F .text	000000000000000c TEE_GetInstanceData
0000000000002878 g     F .text	000000000000003c TEE_Wait
0000000000002f58 g     F .text	000000000000000c utee_storage_obj_write
0000000000005e5c g     F .text	0000000000000150 mbedtls_mpi_mul_mpi
0000000000002a04 g     F .text	0000000000000008 TEE_CacheFlush
00000000000007fc g     F .text	0000000000000014 TA_DestroyEntryPoint
0000000000004e70 g     F .text	0000000000000010 mbedtls_mpi_init
0000000000005504 g     F .text	0000000000000054 mbedtls_mpi_lsb
00000000000024dc g     F .text	0000000000000044 _assert_log
0000000000004718 g     F .text	0000000000000008 TEE_BigIntFMMContextSizeInU32
000000000000379c g     F .text	0000000000000050 _TEE_MathAPI_Init
0000000000005cc8 g     F .text	0000000000000088 mbedtls_mpi_add_mpi
0000000000002f40 g     F .text	000000000000000c utee_storage_next_enum
0000000000000344 g     F .text	000000000000000c exit_snfc_ta
000000000000f488 g     O .bss	0000000000008000 ta_heap
0000000000004288 g     F .text	000000000000011c TEE_BigIntInvMod
0000000000000820 g     F .text	0000000000000004 TA_CloseSessionEntryPoint
0000000000005d50 g     F .text	000000000000008c mbedtls_mpi_sub_mpi
0000000000008920 g     F .text	0000000000000070 consttime_memcmp
0000000000002d0c g     F .text	000000000000000c __utee_panic
0000000000002db4 g     F .text	000000000000000c utee_cryp_state_copy
0000000000000834 g     F .text	00000000000000bc TA_InvokeCommandEntryPoint
00000000000011fc g     F .text	0000000000000018 free_wipe
00000000000087e0 g     F .text	00000000000000ac mempool_alloc
0000000000002e38 g     F .text	000000000000000c utee_cryp_obj_alloc
0000000000002d9c g     F .text	000000000000000c utee_set_ta_time
0000000000002e2c g     F .text	000000000000000c utee_cryp_obj_get_attr
000000000000888c g     F .text	0000000000000050 mempool_calloc
0000000000001130 g     F .text	0000000000000064 calloc
0000000000002994 g     F .text	000000000000005c TEE_Malloc
0000000000002d78 g     F .text	000000000000000c utee_mask_cancellation
0000000000002e50 g     F .text	000000000000000c utee_cryp_obj_reset
000000000000280c g     F .text	0000000000000014 TEE_CheckMemoryAccessRights
0000000000017490 g       .bss	0000000000000000 __gprof_buf_end
00000000000053e4 g     F .text	0000000000000068 mbedtls_mpi_lset
0000000000000810 g     F .text	0000000000000010 TA_OpenSessionEntryPoint
0000000000002f34 g     F .text	000000000000000c utee_storage_start_enum
0000000000002f04 g     F .text	000000000000000c utee_storage_obj_rename
000000000000c438 g     O .bss	0000000000000004 ta_param_types
00000000000066f0 g     F .text	0000000000000040 mbedtls_mpi_div_int
0000000000007d00 g     F .text	00000000000000a8 mbedtls_mpi_is_prime_ext
00000000000046b0 g     F .text	0000000000000050 TEE_BigIntIsProbablePrime
0000000000005fac g     F .text	0000000000000034 mbedtls_mpi_mul_int
0000000000006d74 g     F .text	000000000000068c mbedtls_mpi_exp_mod
0000000000005240 g     F .text	00000000000000c0 mbedtls_mpi_safe_cond_assign
0000000000002d18 g     F .text	000000000000000c utee_get_property
00000000000037ec g     F .text	0000000000000070 TEE_BigIntInit
0000000000002838 g     F .text	0000000000000008 TEE_MemMove
00000000000084a0 g     F .text	0000000000000014 mbedtls_platform_zeroize
000000000000385c g     F .text	000000000000008c TEE_BigIntConvertFromOctetString
0000000000005914 g     F .text	000000000000009c mbedtls_mpi_cmp_abs
000000000000233c g     F .text	000000000000002c memchr
00000000000027b4 g     F .text	000000000000002c TEE_UnmaskCancellation
00000000000080c4 g     F .text	00000000000003dc mbedtls_mpi_self_test
0000000000002ef8 g     F .text	000000000000000c utee_storage_obj_del
0000000000002f70 g     F .text	000000000000000c utee_storage_obj_seek
0000000000005a88 g     F .text	0000000000000040 mbedtls_mpi_cmp_int
0000000000002dd8 g     F .text	000000000000000c utee_hash_update
00000000000000e0 g     F .text	0000000000000078 tds_contains_field
00000000000041f4 g     F .text	0000000000000064 TEE_BigIntMod
00000000000067e4 g     F .text	00000000000000a0 mbedtls_mpi_mod_int
0000000000002d3c g     F .text	000000000000000c utee_close_ta_session
000000000000407c g     F .text	0000000000000178 TEE_BigIntDiv
000000000000512c g     F .text	00000000000000b4 mbedtls_mpi_copy
0000000000001090 g     F .text	0000000000000018 malloc_reset_stats
0000000000002dfc g     F .text	000000000000000c utee_cipher_update
0000000000001194 g     F .text	0000000000000050 realloc
00000000000051e0 g     F .text	0000000000000060 mbedtls_mpi_swap
0000000000008778 g     F .text	0000000000000068 mempool_alloc_pool
0000000000002ed4 g     F .text	000000000000000c utee_asymm_verify
0000000000003f8c g     F .text	00000000000000e8 TEE_BigIntMul
000000000000574c g     F .text	0000000000000100 mbedtls_mpi_shift_l
00000000000059b0 g     F .text	00000000000000d8 mbedtls_mpi_cmp_mpi
0000000000002848 g     F .text	0000000000000008 TEE_MemFill
0000000000001214 g     F .text	000000000000011c malloc_add_pool
000000000000852c g     F .text	0000000000000010 trace_get_level
0000000000005ac8 g     F .text	000000000000012c mbedtls_mpi_add_abs
0000000000002e80 g     F .text	000000000000000c utee_cryp_random_number_generate
0000000000004708 g     F .text	0000000000000010 TEE_BigIntFMMSizeInU32
0000000000004700 g     F .text	0000000000000004 TEE_BigIntInitFMM
0000000000002ec8 g     F .text	000000000000000c utee_asymm_operate
0000000000002aec g     F .text	00000000000001fc __utee_entry
0000000000008990 g       .text	0000000000000000 __text_end
00000000000043a4 g     F .text	00000000000000d4 TEE_BigIntRelativePrime
0000000000006730 g     F .text	00000000000000b4 mbedtls_mpi_mod_mpi
0000000000000f24 g     F .text	00000000000000d4 bpool
0000000000002788 g     F .text	000000000000002c TEE_GetCancellationFlag
0000000000000458 g     F .text	0000000000000024 read_hce_card
0000000000007400 g     F .text	00000000000001bc mbedtls_mpi_gcd
0000000000002928 g     F .text	0000000000000044 TEE_SetTAPersistentTime
0000000000001608 g     F .text	000000000000001c memset
00000000000028b4 g     F .text	0000000000000074 TEE_GetTAPersistentTime
0000000000008774 g     F .text	0000000000000004 dhex_dump
00000000000027e0 g     F .text	000000000000002c TEE_MaskCancellation
0000000000002f4c g     F .text	000000000000000c utee_storage_obj_read
0000000000002e5c g     F .text	000000000000000c utee_cryp_obj_populate
0000000000008510 g     F .text	000000000000001c trace_set_level
0000000000002e14 g     F .text	000000000000000c utee_cryp_obj_get_info
0000000000002f10 g     F .text	000000000000000c utee_storage_alloc_enum
0000000000002f28 g     F .text	000000000000000c utee_storage_reset_enum
0000000000002f64 g     F .text	000000000000000c utee_storage_obj_trunc
0000000000003a00 g     F .text	0000000000000088 TEE_BigIntConvertToS32
0000000000003ed0 g     F .text	000000000000000c TEE_BigIntSub
0000000000002d54 g     F .text	000000000000000c utee_get_cancellation_flag
0000000000000158 g     F .text	0000000000000094 tds_get
0000000000002dcc g     F .text	000000000000000c utee_hash_init
0000000000000904 g     F .text	0000000000000008 tahead_get_trace_level
0000000000002534 g     F .text	0000000000000078 __utee_from_param
00000000000025ac g     F .text	000000000000006c __utee_to_param
0000000000006d34 g     F .text	0000000000000040 mbedtls_mpi_montred
000000000000397c g     F .text	0000000000000084 TEE_BigIntConvertFromS32
0000000000005ddc g     F .text	0000000000000040 mbedtls_mpi_add_int
0000000000002e20 g     F .text	000000000000000c utee_cryp_obj_restrict_usage
0000000000001330 g     F .text	0000000000000180 malloc_buffer_is_within_alloced
0000000000002e68 g     F .text	000000000000000c utee_cryp_obj_copy
0000000000004704 g     F .text	0000000000000004 TEE_BigIntInitFMMContext
0000000000002e74 g     F .text	000000000000000c utee_cryp_derive_key
0000000000000410 g     F .text	0000000000000048 print_card
0000000000002ebc g     F .text	000000000000000c utee_authenc_dec_final
0000000000004074 g     F .text	0000000000000008 TEE_BigIntSquare
00000000000007f8 g     F .text	0000000000000004 TA_CreateEntryPoint
00000000000008f0 g     F .text	0000000000000014 __ta_entry
0000000000006bc4 g     F .text	000000000000003c mbedtls_mpi_montg_init
00000000000022c8 g     F .text	0000000000000074 snprintk
0000000000003e84 g     F .text	0000000000000040 TEE_BigIntGetBitCount
0000000000004270 g     F .text	000000000000000c TEE_BigIntMulMod
00000000000078c8 g     F .text	0000000000000438 mbedtls_mpi_inv_mod
000000000000c440 g     O .bss	0000000000000040 ta_params
00000000000061c4 g     F .text	000000000000052c mbedtls_mpi_div_mpi
00000000000055b4 g     F .text	000000000000001c mbedtls_mpi_size
0000000000000950 g     F .text	00000000000001c0 bget
0000000000005478 g     F .text	000000000000008c mbedtls_mpi_set_bit
00000000000029f8 g     F .text	0000000000000004 TEE_Free
0000000000007da8 g     F .text	0000000000000010 mbedtls_mpi_is_prime
0000000000002a0c g     F .text	0000000000000008 TEE_CacheInvalidate
0000000000000824 g     F .text	0000000000000010 get_evaluation_time
0000000000002df0 g     F .text	000000000000000c utee_cipher_init
0000000000002520 g     F .text	0000000000000014 _assert_break
0000000000004258 g     F .text	000000000000000c TEE_BigIntAddMod
0000000000002f1c g     F .text	000000000000000c utee_storage_free_enum
0000000000002e98 g     F .text	000000000000000c utee_authenc_update_aad
0000000000000020 g     F .text	0000000000000058 init_tds_ta
00000000000004dc g     F .text	0000000000000218 process_response
0000000000002840 g     F .text	0000000000000008 TEE_MemCompare
0000000000001640 g     F .text	0000000000000c34 __vsnprintf
0000000000002ce8 g     F .text	000000000000000c utee_panic
0000000000002618 g     F .text	0000000000000090 TEE_OpenTASession
0000000000002368 g     F .text	0000000000000028 trace_ext_puts
0000000000002390 g     F .text	0000000000000008 trace_ext_get_thread_id
0000000000004ea8 g     F .text	000000000000006c mbedtls_mpi_free
00000000000029fc g     F .text	0000000000000008 TEE_CacheClean
0000000000002d30 g     F .text	000000000000000c utee_open_ta_session
0000000000000350 g     F .text	0000000000000060 create_snfc_packet
0000000000005300 g     F .text	00000000000000e4 mbedtls_mpi_safe_cond_swap
00000000000006f4 g     F .text	0000000000000104 create_request
0000000000002de4 g     F .text	000000000000000c utee_hash_final
0000000000001624 g     F .text	000000000000001c strlen
0000000000004478 g     F .text	0000000000000238 TEE_BigIntComputeExtendedGcd
000000000000047c g     F .text	0000000000000060 write_hce_card
0000000000002ee0 g     F .text	000000000000000c utee_storage_obj_open
0000000000002d48 g     F .text	000000000000000c utee_invoke_ta_command
0000000000002d84 g     F .text	000000000000000c utee_wait
0000000000002850 g     F .text	0000000000000028 TEE_GetSystemTime
0000000000000000 g     O .ta_head	0000000000000020 ta_head
0000000000000b9c g     F .text	00000000000002bc brel
0000000000005bf4 g     F .text	00000000000000d4 mbedtls_mpi_sub_abs
0000000000002d90 g     F .text	000000000000000c utee_get_time
00000000000075bc g     F .text	0000000000000084 mbedtls_mpi_fill_random
0000000000002820 g     F .text	000000000000000c TEE_SetInstanceData
0000000000002d6c g     F .text	000000000000000c utee_unmask_cancellation
0000000000002d60 g     F .text	000000000000000c utee_check_access_rights
0000000000006958 g     F .text	00000000000001d4 mbedtls_mpi_write_string
0000000000000078 g     F .text	000000000000000c exit_tds_ta
0000000000002f7c g     F .text	000000000000000c utee_cryp_obj_generate_key
00000000000026a8 g     F .text	0000000000000028 TEE_CloseTASession
000000000000c428 g     O .bss	0000000000000008 elapsed
0000000000017490 g       .bss	0000000000000000 __gprof_buf_start
00000000000011e4 g     F .text	0000000000000018 free
0000000000000ff8 g     F .text	0000000000000098 bstats
000000000000f480 g     O .bss	0000000000000008 mbedtls_mpi_mempool



Disassembly of section .text:

0000000000000020 <init_tds_ta>:
init_tds_ta():
/home/thesis/Desktop/trusted_hce/ta/../../../../../../home/thesis/Desktop/trusted_data_store/ta/tds_ta_to_ta_entry.c:10
      20:	a9b97bfd 	stp	x29, x30, [sp, #-112]!
/home/thesis/Desktop/trusted_hce/ta/../../../../../../home/thesis/Desktop/trusted_data_store/ta/tds_ta_to_ta_entry.c:18
      24:	d2800202 	mov	x2, #0x10                  	// #16
      28:	d0000041 	adrp	x1, a000 <__text_end+0x1670>
      2c:	910083e6 	add	x6, sp, #0x20
/home/thesis/Desktop/trusted_hce/ta/../../../../../../home/thesis/Desktop/trusted_data_store/ta/tds_ta_to_ta_entry.c:10
      30:	910003fd 	mov	x29, sp
/home/thesis/Desktop/trusted_hce/ta/../../../../../../home/thesis/Desktop/trusted_data_store/ta/tds_ta_to_ta_entry.c:18
      34:	aa0603e0 	mov	x0, x6
      38:	91141021 	add	x1, x1, #0x504
/home/thesis/Desktop/trusted_hce/ta/../../../../../../home/thesis/Desktop/trusted_data_store/ta/tds_ta_to_ta_entry.c:12
      3c:	b9001fff 	str	wzr, [sp, #28]
/home/thesis/Desktop/trusted_hce/ta/../../../../../../home/thesis/Desktop/trusted_data_store/ta/tds_ta_to_ta_entry.c:15
      40:	a9037fff 	stp	xzr, xzr, [sp, #48]
      44:	a9047fff 	stp	xzr, xzr, [sp, #64]
      48:	a9057fff 	stp	xzr, xzr, [sp, #80]
      4c:	a9067fff 	stp	xzr, xzr, [sp, #96]
/home/thesis/Desktop/trusted_hce/ta/../../../../../../home/thesis/Desktop/trusted_data_store/ta/tds_ta_to_ta_entry.c:18
      50:	94000566 	bl	15e8 <memcpy>
/home/thesis/Desktop/trusted_hce/ta/../../../../../../home/thesis/Desktop/trusted_data_store/ta/tds_ta_to_ta_entry.c:19
      54:	910073e5 	add	x5, sp, #0x1c
      58:	9100c3e3 	add	x3, sp, #0x30
      5c:	52800002 	mov	w2, #0x0                   	// #0
      60:	52800001 	mov	w1, #0x0                   	// #0
      64:	90000064 	adrp	x4, c000 <.got>
      68:	91106084 	add	x4, x4, #0x418
      6c:	9400096b 	bl	2618 <TEE_OpenTASession>
/home/thesis/Desktop/trusted_hce/ta/../../../../../../home/thesis/Desktop/trusted_data_store/ta/tds_ta_to_ta_entry.c:23
      70:	a8c77bfd 	ldp	x29, x30, [sp], #112
      74:	d65f03c0 	ret

0000000000000078 <exit_tds_ta>:
exit_tds_ta():
/home/thesis/Desktop/trusted_hce/ta/../../../../../../home/thesis/Desktop/trusted_data_store/ta/tds_ta_to_ta_entry.c:27
      78:	90000060 	adrp	x0, c000 <.got>
      7c:	f9420c00 	ldr	x0, [x0, #1048]
      80:	1400098a 	b	26a8 <TEE_CloseTASession>

0000000000000084 <tds_contains_key>:
tds_contains_key():
/home/thesis/Desktop/trusted_hce/ta/../../../../../../home/thesis/Desktop/trusted_data_store/ta/tds_ta_to_ta_entry.c:31
      84:	a9b97bfd 	stp	x29, x30, [sp, #-112]!
      88:	910003fd 	mov	x29, sp
      8c:	f9000bf3 	str	x19, [sp, #16]
/home/thesis/Desktop/trusted_hce/ta/../../../../../../home/thesis/Desktop/trusted_data_store/ta/tds_ta_to_ta_entry.c:36
      90:	9100c3f3 	add	x19, sp, #0x30
/home/thesis/Desktop/trusted_hce/ta/../../../../../../home/thesis/Desktop/trusted_data_store/ta/tds_ta_to_ta_entry.c:33
      94:	b9002fff 	str	wzr, [sp, #44]
/home/thesis/Desktop/trusted_hce/ta/../../../../../../home/thesis/Desktop/trusted_data_store/ta/tds_ta_to_ta_entry.c:36
      98:	a9037fe0 	stp	x0, xzr, [sp, #48]
      9c:	a9047fff 	stp	xzr, xzr, [sp, #64]
      a0:	a9057fff 	stp	xzr, xzr, [sp, #80]
      a4:	a9067fff 	stp	xzr, xzr, [sp, #96]
/home/thesis/Desktop/trusted_hce/ta/../../../../../../home/thesis/Desktop/trusted_data_store/ta/tds_ta_to_ta_entry.c:44
      a8:	9400055f 	bl	1624 <strlen>
      ac:	11000400 	add	w0, w0, #0x1
      b0:	b9003be0 	str	w0, [sp, #56]
/home/thesis/Desktop/trusted_hce/ta/../../../../../../home/thesis/Desktop/trusted_data_store/ta/tds_ta_to_ta_entry.c:46
      b4:	90000060 	adrp	x0, c000 <.got>
      b8:	9100b3e5 	add	x5, sp, #0x2c
      bc:	aa1303e4 	mov	x4, x19
      c0:	f9420c00 	ldr	x0, [x0, #1048]
      c4:	528000a3 	mov	w3, #0x5                   	// #5
      c8:	52800082 	mov	w2, #0x4                   	// #4
      cc:	52800001 	mov	w1, #0x0                   	// #0
      d0:	94000980 	bl	26d0 <TEE_InvokeTACommand>
/home/thesis/Desktop/trusted_hce/ta/../../../../../../home/thesis/Desktop/trusted_data_store/ta/tds_ta_to_ta_entry.c:50
      d4:	f9400bf3 	ldr	x19, [sp, #16]
      d8:	a8c77bfd 	ldp	x29, x30, [sp], #112
      dc:	d65f03c0 	ret

00000000000000e0 <tds_contains_field>:
tds_contains_field():
/home/thesis/Desktop/trusted_hce/ta/../../../../../../home/thesis/Desktop/trusted_data_store/ta/tds_ta_to_ta_entry.c:53
      e0:	a9b87bfd 	stp	x29, x30, [sp, #-128]!
      e4:	910003fd 	mov	x29, sp
      e8:	f9000bf3 	str	x19, [sp, #16]
/home/thesis/Desktop/trusted_hce/ta/../../../../../../home/thesis/Desktop/trusted_data_store/ta/tds_ta_to_ta_entry.c:58
      ec:	910103f3 	add	x19, sp, #0x40
/home/thesis/Desktop/trusted_hce/ta/../../../../../../home/thesis/Desktop/trusted_data_store/ta/tds_ta_to_ta_entry.c:53
      f0:	f90017e1 	str	x1, [sp, #40]
/home/thesis/Desktop/trusted_hce/ta/../../../../../../home/thesis/Desktop/trusted_data_store/ta/tds_ta_to_ta_entry.c:55
      f4:	b9003fff 	str	wzr, [sp, #60]
/home/thesis/Desktop/trusted_hce/ta/../../../../../../home/thesis/Desktop/trusted_data_store/ta/tds_ta_to_ta_entry.c:58
      f8:	a9047fe0 	stp	x0, xzr, [sp, #64]
      fc:	a9057fff 	stp	xzr, xzr, [sp, #80]
     100:	a9067fff 	stp	xzr, xzr, [sp, #96]
     104:	a9077fff 	stp	xzr, xzr, [sp, #112]
/home/thesis/Desktop/trusted_hce/ta/../../../../../../home/thesis/Desktop/trusted_data_store/ta/tds_ta_to_ta_entry.c:66
     108:	94000547 	bl	1624 <strlen>
     10c:	11000400 	add	w0, w0, #0x1
/home/thesis/Desktop/trusted_hce/ta/../../../../../../home/thesis/Desktop/trusted_data_store/ta/tds_ta_to_ta_entry.c:69
     110:	f94017e1 	ldr	x1, [sp, #40]
/home/thesis/Desktop/trusted_hce/ta/../../../../../../home/thesis/Desktop/trusted_data_store/ta/tds_ta_to_ta_entry.c:66
     114:	b9004be0 	str	w0, [sp, #72]
/home/thesis/Desktop/trusted_hce/ta/../../../../../../home/thesis/Desktop/trusted_data_store/ta/tds_ta_to_ta_entry.c:69
     118:	f9002be1 	str	x1, [sp, #80]
/home/thesis/Desktop/trusted_hce/ta/../../../../../../home/thesis/Desktop/trusted_data_store/ta/tds_ta_to_ta_entry.c:70
     11c:	aa0103e0 	mov	x0, x1
     120:	94000541 	bl	1624 <strlen>
     124:	11000400 	add	w0, w0, #0x1
     128:	b9005be0 	str	w0, [sp, #88]
/home/thesis/Desktop/trusted_hce/ta/../../../../../../home/thesis/Desktop/trusted_data_store/ta/tds_ta_to_ta_entry.c:72
     12c:	90000060 	adrp	x0, c000 <.got>
     130:	9100f3e5 	add	x5, sp, #0x3c
     134:	aa1303e4 	mov	x4, x19
     138:	f9420c00 	ldr	x0, [x0, #1048]
     13c:	52800aa3 	mov	w3, #0x55                  	// #85
     140:	528000a2 	mov	w2, #0x5                   	// #5
     144:	52800001 	mov	w1, #0x0                   	// #0
     148:	94000962 	bl	26d0 <TEE_InvokeTACommand>
/home/thesis/Desktop/trusted_hce/ta/../../../../../../home/thesis/Desktop/trusted_data_store/ta/tds_ta_to_ta_entry.c:76
     14c:	f9400bf3 	ldr	x19, [sp, #16]
     150:	a8c87bfd 	ldp	x29, x30, [sp], #128
     154:	d65f03c0 	ret

0000000000000158 <tds_get>:
tds_get():
/home/thesis/Desktop/trusted_hce/ta/../../../../../../home/thesis/Desktop/trusted_data_store/ta/tds_ta_to_ta_entry.c:79
     158:	a9b87bfd 	stp	x29, x30, [sp, #-128]!
     15c:	910003fd 	mov	x29, sp
     160:	a90153f3 	stp	x19, x20, [sp, #16]
     164:	aa0303f3 	mov	x19, x3
/home/thesis/Desktop/trusted_hce/ta/../../../../../../home/thesis/Desktop/trusted_data_store/ta/tds_ta_to_ta_entry.c:84
     168:	910103f4 	add	x20, sp, #0x40
/home/thesis/Desktop/trusted_hce/ta/../../../../../../home/thesis/Desktop/trusted_data_store/ta/tds_ta_to_ta_entry.c:79
     16c:	a90207e2 	stp	x2, x1, [sp, #32]
/home/thesis/Desktop/trusted_hce/ta/../../../../../../home/thesis/Desktop/trusted_data_store/ta/tds_ta_to_ta_entry.c:81
     170:	b9003fff 	str	wzr, [sp, #60]
/home/thesis/Desktop/trusted_hce/ta/../../../../../../home/thesis/Desktop/trusted_data_store/ta/tds_ta_to_ta_entry.c:84
     174:	a9047fe0 	stp	x0, xzr, [sp, #64]
     178:	a9057fff 	stp	xzr, xzr, [sp, #80]
     17c:	a9067fff 	stp	xzr, xzr, [sp, #96]
     180:	a9077fff 	stp	xzr, xzr, [sp, #112]
/home/thesis/Desktop/trusted_hce/ta/../../../../../../home/thesis/Desktop/trusted_data_store/ta/tds_ta_to_ta_entry.c:92
     184:	94000528 	bl	1624 <strlen>
     188:	11000400 	add	w0, w0, #0x1
/home/thesis/Desktop/trusted_hce/ta/../../../../../../home/thesis/Desktop/trusted_data_store/ta/tds_ta_to_ta_entry.c:95
     18c:	f94017e1 	ldr	x1, [sp, #40]
/home/thesis/Desktop/trusted_hce/ta/../../../../../../home/thesis/Desktop/trusted_data_store/ta/tds_ta_to_ta_entry.c:92
     190:	b9004be0 	str	w0, [sp, #72]
/home/thesis/Desktop/trusted_hce/ta/../../../../../../home/thesis/Desktop/trusted_data_store/ta/tds_ta_to_ta_entry.c:95
     194:	f9002be1 	str	x1, [sp, #80]
/home/thesis/Desktop/trusted_hce/ta/../../../../../../home/thesis/Desktop/trusted_data_store/ta/tds_ta_to_ta_entry.c:96
     198:	aa0103e0 	mov	x0, x1
     19c:	94000522 	bl	1624 <strlen>
     1a0:	11000400 	add	w0, w0, #0x1
     1a4:	b9005be0 	str	w0, [sp, #88]
/home/thesis/Desktop/trusted_hce/ta/../../../../../../home/thesis/Desktop/trusted_data_store/ta/tds_ta_to_ta_entry.c:102
     1a8:	9100f3e5 	add	x5, sp, #0x3c
/home/thesis/Desktop/trusted_hce/ta/../../../../../../home/thesis/Desktop/trusted_data_store/ta/tds_ta_to_ta_entry.c:100
     1ac:	f9400260 	ldr	x0, [x19]
     1b0:	b9006be0 	str	w0, [sp, #104]
/home/thesis/Desktop/trusted_hce/ta/../../../../../../home/thesis/Desktop/trusted_data_store/ta/tds_ta_to_ta_entry.c:102
     1b4:	90000060 	adrp	x0, c000 <.got>
     1b8:	aa1403e4 	mov	x4, x20
/home/thesis/Desktop/trusted_hce/ta/../../../../../../home/thesis/Desktop/trusted_data_store/ta/tds_ta_to_ta_entry.c:99
     1bc:	f94013e2 	ldr	x2, [sp, #32]
/home/thesis/Desktop/trusted_hce/ta/../../../../../../home/thesis/Desktop/trusted_data_store/ta/tds_ta_to_ta_entry.c:102
     1c0:	5280caa3 	mov	w3, #0x655                 	// #1621
     1c4:	f9420c00 	ldr	x0, [x0, #1048]
     1c8:	52800001 	mov	w1, #0x0                   	// #0
/home/thesis/Desktop/trusted_hce/ta/../../../../../../home/thesis/Desktop/trusted_data_store/ta/tds_ta_to_ta_entry.c:99
     1cc:	f90033e2 	str	x2, [sp, #96]
/home/thesis/Desktop/trusted_hce/ta/../../../../../../home/thesis/Desktop/trusted_data_store/ta/tds_ta_to_ta_entry.c:102
     1d0:	52800002 	mov	w2, #0x0                   	// #0
     1d4:	9400093f 	bl	26d0 <TEE_InvokeTACommand>
/home/thesis/Desktop/trusted_hce/ta/../../../../../../home/thesis/Desktop/trusted_data_store/ta/tds_ta_to_ta_entry.c:105
     1d8:	b9406be1 	ldr	w1, [sp, #104]
     1dc:	f9000261 	str	x1, [x19]
/home/thesis/Desktop/trusted_hce/ta/../../../../../../home/thesis/Desktop/trusted_data_store/ta/tds_ta_to_ta_entry.c:108
     1e0:	a94153f3 	ldp	x19, x20, [sp, #16]
     1e4:	a8c87bfd 	ldp	x29, x30, [sp], #128
     1e8:	d65f03c0 	ret

00000000000001ec <tds_insert>:
tds_insert():
/home/thesis/Desktop/trusted_hce/ta/../../../../../../home/thesis/Desktop/trusted_data_store/ta/tds_ta_to_ta_entry.c:111
     1ec:	a9b87bfd 	stp	x29, x30, [sp, #-128]!
     1f0:	910003fd 	mov	x29, sp
     1f4:	a90153f3 	stp	x19, x20, [sp, #16]
     1f8:	aa0303f4 	mov	x20, x3
/home/thesis/Desktop/trusted_hce/ta/../../../../../../home/thesis/Desktop/trusted_data_store/ta/tds_ta_to_ta_entry.c:116
     1fc:	910103f3 	add	x19, sp, #0x40
/home/thesis/Desktop/trusted_hce/ta/../../../../../../home/thesis/Desktop/trusted_data_store/ta/tds_ta_to_ta_entry.c:111
     200:	a90207e2 	stp	x2, x1, [sp, #32]
/home/thesis/Desktop/trusted_hce/ta/../../../../../../home/thesis/Desktop/trusted_data_store/ta/tds_ta_to_ta_entry.c:113
     204:	b9003fff 	str	wzr, [sp, #60]
/home/thesis/Desktop/trusted_hce/ta/../../../../../../home/thesis/Desktop/trusted_data_store/ta/tds_ta_to_ta_entry.c:116
     208:	a9047fe0 	stp	x0, xzr, [sp, #64]
     20c:	a9057fff 	stp	xzr, xzr, [sp, #80]
     210:	a9067fff 	stp	xzr, xzr, [sp, #96]
     214:	a9077fff 	stp	xzr, xzr, [sp, #112]
/home/thesis/Desktop/trusted_hce/ta/../../../../../../home/thesis/Desktop/trusted_data_store/ta/tds_ta_to_ta_entry.c:124
     218:	94000503 	bl	1624 <strlen>
     21c:	11000400 	add	w0, w0, #0x1
/home/thesis/Desktop/trusted_hce/ta/../../../../../../home/thesis/Desktop/trusted_data_store/ta/tds_ta_to_ta_entry.c:127
     220:	f94017e1 	ldr	x1, [sp, #40]
/home/thesis/Desktop/trusted_hce/ta/../../../../../../home/thesis/Desktop/trusted_data_store/ta/tds_ta_to_ta_entry.c:124
     224:	b9004be0 	str	w0, [sp, #72]
/home/thesis/Desktop/trusted_hce/ta/../../../../../../home/thesis/Desktop/trusted_data_store/ta/tds_ta_to_ta_entry.c:127
     228:	f9002be1 	str	x1, [sp, #80]
/home/thesis/Desktop/trusted_hce/ta/../../../../../../home/thesis/Desktop/trusted_data_store/ta/tds_ta_to_ta_entry.c:128
     22c:	aa0103e0 	mov	x0, x1
     230:	940004fd 	bl	1624 <strlen>
     234:	11000400 	add	w0, w0, #0x1
     238:	b9005be0 	str	w0, [sp, #88]
/home/thesis/Desktop/trusted_hce/ta/../../../../../../home/thesis/Desktop/trusted_data_store/ta/tds_ta_to_ta_entry.c:134
     23c:	90000060 	adrp	x0, c000 <.got>
/home/thesis/Desktop/trusted_hce/ta/../../../../../../home/thesis/Desktop/trusted_data_store/ta/tds_ta_to_ta_entry.c:131
     240:	f94013e2 	ldr	x2, [sp, #32]
/home/thesis/Desktop/trusted_hce/ta/../../../../../../home/thesis/Desktop/trusted_data_store/ta/tds_ta_to_ta_entry.c:134
     244:	9100f3e5 	add	x5, sp, #0x3c
     248:	f9420c00 	ldr	x0, [x0, #1048]
     24c:	aa1303e4 	mov	x4, x19
     250:	5280aaa3 	mov	w3, #0x555                 	// #1365
     254:	52800001 	mov	w1, #0x0                   	// #0
/home/thesis/Desktop/trusted_hce/ta/../../../../../../home/thesis/Desktop/trusted_data_store/ta/tds_ta_to_ta_entry.c:131
     258:	f90033e2 	str	x2, [sp, #96]
/home/thesis/Desktop/trusted_hce/ta/../../../../../../home/thesis/Desktop/trusted_data_store/ta/tds_ta_to_ta_entry.c:134
     25c:	52800022 	mov	w2, #0x1                   	// #1
/home/thesis/Desktop/trusted_hce/ta/../../../../../../home/thesis/Desktop/trusted_data_store/ta/tds_ta_to_ta_entry.c:132
     260:	b9006bf4 	str	w20, [sp, #104]
/home/thesis/Desktop/trusted_hce/ta/../../../../../../home/thesis/Desktop/trusted_data_store/ta/tds_ta_to_ta_entry.c:134
     264:	9400091b 	bl	26d0 <TEE_InvokeTACommand>
/home/thesis/Desktop/trusted_hce/ta/../../../../../../home/thesis/Desktop/trusted_data_store/ta/tds_ta_to_ta_entry.c:138
     268:	a94153f3 	ldp	x19, x20, [sp, #16]
     26c:	a8c87bfd 	ldp	x29, x30, [sp], #128
     270:	d65f03c0 	ret

0000000000000274 <tds_delete>:
tds_delete():
/home/thesis/Desktop/trusted_hce/ta/../../../../../../home/thesis/Desktop/trusted_data_store/ta/tds_ta_to_ta_entry.c:141
     274:	a9b87bfd 	stp	x29, x30, [sp, #-128]!
     278:	910003fd 	mov	x29, sp
     27c:	f9000bf3 	str	x19, [sp, #16]
/home/thesis/Desktop/trusted_hce/ta/../../../../../../home/thesis/Desktop/trusted_data_store/ta/tds_ta_to_ta_entry.c:146
     280:	910103f3 	add	x19, sp, #0x40
/home/thesis/Desktop/trusted_hce/ta/../../../../../../home/thesis/Desktop/trusted_data_store/ta/tds_ta_to_ta_entry.c:141
     284:	f90017e1 	str	x1, [sp, #40]
/home/thesis/Desktop/trusted_hce/ta/../../../../../../home/thesis/Desktop/trusted_data_store/ta/tds_ta_to_ta_entry.c:143
     288:	b9003fff 	str	wzr, [sp, #60]
/home/thesis/Desktop/trusted_hce/ta/../../../../../../home/thesis/Desktop/trusted_data_store/ta/tds_ta_to_ta_entry.c:146
     28c:	a9047fe0 	stp	x0, xzr, [sp, #64]
     290:	a9057fff 	stp	xzr, xzr, [sp, #80]
     294:	a9067fff 	stp	xzr, xzr, [sp, #96]
     298:	a9077fff 	stp	xzr, xzr, [sp, #112]
/home/thesis/Desktop/trusted_hce/ta/../../../../../../home/thesis/Desktop/trusted_data_store/ta/tds_ta_to_ta_entry.c:154
     29c:	940004e2 	bl	1624 <strlen>
     2a0:	11000400 	add	w0, w0, #0x1
/home/thesis/Desktop/trusted_hce/ta/../../../../../../home/thesis/Desktop/trusted_data_store/ta/tds_ta_to_ta_entry.c:157
     2a4:	f94017e1 	ldr	x1, [sp, #40]
/home/thesis/Desktop/trusted_hce/ta/../../../../../../home/thesis/Desktop/trusted_data_store/ta/tds_ta_to_ta_entry.c:154
     2a8:	b9004be0 	str	w0, [sp, #72]
/home/thesis/Desktop/trusted_hce/ta/../../../../../../home/thesis/Desktop/trusted_data_store/ta/tds_ta_to_ta_entry.c:157
     2ac:	f9002be1 	str	x1, [sp, #80]
/home/thesis/Desktop/trusted_hce/ta/../../../../../../home/thesis/Desktop/trusted_data_store/ta/tds_ta_to_ta_entry.c:158
     2b0:	aa0103e0 	mov	x0, x1
     2b4:	940004dc 	bl	1624 <strlen>
     2b8:	11000400 	add	w0, w0, #0x1
     2bc:	b9005be0 	str	w0, [sp, #88]
/home/thesis/Desktop/trusted_hce/ta/../../../../../../home/thesis/Desktop/trusted_data_store/ta/tds_ta_to_ta_entry.c:160
     2c0:	90000060 	adrp	x0, c000 <.got>
     2c4:	9100f3e5 	add	x5, sp, #0x3c
     2c8:	aa1303e4 	mov	x4, x19
     2cc:	f9420c00 	ldr	x0, [x0, #1048]
     2d0:	52800aa3 	mov	w3, #0x55                  	// #85
     2d4:	52800042 	mov	w2, #0x2                   	// #2
     2d8:	52800001 	mov	w1, #0x0                   	// #0
     2dc:	940008fd 	bl	26d0 <TEE_InvokeTACommand>
/home/thesis/Desktop/trusted_hce/ta/../../../../../../home/thesis/Desktop/trusted_data_store/ta/tds_ta_to_ta_entry.c:164
     2e0:	f9400bf3 	ldr	x19, [sp, #16]
     2e4:	a8c87bfd 	ldp	x29, x30, [sp], #128
     2e8:	d65f03c0 	ret

00000000000002ec <init_snfc_ta>:
init_snfc_ta():
/home/thesis/Desktop/trusted_hce/ta/../../../../../../home/thesis/Desktop/secure_nfc/ta/snfc_ta_to_ta_entry.c:12
     2ec:	a9b97bfd 	stp	x29, x30, [sp, #-112]!
/home/thesis/Desktop/trusted_hce/ta/../../../../../../home/thesis/Desktop/secure_nfc/ta/snfc_ta_to_ta_entry.c:20
     2f0:	d2800202 	mov	x2, #0x10                  	// #16
     2f4:	d0000041 	adrp	x1, a000 <__text_end+0x1670>
     2f8:	910083e6 	add	x6, sp, #0x20
/home/thesis/Desktop/trusted_hce/ta/../../../../../../home/thesis/Desktop/secure_nfc/ta/snfc_ta_to_ta_entry.c:12
     2fc:	910003fd 	mov	x29, sp
/home/thesis/Desktop/trusted_hce/ta/../../../../../../home/thesis/Desktop/secure_nfc/ta/snfc_ta_to_ta_entry.c:20
     300:	aa0603e0 	mov	x0, x6
     304:	91145021 	add	x1, x1, #0x514
/home/thesis/Desktop/trusted_hce/ta/../../../../../../home/thesis/Desktop/secure_nfc/ta/snfc_ta_to_ta_entry.c:14
     308:	b9001fff 	str	wzr, [sp, #28]
/home/thesis/Desktop/trusted_hce/ta/../../../../../../home/thesis/Desktop/secure_nfc/ta/snfc_ta_to_ta_entry.c:17
     30c:	a9037fff 	stp	xzr, xzr, [sp, #48]
     310:	a9047fff 	stp	xzr, xzr, [sp, #64]
     314:	a9057fff 	stp	xzr, xzr, [sp, #80]
     318:	a9067fff 	stp	xzr, xzr, [sp, #96]
/home/thesis/Desktop/trusted_hce/ta/../../../../../../home/thesis/Desktop/secure_nfc/ta/snfc_ta_to_ta_entry.c:20
     31c:	940004b3 	bl	15e8 <memcpy>
/home/thesis/Desktop/trusted_hce/ta/../../../../../../home/thesis/Desktop/secure_nfc/ta/snfc_ta_to_ta_entry.c:21
     320:	910073e5 	add	x5, sp, #0x1c
     324:	9100c3e3 	add	x3, sp, #0x30
     328:	52800002 	mov	w2, #0x0                   	// #0
     32c:	52800001 	mov	w1, #0x0                   	// #0
     330:	90000064 	adrp	x4, c000 <.got>
     334:	91108084 	add	x4, x4, #0x420
     338:	940008b8 	bl	2618 <TEE_OpenTASession>
/home/thesis/Desktop/trusted_hce/ta/../../../../../../home/thesis/Desktop/secure_nfc/ta/snfc_ta_to_ta_entry.c:25
     33c:	a8c77bfd 	ldp	x29, x30, [sp], #112
     340:	d65f03c0 	ret

0000000000000344 <exit_snfc_ta>:
exit_snfc_ta():
/home/thesis/Desktop/trusted_hce/ta/../../../../../../home/thesis/Desktop/secure_nfc/ta/snfc_ta_to_ta_entry.c:29
     344:	90000060 	adrp	x0, c000 <.got>
     348:	f9421000 	ldr	x0, [x0, #1056]
     34c:	140008d7 	b	26a8 <TEE_CloseTASession>

0000000000000350 <create_snfc_packet>:
create_snfc_packet():
/home/thesis/Desktop/trusted_hce/ta/../../../../../../home/thesis/Desktop/secure_nfc/ta/snfc_ta_to_ta_entry.c:33
     350:	a9bb7bfd 	stp	x29, x30, [sp, #-80]!
     354:	910003fd 	mov	x29, sp
     358:	f9000bf3 	str	x19, [sp, #16]
     35c:	aa0303f3 	mov	x19, x3
/home/thesis/Desktop/trusted_hce/ta/../../../../../../home/thesis/Desktop/secure_nfc/ta/snfc_ta_to_ta_entry.c:41
     360:	f9001be0 	str	x0, [sp, #48]
/home/thesis/Desktop/trusted_hce/ta/../../../../../../home/thesis/Desktop/secure_nfc/ta/snfc_ta_to_ta_entry.c:38
     364:	9100c3e4 	add	x4, sp, #0x30
     368:	29077fe1 	stp	w1, wzr, [sp, #56]
/home/thesis/Desktop/trusted_hce/ta/../../../../../../home/thesis/Desktop/secure_nfc/ta/snfc_ta_to_ta_entry.c:47
     36c:	9100b3e5 	add	x5, sp, #0x2c
/home/thesis/Desktop/trusted_hce/ta/../../../../../../home/thesis/Desktop/secure_nfc/ta/snfc_ta_to_ta_entry.c:45
     370:	f9400260 	ldr	x0, [x19]
     374:	b9004be0 	str	w0, [sp, #72]
/home/thesis/Desktop/trusted_hce/ta/../../../../../../home/thesis/Desktop/secure_nfc/ta/snfc_ta_to_ta_entry.c:47
     378:	90000060 	adrp	x0, c000 <.got>
/home/thesis/Desktop/trusted_hce/ta/../../../../../../home/thesis/Desktop/secure_nfc/ta/snfc_ta_to_ta_entry.c:38
     37c:	b9001c9f 	str	wzr, [x4, #28]
/home/thesis/Desktop/trusted_hce/ta/../../../../../../home/thesis/Desktop/secure_nfc/ta/snfc_ta_to_ta_entry.c:47
     380:	52800ca3 	mov	w3, #0x65                  	// #101
     384:	52800001 	mov	w1, #0x0                   	// #0
     388:	f9421000 	ldr	x0, [x0, #1056]
/home/thesis/Desktop/trusted_hce/ta/../../../../../../home/thesis/Desktop/secure_nfc/ta/snfc_ta_to_ta_entry.c:35
     38c:	b9002fff 	str	wzr, [sp, #44]
/home/thesis/Desktop/trusted_hce/ta/../../../../../../home/thesis/Desktop/secure_nfc/ta/snfc_ta_to_ta_entry.c:44
     390:	f90023e2 	str	x2, [sp, #64]
/home/thesis/Desktop/trusted_hce/ta/../../../../../../home/thesis/Desktop/secure_nfc/ta/snfc_ta_to_ta_entry.c:47
     394:	528000a2 	mov	w2, #0x5                   	// #5
     398:	940008ce 	bl	26d0 <TEE_InvokeTACommand>
/home/thesis/Desktop/trusted_hce/ta/../../../../../../home/thesis/Desktop/secure_nfc/ta/snfc_ta_to_ta_entry.c:50
     39c:	b9404be1 	ldr	w1, [sp, #72]
     3a0:	f9000261 	str	x1, [x19]
/home/thesis/Desktop/trusted_hce/ta/../../../../../../home/thesis/Desktop/secure_nfc/ta/snfc_ta_to_ta_entry.c:53
     3a4:	f9400bf3 	ldr	x19, [sp, #16]
     3a8:	a8c57bfd 	ldp	x29, x30, [sp], #80
     3ac:	d65f03c0 	ret

00000000000003b0 <process_snfc_packet>:
process_snfc_packet():
/home/thesis/Desktop/trusted_hce/ta/../../../../../../home/thesis/Desktop/secure_nfc/ta/snfc_ta_to_ta_entry.c:56
     3b0:	a9bb7bfd 	stp	x29, x30, [sp, #-80]!
     3b4:	910003fd 	mov	x29, sp
     3b8:	f9000bf3 	str	x19, [sp, #16]
     3bc:	aa0303f3 	mov	x19, x3
/home/thesis/Desktop/trusted_hce/ta/../../../../../../home/thesis/Desktop/secure_nfc/ta/snfc_ta_to_ta_entry.c:64
     3c0:	f9001be0 	str	x0, [sp, #48]
/home/thesis/Desktop/trusted_hce/ta/../../../../../../home/thesis/Desktop/secure_nfc/ta/snfc_ta_to_ta_entry.c:61
     3c4:	9100c3e4 	add	x4, sp, #0x30
     3c8:	29077fe1 	stp	w1, wzr, [sp, #56]
/home/thesis/Desktop/trusted_hce/ta/../../../../../../home/thesis/Desktop/secure_nfc/ta/snfc_ta_to_ta_entry.c:70
     3cc:	9100b3e5 	add	x5, sp, #0x2c
/home/thesis/Desktop/trusted_hce/ta/../../../../../../home/thesis/Desktop/secure_nfc/ta/snfc_ta_to_ta_entry.c:68
     3d0:	f9400260 	ldr	x0, [x19]
     3d4:	b9004be0 	str	w0, [sp, #72]
/home/thesis/Desktop/trusted_hce/ta/../../../../../../home/thesis/Desktop/secure_nfc/ta/snfc_ta_to_ta_entry.c:70
     3d8:	90000060 	adrp	x0, c000 <.got>
/home/thesis/Desktop/trusted_hce/ta/../../../../../../home/thesis/Desktop/secure_nfc/ta/snfc_ta_to_ta_entry.c:61
     3dc:	b9001c9f 	str	wzr, [x4, #28]
/home/thesis/Desktop/trusted_hce/ta/../../../../../../home/thesis/Desktop/secure_nfc/ta/snfc_ta_to_ta_entry.c:70
     3e0:	52800ca3 	mov	w3, #0x65                  	// #101
     3e4:	52800001 	mov	w1, #0x0                   	// #0
     3e8:	f9421000 	ldr	x0, [x0, #1056]
/home/thesis/Desktop/trusted_hce/ta/../../../../../../home/thesis/Desktop/secure_nfc/ta/snfc_ta_to_ta_entry.c:58
     3ec:	b9002fff 	str	wzr, [sp, #44]
/home/thesis/Desktop/trusted_hce/ta/../../../../../../home/thesis/Desktop/secure_nfc/ta/snfc_ta_to_ta_entry.c:67
     3f0:	f90023e2 	str	x2, [sp, #64]
/home/thesis/Desktop/trusted_hce/ta/../../../../../../home/thesis/Desktop/secure_nfc/ta/snfc_ta_to_ta_entry.c:70
     3f4:	528000c2 	mov	w2, #0x6                   	// #6
     3f8:	940008b6 	bl	26d0 <TEE_InvokeTACommand>
/home/thesis/Desktop/trusted_hce/ta/../../../../../../home/thesis/Desktop/secure_nfc/ta/snfc_ta_to_ta_entry.c:73
     3fc:	b9404be1 	ldr	w1, [sp, #72]
     400:	f9000261 	str	x1, [x19]
/home/thesis/Desktop/trusted_hce/ta/../../../../../../home/thesis/Desktop/secure_nfc/ta/snfc_ta_to_ta_entry.c:76
     404:	f9400bf3 	ldr	x19, [sp, #16]
     408:	a8c57bfd 	ldp	x29, x30, [sp], #80
     40c:	d65f03c0 	ret

0000000000000410 <print_card>:
print_card():
/home/thesis/Desktop/trusted_hce/ta/../common/hce.c:6
     410:	a9be7bfd 	stp	x29, x30, [sp, #-32]!
     414:	910003fd 	mov	x29, sp
     418:	f9000bf3 	str	x19, [sp, #16]
     41c:	aa0003f3 	mov	x19, x0
/home/thesis/Desktop/trusted_hce/ta/../common/hce.c:7
     420:	d0000040 	adrp	x0, a000 <__text_end+0x1670>
     424:	91205000 	add	x0, x0, #0x814
     428:	b9400261 	ldr	w1, [x19]
     42c:	940007db 	bl	2398 <printf>
/home/thesis/Desktop/trusted_hce/ta/../common/hce.c:8
     430:	b9400661 	ldr	w1, [x19, #4]
     434:	d0000040 	adrp	x0, a000 <__text_end+0x1670>
     438:	91208400 	add	x0, x0, #0x821
     43c:	940007d7 	bl	2398 <printf>
/home/thesis/Desktop/trusted_hce/ta/../common/hce.c:9
     440:	b9400a61 	ldr	w1, [x19, #8]
     444:	d0000040 	adrp	x0, a000 <__text_end+0x1670>
/home/thesis/Desktop/trusted_hce/ta/../common/hce.c:10
     448:	f9400bf3 	ldr	x19, [sp, #16]
/home/thesis/Desktop/trusted_hce/ta/../common/hce.c:9
     44c:	9120ec00 	add	x0, x0, #0x83b
/home/thesis/Desktop/trusted_hce/ta/../common/hce.c:10
     450:	a8c27bfd 	ldp	x29, x30, [sp], #32
/home/thesis/Desktop/trusted_hce/ta/../common/hce.c:9
     454:	140007d1 	b	2398 <printf>

0000000000000458 <read_hce_card>:
read_hce_card():
/home/thesis/Desktop/trusted_hce/ta/../common/hce.c:13
     458:	aa0003e1 	mov	x1, x0
/home/thesis/Desktop/trusted_hce/ta/../common/hce.c:24
     45c:	d2800000 	mov	x0, #0x0                   	// #0
/home/thesis/Desktop/trusted_hce/ta/../common/hce.c:13
     460:	d10043ff 	sub	sp, sp, #0x10
/home/thesis/Desktop/trusted_hce/ta/../common/hce.c:24
     464:	b9400022 	ldr	w2, [x1]
     468:	b3407c40 	bfxil	x0, x2, #0, #32
/home/thesis/Desktop/trusted_hce/ta/../common/hce.c:25
     46c:	29408422 	ldp	w2, w1, [x1, #4]
     470:	910043ff 	add	sp, sp, #0x10
/home/thesis/Desktop/trusted_hce/ta/../common/hce.c:24
     474:	b3607c40 	bfi	x0, x2, #32, #32
/home/thesis/Desktop/trusted_hce/ta/../common/hce.c:25
     478:	d65f03c0 	ret

000000000000047c <write_hce_card>:
write_hce_card():
/home/thesis/Desktop/trusted_hce/ta/../common/hce.c:28
     47c:	a9bd7bfd 	stp	x29, x30, [sp, #-48]!
     480:	910003fd 	mov	x29, sp
     484:	a90153f3 	stp	x19, x20, [sp, #16]
     488:	aa0103f3 	mov	x19, x1
     48c:	aa0003f4 	mov	x20, x0
/home/thesis/Desktop/trusted_hce/ta/../common/hce.c:29
     490:	aa0003e1 	mov	x1, x0
     494:	aa1303e0 	mov	x0, x19
/home/thesis/Desktop/trusted_hce/ta/../common/hce.c:28
     498:	f90013f5 	str	x21, [sp, #32]
/home/thesis/Desktop/trusted_hce/ta/../common/hce.c:29
     49c:	d2800095 	mov	x21, #0x4                   	// #4
     4a0:	aa1503e2 	mov	x2, x21
     4a4:	94000451 	bl	15e8 <memcpy>
/home/thesis/Desktop/trusted_hce/ta/../common/hce.c:32
     4a8:	8b150281 	add	x1, x20, x21
     4ac:	aa1503e2 	mov	x2, x21
     4b0:	8b150260 	add	x0, x19, x21
     4b4:	9400044d 	bl	15e8 <memcpy>
/home/thesis/Desktop/trusted_hce/ta/../common/hce.c:35
     4b8:	aa1503e2 	mov	x2, x21
     4bc:	91002281 	add	x1, x20, #0x8
     4c0:	91002260 	add	x0, x19, #0x8
     4c4:	94000449 	bl	15e8 <memcpy>
/home/thesis/Desktop/trusted_hce/ta/../common/hce.c:39
     4c8:	d2800180 	mov	x0, #0xc                   	// #12
     4cc:	a94153f3 	ldp	x19, x20, [sp, #16]
     4d0:	f94013f5 	ldr	x21, [sp, #32]
     4d4:	a8c37bfd 	ldp	x29, x30, [sp], #48
     4d8:	d65f03c0 	ret

00000000000004dc <process_response>:
process_response():
/home/thesis/Desktop/trusted_hce/ta/trusted_hce.c:86
     4dc:	a9bb7bfd 	stp	x29, x30, [sp, #-80]!
     4e0:	910003fd 	mov	x29, sp
     4e4:	a90153f3 	stp	x19, x20, [sp, #16]
     4e8:	aa0203f4 	mov	x20, x2
     4ec:	a9025bf5 	stp	x21, x22, [sp, #32]
     4f0:	12001c15 	and	w21, w0, #0xff
     4f4:	aa0103f6 	mov	x22, x1
/home/thesis/Desktop/trusted_hce/ta/trusted_hce.c:90
     4f8:	aa0203e0 	mov	x0, x2
     4fc:	d2800021 	mov	x1, #0x1                   	// #1
/home/thesis/Desktop/trusted_hce/ta/trusted_hce.c:89
     500:	f9001fe2 	str	x2, [sp, #56]
/home/thesis/Desktop/trusted_hce/ta/trusted_hce.c:90
     504:	9400030b 	bl	1130 <calloc>
/home/thesis/Desktop/trusted_hce/ta/trusted_hce.c:93
     508:	b4000f20 	cbz	x0, 6ec <process_response+0x210>
/home/thesis/Desktop/trusted_hce/ta/trusted_hce.c:95
     50c:	aa0003e2 	mov	x2, x0
     510:	aa1403e1 	mov	x1, x20
     514:	aa0003f3 	mov	x19, x0
     518:	9100e3e3 	add	x3, sp, #0x38
     51c:	aa1603e0 	mov	x0, x22
     520:	97ffffa4 	bl	3b0 <process_snfc_packet>
     524:	2a0003f4 	mov	w20, w0
     528:	35000180 	cbnz	w0, 558 <process_response+0x7c>
/home/thesis/Desktop/trusted_hce/ta/trusted_hce.c:100
     52c:	39400260 	ldrb	w0, [x19]
     530:	34000140 	cbz	w0, 558 <process_response+0x7c>
/home/thesis/Desktop/trusted_hce/ta/trusted_hce.c:105
     534:	71000ebf 	cmp	w21, #0x3
     538:	540000e8 	b.hi	554 <process_response+0x78>  // b.pmore
     53c:	d0000040 	adrp	x0, a000 <__text_end+0x1670>
     540:	91149000 	add	x0, x0, #0x524
     544:	38754800 	ldrb	w0, [x0, w21, uxtw]
     548:	10000061 	adr	x1, 554 <process_response+0x78>
     54c:	8b208820 	add	x0, x1, w0, sxtb #2
     550:	d61f0000 	br	x0
/home/thesis/Desktop/trusted_hce/ta/trusted_hce.c:127
     554:	52bffff4 	mov	w20, #0xffff0000            	// #-65536
/home/thesis/Desktop/trusted_hce/ta/trusted_hce.c:137
     558:	aa1303e0 	mov	x0, x19
     55c:	94000927 	bl	29f8 <TEE_Free>
/home/thesis/Desktop/trusted_hce/ta/trusted_hce.c:141
     560:	2a1403e0 	mov	w0, w20
     564:	a94153f3 	ldp	x19, x20, [sp, #16]
     568:	a9425bf5 	ldp	x21, x22, [sp, #32]
     56c:	a8c57bfd 	ldp	x29, x30, [sp], #80
     570:	d65f03c0 	ret
read_hce_card_ptr():
/home/thesis/Desktop/trusted_hce/ta/trusted_hce.c:79
     574:	39401660 	ldrb	w0, [x19, #5]
write_tds_hce_card():
/home/thesis/Desktop/trusted_hce/ta/trusted_hce.c:49
     578:	910103f6 	add	x22, sp, #0x40
read_hce_card_ptr():
/home/thesis/Desktop/trusted_hce/ta/trusted_hce.c:79
     57c:	39401a61 	ldrb	w1, [x19, #6]
/home/thesis/Desktop/trusted_hce/ta/trusted_hce.c:76
     580:	39400663 	ldrb	w3, [x19, #1]
     584:	39400a74 	ldrb	w20, [x19, #2]
/home/thesis/Desktop/trusted_hce/ta/trusted_hce.c:79
     588:	aa012001 	orr	x1, x0, x1, lsl #8
     58c:	39401e60 	ldrb	w0, [x19, #7]
/home/thesis/Desktop/trusted_hce/ta/trusted_hce.c:76
     590:	aa142074 	orr	x20, x3, x20, lsl #8
     594:	39400e63 	ldrb	w3, [x19, #3]
/home/thesis/Desktop/trusted_hce/ta/trusted_hce.c:79
     598:	aa004021 	orr	x1, x1, x0, lsl #16
     59c:	39402260 	ldrb	w0, [x19, #8]
/home/thesis/Desktop/trusted_hce/ta/trusted_hce.c:76
     5a0:	aa034283 	orr	x3, x20, x3, lsl #16
     5a4:	39401274 	ldrb	w20, [x19, #4]
/home/thesis/Desktop/trusted_hce/ta/trusted_hce.c:79
     5a8:	aa006020 	orr	x0, x1, x0, lsl #24
/home/thesis/Desktop/trusted_hce/ta/trusted_hce.c:82
     5ac:	39402a61 	ldrb	w1, [x19, #10]
/home/thesis/Desktop/trusted_hce/ta/trusted_hce.c:76
     5b0:	aa146074 	orr	x20, x3, x20, lsl #24
/home/thesis/Desktop/trusted_hce/ta/trusted_hce.c:79
     5b4:	290803f4 	stp	w20, w0, [sp, #64]
/home/thesis/Desktop/trusted_hce/ta/trusted_hce.c:82
     5b8:	39402660 	ldrb	w0, [x19, #9]
     5bc:	aa012001 	orr	x1, x0, x1, lsl #8
     5c0:	39402e60 	ldrb	w0, [x19, #11]
     5c4:	aa004021 	orr	x1, x1, x0, lsl #16
     5c8:	39403260 	ldrb	w0, [x19, #12]
     5cc:	aa006020 	orr	x0, x1, x0, lsl #24
ui32toa():
/home/thesis/Desktop/trusted_hce/ta/trusted_hce.c:14
     5d0:	d2800021 	mov	x1, #0x1                   	// #1
read_hce_card_ptr():
/home/thesis/Desktop/trusted_hce/ta/trusted_hce.c:82
     5d4:	b9004be0 	str	w0, [sp, #72]
ui32toa():
/home/thesis/Desktop/trusted_hce/ta/trusted_hce.c:14
     5d8:	d2800420 	mov	x0, #0x21                  	// #33
     5dc:	940002d5 	bl	1130 <calloc>
     5e0:	aa0003f5 	mov	x21, x0
/home/thesis/Desktop/trusted_hce/ta/trusted_hce.c:15
     5e4:	2a1403e3 	mov	w3, w20
     5e8:	d2800421 	mov	x1, #0x21                  	// #33
     5ec:	d0000042 	adrp	x2, a000 <__text_end+0x1670>
     5f0:	91212c42 	add	x2, x2, #0x84b
     5f4:	940003ca 	bl	151c <snprintf>
write_tds_hce_card():
/home/thesis/Desktop/trusted_hce/ta/trusted_hce.c:49
     5f8:	d2800083 	mov	x3, #0x4                   	// #4
     5fc:	aa1603e2 	mov	x2, x22
     600:	d0000041 	adrp	x1, a000 <__text_end+0x1670>
     604:	aa1503e0 	mov	x0, x21
     608:	91213821 	add	x1, x1, #0x84e
     60c:	97fffef8 	bl	1ec <tds_insert>
     610:	2a0003f4 	mov	w20, w0
     614:	35000200 	cbnz	w0, 654 <process_response+0x178>
/home/thesis/Desktop/trusted_hce/ta/trusted_hce.c:51
     618:	d2800083 	mov	x3, #0x4                   	// #4
     61c:	d0000041 	adrp	x1, a000 <__text_end+0x1670>
     620:	8b0302c2 	add	x2, x22, x3
     624:	91214421 	add	x1, x1, #0x851
     628:	aa1503e0 	mov	x0, x21
     62c:	97fffef0 	bl	1ec <tds_insert>
     630:	2a0003f4 	mov	w20, w0
     634:	35000100 	cbnz	w0, 654 <process_response+0x178>
/home/thesis/Desktop/trusted_hce/ta/trusted_hce.c:53
     638:	910022c2 	add	x2, x22, #0x8
     63c:	d2800083 	mov	x3, #0x4                   	// #4
process_response():
/home/thesis/Desktop/trusted_hce/ta/trusted_hce.c:122
     640:	d0000041 	adrp	x1, a000 <__text_end+0x1670>
     644:	aa1503e0 	mov	x0, x21
     648:	91218421 	add	x1, x1, #0x861
     64c:	97fffee8 	bl	1ec <tds_insert>
     650:	2a0003f4 	mov	w20, w0
/home/thesis/Desktop/trusted_hce/ta/trusted_hce.c:123
     654:	aa1503e0 	mov	x0, x21
     658:	940008e8 	bl	29f8 <TEE_Free>
/home/thesis/Desktop/trusted_hce/ta/trusted_hce.c:124
     65c:	17ffffbf 	b	558 <process_response+0x7c>
read_hce_card_ptr():
/home/thesis/Desktop/trusted_hce/ta/trusted_hce.c:79
     660:	39401660 	ldrb	w0, [x19, #5]
     664:	39401a61 	ldrb	w1, [x19, #6]
/home/thesis/Desktop/trusted_hce/ta/trusted_hce.c:76
     668:	39400663 	ldrb	w3, [x19, #1]
     66c:	39400a74 	ldrb	w20, [x19, #2]
/home/thesis/Desktop/trusted_hce/ta/trusted_hce.c:79
     670:	aa012001 	orr	x1, x0, x1, lsl #8
     674:	39401e60 	ldrb	w0, [x19, #7]
/home/thesis/Desktop/trusted_hce/ta/trusted_hce.c:76
     678:	aa142074 	orr	x20, x3, x20, lsl #8
     67c:	39400e63 	ldrb	w3, [x19, #3]
/home/thesis/Desktop/trusted_hce/ta/trusted_hce.c:79
     680:	aa004021 	orr	x1, x1, x0, lsl #16
     684:	39402260 	ldrb	w0, [x19, #8]
/home/thesis/Desktop/trusted_hce/ta/trusted_hce.c:76
     688:	aa034283 	orr	x3, x20, x3, lsl #16
     68c:	39401274 	ldrb	w20, [x19, #4]
/home/thesis/Desktop/trusted_hce/ta/trusted_hce.c:79
     690:	aa006020 	orr	x0, x1, x0, lsl #24
/home/thesis/Desktop/trusted_hce/ta/trusted_hce.c:82
     694:	39402a61 	ldrb	w1, [x19, #10]
/home/thesis/Desktop/trusted_hce/ta/trusted_hce.c:76
     698:	aa146074 	orr	x20, x3, x20, lsl #24
/home/thesis/Desktop/trusted_hce/ta/trusted_hce.c:79
     69c:	290803f4 	stp	w20, w0, [sp, #64]
/home/thesis/Desktop/trusted_hce/ta/trusted_hce.c:82
     6a0:	39402660 	ldrb	w0, [x19, #9]
     6a4:	aa012001 	orr	x1, x0, x1, lsl #8
     6a8:	39402e60 	ldrb	w0, [x19, #11]
     6ac:	aa004021 	orr	x1, x1, x0, lsl #16
     6b0:	39403260 	ldrb	w0, [x19, #12]
     6b4:	aa006020 	orr	x0, x1, x0, lsl #24
ui32toa():
/home/thesis/Desktop/trusted_hce/ta/trusted_hce.c:14
     6b8:	d2800021 	mov	x1, #0x1                   	// #1
read_hce_card_ptr():
/home/thesis/Desktop/trusted_hce/ta/trusted_hce.c:82
     6bc:	b9004be0 	str	w0, [sp, #72]
ui32toa():
/home/thesis/Desktop/trusted_hce/ta/trusted_hce.c:14
     6c0:	d2800420 	mov	x0, #0x21                  	// #33
     6c4:	9400029b 	bl	1130 <calloc>
     6c8:	aa0003f5 	mov	x21, x0
/home/thesis/Desktop/trusted_hce/ta/trusted_hce.c:15
     6cc:	2a1403e3 	mov	w3, w20
     6d0:	d0000042 	adrp	x2, a000 <__text_end+0x1670>
     6d4:	d2800421 	mov	x1, #0x21                  	// #33
     6d8:	91212c42 	add	x2, x2, #0x84b
     6dc:	94000390 	bl	151c <snprintf>
process_response():
/home/thesis/Desktop/trusted_hce/ta/trusted_hce.c:122
     6e0:	d2800083 	mov	x3, #0x4                   	// #4
     6e4:	910123e2 	add	x2, sp, #0x48
     6e8:	17ffffd6 	b	640 <process_response+0x164>
/home/thesis/Desktop/trusted_hce/ta/trusted_hce.c:87
     6ec:	52bffff4 	mov	w20, #0xffff0000            	// #-65536
/home/thesis/Desktop/trusted_hce/ta/trusted_hce.c:140
     6f0:	17ffff9c 	b	560 <process_response+0x84>

00000000000006f4 <create_request>:
create_request():
/home/thesis/Desktop/trusted_hce/ta/trusted_hce.c:192
     6f4:	a9ba7bfd 	stp	x29, x30, [sp, #-96]!
     6f8:	910003fd 	mov	x29, sp
     6fc:	a90153f3 	stp	x19, x20, [sp, #16]
     700:	12001c14 	and	w20, w0, #0xff
is_valid_request():
/home/thesis/Desktop/trusted_hce/ta/trusted_hce.c:170
     704:	71000e9f 	cmp	w20, #0x3
create_request():
/home/thesis/Desktop/trusted_hce/ta/trusted_hce.c:192
     708:	a9025bf5 	stp	x21, x22, [sp, #32]
     70c:	a90363f7 	stp	x23, x24, [sp, #48]
     710:	b9004fe2 	str	w2, [sp, #76]
is_valid_request():
/home/thesis/Desktop/trusted_hce/ta/trusted_hce.c:170
     714:	540006a8 	b.hi	7e8 <create_request+0xf4>  // b.pmore
get_request_buffer_size():
/home/thesis/Desktop/trusted_hce/ta/trusted_hce.c:147
     718:	7100069f 	cmp	w20, #0x1
     71c:	54000500 	b.eq	7bc <create_request+0xc8>  // b.none
/home/thesis/Desktop/trusted_hce/ta/trusted_hce.c:145
     720:	71000e9f 	cmp	w20, #0x3
     724:	528000b3 	mov	w19, #0x5                   	// #5
     728:	1a9f0673 	csinc	w19, w19, wzr, eq  // eq = none
/home/thesis/Desktop/trusted_hce/ta/trusted_hce.c:158
     72c:	11003273 	add	w19, w19, #0xc
/home/thesis/Desktop/trusted_hce/ta/trusted_hce.c:159
     730:	aa0403f8 	mov	x24, x4
     734:	aa0303f7 	mov	x23, x3
create_request():
/home/thesis/Desktop/trusted_hce/ta/trusted_hce.c:198
     738:	d2800021 	mov	x1, #0x1                   	// #1
     73c:	aa1303e0 	mov	x0, x19
     740:	9400027c 	bl	1130 <calloc>
     744:	aa0003f6 	mov	x22, x0
/home/thesis/Desktop/trusted_hce/ta/trusted_hce.c:201
     748:	b4000540 	cbz	x0, 7f0 <create_request+0xfc>
/home/thesis/Desktop/trusted_hce/ta/trusted_hce.c:204
     74c:	aa0003f5 	mov	x21, x0
/home/thesis/Desktop/trusted_hce/ta/trusted_hce.c:207
     750:	d0000041 	adrp	x1, a000 <__text_end+0x1670>
     754:	9114a020 	add	x0, x1, #0x528
/home/thesis/Desktop/trusted_hce/ta/trusted_hce.c:209
     758:	7100069f 	cmp	w20, #0x1
/home/thesis/Desktop/trusted_hce/ta/trusted_hce.c:207
     75c:	b9452821 	ldr	w1, [x1, #1320]
     760:	b90053e1 	str	w1, [sp, #80]
     764:	29408001 	ldp	w1, w0, [x0, #4]
/home/thesis/Desktop/trusted_hce/ta/trusted_hce.c:204
     768:	380016b4 	strb	w20, [x21], #1
/home/thesis/Desktop/trusted_hce/ta/trusted_hce.c:207
     76c:	290a83e1 	stp	w1, w0, [sp, #84]
/home/thesis/Desktop/trusted_hce/ta/trusted_hce.c:209
     770:	540002a1 	b.ne	7c4 <create_request+0xd0>  // b.any
/home/thesis/Desktop/trusted_hce/ta/trusted_hce.c:212
     774:	910133e1 	add	x1, sp, #0x4c
     778:	aa1503e0 	mov	x0, x21
     77c:	d2800082 	mov	x2, #0x4                   	// #4
/home/thesis/Desktop/trusted_hce/ta/trusted_hce.c:223 (discriminator 1)
     780:	9400039a 	bl	15e8 <memcpy>
/home/thesis/Desktop/trusted_hce/ta/trusted_hce.c:235
     784:	aa1303e1 	mov	x1, x19
     788:	aa1803e3 	mov	x3, x24
     78c:	aa1703e2 	mov	x2, x23
     790:	aa1603e0 	mov	x0, x22
     794:	97fffeef 	bl	350 <create_snfc_packet>
     798:	2a0003f3 	mov	w19, w0
/home/thesis/Desktop/trusted_hce/ta/trusted_hce.c:238
     79c:	aa1603e0 	mov	x0, x22
     7a0:	94000896 	bl	29f8 <TEE_Free>
/home/thesis/Desktop/trusted_hce/ta/trusted_hce.c:242
     7a4:	2a1303e0 	mov	w0, w19
     7a8:	a94153f3 	ldp	x19, x20, [sp, #16]
     7ac:	a9425bf5 	ldp	x21, x22, [sp, #32]
     7b0:	a94363f7 	ldp	x23, x24, [sp, #48]
     7b4:	a8c67bfd 	ldp	x29, x30, [sp], #96
     7b8:	d65f03c0 	ret
get_request_buffer_size():
/home/thesis/Desktop/trusted_hce/ta/trusted_hce.c:150
     7bc:	d28000b3 	mov	x19, #0x5                   	// #5
     7c0:	17ffffdc 	b	730 <create_request+0x3c>
create_request():
/home/thesis/Desktop/trusted_hce/ta/trusted_hce.c:222
     7c4:	aa1503e1 	mov	x1, x21
     7c8:	910143e0 	add	x0, sp, #0x50
     7cc:	97ffff2c 	bl	47c <write_hce_card>
/home/thesis/Desktop/trusted_hce/ta/trusted_hce.c:223
     7d0:	71000e9f 	cmp	w20, #0x3
     7d4:	54fffd81 	b.ne	784 <create_request+0x90>  // b.any
/home/thesis/Desktop/trusted_hce/ta/trusted_hce.c:223 (discriminator 1)
     7d8:	d2800082 	mov	x2, #0x4                   	// #4
     7dc:	910133e1 	add	x1, sp, #0x4c
     7e0:	8b0002a0 	add	x0, x21, x0
     7e4:	17ffffe7 	b	780 <create_request+0x8c>
/home/thesis/Desktop/trusted_hce/ta/trusted_hce.c:193
     7e8:	129fff33 	mov	w19, #0xffff0006            	// #-65530
     7ec:	17ffffee 	b	7a4 <create_request+0xb0>
/home/thesis/Desktop/trusted_hce/ta/trusted_hce.c:195
     7f0:	52bffff3 	mov	w19, #0xffff0000            	// #-65536
     7f4:	17ffffec 	b	7a4 <create_request+0xb0>

00000000000007f8 <TA_CreateEntryPoint>:
TA_CreateEntryPoint():
/home/thesis/Desktop/trusted_hce/ta/trusted_hce_ta.c:13
     7f8:	17fffebd 	b	2ec <init_snfc_ta>

00000000000007fc <TA_DestroyEntryPoint>:
TA_DestroyEntryPoint():
/home/thesis/Desktop/trusted_hce/ta/trusted_hce_ta.c:19
     7fc:	a9bf7bfd 	stp	x29, x30, [sp, #-16]!
     800:	910003fd 	mov	x29, sp
/home/thesis/Desktop/trusted_hce/ta/trusted_hce_ta.c:20
     804:	97fffe1d 	bl	78 <exit_tds_ta>
/home/thesis/Desktop/trusted_hce/ta/trusted_hce_ta.c:22
     808:	a8c17bfd 	ldp	x29, x30, [sp], #16
/home/thesis/Desktop/trusted_hce/ta/trusted_hce_ta.c:21
     80c:	17fffece 	b	344 <exit_snfc_ta>

0000000000000810 <TA_OpenSessionEntryPoint>:
TA_OpenSessionEntryPoint():
/home/thesis/Desktop/trusted_hce/ta/trusted_hce_ta.c:31
     810:	7100001f 	cmp	w0, #0x0
/home/thesis/Desktop/trusted_hce/ta/trusted_hce_ta.c:34
     814:	129fff21 	mov	w1, #0xffff0006            	// #-65530
     818:	1a810000 	csel	w0, w0, w1, eq  // eq = none
     81c:	d65f03c0 	ret

0000000000000820 <TA_CloseSessionEntryPoint>:
TA_CloseSessionEntryPoint():
/home/thesis/Desktop/trusted_hce/ta/trusted_hce_ta.c:39
     820:	d65f03c0 	ret

0000000000000824 <get_evaluation_time>:
get_evaluation_time():
/home/thesis/Desktop/trusted_hce/ta/trusted_hce_ta.c:67
     824:	90000060 	adrp	x0, c000 <.got>
/home/thesis/Desktop/trusted_hce/ta/trusted_hce_ta.c:68
     828:	f9403c00 	ldr	x0, [x0, #120]
     82c:	f9400000 	ldr	x0, [x0]
     830:	d65f03c0 	ret

0000000000000834 <TA_InvokeCommandEntryPoint>:
TA_InvokeCommandEntryPoint():
/home/thesis/Desktop/trusted_hce/ta/trusted_hce_ta.c:76
     834:	a9bc7bfd 	stp	x29, x30, [sp, #-64]!
     838:	910003fd 	mov	x29, sp
/home/thesis/Desktop/trusted_hce/ta/trusted_hce_ta.c:78
     83c:	9100c3e0 	add	x0, sp, #0x30
/home/thesis/Desktop/trusted_hce/ta/trusted_hce_ta.c:76
     840:	a90153f3 	stp	x19, x20, [sp, #16]
     844:	2a0103f3 	mov	w19, w1
     848:	aa0303f4 	mov	x20, x3
     84c:	f90013f5 	str	x21, [sp, #32]
     850:	2a0203f5 	mov	w21, w2
/home/thesis/Desktop/trusted_hce/ta/trusted_hce_ta.c:78
     854:	94000846 	bl	296c <TEE_GetREETime>
/home/thesis/Desktop/trusted_hce/ta/trusted_hce_ta.c:84
     858:	7100067f 	cmp	w19, #0x1
     85c:	54000460 	b.eq	8e8 <TA_InvokeCommandEntryPoint+0xb4>  // b.none
     860:	34000233 	cbz	w19, 8a4 <TA_InvokeCommandEntryPoint+0x70>
     864:	7101927f 	cmp	w19, #0x64
     868:	90000073 	adrp	x19, c000 <.got>
     86c:	54000380 	b.eq	8dc <TA_InvokeCommandEntryPoint+0xa8>  // b.none
/home/thesis/Desktop/trusted_hce/ta/trusted_hce_ta.c:100
     870:	9100e3e0 	add	x0, sp, #0x38
     874:	9400083e 	bl	296c <TEE_GetREETime>
get_elapsed_time_millis():
/home/thesis/Desktop/trusted_hce/ta/trusted_hce_ta.c:72
     878:	29460fe2 	ldp	w2, w3, [sp, #48]
     87c:	b9403be1 	ldr	w1, [sp, #56]
     880:	f9403e60 	ldr	x0, [x19, #120]
     884:	4b020021 	sub	w1, w1, w2
     888:	b9403fe2 	ldr	w2, [sp, #60]
TA_InvokeCommandEntryPoint():
/home/thesis/Desktop/trusted_hce/ta/trusted_hce_ta.c:103
     88c:	129fff33 	mov	w19, #0xffff0006            	// #-65530
get_elapsed_time_millis():
/home/thesis/Desktop/trusted_hce/ta/trusted_hce_ta.c:72
     890:	4b030042 	sub	w2, w2, w3
     894:	52807d03 	mov	w3, #0x3e8                 	// #1000
     898:	1b030821 	madd	w1, w1, w3, w2
     89c:	f9000001 	str	x1, [x0]
TA_InvokeCommandEntryPoint():
/home/thesis/Desktop/trusted_hce/ta/trusted_hce_ta.c:103
     8a0:	1400000a 	b	8c8 <TA_InvokeCommandEntryPoint+0x94>
entry_create_request():
/home/thesis/Desktop/trusted_hce/ta/trusted_hce_ta.c:47
     8a4:	528c2220 	mov	w0, #0x6111                	// #24849
     8a8:	6b0002bf 	cmp	w21, w0
     8ac:	540000e1 	b.ne	8c8 <TA_InvokeCommandEntryPoint+0x94>  // b.any
/home/thesis/Desktop/trusted_hce/ta/trusted_hce_ta.c:49
     8b0:	aa1403e4 	mov	x4, x20
     8b4:	b9401281 	ldr	w1, [x20, #16]
     8b8:	b9402282 	ldr	w2, [x20, #32]
     8bc:	f9401a83 	ldr	x3, [x20, #48]
     8c0:	b8438480 	ldr	w0, [x4], #56
     8c4:	97ffff8c 	bl	6f4 <create_request>
TA_InvokeCommandEntryPoint():
/home/thesis/Desktop/trusted_hce/ta/trusted_hce_ta.c:104
     8c8:	2a1303e0 	mov	w0, w19
     8cc:	a94153f3 	ldp	x19, x20, [sp, #16]
     8d0:	f94013f5 	ldr	x21, [sp, #32]
     8d4:	a8c47bfd 	ldp	x29, x30, [sp], #64
     8d8:	d65f03c0 	ret
/home/thesis/Desktop/trusted_hce/ta/trusted_hce_ta.c:94
     8dc:	f9403e60 	ldr	x0, [x19, #120]
     8e0:	b9400013 	ldr	w19, [x0]
     8e4:	17fffff9 	b	8c8 <TA_InvokeCommandEntryPoint+0x94>
/home/thesis/Desktop/trusted_hce/ta/trusted_hce_ta.c:90
     8e8:	52800013 	mov	w19, #0x0                   	// #0
     8ec:	17fffff7 	b	8c8 <TA_InvokeCommandEntryPoint+0x94>

00000000000008f0 <__ta_entry>:
__ta_entry():
/home/thesis/Desktop/optee_rpi3bplus/optee_os/out/arm/export-ta_arm64/src/user_ta_header.c:36
     8f0:	a9bf7bfd 	stp	x29, x30, [sp, #-16]!
     8f4:	910003fd 	mov	x29, sp
/home/thesis/Desktop/optee_rpi3bplus/optee_os/out/arm/export-ta_arm64/src/user_ta_header.c:39
     8f8:	9400087d 	bl	2aec <__utee_entry>
/home/thesis/Desktop/optee_rpi3bplus/optee_os/out/arm/export-ta_arm64/src/user_ta_header.c:41
     8fc:	2a0003e0 	mov	w0, w0
     900:	940008fd 	bl	2cf4 <utee_return>

0000000000000904 <tahead_get_trace_level>:
tahead_get_trace_level():
/home/thesis/Desktop/optee_rpi3bplus/optee_os/out/arm/export-ta_arm64/src/user_ta_header.c:117
     904:	52800020 	mov	w0, #0x1                   	// #1
     908:	d65f03c0 	ret

000000000000090c <raw_malloc_return_hook.constprop.21>:
raw_malloc_return_hook():
/home/thesis/Desktop/optee_rpi3bplus/optee_os/lib/libutils/isoc/bget_malloc.c:198
     90c:	90000062 	adrp	x2, c000 <.got>
     910:	910de044 	add	x4, x2, #0x378
     914:	f9401083 	ldr	x3, [x4, #32]
     918:	b9406c85 	ldr	w5, [x4, #108]
     91c:	eb05007f 	cmp	x3, x5
     920:	5400004d 	b.le	928 <raw_malloc_return_hook.constprop.21+0x1c>
/home/thesis/Desktop/optee_rpi3bplus/optee_os/lib/libutils/isoc/bget_malloc.c:199
     924:	b9006c83 	str	w3, [x4, #108]
/home/thesis/Desktop/optee_rpi3bplus/optee_os/lib/libutils/isoc/bget_malloc.c:201
     928:	b5000120 	cbnz	x0, 94c <raw_malloc_return_hook.constprop.21+0x40>
/home/thesis/Desktop/optee_rpi3bplus/optee_os/lib/libutils/isoc/bget_malloc.c:202
     92c:	910de040 	add	x0, x2, #0x378
     930:	b9407402 	ldr	w2, [x0, #116]
     934:	11000442 	add	w2, w2, #0x1
     938:	b9007402 	str	w2, [x0, #116]
/home/thesis/Desktop/optee_rpi3bplus/optee_os/lib/libutils/isoc/bget_malloc.c:204
     93c:	b9407802 	ldr	w2, [x0, #120]
     940:	eb01005f 	cmp	x2, x1
     944:	54000042 	b.cs	94c <raw_malloc_return_hook.constprop.21+0x40>  // b.hs, b.nlast
/home/thesis/Desktop/optee_rpi3bplus/optee_os/lib/libutils/isoc/bget_malloc.c:206
     948:	290f0c01 	stp	w1, w3, [x0, #120]
/home/thesis/Desktop/optee_rpi3bplus/optee_os/lib/libutils/isoc/bget_malloc.c:210
     94c:	d65f03c0 	ret

0000000000000950 <bget>:
bget():
/home/thesis/Desktop/optee_rpi3bplus/optee_os/lib/libutils/isoc/bget.c:583
     950:	a9bf7bfd 	stp	x29, x30, [sp, #-16]!
/home/thesis/Desktop/optee_rpi3bplus/optee_os/lib/libutils/isoc/bget.c:594
     954:	f100001f 	cmp	x0, #0x0
/home/thesis/Desktop/optee_rpi3bplus/optee_os/lib/libutils/isoc/bget.c:583
     958:	910003fd 	mov	x29, sp
/home/thesis/Desktop/optee_rpi3bplus/optee_os/lib/libutils/isoc/bget.c:594
     95c:	5400014c 	b.gt	984 <bget+0x34>
/home/thesis/Desktop/optee_rpi3bplus/optee_os/lib/libutils/isoc/bget.c:594 (discriminator 1)
     960:	d0000043 	adrp	x3, a000 <__text_end+0x1670>
     964:	d0000041 	adrp	x1, a000 <__text_end+0x1670>
     968:	d0000040 	adrp	x0, a000 <__text_end+0x1670>
     96c:	91243463 	add	x3, x3, #0x90d
     970:	91259421 	add	x1, x1, #0x965
     974:	912f4800 	add	x0, x0, #0xbd2
     978:	52804a42 	mov	w2, #0x252                 	// #594
/home/thesis/Desktop/optee_rpi3bplus/optee_os/lib/libutils/isoc/bget.c:658 (discriminator 1)
     97c:	940006d8 	bl	24dc <_assert_log>
     980:	940006e8 	bl	2520 <_assert_break>
/home/thesis/Desktop/optee_rpi3bplus/optee_os/lib/libutils/isoc/bget.c:601
     984:	f100401f 	cmp	x0, #0x10
     988:	d2800202 	mov	x2, #0x10                  	// #16
     98c:	9a82a000 	csel	x0, x0, x2, ge  // ge = tcont
     990:	b1003c02 	adds	x2, x0, #0xf
     994:	54000144 	b.mi	9bc <bget+0x6c>  // b.first
     998:	eb00005f 	cmp	x2, x0
     99c:	54000103 	b.cc	9bc <bget+0x6c>  // b.lo, b.ul, b.last
/home/thesis/Desktop/optee_rpi3bplus/optee_os/lib/libutils/isoc/bget.c:604
     9a0:	927cec40 	and	x0, x2, #0xfffffffffffffff0
/home/thesis/Desktop/optee_rpi3bplus/optee_os/lib/libutils/isoc/bget.c:609
     9a4:	91004003 	add	x3, x0, #0x10
     9a8:	eb00007f 	cmp	x3, x0
     9ac:	5400008b 	b.lt	9bc <bget+0x6c>  // b.tstop
/home/thesis/Desktop/optee_rpi3bplus/optee_os/lib/libutils/isoc/bget.c:619
     9b0:	f9400820 	ldr	x0, [x1, #16]
/home/thesis/Desktop/optee_rpi3bplus/optee_os/lib/libutils/isoc/bget.c:641
     9b4:	eb00003f 	cmp	x1, x0
     9b8:	54000061 	b.ne	9c4 <bget+0x74>  // b.any
/home/thesis/Desktop/optee_rpi3bplus/optee_os/lib/libutils/isoc/bget.c:602
     9bc:	d2800000 	mov	x0, #0x0                   	// #0
     9c0:	1400001e 	b	a38 <bget+0xe8>
/home/thesis/Desktop/optee_rpi3bplus/optee_os/lib/libutils/isoc/bget.c:642
     9c4:	f9400402 	ldr	x2, [x0, #8]
     9c8:	eb02007f 	cmp	x3, x2
     9cc:	540009ec 	b.gt	b08 <bget+0x1b8>
/home/thesis/Desktop/optee_rpi3bplus/optee_os/lib/libutils/isoc/bget.c:653
     9d0:	cb030044 	sub	x4, x2, x3
     9d4:	f100809f 	cmp	x4, #0x20
     9d8:	5400034d 	b.le	a40 <bget+0xf0>
/home/thesis/Desktop/optee_rpi3bplus/optee_os/lib/libutils/isoc/bget.c:656
     9dc:	8b040005 	add	x5, x0, x4
/home/thesis/Desktop/optee_rpi3bplus/optee_os/lib/libutils/isoc/bget.c:658
     9e0:	f86368a6 	ldr	x6, [x5, x3]
     9e4:	eb06005f 	cmp	x2, x6
     9e8:	54000120 	b.eq	a0c <bget+0xbc>  // b.none
/home/thesis/Desktop/optee_rpi3bplus/optee_os/lib/libutils/isoc/bget.c:658 (discriminator 1)
     9ec:	d0000043 	adrp	x3, a000 <__text_end+0x1670>
     9f0:	d0000041 	adrp	x1, a000 <__text_end+0x1670>
     9f4:	d0000040 	adrp	x0, a000 <__text_end+0x1670>
     9f8:	91243463 	add	x3, x3, #0x90d
     9fc:	52805242 	mov	w2, #0x292                 	// #658
     a00:	91259421 	add	x1, x1, #0x965
     a04:	9125f800 	add	x0, x0, #0x97e
     a08:	17ffffdd 	b	97c <bget+0x2c>
/home/thesis/Desktop/optee_rpi3bplus/optee_os/lib/libutils/isoc/bget.c:660
     a0c:	f9000404 	str	x4, [x0, #8]
/home/thesis/Desktop/optee_rpi3bplus/optee_os/lib/libutils/isoc/bget.c:662
     a10:	f8246804 	str	x4, [x0, x4]
/home/thesis/Desktop/optee_rpi3bplus/optee_os/lib/libutils/isoc/bget.c:664
     a14:	cb0303e0 	neg	x0, x3
     a18:	f90004a0 	str	x0, [x5, #8]
/home/thesis/Desktop/optee_rpi3bplus/optee_os/lib/libutils/isoc/bget.c:669
     a1c:	f9401020 	ldr	x0, [x1, #32]
/home/thesis/Desktop/optee_rpi3bplus/optee_os/lib/libutils/isoc/bget.c:666
     a20:	f82368bf 	str	xzr, [x5, x3]
/home/thesis/Desktop/optee_rpi3bplus/optee_os/lib/libutils/isoc/bget.c:669
     a24:	8b030003 	add	x3, x0, x3
/home/thesis/Desktop/optee_rpi3bplus/optee_os/lib/libutils/isoc/bget.c:670
     a28:	f9401420 	ldr	x0, [x1, #40]
     a2c:	91000400 	add	x0, x0, #0x1
     a30:	a9020023 	stp	x3, x0, [x1, #32]
/home/thesis/Desktop/optee_rpi3bplus/optee_os/lib/libutils/isoc/bget.c:672
     a34:	910040a0 	add	x0, x5, #0x10
/home/thesis/Desktop/optee_rpi3bplus/optee_os/lib/libutils/isoc/bget.c:770
     a38:	a8c17bfd 	ldp	x29, x30, [sp], #16
     a3c:	d65f03c0 	ret
/home/thesis/Desktop/optee_rpi3bplus/optee_os/lib/libutils/isoc/bget.c:679
     a40:	f8626803 	ldr	x3, [x0, x2]
/home/thesis/Desktop/optee_rpi3bplus/optee_os/lib/libutils/isoc/bget.c:678
     a44:	8b020005 	add	x5, x0, x2
/home/thesis/Desktop/optee_rpi3bplus/optee_os/lib/libutils/isoc/bget.c:679
     a48:	eb03005f 	cmp	x2, x3
     a4c:	54000120 	b.eq	a70 <bget+0x120>  // b.none
/home/thesis/Desktop/optee_rpi3bplus/optee_os/lib/libutils/isoc/bget.c:679 (discriminator 1)
     a50:	d0000043 	adrp	x3, a000 <__text_end+0x1670>
     a54:	d0000041 	adrp	x1, a000 <__text_end+0x1670>
     a58:	d0000040 	adrp	x0, a000 <__text_end+0x1670>
     a5c:	91243463 	add	x3, x3, #0x90d
     a60:	528054e2 	mov	w2, #0x2a7                 	// #679
     a64:	91259421 	add	x1, x1, #0x965
     a68:	91266800 	add	x0, x0, #0x99a
     a6c:	17ffffc4 	b	97c <bget+0x2c>
/home/thesis/Desktop/optee_rpi3bplus/optee_os/lib/libutils/isoc/bget.c:684
     a70:	f9400c03 	ldr	x3, [x0, #24]
     a74:	f9400864 	ldr	x4, [x3, #16]
     a78:	eb00009f 	cmp	x4, x0
     a7c:	54000120 	b.eq	aa0 <bget+0x150>  // b.none
/home/thesis/Desktop/optee_rpi3bplus/optee_os/lib/libutils/isoc/bget.c:684 (discriminator 1)
     a80:	d0000043 	adrp	x3, a000 <__text_end+0x1670>
     a84:	d0000041 	adrp	x1, a000 <__text_end+0x1670>
     a88:	d0000040 	adrp	x0, a000 <__text_end+0x1670>
     a8c:	91243463 	add	x3, x3, #0x90d
     a90:	52805582 	mov	w2, #0x2ac                 	// #684
     a94:	91259421 	add	x1, x1, #0x965
     a98:	9126d800 	add	x0, x0, #0x9b6
     a9c:	17ffffb8 	b	97c <bget+0x2c>
/home/thesis/Desktop/optee_rpi3bplus/optee_os/lib/libutils/isoc/bget.c:685
     aa0:	f9400804 	ldr	x4, [x0, #16]
     aa4:	f9400c86 	ldr	x6, [x4, #24]
     aa8:	eb0000df 	cmp	x6, x0
     aac:	54000120 	b.eq	ad0 <bget+0x180>  // b.none
/home/thesis/Desktop/optee_rpi3bplus/optee_os/lib/libutils/isoc/bget.c:685 (discriminator 1)
     ab0:	d0000043 	adrp	x3, a000 <__text_end+0x1670>
     ab4:	d0000041 	adrp	x1, a000 <__text_end+0x1670>
     ab8:	d0000040 	adrp	x0, a000 <__text_end+0x1670>
     abc:	91243463 	add	x3, x3, #0x90d
     ac0:	528055a2 	mov	w2, #0x2ad                 	// #685
     ac4:	91259421 	add	x1, x1, #0x965
     ac8:	91274400 	add	x0, x0, #0x9d1
     acc:	17ffffac 	b	97c <bget+0x2c>
/home/thesis/Desktop/optee_rpi3bplus/optee_os/lib/libutils/isoc/bget.c:686
     ad0:	f9000864 	str	x4, [x3, #16]
/home/thesis/Desktop/optee_rpi3bplus/optee_os/lib/libutils/isoc/bget.c:701
     ad4:	91004000 	add	x0, x0, #0x10
/home/thesis/Desktop/optee_rpi3bplus/optee_os/lib/libutils/isoc/bget.c:687
     ad8:	f9400004 	ldr	x4, [x0]
     adc:	f9000c83 	str	x3, [x4, #24]
/home/thesis/Desktop/optee_rpi3bplus/optee_os/lib/libutils/isoc/bget.c:690
     ae0:	f9401023 	ldr	x3, [x1, #32]
     ae4:	8b020063 	add	x3, x3, x2
     ae8:	f9001023 	str	x3, [x1, #32]
/home/thesis/Desktop/optee_rpi3bplus/optee_os/lib/libutils/isoc/bget.c:691
     aec:	f9401423 	ldr	x3, [x1, #40]
/home/thesis/Desktop/optee_rpi3bplus/optee_os/lib/libutils/isoc/bget.c:694
     af0:	cb0203e2 	neg	x2, x2
/home/thesis/Desktop/optee_rpi3bplus/optee_os/lib/libutils/isoc/bget.c:691
     af4:	91000463 	add	x3, x3, #0x1
     af8:	f9001423 	str	x3, [x1, #40]
/home/thesis/Desktop/optee_rpi3bplus/optee_os/lib/libutils/isoc/bget.c:694
     afc:	f81f8002 	stur	x2, [x0, #-8]
/home/thesis/Desktop/optee_rpi3bplus/optee_os/lib/libutils/isoc/bget.c:698
     b00:	f90000bf 	str	xzr, [x5]
/home/thesis/Desktop/optee_rpi3bplus/optee_os/lib/libutils/isoc/bget.c:703
     b04:	17ffffcd 	b	a38 <bget+0xe8>
/home/thesis/Desktop/optee_rpi3bplus/optee_os/lib/libutils/isoc/bget.c:706
     b08:	f9400800 	ldr	x0, [x0, #16]
     b0c:	17ffffaa 	b	9b4 <bget+0x64>

0000000000000b10 <bgetz>:
bgetz():
/home/thesis/Desktop/optee_rpi3bplus/optee_os/lib/libutils/isoc/bget.c:779
     b10:	a9be7bfd 	stp	x29, x30, [sp, #-32]!
     b14:	910003fd 	mov	x29, sp
     b18:	f9000bf3 	str	x19, [sp, #16]
     b1c:	aa0003f3 	mov	x19, x0
/home/thesis/Desktop/optee_rpi3bplus/optee_os/lib/libutils/isoc/bget.c:780
     b20:	97ffff8c 	bl	950 <bget>
     b24:	aa0003e3 	mov	x3, x0
/home/thesis/Desktop/optee_rpi3bplus/optee_os/lib/libutils/isoc/bget.c:782
     b28:	b4000320 	cbz	x0, b8c <bgetz+0x7c>
/home/thesis/Desktop/optee_rpi3bplus/optee_os/lib/libutils/isoc/bget.c:787
     b2c:	f85f8000 	ldur	x0, [x0, #-8]
/home/thesis/Desktop/optee_rpi3bplus/optee_os/lib/libutils/isoc/bget.c:788
     b30:	b50001e0 	cbnz	x0, b6c <bgetz+0x5c>
/home/thesis/Desktop/optee_rpi3bplus/optee_os/lib/libutils/isoc/bget.c:792
     b34:	f85e8062 	ldur	x2, [x3, #-24]
     b38:	d1006042 	sub	x2, x2, #0x18
/home/thesis/Desktop/optee_rpi3bplus/optee_os/lib/libutils/isoc/bget.c:796
     b3c:	eb13005f 	cmp	x2, x19
     b40:	540001ca 	b.ge	b78 <bgetz+0x68>  // b.tcont
     b44:	d0000043 	adrp	x3, a000 <__text_end+0x1670>
     b48:	91243463 	add	x3, x3, #0x90d
     b4c:	91001463 	add	x3, x3, #0x5
     b50:	d0000041 	adrp	x1, a000 <__text_end+0x1670>
     b54:	d0000040 	adrp	x0, a000 <__text_end+0x1670>
     b58:	91259421 	add	x1, x1, #0x965
     b5c:	9127b000 	add	x0, x0, #0x9ec
     b60:	52806382 	mov	w2, #0x31c                 	// #796
     b64:	9400065e 	bl	24dc <_assert_log>
     b68:	9400066e 	bl	2520 <_assert_break>
/home/thesis/Desktop/optee_rpi3bplus/optee_os/lib/libutils/isoc/bget.c:794
     b6c:	928001e2 	mov	x2, #0xfffffffffffffff0    	// #-16
     b70:	cb000042 	sub	x2, x2, x0
     b74:	17fffff2 	b	b3c <bgetz+0x2c>
memset_unchecked():
/home/thesis/Desktop/optee_rpi3bplus/optee_os/lib/libutils/isoc/bget_malloc.c:124
     b78:	aa0303e0 	mov	x0, x3
     b7c:	93407c42 	sxtw	x2, w2
     b80:	52800001 	mov	w1, #0x0                   	// #0
     b84:	940002a1 	bl	1608 <memset>
     b88:	aa0003e3 	mov	x3, x0
bgetz():
/home/thesis/Desktop/optee_rpi3bplus/optee_os/lib/libutils/isoc/bget.c:800
     b8c:	aa0303e0 	mov	x0, x3
     b90:	f9400bf3 	ldr	x19, [sp, #16]
     b94:	a8c27bfd 	ldp	x29, x30, [sp], #32
     b98:	d65f03c0 	ret

0000000000000b9c <brel>:
brel():
/home/thesis/Desktop/optee_rpi3bplus/optee_os/lib/libutils/isoc/bget.c:852
     b9c:	a9be7bfd 	stp	x29, x30, [sp, #-32]!
     ba0:	910003fd 	mov	x29, sp
/home/thesis/Desktop/optee_rpi3bplus/optee_os/lib/libutils/isoc/bget.c:858
     ba4:	f9401823 	ldr	x3, [x1, #48]
/home/thesis/Desktop/optee_rpi3bplus/optee_os/lib/libutils/isoc/bget.c:852
     ba8:	a90153f3 	stp	x19, x20, [sp, #16]
/home/thesis/Desktop/optee_rpi3bplus/optee_os/lib/libutils/isoc/bget.c:858
     bac:	91000463 	add	x3, x3, #0x1
     bb0:	f9001823 	str	x3, [x1, #48]
/home/thesis/Desktop/optee_rpi3bplus/optee_os/lib/libutils/isoc/bget.c:860
     bb4:	b5000160 	cbnz	x0, be0 <brel+0x44>
/home/thesis/Desktop/optee_rpi3bplus/optee_os/lib/libutils/isoc/bget.c:860 (discriminator 1)
     bb8:	d0000043 	adrp	x3, a000 <__text_end+0x1670>
     bbc:	91243463 	add	x3, x3, #0x90d
     bc0:	d0000041 	adrp	x1, a000 <__text_end+0x1670>
     bc4:	d0000040 	adrp	x0, a000 <__text_end+0x1670>
     bc8:	91002c63 	add	x3, x3, #0xb
     bcc:	91259421 	add	x1, x1, #0x965
     bd0:	9127e800 	add	x0, x0, #0x9fa
     bd4:	52806b82 	mov	w2, #0x35c                 	// #860
/home/thesis/Desktop/optee_rpi3bplus/optee_os/lib/libutils/isoc/bget.c:895 (discriminator 1)
     bd8:	94000641 	bl	24dc <_assert_log>
     bdc:	94000651 	bl	2520 <_assert_break>
/home/thesis/Desktop/optee_rpi3bplus/optee_os/lib/libutils/isoc/bget.c:892
     be0:	f85f8003 	ldur	x3, [x0, #-8]
/home/thesis/Desktop/optee_rpi3bplus/optee_os/lib/libutils/isoc/bget.c:895
     be4:	b7f80143 	tbnz	x3, #63, c0c <brel+0x70>
/home/thesis/Desktop/optee_rpi3bplus/optee_os/lib/libutils/isoc/bget.c:895 (discriminator 1)
     be8:	d0000043 	adrp	x3, a000 <__text_end+0x1670>
     bec:	91243463 	add	x3, x3, #0x90d
     bf0:	d0000041 	adrp	x1, a000 <__text_end+0x1670>
     bf4:	d0000040 	adrp	x0, a000 <__text_end+0x1670>
     bf8:	91002c63 	add	x3, x3, #0xb
     bfc:	52806fe2 	mov	w2, #0x37f                 	// #895
     c00:	91259421 	add	x1, x1, #0x965
     c04:	91281800 	add	x0, x0, #0xa06
     c08:	17fffff4 	b	bd8 <brel+0x3c>
     c0c:	d1004013 	sub	x19, x0, #0x10
/home/thesis/Desktop/optee_rpi3bplus/optee_os/lib/libutils/isoc/bget.c:901
     c10:	cb030264 	sub	x4, x19, x3
     c14:	f9400084 	ldr	x4, [x4]
     c18:	b4000144 	cbz	x4, c40 <brel+0xa4>
/home/thesis/Desktop/optee_rpi3bplus/optee_os/lib/libutils/isoc/bget.c:901 (discriminator 1)
     c1c:	d0000043 	adrp	x3, a000 <__text_end+0x1670>
     c20:	91243463 	add	x3, x3, #0x90d
     c24:	d0000041 	adrp	x1, a000 <__text_end+0x1670>
     c28:	d0000040 	adrp	x0, a000 <__text_end+0x1670>
     c2c:	91002c63 	add	x3, x3, #0xb
     c30:	528070a2 	mov	w2, #0x385                 	// #901
     c34:	91259421 	add	x1, x1, #0x965
     c38:	91285800 	add	x0, x0, #0xa16
     c3c:	17ffffe7 	b	bd8 <brel+0x3c>
/home/thesis/Desktop/optee_rpi3bplus/optee_os/lib/libutils/isoc/bget.c:904
     c40:	f9401024 	ldr	x4, [x1, #32]
     c44:	8b040064 	add	x4, x3, x4
     c48:	f9001024 	str	x4, [x1, #32]
/home/thesis/Desktop/optee_rpi3bplus/optee_os/lib/libutils/isoc/bget.c:905
     c4c:	b6f80144 	tbz	x4, #63, c74 <brel+0xd8>
/home/thesis/Desktop/optee_rpi3bplus/optee_os/lib/libutils/isoc/bget.c:905 (discriminator 1)
     c50:	d0000043 	adrp	x3, a000 <__text_end+0x1670>
     c54:	91243463 	add	x3, x3, #0x90d
     c58:	d0000041 	adrp	x1, a000 <__text_end+0x1670>
     c5c:	d0000040 	adrp	x0, a000 <__text_end+0x1670>
     c60:	91002c63 	add	x3, x3, #0xb
     c64:	52807122 	mov	w2, #0x389                 	// #905
     c68:	91259421 	add	x1, x1, #0x965
     c6c:	91290800 	add	x0, x0, #0xa42
     c70:	17ffffda 	b	bd8 <brel+0x3c>
/home/thesis/Desktop/optee_rpi3bplus/optee_os/lib/libutils/isoc/bget.c:910
     c74:	f85f0004 	ldur	x4, [x0, #-16]
     c78:	b4000424 	cbz	x4, cfc <brel+0x160>
/home/thesis/Desktop/optee_rpi3bplus/optee_os/lib/libutils/isoc/bget.c:921
     c7c:	cb040273 	sub	x19, x19, x4
     c80:	f9400660 	ldr	x0, [x19, #8]
     c84:	eb00009f 	cmp	x4, x0
     c88:	54000140 	b.eq	cb0 <brel+0x114>  // b.none
/home/thesis/Desktop/optee_rpi3bplus/optee_os/lib/libutils/isoc/bget.c:921 (discriminator 1)
     c8c:	d0000043 	adrp	x3, a000 <__text_end+0x1670>
     c90:	91243463 	add	x3, x3, #0x90d
     c94:	d0000041 	adrp	x1, a000 <__text_end+0x1670>
     c98:	d0000040 	adrp	x0, a000 <__text_end+0x1670>
     c9c:	91002c63 	add	x3, x3, #0xb
     ca0:	52807322 	mov	w2, #0x399                 	// #921
     ca4:	91259421 	add	x1, x1, #0x965
     ca8:	91296400 	add	x0, x0, #0xa59
     cac:	17ffffcb 	b	bd8 <brel+0x3c>
/home/thesis/Desktop/optee_rpi3bplus/optee_os/lib/libutils/isoc/bget.c:923
     cb0:	cb030083 	sub	x3, x4, x3
     cb4:	f9000663 	str	x3, [x19, #8]
/home/thesis/Desktop/optee_rpi3bplus/optee_os/lib/libutils/isoc/bget.c:943
     cb8:	f9400660 	ldr	x0, [x19, #8]
     cbc:	8b000274 	add	x20, x19, x0
/home/thesis/Desktop/optee_rpi3bplus/optee_os/lib/libutils/isoc/bget.c:944
     cc0:	f9400681 	ldr	x1, [x20, #8]
     cc4:	f100003f 	cmp	x1, #0x0
     cc8:	540009ad 	b.le	dfc <brel+0x260>
/home/thesis/Desktop/optee_rpi3bplus/optee_os/lib/libutils/isoc/bget.c:949
     ccc:	f8616a83 	ldr	x3, [x20, x1]
     cd0:	eb03003f 	cmp	x1, x3
     cd4:	54000560 	b.eq	d80 <brel+0x1e4>  // b.none
/home/thesis/Desktop/optee_rpi3bplus/optee_os/lib/libutils/isoc/bget.c:949 (discriminator 1)
     cd8:	d0000043 	adrp	x3, a000 <__text_end+0x1670>
     cdc:	91243463 	add	x3, x3, #0x90d
     ce0:	d0000041 	adrp	x1, a000 <__text_end+0x1670>
     ce4:	d0000040 	adrp	x0, a000 <__text_end+0x1670>
     ce8:	91002c63 	add	x3, x3, #0xb
     cec:	528076a2 	mov	w2, #0x3b5                 	// #949
     cf0:	91259421 	add	x1, x1, #0x965
     cf4:	912c2000 	add	x0, x0, #0xb08
     cf8:	17ffffb8 	b	bd8 <brel+0x3c>
/home/thesis/Desktop/optee_rpi3bplus/optee_os/lib/libutils/isoc/bget.c:929
     cfc:	f9400c25 	ldr	x5, [x1, #24]
     d00:	f94008a4 	ldr	x4, [x5, #16]
     d04:	eb01009f 	cmp	x4, x1
     d08:	54000140 	b.eq	d30 <brel+0x194>  // b.none
/home/thesis/Desktop/optee_rpi3bplus/optee_os/lib/libutils/isoc/bget.c:929 (discriminator 1)
     d0c:	d0000043 	adrp	x3, a000 <__text_end+0x1670>
     d10:	91243463 	add	x3, x3, #0x90d
     d14:	d0000041 	adrp	x1, a000 <__text_end+0x1670>
     d18:	d0000040 	adrp	x0, a000 <__text_end+0x1670>
     d1c:	91002c63 	add	x3, x3, #0xb
     d20:	52807422 	mov	w2, #0x3a1                 	// #929
     d24:	91259421 	add	x1, x1, #0x965
     d28:	912a4800 	add	x0, x0, #0xa92
     d2c:	17ffffab 	b	bd8 <brel+0x3c>
/home/thesis/Desktop/optee_rpi3bplus/optee_os/lib/libutils/isoc/bget.c:930
     d30:	f9400881 	ldr	x1, [x4, #16]
     d34:	f9400c21 	ldr	x1, [x1, #24]
     d38:	eb01009f 	cmp	x4, x1
     d3c:	54000140 	b.eq	d64 <brel+0x1c8>  // b.none
/home/thesis/Desktop/optee_rpi3bplus/optee_os/lib/libutils/isoc/bget.c:930 (discriminator 1)
     d40:	d0000043 	adrp	x3, a000 <__text_end+0x1670>
     d44:	91243463 	add	x3, x3, #0x90d
     d48:	d0000041 	adrp	x1, a000 <__text_end+0x1670>
     d4c:	d0000040 	adrp	x0, a000 <__text_end+0x1670>
     d50:	91002c63 	add	x3, x3, #0xb
     d54:	52807442 	mov	w2, #0x3a2                 	// #930
     d58:	91259421 	add	x1, x1, #0x965
     d5c:	912b3400 	add	x0, x0, #0xacd
     d60:	17ffff9e 	b	bd8 <brel+0x3c>
/home/thesis/Desktop/optee_rpi3bplus/optee_os/lib/libutils/isoc/bget.c:932
     d64:	a9011664 	stp	x4, x5, [x19, #16]
/home/thesis/Desktop/optee_rpi3bplus/optee_os/lib/libutils/isoc/bget.c:896
     d68:	cb0303e3 	neg	x3, x3
/home/thesis/Desktop/optee_rpi3bplus/optee_os/lib/libutils/isoc/bget.c:933
     d6c:	f9000c93 	str	x19, [x4, #24]
/home/thesis/Desktop/optee_rpi3bplus/optee_os/lib/libutils/isoc/bget.c:934
     d70:	f9400e61 	ldr	x1, [x19, #24]
     d74:	f9000833 	str	x19, [x1, #16]
/home/thesis/Desktop/optee_rpi3bplus/optee_os/lib/libutils/isoc/bget.c:935
     d78:	f81f8003 	stur	x3, [x0, #-8]
     d7c:	17ffffcf 	b	cb8 <brel+0x11c>
/home/thesis/Desktop/optee_rpi3bplus/optee_os/lib/libutils/isoc/bget.c:950
     d80:	f9400e84 	ldr	x4, [x20, #24]
     d84:	f9400885 	ldr	x5, [x4, #16]
     d88:	eb1400bf 	cmp	x5, x20
     d8c:	54000140 	b.eq	db4 <brel+0x218>  // b.none
/home/thesis/Desktop/optee_rpi3bplus/optee_os/lib/libutils/isoc/bget.c:950 (discriminator 1)
     d90:	d0000043 	adrp	x3, a000 <__text_end+0x1670>
     d94:	91243463 	add	x3, x3, #0x90d
     d98:	d0000041 	adrp	x1, a000 <__text_end+0x1670>
     d9c:	d0000040 	adrp	x0, a000 <__text_end+0x1670>
     da0:	91002c63 	add	x3, x3, #0xb
     da4:	528076c2 	mov	w2, #0x3b6                 	// #950
     da8:	91259421 	add	x1, x1, #0x965
     dac:	912d0400 	add	x0, x0, #0xb41
     db0:	17ffff8a 	b	bd8 <brel+0x3c>
/home/thesis/Desktop/optee_rpi3bplus/optee_os/lib/libutils/isoc/bget.c:951
     db4:	f94008a3 	ldr	x3, [x5, #16]
     db8:	f9400c66 	ldr	x6, [x3, #24]
     dbc:	eb0500df 	cmp	x6, x5
     dc0:	54000140 	b.eq	de8 <brel+0x24c>  // b.none
/home/thesis/Desktop/optee_rpi3bplus/optee_os/lib/libutils/isoc/bget.c:951 (discriminator 1)
     dc4:	d0000043 	adrp	x3, a000 <__text_end+0x1670>
     dc8:	91243463 	add	x3, x3, #0x90d
     dcc:	d0000041 	adrp	x1, a000 <__text_end+0x1670>
     dd0:	d0000040 	adrp	x0, a000 <__text_end+0x1670>
     dd4:	91002c63 	add	x3, x3, #0xb
     dd8:	528076e2 	mov	w2, #0x3b7                 	// #951
     ddc:	91259421 	add	x1, x1, #0x965
     de0:	912d7800 	add	x0, x0, #0xb5e
     de4:	17ffff7d 	b	bd8 <brel+0x3c>
/home/thesis/Desktop/optee_rpi3bplus/optee_os/lib/libutils/isoc/bget.c:952
     de8:	f9000883 	str	x3, [x4, #16]
/home/thesis/Desktop/optee_rpi3bplus/optee_os/lib/libutils/isoc/bget.c:954
     dec:	8b010014 	add	x20, x0, x1
/home/thesis/Desktop/optee_rpi3bplus/optee_os/lib/libutils/isoc/bget.c:953
     df0:	f9000c64 	str	x4, [x3, #24]
/home/thesis/Desktop/optee_rpi3bplus/optee_os/lib/libutils/isoc/bget.c:954
     df4:	f9000674 	str	x20, [x19, #8]
/home/thesis/Desktop/optee_rpi3bplus/optee_os/lib/libutils/isoc/bget.c:963
     df8:	8b140274 	add	x20, x19, x20
/home/thesis/Desktop/optee_rpi3bplus/optee_os/lib/libutils/isoc/bget.c:965
     dfc:	340000e2 	cbz	w2, e18 <brel+0x27c>
/home/thesis/Desktop/optee_rpi3bplus/optee_os/lib/libutils/isoc/bget.c:967
     e00:	f9400662 	ldr	x2, [x19, #8]
memset_unchecked():
/home/thesis/Desktop/optee_rpi3bplus/optee_os/lib/libutils/isoc/bget_malloc.c:124
     e04:	52800aa1 	mov	w1, #0x55                  	// #85
     e08:	91008260 	add	x0, x19, #0x20
brel():
/home/thesis/Desktop/optee_rpi3bplus/optee_os/lib/libutils/isoc/bget.c:967
     e0c:	51008042 	sub	w2, w2, #0x20
memset_unchecked():
/home/thesis/Desktop/optee_rpi3bplus/optee_os/lib/libutils/isoc/bget_malloc.c:124
     e10:	93407c42 	sxtw	x2, w2
     e14:	940001fd 	bl	1608 <memset>
brel():
/home/thesis/Desktop/optee_rpi3bplus/optee_os/lib/libutils/isoc/bget.c:969
     e18:	f9400680 	ldr	x0, [x20, #8]
     e1c:	b7f80140 	tbnz	x0, #63, e44 <brel+0x2a8>
/home/thesis/Desktop/optee_rpi3bplus/optee_os/lib/libutils/isoc/bget.c:969 (discriminator 1)
     e20:	d0000043 	adrp	x3, a000 <__text_end+0x1670>
     e24:	91243463 	add	x3, x3, #0x90d
     e28:	d0000041 	adrp	x1, a000 <__text_end+0x1670>
     e2c:	d0000040 	adrp	x0, a000 <__text_end+0x1670>
     e30:	91002c63 	add	x3, x3, #0xb
     e34:	52807922 	mov	w2, #0x3c9                 	// #969
     e38:	91259421 	add	x1, x1, #0x965
     e3c:	912dec00 	add	x0, x0, #0xb7b
     e40:	17ffff66 	b	bd8 <brel+0x3c>
/home/thesis/Desktop/optee_rpi3bplus/optee_os/lib/libutils/isoc/bget.c:974
     e44:	f9400660 	ldr	x0, [x19, #8]
     e48:	f9000280 	str	x0, [x20]
/home/thesis/Desktop/optee_rpi3bplus/optee_os/lib/libutils/isoc/bget.c:1002
     e4c:	a94153f3 	ldp	x19, x20, [sp, #16]
     e50:	a8c27bfd 	ldp	x29, x30, [sp], #32
     e54:	d65f03c0 	ret

0000000000000e58 <bgetr>:
bgetr():
/home/thesis/Desktop/optee_rpi3bplus/optee_os/lib/libutils/isoc/bget.c:811
     e58:	a9bc7bfd 	stp	x29, x30, [sp, #-64]!
     e5c:	910003fd 	mov	x29, sp
     e60:	a90153f3 	stp	x19, x20, [sp, #16]
     e64:	aa0103f4 	mov	x20, x1
/home/thesis/Desktop/optee_rpi3bplus/optee_os/lib/libutils/isoc/bget.c:816
     e68:	aa0203e1 	mov	x1, x2
/home/thesis/Desktop/optee_rpi3bplus/optee_os/lib/libutils/isoc/bget.c:811
     e6c:	a9025bf5 	stp	x21, x22, [sp, #32]
     e70:	aa0003f5 	mov	x21, x0
/home/thesis/Desktop/optee_rpi3bplus/optee_os/lib/libutils/isoc/bget.c:816
     e74:	aa1403e0 	mov	x0, x20
/home/thesis/Desktop/optee_rpi3bplus/optee_os/lib/libutils/isoc/bget.c:811
     e78:	f9001bf7 	str	x23, [sp, #48]
     e7c:	aa0203f7 	mov	x23, x2
/home/thesis/Desktop/optee_rpi3bplus/optee_os/lib/libutils/isoc/bget.c:816
     e80:	97fffeb4 	bl	950 <bget>
     e84:	aa0003f6 	mov	x22, x0
     e88:	b4000420 	cbz	x0, f0c <bgetr+0xb4>
/home/thesis/Desktop/optee_rpi3bplus/optee_os/lib/libutils/isoc/bget.c:819
     e8c:	b4000415 	cbz	x21, f0c <bgetr+0xb4>
/home/thesis/Desktop/optee_rpi3bplus/optee_os/lib/libutils/isoc/bget.c:833
     e90:	f85f82a1 	ldur	x1, [x21, #-8]
     e94:	928001f3 	mov	x19, #0xfffffffffffffff0    	// #-16
     e98:	cb010273 	sub	x19, x19, x1
/home/thesis/Desktop/optee_rpi3bplus/optee_os/lib/libutils/isoc/bget.c:834
     e9c:	f100027f 	cmp	x19, #0x0
     ea0:	5400016c 	b.gt	ecc <bgetr+0x74>
     ea4:	d0000043 	adrp	x3, a000 <__text_end+0x1670>
     ea8:	91243463 	add	x3, x3, #0x90d
     eac:	91004063 	add	x3, x3, #0x10
     eb0:	d0000041 	adrp	x1, a000 <__text_end+0x1670>
     eb4:	d0000040 	adrp	x0, a000 <__text_end+0x1670>
     eb8:	91259421 	add	x1, x1, #0x965
     ebc:	912e3000 	add	x0, x0, #0xb8c
     ec0:	52806842 	mov	w2, #0x342                 	// #834
     ec4:	94000586 	bl	24dc <_assert_log>
     ec8:	94000596 	bl	2520 <_assert_break>
/home/thesis/Desktop/optee_rpi3bplus/optee_os/lib/libutils/isoc/bget.c:835
     ecc:	eb13029f 	cmp	x20, x19
     ed0:	93407e81 	sxtw	x1, w20
     ed4:	93407e62 	sxtw	x2, w19
     ed8:	9a81a042 	csel	x2, x2, x1, ge  // ge = tcont
     edc:	aa1503e1 	mov	x1, x21
     ee0:	940001c2 	bl	15e8 <memcpy>
/home/thesis/Desktop/optee_rpi3bplus/optee_os/lib/libutils/isoc/bget.c:839
     ee4:	eb13029f 	cmp	x20, x19
     ee8:	540000ad 	b.le	efc <bgetr+0xa4>
/home/thesis/Desktop/optee_rpi3bplus/optee_os/lib/libutils/isoc/bget.c:840
     eec:	cb130282 	sub	x2, x20, x19
     ef0:	52800001 	mov	w1, #0x0                   	// #0
     ef4:	8b1302c0 	add	x0, x22, x19
     ef8:	940001c4 	bl	1608 <memset>
/home/thesis/Desktop/optee_rpi3bplus/optee_os/lib/libutils/isoc/bget.c:842
     efc:	52800002 	mov	w2, #0x0                   	// #0
     f00:	aa1703e1 	mov	x1, x23
     f04:	aa1503e0 	mov	x0, x21
     f08:	97ffff25 	bl	b9c <brel>
/home/thesis/Desktop/optee_rpi3bplus/optee_os/lib/libutils/isoc/bget.c:844
     f0c:	aa1603e0 	mov	x0, x22
     f10:	a94153f3 	ldp	x19, x20, [sp, #16]
     f14:	a9425bf5 	ldp	x21, x22, [sp, #32]
     f18:	f9401bf7 	ldr	x23, [sp, #48]
     f1c:	a8c47bfd 	ldp	x29, x30, [sp], #64
     f20:	d65f03c0 	ret

0000000000000f24 <bpool>:
bpool():
/home/thesis/Desktop/optee_rpi3bplus/optee_os/lib/libutils/isoc/bget.c:1028
     f24:	a9bf7bfd 	stp	x29, x30, [sp, #-16]!
/home/thesis/Desktop/optee_rpi3bplus/optee_os/lib/libutils/isoc/bget.c:1033
     f28:	927cec21 	and	x1, x1, #0xfffffffffffffff0
/home/thesis/Desktop/optee_rpi3bplus/optee_os/lib/libutils/isoc/bget.c:1052
     f2c:	f1004021 	subs	x1, x1, #0x10
/home/thesis/Desktop/optee_rpi3bplus/optee_os/lib/libutils/isoc/bget.c:1028
     f30:	910003fd 	mov	x29, sp
/home/thesis/Desktop/optee_rpi3bplus/optee_os/lib/libutils/isoc/bget.c:1052
     f34:	54000165 	b.pl	f60 <bpool+0x3c>  // b.nfrst
/home/thesis/Desktop/optee_rpi3bplus/optee_os/lib/libutils/isoc/bget.c:1052 (discriminator 1)
     f38:	d0000043 	adrp	x3, a000 <__text_end+0x1670>
     f3c:	91243463 	add	x3, x3, #0x90d
     f40:	d0000041 	adrp	x1, a000 <__text_end+0x1670>
     f44:	d0000040 	adrp	x0, a000 <__text_end+0x1670>
     f48:	91005863 	add	x3, x3, #0x16
     f4c:	91259421 	add	x1, x1, #0x965
     f50:	912e5800 	add	x0, x0, #0xb96
     f54:	52808382 	mov	w2, #0x41c                 	// #1052
/home/thesis/Desktop/optee_rpi3bplus/optee_os/lib/libutils/isoc/bget.c:1062 (discriminator 1)
     f58:	94000561 	bl	24dc <_assert_log>
     f5c:	94000571 	bl	2520 <_assert_break>
/home/thesis/Desktop/optee_rpi3bplus/optee_os/lib/libutils/isoc/bget.c:1062
     f60:	f9400c44 	ldr	x4, [x2, #24]
     f64:	f9400883 	ldr	x3, [x4, #16]
/home/thesis/Desktop/optee_rpi3bplus/optee_os/lib/libutils/isoc/bget.c:1058
     f68:	f900001f 	str	xzr, [x0]
/home/thesis/Desktop/optee_rpi3bplus/optee_os/lib/libutils/isoc/bget.c:1062
     f6c:	eb02007f 	cmp	x3, x2
     f70:	54000140 	b.eq	f98 <bpool+0x74>  // b.none
/home/thesis/Desktop/optee_rpi3bplus/optee_os/lib/libutils/isoc/bget.c:1062 (discriminator 1)
     f74:	d0000043 	adrp	x3, a000 <__text_end+0x1670>
     f78:	91243463 	add	x3, x3, #0x90d
     f7c:	d0000041 	adrp	x1, a000 <__text_end+0x1670>
     f80:	d0000040 	adrp	x0, a000 <__text_end+0x1670>
     f84:	91005863 	add	x3, x3, #0x16
     f88:	528084c2 	mov	w2, #0x426                 	// #1062
     f8c:	91259421 	add	x1, x1, #0x965
     f90:	912a4800 	add	x0, x0, #0xa92
     f94:	17fffff1 	b	f58 <bpool+0x34>
/home/thesis/Desktop/optee_rpi3bplus/optee_os/lib/libutils/isoc/bget.c:1063
     f98:	f9400862 	ldr	x2, [x3, #16]
     f9c:	f9400c42 	ldr	x2, [x2, #24]
     fa0:	eb02007f 	cmp	x3, x2
     fa4:	54000140 	b.eq	fcc <bpool+0xa8>  // b.none
     fa8:	d0000043 	adrp	x3, a000 <__text_end+0x1670>
     fac:	91243463 	add	x3, x3, #0x90d
     fb0:	d0000041 	adrp	x1, a000 <__text_end+0x1670>
     fb4:	d0000040 	adrp	x0, a000 <__text_end+0x1670>
     fb8:	91005863 	add	x3, x3, #0x16
     fbc:	528084e2 	mov	w2, #0x427                 	// #1063
     fc0:	91259421 	add	x1, x1, #0x965
     fc4:	912b3400 	add	x0, x0, #0xacd
     fc8:	17ffffe4 	b	f58 <bpool+0x34>
/home/thesis/Desktop/optee_rpi3bplus/optee_os/lib/libutils/isoc/bget.c:1065
     fcc:	a9011003 	stp	x3, x4, [x0, #16]
/home/thesis/Desktop/optee_rpi3bplus/optee_os/lib/libutils/isoc/bget.c:1066
     fd0:	f9000c60 	str	x0, [x3, #24]
/home/thesis/Desktop/optee_rpi3bplus/optee_os/lib/libutils/isoc/bget.c:1067
     fd4:	f9400c02 	ldr	x2, [x0, #24]
     fd8:	f9000840 	str	x0, [x2, #16]
/home/thesis/Desktop/optee_rpi3bplus/optee_os/lib/libutils/isoc/bget.c:1083
     fdc:	8b010002 	add	x2, x0, x1
/home/thesis/Desktop/optee_rpi3bplus/optee_os/lib/libutils/isoc/bget.c:1078
     fe0:	f9000401 	str	x1, [x0, #8]
/home/thesis/Desktop/optee_rpi3bplus/optee_os/lib/libutils/isoc/bget.c:1084
     fe4:	f8216801 	str	x1, [x0, x1]
/home/thesis/Desktop/optee_rpi3bplus/optee_os/lib/libutils/isoc/bget.c:1087
     fe8:	d2f00000 	mov	x0, #0x8000000000000000    	// #-9223372036854775808
     fec:	f9000440 	str	x0, [x2, #8]
/home/thesis/Desktop/optee_rpi3bplus/optee_os/lib/libutils/isoc/bget.c:1088
     ff0:	a8c17bfd 	ldp	x29, x30, [sp], #16
     ff4:	d65f03c0 	ret

0000000000000ff8 <bstats>:
bstats():
/home/thesis/Desktop/optee_rpi3bplus/optee_os/lib/libutils/isoc/bget.c:1101
     ff8:	f94014a7 	ldr	x7, [x5, #40]
/home/thesis/Desktop/optee_rpi3bplus/optee_os/lib/libutils/isoc/bget.c:1099
     ffc:	f94008a6 	ldr	x6, [x5, #16]
/home/thesis/Desktop/optee_rpi3bplus/optee_os/lib/libutils/isoc/bget.c:1101
    1000:	f9000067 	str	x7, [x3]
/home/thesis/Desktop/optee_rpi3bplus/optee_os/lib/libutils/isoc/bget.c:1102
    1004:	f94018a3 	ldr	x3, [x5, #48]
    1008:	f9000083 	str	x3, [x4]
/home/thesis/Desktop/optee_rpi3bplus/optee_os/lib/libutils/isoc/bget.c:1103
    100c:	f94010a3 	ldr	x3, [x5, #32]
    1010:	f9000003 	str	x3, [x0]
/home/thesis/Desktop/optee_rpi3bplus/optee_os/lib/libutils/isoc/bget.c:1104
    1014:	f900003f 	str	xzr, [x1]
/home/thesis/Desktop/optee_rpi3bplus/optee_os/lib/libutils/isoc/bget.c:1105
    1018:	92800000 	mov	x0, #0xffffffffffffffff    	// #-1
    101c:	f9000040 	str	x0, [x2]
/home/thesis/Desktop/optee_rpi3bplus/optee_os/lib/libutils/isoc/bget.c:1106
    1020:	eb0600bf 	cmp	x5, x6
    1024:	54000041 	b.ne	102c <bstats+0x34>  // b.any
    1028:	d65f03c0 	ret
/home/thesis/Desktop/optee_rpi3bplus/optee_os/lib/libutils/isoc/bget.c:1107
    102c:	f94004c3 	ldr	x3, [x6, #8]
    1030:	f100007f 	cmp	x3, #0x0
    1034:	540001ac 	b.gt	1068 <bstats+0x70>
/home/thesis/Desktop/optee_rpi3bplus/optee_os/lib/libutils/isoc/bget.c:1107 (discriminator 1)
    1038:	b0000043 	adrp	x3, a000 <__text_end+0x1670>
    103c:	91243463 	add	x3, x3, #0x90d
    1040:	91007063 	add	x3, x3, #0x1c
    1044:	b0000041 	adrp	x1, a000 <__text_end+0x1670>
    1048:	b0000040 	adrp	x0, a000 <__text_end+0x1670>
    104c:	91259421 	add	x1, x1, #0x965
    1050:	912f2c00 	add	x0, x0, #0xbcb
/home/thesis/Desktop/optee_rpi3bplus/optee_os/lib/libutils/isoc/bget.c:1098 (discriminator 1)
    1054:	a9bf7bfd 	stp	x29, x30, [sp, #-16]!
/home/thesis/Desktop/optee_rpi3bplus/optee_os/lib/libutils/isoc/bget.c:1107 (discriminator 1)
    1058:	52808a62 	mov	w2, #0x453                 	// #1107
/home/thesis/Desktop/optee_rpi3bplus/optee_os/lib/libutils/isoc/bget.c:1098 (discriminator 1)
    105c:	910003fd 	mov	x29, sp
/home/thesis/Desktop/optee_rpi3bplus/optee_os/lib/libutils/isoc/bget.c:1107 (discriminator 1)
    1060:	9400051f 	bl	24dc <_assert_log>
    1064:	9400052f 	bl	2520 <_assert_break>
/home/thesis/Desktop/optee_rpi3bplus/optee_os/lib/libutils/isoc/bget.c:1108
    1068:	f9400020 	ldr	x0, [x1]
    106c:	8b030000 	add	x0, x0, x3
    1070:	f9000020 	str	x0, [x1]
/home/thesis/Desktop/optee_rpi3bplus/optee_os/lib/libutils/isoc/bget.c:1109
    1074:	f9400043 	ldr	x3, [x2]
    1078:	f94004c0 	ldr	x0, [x6, #8]
    107c:	eb03001f 	cmp	x0, x3
    1080:	5400004d 	b.le	1088 <bstats+0x90>
/home/thesis/Desktop/optee_rpi3bplus/optee_os/lib/libutils/isoc/bget.c:1110
    1084:	f9000040 	str	x0, [x2]
/home/thesis/Desktop/optee_rpi3bplus/optee_os/lib/libutils/isoc/bget.c:1112
    1088:	f94008c6 	ldr	x6, [x6, #16]
    108c:	17ffffe5 	b	1020 <bstats+0x28>

0000000000001090 <malloc_reset_stats>:
gen_malloc_reset_stats():
/home/thesis/Desktop/optee_rpi3bplus/optee_os/lib/libutils/isoc/bget_malloc.c:216
    1090:	f0000040 	adrp	x0, c000 <.got>
    1094:	910de000 	add	x0, x0, #0x378
    1098:	b9006c1f 	str	wzr, [x0, #108]
/home/thesis/Desktop/optee_rpi3bplus/optee_os/lib/libutils/isoc/bget_malloc.c:217
    109c:	b900741f 	str	wzr, [x0, #116]
/home/thesis/Desktop/optee_rpi3bplus/optee_os/lib/libutils/isoc/bget_malloc.c:218
    10a0:	f9003c1f 	str	xzr, [x0, #120]
malloc_reset_stats():
/home/thesis/Desktop/optee_rpi3bplus/optee_os/lib/libutils/isoc/bget_malloc.c:226
    10a4:	d65f03c0 	ret

00000000000010a8 <malloc_get_stats>:
malloc_get_stats():
/home/thesis/Desktop/optee_rpi3bplus/optee_os/lib/libutils/isoc/bget_malloc.c:239
    10a8:	a9be7bfd 	stp	x29, x30, [sp, #-32]!
gen_malloc_get_stats():
/home/thesis/Desktop/optee_rpi3bplus/optee_os/lib/libutils/isoc/bget_malloc.c:233
    10ac:	d2800702 	mov	x2, #0x38                  	// #56
malloc_get_stats():
/home/thesis/Desktop/optee_rpi3bplus/optee_os/lib/libutils/isoc/bget_malloc.c:239
    10b0:	910003fd 	mov	x29, sp
    10b4:	f9000bf3 	str	x19, [sp, #16]
gen_malloc_get_stats():
/home/thesis/Desktop/optee_rpi3bplus/optee_os/lib/libutils/isoc/bget_malloc.c:233
    10b8:	f0000053 	adrp	x19, c000 <.got>
    10bc:	910de273 	add	x19, x19, #0x378
    10c0:	91012261 	add	x1, x19, #0x48
    10c4:	94000149 	bl	15e8 <memcpy>
    10c8:	aa0003e3 	mov	x3, x0
/home/thesis/Desktop/optee_rpi3bplus/optee_os/lib/libutils/isoc/bget_malloc.c:234
    10cc:	f9401260 	ldr	x0, [x19, #32]
malloc_get_stats():
/home/thesis/Desktop/optee_rpi3bplus/optee_os/lib/libutils/isoc/bget_malloc.c:241
    10d0:	f9400bf3 	ldr	x19, [sp, #16]
gen_malloc_get_stats():
/home/thesis/Desktop/optee_rpi3bplus/optee_os/lib/libutils/isoc/bget_malloc.c:234
    10d4:	b9002060 	str	w0, [x3, #32]
malloc_get_stats():
/home/thesis/Desktop/optee_rpi3bplus/optee_os/lib/libutils/isoc/bget_malloc.c:241
    10d8:	a8c27bfd 	ldp	x29, x30, [sp], #32
    10dc:	d65f03c0 	ret

00000000000010e0 <malloc>:
malloc():
/home/thesis/Desktop/optee_rpi3bplus/optee_os/lib/libutils/isoc/bget_malloc.c:656
    10e0:	a9be7bfd 	stp	x29, x30, [sp, #-32]!
    10e4:	910003fd 	mov	x29, sp
    10e8:	f9000bf3 	str	x19, [sp, #16]
    10ec:	aa0003f3 	mov	x19, x0
raw_malloc():
/home/thesis/Desktop/optee_rpi3bplus/optee_os/lib/libutils/isoc/bget_malloc.c:352
    10f0:	b7f801c0 	tbnz	x0, #63, 1128 <malloc+0x48>
/home/thesis/Desktop/optee_rpi3bplus/optee_os/lib/libutils/isoc/bget_malloc.c:359
    10f4:	f100001f 	cmp	x0, #0x0
/home/thesis/Desktop/optee_rpi3bplus/optee_os/lib/libutils/isoc/bget_malloc.c:361
    10f8:	f0000041 	adrp	x1, c000 <.got>
    10fc:	9a9f1400 	csinc	x0, x0, xzr, ne  // ne = any
    1100:	910de021 	add	x1, x1, #0x378
    1104:	97fffe13 	bl	950 <bget>
    1108:	aa0003e6 	mov	x6, x0
/home/thesis/Desktop/optee_rpi3bplus/optee_os/lib/libutils/isoc/bget_malloc.c:363
    110c:	aa1303e1 	mov	x1, x19
    1110:	aa0603e0 	mov	x0, x6
    1114:	97fffdfe 	bl	90c <raw_malloc_return_hook.constprop.21>
malloc():
/home/thesis/Desktop/optee_rpi3bplus/optee_os/lib/libutils/isoc/bget_malloc.c:663
    1118:	aa0603e0 	mov	x0, x6
    111c:	f9400bf3 	ldr	x19, [sp, #16]
    1120:	a8c27bfd 	ldp	x29, x30, [sp], #32
    1124:	d65f03c0 	ret
raw_malloc():
/home/thesis/Desktop/optee_rpi3bplus/optee_os/lib/libutils/isoc/bget_malloc.c:339
    1128:	d2800006 	mov	x6, #0x0                   	// #0
    112c:	17fffff8 	b	110c <malloc+0x2c>

0000000000001130 <calloc>:
calloc():
/home/thesis/Desktop/optee_rpi3bplus/optee_os/lib/libutils/isoc/bget_malloc.c:674
    1130:	a9be7bfd 	stp	x29, x30, [sp, #-32]!
    1134:	910003fd 	mov	x29, sp
    1138:	f9000bf3 	str	x19, [sp, #16]
raw_calloc():
/home/thesis/Desktop/optee_rpi3bplus/optee_os/lib/libutils/isoc/bget_malloc.c:385
    113c:	9b017c13 	mul	x19, x0, x1
    1140:	9bc17c00 	umulh	x0, x0, x1
    1144:	f100001f 	cmp	x0, #0x0
    1148:	d2800020 	mov	x0, #0x1                   	// #1
    114c:	9a9f07e1 	cset	x1, ne  // ne = any
    1150:	f100027f 	cmp	x19, #0x0
    1154:	9a80a021 	csel	x1, x1, x0, ge  // ge = tcont
    1158:	b50001a1 	cbnz	x1, 118c <calloc+0x5c>
/home/thesis/Desktop/optee_rpi3bplus/optee_os/lib/libutils/isoc/bget_malloc.c:396
    115c:	f0000041 	adrp	x1, c000 <.got>
    1160:	9a801260 	csel	x0, x19, x0, ne  // ne = any
    1164:	910de021 	add	x1, x1, #0x378
    1168:	97fffe6a 	bl	b10 <bgetz>
    116c:	aa0003e6 	mov	x6, x0
/home/thesis/Desktop/optee_rpi3bplus/optee_os/lib/libutils/isoc/bget_malloc.c:398
    1170:	aa1303e1 	mov	x1, x19
    1174:	aa0603e0 	mov	x0, x6
    1178:	97fffde5 	bl	90c <raw_malloc_return_hook.constprop.21>
calloc():
/home/thesis/Desktop/optee_rpi3bplus/optee_os/lib/libutils/isoc/bget_malloc.c:681
    117c:	aa0603e0 	mov	x0, x6
    1180:	f9400bf3 	ldr	x19, [sp, #16]
    1184:	a8c27bfd 	ldp	x29, x30, [sp], #32
    1188:	d65f03c0 	ret
raw_calloc():
/home/thesis/Desktop/optee_rpi3bplus/optee_os/lib/libutils/isoc/bget_malloc.c:379
    118c:	d2800006 	mov	x6, #0x0                   	// #0
    1190:	17fffff8 	b	1170 <calloc+0x40>

0000000000001194 <realloc>:
realloc():
/home/thesis/Desktop/optee_rpi3bplus/optee_os/lib/libutils/isoc/bget_malloc.c:690
    1194:	a9be7bfd 	stp	x29, x30, [sp, #-32]!
    1198:	910003fd 	mov	x29, sp
    119c:	f9000bf3 	str	x19, [sp, #16]
    11a0:	aa0103f3 	mov	x19, x1
raw_realloc():
/home/thesis/Desktop/optee_rpi3bplus/optee_os/lib/libutils/isoc/bget_malloc.c:410
    11a4:	b7f801c1 	tbnz	x1, #63, 11dc <realloc+0x48>
/home/thesis/Desktop/optee_rpi3bplus/optee_os/lib/libutils/isoc/bget_malloc.c:419
    11a8:	f100003f 	cmp	x1, #0x0
/home/thesis/Desktop/optee_rpi3bplus/optee_os/lib/libutils/isoc/bget_malloc.c:421
    11ac:	f0000042 	adrp	x2, c000 <.got>
    11b0:	9a9f1421 	csinc	x1, x1, xzr, ne  // ne = any
    11b4:	910de042 	add	x2, x2, #0x378
    11b8:	97ffff28 	bl	e58 <bgetr>
    11bc:	aa0003e6 	mov	x6, x0
/home/thesis/Desktop/optee_rpi3bplus/optee_os/lib/libutils/isoc/bget_malloc.c:423
    11c0:	aa1303e1 	mov	x1, x19
    11c4:	aa0603e0 	mov	x0, x6
    11c8:	97fffdd1 	bl	90c <raw_malloc_return_hook.constprop.21>
realloc():
/home/thesis/Desktop/optee_rpi3bplus/optee_os/lib/libutils/isoc/bget_malloc.c:697
    11cc:	aa0603e0 	mov	x0, x6
    11d0:	f9400bf3 	ldr	x19, [sp, #16]
    11d4:	a8c27bfd 	ldp	x29, x30, [sp], #32
    11d8:	d65f03c0 	ret
raw_realloc():
/home/thesis/Desktop/optee_rpi3bplus/optee_os/lib/libutils/isoc/bget_malloc.c:406
    11dc:	d2800006 	mov	x6, #0x0                   	// #0
    11e0:	17fffff8 	b	11c0 <realloc+0x2c>

00000000000011e4 <free>:
raw_free():
/home/thesis/Desktop/optee_rpi3bplus/optee_os/lib/libutils/isoc/bget_malloc.c:372
    11e4:	b40000a0 	cbz	x0, 11f8 <free+0x14>
/home/thesis/Desktop/optee_rpi3bplus/optee_os/lib/libutils/isoc/bget_malloc.c:373
    11e8:	52800002 	mov	w2, #0x0                   	// #0
    11ec:	f0000041 	adrp	x1, c000 <.got>
    11f0:	910de021 	add	x1, x1, #0x378
    11f4:	17fffe6a 	b	b9c <brel>
free():
/home/thesis/Desktop/optee_rpi3bplus/optee_os/lib/libutils/isoc/bget_malloc.c:710
    11f8:	d65f03c0 	ret

00000000000011fc <free_wipe>:
raw_free():
/home/thesis/Desktop/optee_rpi3bplus/optee_os/lib/libutils/isoc/bget_malloc.c:372
    11fc:	b40000a0 	cbz	x0, 1210 <free_wipe+0x14>
/home/thesis/Desktop/optee_rpi3bplus/optee_os/lib/libutils/isoc/bget_malloc.c:373
    1200:	52800022 	mov	w2, #0x1                   	// #1
    1204:	f0000041 	adrp	x1, c000 <.got>
    1208:	910de021 	add	x1, x1, #0x378
    120c:	17fffe64 	b	b9c <brel>
free_wipe():
/home/thesis/Desktop/optee_rpi3bplus/optee_os/lib/libutils/isoc/bget_malloc.c:715
    1210:	d65f03c0 	ret

0000000000001214 <malloc_add_pool>:
malloc_add_pool():
/home/thesis/Desktop/optee_rpi3bplus/optee_os/lib/libutils/isoc/bget_malloc.c:823
    1214:	a9bc7bfd 	stp	x29, x30, [sp, #-64]!
    1218:	910003fd 	mov	x29, sp
    121c:	a90153f3 	stp	x19, x20, [sp, #16]
gen_malloc_add_pool():
/home/thesis/Desktop/optee_rpi3bplus/optee_os/lib/libutils/isoc/bget_malloc.c:723
    1220:	8b010014 	add	x20, x0, x1
/home/thesis/Desktop/optee_rpi3bplus/optee_os/lib/libutils/isoc/bget_malloc.c:729
    1224:	91003c00 	add	x0, x0, #0xf
malloc_add_pool():
/home/thesis/Desktop/optee_rpi3bplus/optee_os/lib/libutils/isoc/bget_malloc.c:823
    1228:	a9025bf5 	stp	x21, x22, [sp, #32]
gen_malloc_add_pool():
/home/thesis/Desktop/optee_rpi3bplus/optee_os/lib/libutils/isoc/bget_malloc.c:730
    122c:	927cee94 	and	x20, x20, #0xfffffffffffffff0
/home/thesis/Desktop/optee_rpi3bplus/optee_os/lib/libutils/isoc/bget_malloc.c:729
    1230:	927cec16 	and	x22, x0, #0xfffffffffffffff0
malloc_add_pool():
/home/thesis/Desktop/optee_rpi3bplus/optee_os/lib/libutils/isoc/bget_malloc.c:823
    1234:	a90363f7 	stp	x23, x24, [sp, #48]
gen_malloc_add_pool():
/home/thesis/Desktop/optee_rpi3bplus/optee_os/lib/libutils/isoc/bget_malloc.c:731
    1238:	eb1402df 	cmp	x22, x20
    123c:	54000163 	b.cc	1268 <malloc_add_pool+0x54>  // b.lo, b.ul, b.last
    1240:	b0000043 	adrp	x3, a000 <__text_end+0x1670>
    1244:	91243463 	add	x3, x3, #0x90d
    1248:	b0000041 	adrp	x1, a000 <__text_end+0x1670>
    124c:	b0000040 	adrp	x0, a000 <__text_end+0x1670>
    1250:	91008c63 	add	x3, x3, #0x23
    1254:	912f6c21 	add	x1, x1, #0xbdb
    1258:	912fec00 	add	x0, x0, #0xbfb
    125c:	52805b62 	mov	w2, #0x2db                 	// #731
/home/thesis/Desktop/optee_rpi3bplus/optee_os/lib/libutils/isoc/bget_malloc.c:744
    1260:	9400049f 	bl	24dc <_assert_log>
    1264:	940004af 	bl	2520 <_assert_break>
/home/thesis/Desktop/optee_rpi3bplus/optee_os/lib/libutils/isoc/bget_malloc.c:733
    1268:	cb160294 	sub	x20, x20, x22
    126c:	f100be9f 	cmp	x20, #0x2f
    1270:	54000569 	b.ls	131c <malloc_add_pool+0x108>  // b.plast
/home/thesis/Desktop/optee_rpi3bplus/optee_os/lib/libutils/isoc/bget_malloc.c:741
    1274:	f0000053 	adrp	x19, c000 <.got>
    1278:	910de278 	add	x24, x19, #0x378
    127c:	aa1803e2 	mov	x2, x24
    1280:	aa1403e1 	mov	x1, x20
    1284:	aa1603e0 	mov	x0, x22
    1288:	97ffff27 	bl	f24 <bpool>
/home/thesis/Desktop/optee_rpi3bplus/optee_os/lib/libutils/isoc/bget_malloc.c:742
    128c:	f9402317 	ldr	x23, [x24, #64]
    1290:	910006f7 	add	x23, x23, #0x1
/home/thesis/Desktop/optee_rpi3bplus/optee_os/lib/libutils/isoc/bget_malloc.c:743
    1294:	d37ceef5 	lsl	x21, x23, #4
raw_realloc():
/home/thesis/Desktop/optee_rpi3bplus/optee_os/lib/libutils/isoc/bget_malloc.c:410
    1298:	b7f80295 	tbnz	x21, #63, 12e8 <malloc_add_pool+0xd4>
/home/thesis/Desktop/optee_rpi3bplus/optee_os/lib/libutils/isoc/bget_malloc.c:421
    129c:	f9401f00 	ldr	x0, [x24, #56]
/home/thesis/Desktop/optee_rpi3bplus/optee_os/lib/libutils/isoc/bget_malloc.c:419
    12a0:	f10002bf 	cmp	x21, #0x0
/home/thesis/Desktop/optee_rpi3bplus/optee_os/lib/libutils/isoc/bget_malloc.c:421
    12a4:	aa1803e2 	mov	x2, x24
    12a8:	9a9f16a1 	csinc	x1, x21, xzr, ne  // ne = any
    12ac:	97fffeeb 	bl	e58 <bgetr>
    12b0:	aa0003e6 	mov	x6, x0
/home/thesis/Desktop/optee_rpi3bplus/optee_os/lib/libutils/isoc/bget_malloc.c:423
    12b4:	aa1503e1 	mov	x1, x21
    12b8:	aa0603e0 	mov	x0, x6
    12bc:	97fffd94 	bl	90c <raw_malloc_return_hook.constprop.21>
gen_malloc_add_pool():
/home/thesis/Desktop/optee_rpi3bplus/optee_os/lib/libutils/isoc/bget_malloc.c:744
    12c0:	b5000186 	cbnz	x6, 12f0 <malloc_add_pool+0xdc>
    12c4:	b0000043 	adrp	x3, a000 <__text_end+0x1670>
    12c8:	91243463 	add	x3, x3, #0x90d
    12cc:	b0000041 	adrp	x1, a000 <__text_end+0x1670>
    12d0:	b0000040 	adrp	x0, a000 <__text_end+0x1670>
    12d4:	91008c63 	add	x3, x3, #0x23
    12d8:	52805d02 	mov	w2, #0x2e8                 	// #744
    12dc:	912f6c21 	add	x1, x1, #0xbdb
    12e0:	91301c00 	add	x0, x0, #0xc07
    12e4:	17ffffdf 	b	1260 <malloc_add_pool+0x4c>
raw_realloc():
/home/thesis/Desktop/optee_rpi3bplus/optee_os/lib/libutils/isoc/bget_malloc.c:406
    12e8:	d2800006 	mov	x6, #0x0                   	// #0
    12ec:	17fffff2 	b	12b4 <malloc_add_pool+0xa0>
gen_malloc_add_pool():
/home/thesis/Desktop/optee_rpi3bplus/optee_os/lib/libutils/isoc/bget_malloc.c:745
    12f0:	910de260 	add	x0, x19, #0x378
/home/thesis/Desktop/optee_rpi3bplus/optee_os/lib/libutils/isoc/bget_malloc.c:746
    12f4:	f9402001 	ldr	x1, [x0, #64]
/home/thesis/Desktop/optee_rpi3bplus/optee_os/lib/libutils/isoc/bget_malloc.c:745
    12f8:	f9001c06 	str	x6, [x0, #56]
/home/thesis/Desktop/optee_rpi3bplus/optee_os/lib/libutils/isoc/bget_malloc.c:746
    12fc:	d37cec21 	lsl	x1, x1, #4
    1300:	8b0100c2 	add	x2, x6, x1
    1304:	f82168d6 	str	x22, [x6, x1]
/home/thesis/Desktop/optee_rpi3bplus/optee_os/lib/libutils/isoc/bget_malloc.c:749
    1308:	b9407001 	ldr	w1, [x0, #112]
/home/thesis/Desktop/optee_rpi3bplus/optee_os/lib/libutils/isoc/bget_malloc.c:747
    130c:	f9000454 	str	x20, [x2, #8]
/home/thesis/Desktop/optee_rpi3bplus/optee_os/lib/libutils/isoc/bget_malloc.c:749
    1310:	0b140034 	add	w20, w1, w20
/home/thesis/Desktop/optee_rpi3bplus/optee_os/lib/libutils/isoc/bget_malloc.c:751
    1314:	f9002017 	str	x23, [x0, #64]
/home/thesis/Desktop/optee_rpi3bplus/optee_os/lib/libutils/isoc/bget_malloc.c:749
    1318:	b9007014 	str	w20, [x0, #112]
malloc_add_pool():
/home/thesis/Desktop/optee_rpi3bplus/optee_os/lib/libutils/isoc/bget_malloc.c:825
    131c:	a94153f3 	ldp	x19, x20, [sp, #16]
    1320:	a9425bf5 	ldp	x21, x22, [sp, #32]
    1324:	a94363f7 	ldp	x23, x24, [sp, #48]
    1328:	a8c47bfd 	ldp	x29, x30, [sp], #64
    132c:	d65f03c0 	ret

0000000000001330 <malloc_buffer_is_within_alloced>:
gen_malloc_buffer_is_within_alloced():
/home/thesis/Desktop/optee_rpi3bplus/optee_os/lib/libutils/isoc/bget_malloc.c:761
    1330:	8b010001 	add	x1, x0, x1
/home/thesis/Desktop/optee_rpi3bplus/optee_os/lib/libutils/isoc/bget_malloc.c:768
    1334:	eb01001f 	cmp	x0, x1
    1338:	54000b88 	b.hi	14a8 <malloc_buffer_is_within_alloced+0x178>  // b.pmore
    133c:	aa0003e4 	mov	x4, x0
/home/thesis/Desktop/optee_rpi3bplus/optee_os/lib/libutils/isoc/bget_malloc.c:771
    1340:	f0000040 	adrp	x0, c000 <.got>
    1344:	910de000 	add	x0, x0, #0x378
bpool_foreach_iterator_init():
/home/thesis/Desktop/optee_rpi3bplus/optee_os/lib/libutils/isoc/bget_malloc.c:276
    1348:	d2800005 	mov	x5, #0x0                   	// #0
bpool_foreach_pool():
/home/thesis/Desktop/optee_rpi3bplus/optee_os/lib/libutils/isoc/bget_malloc.c:286
    134c:	d2f0000a 	mov	x10, #0x8000000000000000    	// #-9223372036854775808
    1350:	928001eb 	mov	x11, #0xfffffffffffffff0    	// #-16
bpool_foreach():
/home/thesis/Desktop/optee_rpi3bplus/optee_os/lib/libutils/isoc/bget_malloc.c:323
    1354:	a943a406 	ldp	x6, x9, [x0, #56]
bpool_foreach_iterator_init():
/home/thesis/Desktop/optee_rpi3bplus/optee_os/lib/libutils/isoc/bget_malloc.c:277
    1358:	f94000c3 	ldr	x3, [x6]
/home/thesis/Desktop/optee_rpi3bplus/optee_os/lib/libutils/isoc/bget_malloc.c:276
    135c:	aa0303e0 	mov	x0, x3
bpool_foreach_pool():
/home/thesis/Desktop/optee_rpi3bplus/optee_os/lib/libutils/isoc/bget_malloc.c:284
    1360:	f9400462 	ldr	x2, [x3, #8]
/home/thesis/Desktop/optee_rpi3bplus/optee_os/lib/libutils/isoc/bget_malloc.c:286
    1364:	eb0a005f 	cmp	x2, x10
    1368:	540009a0 	b.eq	149c <malloc_buffer_is_within_alloced+0x16c>  // b.none
malloc_buffer_is_within_alloced():
/home/thesis/Desktop/optee_rpi3bplus/optee_os/lib/libutils/isoc/bget_malloc.c:828
    136c:	a9bf7bfd 	stp	x29, x30, [sp, #-16]!
    1370:	910003fd 	mov	x29, sp
    1374:	1400000d 	b	13a8 <malloc_buffer_is_within_alloced+0x78>
bpool_foreach_pool():
/home/thesis/Desktop/optee_rpi3bplus/optee_os/lib/libutils/isoc/bget_malloc.c:303
    1378:	91004000 	add	x0, x0, #0x10
gen_malloc_buffer_is_within_alloced():
/home/thesis/Desktop/optee_rpi3bplus/optee_os/lib/libutils/isoc/bget_malloc.c:777
    137c:	8b020002 	add	x2, x0, x2
/home/thesis/Desktop/optee_rpi3bplus/optee_os/lib/libutils/isoc/bget_malloc.c:779
    1380:	eb02003f 	cmp	x1, x2
    1384:	1a9f87e2 	cset	w2, ls  // ls = plast
    1388:	eb00009f 	cmp	x4, x0
    138c:	1a9f37e0 	cset	w0, cs  // cs = hs, nlast
    1390:	6a000040 	ands	w0, w2, w0
    1394:	540007a1 	b.ne	1488 <malloc_buffer_is_within_alloced+0x158>  // b.any
bpool_foreach_pool():
/home/thesis/Desktop/optee_rpi3bplus/optee_os/lib/libutils/isoc/bget_malloc.c:284
    1398:	f9400462 	ldr	x2, [x3, #8]
bpool_foreach_iterator_init():
/home/thesis/Desktop/optee_rpi3bplus/optee_os/lib/libutils/isoc/bget_malloc.c:276
    139c:	aa0303e0 	mov	x0, x3
bpool_foreach_pool():
/home/thesis/Desktop/optee_rpi3bplus/optee_os/lib/libutils/isoc/bget_malloc.c:286
    13a0:	eb0a005f 	cmp	x2, x10
    13a4:	540006a0 	b.eq	1478 <malloc_buffer_is_within_alloced+0x148>  // b.none
/home/thesis/Desktop/optee_rpi3bplus/optee_os/lib/libutils/isoc/bget_malloc.c:289
    13a8:	b6f80242 	tbz	x2, #63, 13f0 <malloc_buffer_is_within_alloced+0xc0>
/home/thesis/Desktop/optee_rpi3bplus/optee_os/lib/libutils/isoc/bget_malloc.c:291
    13ac:	cb0203e8 	neg	x8, x2
/home/thesis/Desktop/optee_rpi3bplus/optee_os/lib/libutils/isoc/bget_malloc.c:293
    13b0:	52800007 	mov	w7, #0x0                   	// #0
/home/thesis/Desktop/optee_rpi3bplus/optee_os/lib/libutils/isoc/bget_malloc.c:306
    13b4:	8b080063 	add	x3, x3, x8
bpool_foreach():
/home/thesis/Desktop/optee_rpi3bplus/optee_os/lib/libutils/isoc/bget_malloc.c:318
    13b8:	35ffff07 	cbnz	w7, 1398 <malloc_buffer_is_within_alloced+0x68>
bget_buf_size():
/home/thesis/Desktop/optee_rpi3bplus/optee_os/lib/libutils/isoc/bget_malloc.c:445
    13bc:	cb020162 	sub	x2, x11, x2
/home/thesis/Desktop/optee_rpi3bplus/optee_os/lib/libutils/isoc/bget_malloc.c:446
    13c0:	f100005f 	cmp	x2, #0x0
    13c4:	54fffdac 	b.gt	1378 <malloc_buffer_is_within_alloced+0x48>
    13c8:	b0000043 	adrp	x3, a000 <__text_end+0x1670>
    13cc:	91243463 	add	x3, x3, #0x90d
    13d0:	9100dc63 	add	x3, x3, #0x37
    13d4:	b0000041 	adrp	x1, a000 <__text_end+0x1670>
    13d8:	b0000040 	adrp	x0, a000 <__text_end+0x1670>
    13dc:	912f6c21 	add	x1, x1, #0xbdb
    13e0:	912e3000 	add	x0, x0, #0xb8c
    13e4:	528037c2 	mov	w2, #0x1be                 	// #446
    13e8:	9400043d 	bl	24dc <_assert_log>
    13ec:	9400044d 	bl	2520 <_assert_break>
bpool_foreach_pool():
/home/thesis/Desktop/optee_rpi3bplus/optee_os/lib/libutils/isoc/bget_malloc.c:299
    13f0:	f9400c67 	ldr	x7, [x3, #24]
    13f4:	f94008e7 	ldr	x7, [x7, #16]
    13f8:	eb0300ff 	cmp	x7, x3
    13fc:	54000160 	b.eq	1428 <malloc_buffer_is_within_alloced+0xf8>  // b.none
    1400:	b0000043 	adrp	x3, a000 <__text_end+0x1670>
    1404:	91243463 	add	x3, x3, #0x90d
    1408:	91011463 	add	x3, x3, #0x45
    140c:	b0000041 	adrp	x1, a000 <__text_end+0x1670>
    1410:	b0000040 	adrp	x0, a000 <__text_end+0x1670>
    1414:	912f6c21 	add	x1, x1, #0xbdb
    1418:	9126d800 	add	x0, x0, #0x9b6
    141c:	52802562 	mov	w2, #0x12b                 	// #299
    1420:	9400042f 	bl	24dc <_assert_log>
    1424:	9400043f 	bl	2520 <_assert_break>
/home/thesis/Desktop/optee_rpi3bplus/optee_os/lib/libutils/isoc/bget_malloc.c:300
    1428:	f9400867 	ldr	x7, [x3, #16]
    142c:	f9400ce7 	ldr	x7, [x7, #24]
    1430:	eb0300ff 	cmp	x7, x3
    1434:	54000160 	b.eq	1460 <malloc_buffer_is_within_alloced+0x130>  // b.none
    1438:	b0000043 	adrp	x3, a000 <__text_end+0x1670>
    143c:	91243463 	add	x3, x3, #0x90d
    1440:	91011463 	add	x3, x3, #0x45
    1444:	b0000041 	adrp	x1, a000 <__text_end+0x1670>
    1448:	b0000040 	adrp	x0, a000 <__text_end+0x1670>
    144c:	912f6c21 	add	x1, x1, #0xbdb
    1450:	91274400 	add	x0, x0, #0x9d1
    1454:	52802582 	mov	w2, #0x12c                 	// #300
    1458:	94000421 	bl	24dc <_assert_log>
    145c:	94000431 	bl	2520 <_assert_break>
    1460:	aa0203e8 	mov	x8, x2
/home/thesis/Desktop/optee_rpi3bplus/optee_os/lib/libutils/isoc/bget_malloc.c:296
    1464:	52800027 	mov	w7, #0x1                   	// #1
    1468:	17ffffd3 	b	13b4 <malloc_buffer_is_within_alloced+0x84>
bpool_foreach():
/home/thesis/Desktop/optee_rpi3bplus/optee_os/lib/libutils/isoc/bget_malloc.c:327
    146c:	d37ceca0 	lsl	x0, x5, #4
    1470:	f86068c3 	ldr	x3, [x6, x0]
    1474:	17ffffc9 	b	1398 <malloc_buffer_is_within_alloced+0x68>
/home/thesis/Desktop/optee_rpi3bplus/optee_os/lib/libutils/isoc/bget_malloc.c:323
    1478:	910004a5 	add	x5, x5, #0x1
    147c:	eb0900bf 	cmp	x5, x9
    1480:	54ffff63 	b.cc	146c <malloc_buffer_is_within_alloced+0x13c>  // b.lo, b.ul, b.last
gen_malloc_buffer_is_within_alloced():
/home/thesis/Desktop/optee_rpi3bplus/optee_os/lib/libutils/isoc/bget_malloc.c:762
    1484:	52800000 	mov	w0, #0x0                   	// #0
malloc_buffer_is_within_alloced():
/home/thesis/Desktop/optee_rpi3bplus/optee_os/lib/libutils/isoc/bget_malloc.c:830
    1488:	a8c17bfd 	ldp	x29, x30, [sp], #16
    148c:	d65f03c0 	ret
bpool_foreach():
/home/thesis/Desktop/optee_rpi3bplus/optee_os/lib/libutils/isoc/bget_malloc.c:327
    1490:	d37ceca0 	lsl	x0, x5, #4
    1494:	f86068c3 	ldr	x3, [x6, x0]
    1498:	17ffffb1 	b	135c <malloc_buffer_is_within_alloced+0x2c>
/home/thesis/Desktop/optee_rpi3bplus/optee_os/lib/libutils/isoc/bget_malloc.c:323
    149c:	910004a5 	add	x5, x5, #0x1
    14a0:	eb0900bf 	cmp	x5, x9
    14a4:	54ffff63 	b.cc	1490 <malloc_buffer_is_within_alloced+0x160>  // b.lo, b.ul, b.last
gen_malloc_buffer_is_within_alloced():
/home/thesis/Desktop/optee_rpi3bplus/optee_os/lib/libutils/isoc/bget_malloc.c:762
    14a8:	52800000 	mov	w0, #0x0                   	// #0
malloc_buffer_is_within_alloced():
/home/thesis/Desktop/optee_rpi3bplus/optee_os/lib/libutils/isoc/bget_malloc.c:830
    14ac:	d65f03c0 	ret

00000000000014b0 <malloc_buffer_overlaps_heap>:
gen_malloc_buffer_overlaps_heap():
/home/thesis/Desktop/optee_rpi3bplus/optee_os/lib/libutils/isoc/bget_malloc.c:802
    14b0:	f0000042 	adrp	x2, c000 <.got>
    14b4:	910de042 	add	x2, x2, #0x378
/home/thesis/Desktop/optee_rpi3bplus/optee_os/lib/libutils/isoc/bget_malloc.c:795
    14b8:	8b010001 	add	x1, x0, x1
/home/thesis/Desktop/optee_rpi3bplus/optee_os/lib/libutils/isoc/bget_malloc.c:802
    14bc:	d2800005 	mov	x5, #0x0                   	// #0
    14c0:	a9439c43 	ldp	x3, x7, [x2, #56]
    14c4:	eb0700bf 	cmp	x5, x7
    14c8:	54000081 	b.ne	14d8 <malloc_buffer_overlaps_heap+0x28>  // b.any
/home/thesis/Desktop/optee_rpi3bplus/optee_os/lib/libutils/isoc/bget_malloc.c:797
    14cc:	52800002 	mov	w2, #0x0                   	// #0
malloc_buffer_overlaps_heap():
/home/thesis/Desktop/optee_rpi3bplus/optee_os/lib/libutils/isoc/bget_malloc.c:835
    14d0:	2a0203e0 	mov	w0, w2
    14d4:	d65f03c0 	ret
gen_malloc_buffer_overlaps_heap():
/home/thesis/Desktop/optee_rpi3bplus/optee_os/lib/libutils/isoc/bget_malloc.c:804
    14d8:	a9401066 	ldp	x6, x4, [x3]
/home/thesis/Desktop/optee_rpi3bplus/optee_os/lib/libutils/isoc/bget_malloc.c:806
    14dc:	eb01001f 	cmp	x0, x1
    14e0:	1a9f97e2 	cset	w2, hi  // hi = pmore
/home/thesis/Desktop/optee_rpi3bplus/optee_os/lib/libutils/isoc/bget_malloc.c:804
    14e4:	8b0400c4 	add	x4, x6, x4
/home/thesis/Desktop/optee_rpi3bplus/optee_os/lib/libutils/isoc/bget_malloc.c:806
    14e8:	eb0400df 	cmp	x6, x4
    14ec:	1a9f97e8 	cset	w8, hi  // hi = pmore
    14f0:	2a080042 	orr	w2, w2, w8
    14f4:	35fffee2 	cbnz	w2, 14d0 <malloc_buffer_overlaps_heap+0x20>
/home/thesis/Desktop/optee_rpi3bplus/optee_os/lib/libutils/isoc/bget_malloc.c:811
    14f8:	eb06003f 	cmp	x1, x6
    14fc:	91004063 	add	x3, x3, #0x10
    1500:	1a9f97e2 	cset	w2, hi  // hi = pmore
    1504:	eb04001f 	cmp	x0, x4
    1508:	1a9f27e4 	cset	w4, cc  // cc = lo, ul, last
    150c:	2a040042 	orr	w2, w2, w4
    1510:	35fffe02 	cbnz	w2, 14d0 <malloc_buffer_overlaps_heap+0x20>
/home/thesis/Desktop/optee_rpi3bplus/optee_os/lib/libutils/isoc/bget_malloc.c:802
    1514:	910004a5 	add	x5, x5, #0x1
    1518:	17ffffeb 	b	14c4 <malloc_buffer_overlaps_heap+0x14>

000000000000151c <snprintf>:
snprintf():
/home/thesis/Desktop/optee_rpi3bplus/optee_os/lib/libutils/isoc/snprintf.c:10
    151c:	a9b07bfd 	stp	x29, x30, [sp, #-256]!
    1520:	910003fd 	mov	x29, sp
    1524:	a90d93e3 	stp	x3, x4, [sp, #216]
/home/thesis/Desktop/optee_rpi3bplus/optee_os/lib/libutils/isoc/snprintf.c:14
    1528:	910403e3 	add	x3, sp, #0x100
    152c:	a9030fe3 	stp	x3, x3, [sp, #48]
    1530:	910343e3 	add	x3, sp, #0xd0
    1534:	f90023e3 	str	x3, [sp, #64]
    1538:	128004e3 	mov	w3, #0xffffffd8            	// #-40
    153c:	b9004be3 	str	w3, [sp, #72]
    1540:	12800fe3 	mov	w3, #0xffffff80            	// #-128
    1544:	b9004fe3 	str	w3, [sp, #76]
/home/thesis/Desktop/optee_rpi3bplus/optee_os/lib/libutils/isoc/snprintf.c:15
    1548:	910043e3 	add	x3, sp, #0x10
/home/thesis/Desktop/optee_rpi3bplus/optee_os/lib/libutils/isoc/snprintf.c:10
    154c:	a90e9be5 	stp	x5, x6, [sp, #232]
/home/thesis/Desktop/optee_rpi3bplus/optee_os/lib/libutils/isoc/snprintf.c:15
    1550:	a94317e4 	ldp	x4, x5, [sp, #48]
    1554:	a90117e4 	stp	x4, x5, [sp, #16]
    1558:	a94417e4 	ldp	x4, x5, [sp, #64]
    155c:	a90217e4 	stp	x4, x5, [sp, #32]
/home/thesis/Desktop/optee_rpi3bplus/optee_os/lib/libutils/isoc/snprintf.c:10
    1560:	3d8017e0 	str	q0, [sp, #80]
/home/thesis/Desktop/optee_rpi3bplus/optee_os/lib/libutils/isoc/snprintf.c:15
    1564:	52800004 	mov	w4, #0x0                   	// #0
/home/thesis/Desktop/optee_rpi3bplus/optee_os/lib/libutils/isoc/snprintf.c:10
    1568:	3d801be1 	str	q1, [sp, #96]
    156c:	3d801fe2 	str	q2, [sp, #112]
    1570:	3d8023e3 	str	q3, [sp, #128]
    1574:	3d8027e4 	str	q4, [sp, #144]
    1578:	3d802be5 	str	q5, [sp, #160]
    157c:	3d802fe6 	str	q6, [sp, #176]
    1580:	3d8033e7 	str	q7, [sp, #192]
    1584:	f9007fe7 	str	x7, [sp, #248]
/home/thesis/Desktop/optee_rpi3bplus/optee_os/lib/libutils/isoc/snprintf.c:15
    1588:	9400002e 	bl	1640 <__vsnprintf>
/home/thesis/Desktop/optee_rpi3bplus/optee_os/lib/libutils/isoc/snprintf.c:19
    158c:	a8d07bfd 	ldp	x29, x30, [sp], #256
    1590:	d65f03c0 	ret

0000000000001594 <vsnprintf>:
vsnprintf():
/home/thesis/Desktop/optee_rpi3bplus/optee_os/lib/libutils/isoc/snprintf.c:22
    1594:	a9bb7bfd 	stp	x29, x30, [sp, #-80]!
    1598:	910003fd 	mov	x29, sp
    159c:	a90153f3 	stp	x19, x20, [sp, #16]
    15a0:	aa0003f3 	mov	x19, x0
    15a4:	aa0103f4 	mov	x20, x1
/home/thesis/Desktop/optee_rpi3bplus/optee_os/lib/libutils/isoc/snprintf.c:23
    15a8:	9100c3e0 	add	x0, sp, #0x30
    15ac:	aa0303e1 	mov	x1, x3
/home/thesis/Desktop/optee_rpi3bplus/optee_os/lib/libutils/isoc/snprintf.c:22
    15b0:	f90013f5 	str	x21, [sp, #32]
    15b4:	aa0203f5 	mov	x21, x2
/home/thesis/Desktop/optee_rpi3bplus/optee_os/lib/libutils/isoc/snprintf.c:23
    15b8:	d2800402 	mov	x2, #0x20                  	// #32
    15bc:	9400000b 	bl	15e8 <memcpy>
    15c0:	aa1503e2 	mov	x2, x21
    15c4:	aa0003e3 	mov	x3, x0
    15c8:	aa1403e1 	mov	x1, x20
    15cc:	52800004 	mov	w4, #0x0                   	// #0
    15d0:	aa1303e0 	mov	x0, x19
    15d4:	9400001b 	bl	1640 <__vsnprintf>
/home/thesis/Desktop/optee_rpi3bplus/optee_os/lib/libutils/isoc/snprintf.c:24
    15d8:	a94153f3 	ldp	x19, x20, [sp, #16]
    15dc:	f94013f5 	ldr	x21, [sp, #32]
    15e0:	a8c57bfd 	ldp	x29, x30, [sp], #80
    15e4:	d65f03c0 	ret

00000000000015e8 <memcpy>:
memcpy():
/home/thesis/Desktop/optee_rpi3bplus/optee_os/lib/libutils/isoc/newlib/memcpy.c:94
    15e8:	d2800003 	mov	x3, #0x0                   	// #0
    15ec:	eb03005f 	cmp	x2, x3
    15f0:	54000041 	b.ne	15f8 <memcpy+0x10>  // b.any
/home/thesis/Desktop/optee_rpi3bplus/optee_os/lib/libutils/isoc/newlib/memcpy.c:135
    15f4:	d65f03c0 	ret
/home/thesis/Desktop/optee_rpi3bplus/optee_os/lib/libutils/isoc/newlib/memcpy.c:95
    15f8:	38636824 	ldrb	w4, [x1, x3]
    15fc:	38236804 	strb	w4, [x0, x3]
    1600:	91000463 	add	x3, x3, #0x1
    1604:	17fffffa 	b	15ec <memcpy+0x4>

0000000000001608 <memset>:
memset():
/home/thesis/Desktop/optee_rpi3bplus/optee_os/lib/libutils/isoc/newlib/memset.c:125
    1608:	d2800003 	mov	x3, #0x0                   	// #0
    160c:	eb03005f 	cmp	x2, x3
    1610:	54000041 	b.ne	1618 <memset+0x10>  // b.any
/home/thesis/Desktop/optee_rpi3bplus/optee_os/lib/libutils/isoc/newlib/memset.c:129
    1614:	d65f03c0 	ret
/home/thesis/Desktop/optee_rpi3bplus/optee_os/lib/libutils/isoc/newlib/memset.c:126
    1618:	38236801 	strb	w1, [x0, x3]
    161c:	91000463 	add	x3, x3, #0x1
    1620:	17fffffb 	b	160c <memset+0x4>

0000000000001624 <strlen>:
strlen():
/home/thesis/Desktop/optee_rpi3bplus/optee_os/lib/libutils/isoc/newlib/strlen.c:117
    1624:	aa0003e1 	mov	x1, x0
    1628:	39400022 	ldrb	w2, [x1]
    162c:	35000062 	cbnz	w2, 1638 <strlen+0x14>
/home/thesis/Desktop/optee_rpi3bplus/optee_os/lib/libutils/isoc/newlib/strlen.c:120
    1630:	cb000020 	sub	x0, x1, x0
    1634:	d65f03c0 	ret
/home/thesis/Desktop/optee_rpi3bplus/optee_os/lib/libutils/isoc/newlib/strlen.c:118
    1638:	91000421 	add	x1, x1, #0x1
    163c:	17fffffb 	b	1628 <strlen+0x4>

0000000000001640 <__vsnprintf>:
__vsnprintf():
/home/thesis/Desktop/optee_rpi3bplus/optee_os/lib/libutils/ext/snprintk.c:137
    1640:	d10403ff 	sub	sp, sp, #0x100
    1644:	aa0203e9 	mov	x9, x2
kprintf():
/home/thesis/Desktop/optee_rpi3bplus/optee_os/lib/libutils/ext/snprintk.c:537
    1648:	910363ed 	add	x13, sp, #0xd8
__vsnprintf():
/home/thesis/Desktop/optee_rpi3bplus/optee_os/lib/libutils/ext/snprintk.c:137
    164c:	a9037bfd 	stp	x29, x30, [sp, #48]
    1650:	9100c3fd 	add	x29, sp, #0x30
    1654:	a90987e0 	stp	x0, x1, [sp, #152]
    1658:	12001c80 	and	w0, w4, #0xff
    165c:	a90453f3 	stp	x19, x20, [sp, #64]
    1660:	b9401874 	ldr	w20, [x3, #24]
    1664:	a90873fb 	stp	x27, x28, [sp, #128]
    1668:	b900afe0 	str	w0, [sp, #172]
    166c:	a9407073 	ldp	x19, x28, [x3]
    1670:	a9076bf9 	stp	x25, x26, [sp, #112]
kprintf():
/home/thesis/Desktop/optee_rpi3bplus/optee_os/lib/libutils/ext/snprintk.c:267
    1674:	5280001a 	mov	w26, #0x0                   	// #0
__vsnprintf():
/home/thesis/Desktop/optee_rpi3bplus/optee_os/lib/libutils/ext/snprintk.c:141
    1678:	f9404fe0 	ldr	x0, [sp, #152]
/home/thesis/Desktop/optee_rpi3bplus/optee_os/lib/libutils/ext/snprintk.c:137
    167c:	a9055bf5 	stp	x21, x22, [sp, #80]
kprintf():
/home/thesis/Desktop/optee_rpi3bplus/optee_os/lib/libutils/ext/snprintk.c:269
    1680:	d2800016 	mov	x22, #0x0                   	// #0
__vsnprintf():
/home/thesis/Desktop/optee_rpi3bplus/optee_os/lib/libutils/ext/snprintk.c:141
    1684:	8b010019 	add	x25, x0, x1
    1688:	aa0003fb 	mov	x27, x0
/home/thesis/Desktop/optee_rpi3bplus/optee_os/lib/libutils/ext/snprintk.c:137
    168c:	a90663f7 	stp	x23, x24, [sp, #96]
kprintf():
/home/thesis/Desktop/optee_rpi3bplus/optee_os/lib/libutils/ext/snprintk.c:275
    1690:	39400120 	ldrb	w0, [x9]
    1694:	7100941f 	cmp	w0, #0x25
    1698:	7a401804 	ccmp	w0, #0x0, #0x4, ne  // ne = any
    169c:	540003c1 	b.ne	1714 <__vsnprintf+0xd4>  // b.any
/home/thesis/Desktop/optee_rpi3bplus/optee_os/lib/libutils/ext/snprintk.c:279
    16a0:	34005be0 	cbz	w0, 221c <__vsnprintf+0xbdc>
/home/thesis/Desktop/optee_rpi3bplus/optee_os/lib/libutils/ext/snprintk.c:287
    16a4:	12800003 	mov	w3, #0xffffffff            	// #-1
/home/thesis/Desktop/optee_rpi3bplus/optee_os/lib/libutils/ext/snprintk.c:282
    16a8:	91000529 	add	x9, x9, #0x1
    16ac:	2a1403e1 	mov	w1, w20
    16b0:	aa1303e0 	mov	x0, x19
/home/thesis/Desktop/optee_rpi3bplus/optee_os/lib/libutils/ext/snprintk.c:324
    16b4:	2a0303e6 	mov	w6, w3
/home/thesis/Desktop/optee_rpi3bplus/optee_os/lib/libutils/ext/snprintk.c:288
    16b8:	52800002 	mov	w2, #0x0                   	// #0
/home/thesis/Desktop/optee_rpi3bplus/optee_os/lib/libutils/ext/snprintk.c:286
    16bc:	52800017 	mov	w23, #0x0                   	// #0
/home/thesis/Desktop/optee_rpi3bplus/optee_os/lib/libutils/ext/snprintk.c:284
    16c0:	52800015 	mov	w21, #0x0                   	// #0
/home/thesis/Desktop/optee_rpi3bplus/optee_os/lib/libutils/ext/snprintk.c:299
    16c4:	52800407 	mov	w7, #0x20                  	// #32
/home/thesis/Desktop/optee_rpi3bplus/optee_os/lib/libutils/ext/snprintk.c:290
    16c8:	38401538 	ldrb	w24, [x9], #1
/home/thesis/Desktop/optee_rpi3bplus/optee_os/lib/libutils/ext/snprintk.c:291
    16cc:	71018f1f 	cmp	w24, #0x63
    16d0:	540019e0 	b.eq	1a0c <__vsnprintf+0x3cc>  // b.none
    16d4:	540007ec 	b.gt	17d0 <__vsnprintf+0x190>
    16d8:	7100c31f 	cmp	w24, #0x30
    16dc:	540017c0 	b.eq	19d4 <__vsnprintf+0x394>  // b.none
    16e0:	5400038c 	b.gt	1750 <__vsnprintf+0x110>
    16e4:	7100ab1f 	cmp	w24, #0x2a
    16e8:	54001100 	b.eq	1908 <__vsnprintf+0x2c8>  // b.none
    16ec:	5400022c 	b.gt	1730 <__vsnprintf+0xf0>
    16f0:	7100831f 	cmp	w24, #0x20
    16f4:	54001000 	b.eq	18f4 <__vsnprintf+0x2b4>  // b.none
    16f8:	71008f1f 	cmp	w24, #0x23
    16fc:	54001020 	b.eq	1900 <__vsnprintf+0x2c0>  // b.none
/home/thesis/Desktop/optee_rpi3bplus/optee_os/lib/libutils/ext/snprintk.c:541
    1700:	340058f8 	cbz	w24, 221c <__vsnprintf+0xbdc>
/home/thesis/Desktop/optee_rpi3bplus/optee_os/lib/libutils/ext/snprintk.c:545
    1704:	2a0103f4 	mov	w20, w1
    1708:	aa0003f3 	mov	x19, x0
    170c:	390363f8 	strb	w24, [sp, #216]
/home/thesis/Desktop/optee_rpi3bplus/optee_os/lib/libutils/ext/snprintk.c:548
    1710:	140000c5 	b	1a24 <__vsnprintf+0x3e4>
/home/thesis/Desktop/optee_rpi3bplus/optee_os/lib/libutils/ext/snprintk.c:276
    1714:	1100075a 	add	w26, w26, #0x1
/home/thesis/Desktop/optee_rpi3bplus/optee_os/lib/libutils/ext/snprintk.c:277
    1718:	b400009b 	cbz	x27, 1728 <__vsnprintf+0xe8>
    171c:	eb1b033f 	cmp	x25, x27
    1720:	54000049 	b.ls	1728 <__vsnprintf+0xe8>  // b.plast
    1724:	38001760 	strb	w0, [x27], #1
/home/thesis/Desktop/optee_rpi3bplus/optee_os/lib/libutils/ext/snprintk.c:275
    1728:	91000529 	add	x9, x9, #0x1
    172c:	17ffffd9 	b	1690 <__vsnprintf+0x50>
/home/thesis/Desktop/optee_rpi3bplus/optee_os/lib/libutils/ext/snprintk.c:291
    1730:	7100b71f 	cmp	w24, #0x2d
    1734:	54000f80 	b.eq	1924 <__vsnprintf+0x2e4>  // b.none
    1738:	7100bb1f 	cmp	w24, #0x2e
    173c:	540010e0 	b.eq	1958 <__vsnprintf+0x318>  // b.none
    1740:	7100af1f 	cmp	w24, #0x2b
    1744:	54fffde1 	b.ne	1700 <__vsnprintf+0xc0>  // b.any
/home/thesis/Desktop/optee_rpi3bplus/optee_os/lib/libutils/ext/snprintk.c:319
    1748:	2a1803e2 	mov	w2, w24
    174c:	17ffffdf 	b	16c8 <__vsnprintf+0x88>
/home/thesis/Desktop/optee_rpi3bplus/optee_os/lib/libutils/ext/snprintk.c:291
    1750:	7101131f 	cmp	w24, #0x44
    1754:	54001840 	b.eq	1a5c <__vsnprintf+0x41c>  // b.none
    1758:	5400018c 	b.gt	1788 <__vsnprintf+0x148>
    175c:	7100e71f 	cmp	w24, #0x39
    1760:	54fffd0c 	b.gt	1700 <__vsnprintf+0xc0>
/home/thesis/Desktop/optee_rpi3bplus/optee_os/lib/libutils/ext/snprintk.c:344
    1764:	52800017 	mov	w23, #0x0                   	// #0
/home/thesis/Desktop/optee_rpi3bplus/optee_os/lib/libutils/ext/snprintk.c:346
    1768:	5100c308 	sub	w8, w24, #0x30
    176c:	52800144 	mov	w4, #0xa                   	// #10
/home/thesis/Desktop/optee_rpi3bplus/optee_os/lib/libutils/ext/snprintk.c:347
    1770:	38401538 	ldrb	w24, [x9], #1
/home/thesis/Desktop/optee_rpi3bplus/optee_os/lib/libutils/ext/snprintk.c:346
    1774:	1b0422f7 	madd	w23, w23, w4, w8
/home/thesis/Desktop/optee_rpi3bplus/optee_os/lib/libutils/ext/snprintk.c:348
    1778:	5100c304 	sub	w4, w24, #0x30
    177c:	7100249f 	cmp	w4, #0x9
    1780:	54ffff49 	b.ls	1768 <__vsnprintf+0x128>  // b.plast
    1784:	17ffffd2 	b	16cc <__vsnprintf+0x8c>
/home/thesis/Desktop/optee_rpi3bplus/optee_os/lib/libutils/ext/snprintk.c:291
    1788:	7101571f 	cmp	w24, #0x55
    178c:	54003e20 	b.eq	1f50 <__vsnprintf+0x910>  // b.none
    1790:	7101631f 	cmp	w24, #0x58
    1794:	540043a0 	b.eq	2008 <__vsnprintf+0x9c8>  // b.none
    1798:	71013f1f 	cmp	w24, #0x4f
    179c:	54fffb21 	b.ne	1700 <__vsnprintf+0xc0>  // b.any
/home/thesis/Desktop/optee_rpi3bplus/optee_os/lib/libutils/ext/snprintk.c:408
    17a0:	321c02b5 	orr	w21, w21, #0x10
/home/thesis/Desktop/optee_rpi3bplus/optee_os/lib/libutils/ext/snprintk.c:411
    17a4:	36382675 	tbz	w21, #7, 1c70 <__vsnprintf+0x630>
    17a8:	37f827a1 	tbnz	w1, #31, 1c9c <__vsnprintf+0x65c>
    17ac:	91003c13 	add	x19, x0, #0xf
    17b0:	2a0103f4 	mov	w20, w1
    17b4:	927df273 	and	x19, x19, #0xfffffffffffffff8
    17b8:	f9400000 	ldr	x0, [x0]
/home/thesis/Desktop/optee_rpi3bplus/optee_os/lib/libutils/ext/snprintk.c:488
    17bc:	52800002 	mov	w2, #0x0                   	// #0
    17c0:	3100047f 	cmn	w3, #0x1
    17c4:	540016e0 	b.eq	1aa0 <__vsnprintf+0x460>  // b.none
    17c8:	52800001 	mov	w1, #0x0                   	// #0
    17cc:	1400024e 	b	2104 <__vsnprintf+0xac4>
/home/thesis/Desktop/optee_rpi3bplus/optee_os/lib/libutils/ext/snprintk.c:291
    17d0:	7101bf1f 	cmp	w24, #0x6f
    17d4:	54fffe80 	b.eq	17a4 <__vsnprintf+0x164>  // b.none
    17d8:	5400024c 	b.gt	1820 <__vsnprintf+0x1e0>
    17dc:	7101a71f 	cmp	w24, #0x69
    17e0:	54001400 	b.eq	1a60 <__vsnprintf+0x420>  // b.none
    17e4:	540000ec 	b.gt	1800 <__vsnprintf+0x1c0>
    17e8:	7101931f 	cmp	w24, #0x64
    17ec:	540013a0 	b.eq	1a60 <__vsnprintf+0x420>  // b.none
    17f0:	7101a31f 	cmp	w24, #0x68
    17f4:	54fff861 	b.ne	1700 <__vsnprintf+0xc0>  // b.any
/home/thesis/Desktop/optee_rpi3bplus/optee_os/lib/libutils/ext/snprintk.c:352
    17f8:	321a02b5 	orr	w21, w21, #0x40
/home/thesis/Desktop/optee_rpi3bplus/optee_os/lib/libutils/ext/snprintk.c:353
    17fc:	17ffffb3 	b	16c8 <__vsnprintf+0x88>
/home/thesis/Desktop/optee_rpi3bplus/optee_os/lib/libutils/ext/snprintk.c:291
    1800:	7101b31f 	cmp	w24, #0x6c
    1804:	54000ec0 	b.eq	19dc <__vsnprintf+0x39c>  // b.none
    1808:	7101bb1f 	cmp	w24, #0x6e
    180c:	54001c40 	b.eq	1b94 <__vsnprintf+0x554>  // b.none
    1810:	7101ab1f 	cmp	w24, #0x6a
    1814:	54fff761 	b.ne	1700 <__vsnprintf+0xc0>  // b.any
/home/thesis/Desktop/optee_rpi3bplus/optee_os/lib/libutils/ext/snprintk.c:355
    1818:	321902b5 	orr	w21, w21, #0x80
/home/thesis/Desktop/optee_rpi3bplus/optee_os/lib/libutils/ext/snprintk.c:356
    181c:	17ffffab 	b	16c8 <__vsnprintf+0x88>
/home/thesis/Desktop/optee_rpi3bplus/optee_os/lib/libutils/ext/snprintk.c:291
    1820:	7101d31f 	cmp	w24, #0x74
    1824:	54000ec0 	b.eq	19fc <__vsnprintf+0x3bc>  // b.none
    1828:	5400042c 	b.gt	18ac <__vsnprintf+0x26c>
    182c:	7101c71f 	cmp	w24, #0x71
    1830:	54000de0 	b.eq	19ec <__vsnprintf+0x3ac>  // b.none
    1834:	5400276b 	b.lt	1d20 <__vsnprintf+0x6e0>  // b.tstop
    1838:	7101cf1f 	cmp	w24, #0x73
    183c:	54fff621 	b.ne	1700 <__vsnprintf+0xc0>  // b.any
/home/thesis/Desktop/optee_rpi3bplus/optee_os/lib/libutils/ext/snprintk.c:442
    1840:	37f83621 	tbnz	w1, #31, 1f04 <__vsnprintf+0x8c4>
    1844:	91003c13 	add	x19, x0, #0xf
    1848:	2a0103f4 	mov	w20, w1
    184c:	927df273 	and	x19, x19, #0xfffffffffffffff8
    1850:	f9400004 	ldr	x4, [x0]
    1854:	b5000064 	cbnz	x4, 1860 <__vsnprintf+0x220>
/home/thesis/Desktop/optee_rpi3bplus/optee_os/lib/libutils/ext/snprintk.c:444
    1858:	b0000044 	adrp	x4, a000 <__text_end+0x1670>
    185c:	9130ac84 	add	x4, x4, #0xc2b
/home/thesis/Desktop/optee_rpi3bplus/optee_os/lib/libutils/ext/snprintk.c:445
    1860:	3100047f 	cmn	w3, #0x1
    1864:	54003620 	b.eq	1f28 <__vsnprintf+0x8e8>  // b.none
/home/thesis/Desktop/optee_rpi3bplus/optee_os/lib/libutils/ext/snprintk.c:451
    1868:	93407c62 	sxtw	x2, w3
    186c:	aa0403e0 	mov	x0, x4
    1870:	52800001 	mov	w1, #0x0                   	// #0
    1874:	f9005be4 	str	x4, [sp, #176]
    1878:	b900bbe3 	str	w3, [sp, #184]
    187c:	a90c37e9 	stp	x9, x13, [sp, #192]
    1880:	940002af 	bl	233c <memchr>
/home/thesis/Desktop/optee_rpi3bplus/optee_os/lib/libutils/ext/snprintk.c:453
    1884:	b940bbe3 	ldr	w3, [sp, #184]
    1888:	f9405be4 	ldr	x4, [sp, #176]
    188c:	a94c37e9 	ldp	x9, x13, [sp, #192]
    1890:	b4000080 	cbz	x0, 18a0 <__vsnprintf+0x260>
/home/thesis/Desktop/optee_rpi3bplus/optee_os/lib/libutils/ext/snprintk.c:454
    1894:	cb040000 	sub	x0, x0, x4
    1898:	6b00007f 	cmp	w3, w0
    189c:	1a80d063 	csel	w3, w3, w0, le
/home/thesis/Desktop/optee_rpi3bplus/optee_os/lib/libutils/ext/snprintk.c:285
    18a0:	52800001 	mov	w1, #0x0                   	// #0
/home/thesis/Desktop/optee_rpi3bplus/optee_os/lib/libutils/ext/snprintk.c:461
    18a4:	52800002 	mov	w2, #0x0                   	// #0
    18a8:	14000148 	b	1dc8 <__vsnprintf+0x788>
/home/thesis/Desktop/optee_rpi3bplus/optee_os/lib/libutils/ext/snprintk.c:291
    18ac:	7101e31f 	cmp	w24, #0x78
    18b0:	54003ca0 	b.eq	2044 <__vsnprintf+0xa04>  // b.none
    18b4:	7101eb1f 	cmp	w24, #0x7a
    18b8:	54000a60 	b.eq	1a04 <__vsnprintf+0x3c4>  // b.none
    18bc:	7101d71f 	cmp	w24, #0x75
    18c0:	54fff201 	b.ne	1700 <__vsnprintf+0xc0>  // b.any
/home/thesis/Desktop/optee_rpi3bplus/optee_os/lib/libutils/ext/snprintk.c:467
    18c4:	363834b5 	tbz	w21, #7, 1f58 <__vsnprintf+0x918>
    18c8:	37f835e1 	tbnz	w1, #31, 1f84 <__vsnprintf+0x944>
    18cc:	91003c13 	add	x19, x0, #0xf
    18d0:	2a0103f4 	mov	w20, w1
    18d4:	927df273 	and	x19, x19, #0xfffffffffffffff8
    18d8:	f9400000 	ldr	x0, [x0]
/home/thesis/Desktop/optee_rpi3bplus/optee_os/lib/libutils/ext/snprintk.c:482
    18dc:	52800002 	mov	w2, #0x0                   	// #0
/home/thesis/Desktop/optee_rpi3bplus/optee_os/lib/libutils/ext/snprintk.c:488
    18e0:	3100047f 	cmn	w3, #0x1
    18e4:	540041e1 	b.ne	2120 <__vsnprintf+0xae0>  // b.any
/home/thesis/Desktop/optee_rpi3bplus/optee_os/lib/libutils/ext/snprintk.c:508
    18e8:	910095a1 	add	x1, x13, #0x25
/home/thesis/Desktop/optee_rpi3bplus/optee_os/lib/libutils/ext/snprintk.c:517
    18ec:	d2800145 	mov	x5, #0xa                   	// #10
    18f0:	14000216 	b	2148 <__vsnprintf+0xb08>
/home/thesis/Desktop/optee_rpi3bplus/optee_os/lib/libutils/ext/snprintk.c:299
    18f4:	7100005f 	cmp	w2, #0x0
    18f8:	1a871042 	csel	w2, w2, w7, ne  // ne = any
    18fc:	17ffff73 	b	16c8 <__vsnprintf+0x88>
/home/thesis/Desktop/optee_rpi3bplus/optee_os/lib/libutils/ext/snprintk.c:302
    1900:	320002b5 	orr	w21, w21, #0x1
/home/thesis/Desktop/optee_rpi3bplus/optee_os/lib/libutils/ext/snprintk.c:303
    1904:	17ffff71 	b	16c8 <__vsnprintf+0x88>
/home/thesis/Desktop/optee_rpi3bplus/optee_os/lib/libutils/ext/snprintk.c:311
    1908:	37f80121 	tbnz	w1, #31, 192c <__vsnprintf+0x2ec>
    190c:	91002c05 	add	x5, x0, #0xb
    1910:	aa0003e4 	mov	x4, x0
    1914:	927df0a0 	and	x0, x5, #0xfffffffffffffff8
    1918:	b9400097 	ldr	w23, [x4]
    191c:	36ffed77 	tbz	w23, #31, 16c8 <__vsnprintf+0x88>
/home/thesis/Desktop/optee_rpi3bplus/optee_os/lib/libutils/ext/snprintk.c:313
    1920:	4b1703f7 	neg	w23, w23
/home/thesis/Desktop/optee_rpi3bplus/optee_os/lib/libutils/ext/snprintk.c:316
    1924:	321e02b5 	orr	w21, w21, #0x4
/home/thesis/Desktop/optee_rpi3bplus/optee_os/lib/libutils/ext/snprintk.c:317
    1928:	17ffff68 	b	16c8 <__vsnprintf+0x88>
/home/thesis/Desktop/optee_rpi3bplus/optee_os/lib/libutils/ext/snprintk.c:311
    192c:	11002025 	add	w5, w1, #0x8
    1930:	710000bf 	cmp	w5, #0x0
    1934:	540000cd 	b.le	194c <__vsnprintf+0x30c>
    1938:	91002c08 	add	x8, x0, #0xb
    193c:	aa0003e4 	mov	x4, x0
    1940:	2a0503e1 	mov	w1, w5
    1944:	927df100 	and	x0, x8, #0xfffffffffffffff8
    1948:	17fffff4 	b	1918 <__vsnprintf+0x2d8>
    194c:	8b21c384 	add	x4, x28, w1, sxtw
    1950:	2a0503e1 	mov	w1, w5
    1954:	17fffff1 	b	1918 <__vsnprintf+0x2d8>
/home/thesis/Desktop/optee_rpi3bplus/optee_os/lib/libutils/ext/snprintk.c:322
    1958:	38401538 	ldrb	w24, [x9], #1
    195c:	7100ab1f 	cmp	w24, #0x2a
    1960:	54000361 	b.ne	19cc <__vsnprintf+0x38c>  // b.any
/home/thesis/Desktop/optee_rpi3bplus/optee_os/lib/libutils/ext/snprintk.c:323
    1964:	37f80141 	tbnz	w1, #31, 198c <__vsnprintf+0x34c>
    1968:	91002c04 	add	x4, x0, #0xb
    196c:	2a0103e5 	mov	w5, w1
    1970:	927df084 	and	x4, x4, #0xfffffffffffffff8
/home/thesis/Desktop/optee_rpi3bplus/optee_os/lib/libutils/ext/snprintk.c:324
    1974:	b9400003 	ldr	w3, [x0]
    1978:	2a0503e1 	mov	w1, w5
    197c:	aa0403e0 	mov	x0, x4
    1980:	7100007f 	cmp	w3, #0x0
    1984:	1a86a063 	csel	w3, w3, w6, ge  // ge = tcont
/home/thesis/Desktop/optee_rpi3bplus/optee_os/lib/libutils/ext/snprintk.c:325
    1988:	17ffff50 	b	16c8 <__vsnprintf+0x88>
/home/thesis/Desktop/optee_rpi3bplus/optee_os/lib/libutils/ext/snprintk.c:323
    198c:	11002025 	add	w5, w1, #0x8
    1990:	710000bf 	cmp	w5, #0x0
    1994:	5400008d 	b.le	19a4 <__vsnprintf+0x364>
    1998:	91002c04 	add	x4, x0, #0xb
    199c:	927df084 	and	x4, x4, #0xfffffffffffffff8
    19a0:	17fffff5 	b	1974 <__vsnprintf+0x334>
    19a4:	aa0003e4 	mov	x4, x0
    19a8:	8b21c380 	add	x0, x28, w1, sxtw
    19ac:	17fffff2 	b	1974 <__vsnprintf+0x334>
/home/thesis/Desktop/optee_rpi3bplus/optee_os/lib/libutils/ext/snprintk.c:329
    19b0:	52800145 	mov	w5, #0xa                   	// #10
/home/thesis/Desktop/optee_rpi3bplus/optee_os/lib/libutils/ext/snprintk.c:330
    19b4:	38401538 	ldrb	w24, [x9], #1
/home/thesis/Desktop/optee_rpi3bplus/optee_os/lib/libutils/ext/snprintk.c:329
    19b8:	1b051063 	madd	w3, w3, w5, w4
/home/thesis/Desktop/optee_rpi3bplus/optee_os/lib/libutils/ext/snprintk.c:328
    19bc:	5100c304 	sub	w4, w24, #0x30
    19c0:	7100249f 	cmp	w4, #0x9
    19c4:	54ffff69 	b.ls	19b0 <__vsnprintf+0x370>  // b.plast
    19c8:	17ffff41 	b	16cc <__vsnprintf+0x8c>
/home/thesis/Desktop/optee_rpi3bplus/optee_os/lib/libutils/ext/snprintk.c:327
    19cc:	52800003 	mov	w3, #0x0                   	// #0
    19d0:	17fffffb 	b	19bc <__vsnprintf+0x37c>
/home/thesis/Desktop/optee_rpi3bplus/optee_os/lib/libutils/ext/snprintk.c:340
    19d4:	321602b5 	orr	w21, w21, #0x400
/home/thesis/Desktop/optee_rpi3bplus/optee_os/lib/libutils/ext/snprintk.c:341
    19d8:	17ffff3c 	b	16c8 <__vsnprintf+0x88>
/home/thesis/Desktop/optee_rpi3bplus/optee_os/lib/libutils/ext/snprintk.c:358
    19dc:	39400124 	ldrb	w4, [x9]
    19e0:	7101b09f 	cmp	w4, #0x6c
    19e4:	54000081 	b.ne	19f4 <__vsnprintf+0x3b4>  // b.any
    19e8:	91000529 	add	x9, x9, #0x1
/home/thesis/Desktop/optee_rpi3bplus/optee_os/lib/libutils/ext/snprintk.c:366
    19ec:	321b02b5 	orr	w21, w21, #0x20
/home/thesis/Desktop/optee_rpi3bplus/optee_os/lib/libutils/ext/snprintk.c:367
    19f0:	17ffff36 	b	16c8 <__vsnprintf+0x88>
/home/thesis/Desktop/optee_rpi3bplus/optee_os/lib/libutils/ext/snprintk.c:362
    19f4:	321c02b5 	orr	w21, w21, #0x10
    19f8:	17ffff34 	b	16c8 <__vsnprintf+0x88>
/home/thesis/Desktop/optee_rpi3bplus/optee_os/lib/libutils/ext/snprintk.c:369
    19fc:	321802b5 	orr	w21, w21, #0x100
/home/thesis/Desktop/optee_rpi3bplus/optee_os/lib/libutils/ext/snprintk.c:370
    1a00:	17ffff32 	b	16c8 <__vsnprintf+0x88>
/home/thesis/Desktop/optee_rpi3bplus/optee_os/lib/libutils/ext/snprintk.c:372
    1a04:	321702b5 	orr	w21, w21, #0x200
/home/thesis/Desktop/optee_rpi3bplus/optee_os/lib/libutils/ext/snprintk.c:373
    1a08:	17ffff30 	b	16c8 <__vsnprintf+0x88>
/home/thesis/Desktop/optee_rpi3bplus/optee_os/lib/libutils/ext/snprintk.c:375
    1a0c:	37f80161 	tbnz	w1, #31, 1a38 <__vsnprintf+0x3f8>
    1a10:	91002c13 	add	x19, x0, #0xb
    1a14:	2a0103f4 	mov	w20, w1
    1a18:	927df273 	and	x19, x19, #0xfffffffffffffff8
    1a1c:	b9400000 	ldr	w0, [x0]
    1a20:	390363e0 	strb	w0, [sp, #216]
/home/thesis/Desktop/optee_rpi3bplus/optee_os/lib/libutils/ext/snprintk.c:546
    1a24:	52800023 	mov	w3, #0x1                   	// #1
/home/thesis/Desktop/optee_rpi3bplus/optee_os/lib/libutils/ext/snprintk.c:285
    1a28:	52800001 	mov	w1, #0x0                   	// #0
/home/thesis/Desktop/optee_rpi3bplus/optee_os/lib/libutils/ext/snprintk.c:547
    1a2c:	52800002 	mov	w2, #0x0                   	// #0
/home/thesis/Desktop/optee_rpi3bplus/optee_os/lib/libutils/ext/snprintk.c:544
    1a30:	910363e4 	add	x4, sp, #0xd8
    1a34:	140000e5 	b	1dc8 <__vsnprintf+0x788>
/home/thesis/Desktop/optee_rpi3bplus/optee_os/lib/libutils/ext/snprintk.c:375
    1a38:	11002034 	add	w20, w1, #0x8
    1a3c:	7100029f 	cmp	w20, #0x0
    1a40:	5400008d 	b.le	1a50 <__vsnprintf+0x410>
    1a44:	91002c13 	add	x19, x0, #0xb
    1a48:	927df273 	and	x19, x19, #0xfffffffffffffff8
    1a4c:	17fffff4 	b	1a1c <__vsnprintf+0x3dc>
    1a50:	aa0003f3 	mov	x19, x0
    1a54:	8b21c380 	add	x0, x28, w1, sxtw
    1a58:	17fffff1 	b	1a1c <__vsnprintf+0x3dc>
/home/thesis/Desktop/optee_rpi3bplus/optee_os/lib/libutils/ext/snprintk.c:380
    1a5c:	321c02b5 	orr	w21, w21, #0x10
/home/thesis/Desktop/optee_rpi3bplus/optee_os/lib/libutils/ext/snprintk.c:384
    1a60:	36380435 	tbz	w21, #7, 1ae4 <__vsnprintf+0x4a4>
    1a64:	37f80561 	tbnz	w1, #31, 1b10 <__vsnprintf+0x4d0>
    1a68:	91003c13 	add	x19, x0, #0xf
    1a6c:	2a0103f4 	mov	w20, w1
    1a70:	927df273 	and	x19, x19, #0xfffffffffffffff8
    1a74:	f9400000 	ldr	x0, [x0]
/home/thesis/Desktop/optee_rpi3bplus/optee_os/lib/libutils/ext/snprintk.c:385
    1a78:	b6fff340 	tbz	x0, #63, 18e0 <__vsnprintf+0x2a0>
/home/thesis/Desktop/optee_rpi3bplus/optee_os/lib/libutils/ext/snprintk.c:386
    1a7c:	cb0003e0 	neg	x0, x0
/home/thesis/Desktop/optee_rpi3bplus/optee_os/lib/libutils/ext/snprintk.c:389
    1a80:	52800021 	mov	w1, #0x1                   	// #1
/home/thesis/Desktop/optee_rpi3bplus/optee_os/lib/libutils/ext/snprintk.c:387
    1a84:	528005a2 	mov	w2, #0x2d                  	// #45
/home/thesis/Desktop/optee_rpi3bplus/optee_os/lib/libutils/ext/snprintk.c:488
    1a88:	3100047f 	cmn	w3, #0x1
    1a8c:	540033c1 	b.ne	2104 <__vsnprintf+0xac4>  // b.any
/home/thesis/Desktop/optee_rpi3bplus/optee_os/lib/libutils/ext/snprintk.c:503
    1a90:	7100043f 	cmp	w1, #0x1
    1a94:	54fff2a0 	b.eq	18e8 <__vsnprintf+0x2a8>  // b.none
    1a98:	7100083f 	cmp	w1, #0x2
    1a9c:	54002140 	b.eq	1ec4 <__vsnprintf+0x884>  // b.none
/home/thesis/Desktop/optee_rpi3bplus/optee_os/lib/libutils/ext/snprintk.c:488
    1aa0:	910095a1 	add	x1, x13, #0x25
/home/thesis/Desktop/optee_rpi3bplus/optee_os/lib/libutils/ext/snprintk.c:506
    1aa4:	12000805 	and	w5, w0, #0x7
    1aa8:	d1000424 	sub	x4, x1, #0x1
    1aac:	1100c0a5 	add	w5, w5, #0x30
    1ab0:	381ff025 	sturb	w5, [x1, #-1]
/home/thesis/Desktop/optee_rpi3bplus/optee_os/lib/libutils/ext/snprintk.c:507
    1ab4:	d343fc00 	lsr	x0, x0, #3
/home/thesis/Desktop/optee_rpi3bplus/optee_os/lib/libutils/ext/snprintk.c:508
    1ab8:	b5003380 	cbnz	x0, 2128 <__vsnprintf+0xae8>
/home/thesis/Desktop/optee_rpi3bplus/optee_os/lib/libutils/ext/snprintk.c:510
    1abc:	360000d5 	tbz	w21, #0, 1ad4 <__vsnprintf+0x494>
    1ac0:	7100c0bf 	cmp	w5, #0x30
    1ac4:	54000080 	b.eq	1ad4 <__vsnprintf+0x494>  // b.none
/home/thesis/Desktop/optee_rpi3bplus/optee_os/lib/libutils/ext/snprintk.c:511
    1ac8:	52800600 	mov	w0, #0x30                  	// #48
    1acc:	381ff080 	sturb	w0, [x4, #-1]
    1ad0:	d1000824 	sub	x4, x1, #0x2
/home/thesis/Desktop/optee_rpi3bplus/optee_os/lib/libutils/ext/snprintk.c:537
    1ad4:	910095a0 	add	x0, x13, #0x25
    1ad8:	2a0303e1 	mov	w1, w3
    1adc:	4b040003 	sub	w3, w0, w4
    1ae0:	140000ba 	b	1dc8 <__vsnprintf+0x788>
/home/thesis/Desktop/optee_rpi3bplus/optee_os/lib/libutils/ext/snprintk.c:384
    1ae4:	3747fc15 	tbnz	w21, #8, 1a64 <__vsnprintf+0x424>
    1ae8:	374ffbf5 	tbnz	w21, #9, 1a64 <__vsnprintf+0x424>
    1aec:	372ffbd5 	tbnz	w21, #5, 1a64 <__vsnprintf+0x424>
    1af0:	3727fbb5 	tbnz	w21, #4, 1a64 <__vsnprintf+0x424>
    1af4:	36300335 	tbz	w21, #6, 1b58 <__vsnprintf+0x518>
    1af8:	37f801e1 	tbnz	w1, #31, 1b34 <__vsnprintf+0x4f4>
    1afc:	91002c13 	add	x19, x0, #0xb
    1b00:	2a0103f4 	mov	w20, w1
    1b04:	927df273 	and	x19, x19, #0xfffffffffffffff8
    1b08:	79800000 	ldrsh	x0, [x0]
    1b0c:	17ffffdb 	b	1a78 <__vsnprintf+0x438>
    1b10:	11002034 	add	w20, w1, #0x8
    1b14:	7100029f 	cmp	w20, #0x0
    1b18:	5400008d 	b.le	1b28 <__vsnprintf+0x4e8>
    1b1c:	91003c13 	add	x19, x0, #0xf
    1b20:	927df273 	and	x19, x19, #0xfffffffffffffff8
    1b24:	17ffffd4 	b	1a74 <__vsnprintf+0x434>
    1b28:	aa0003f3 	mov	x19, x0
    1b2c:	8b21c380 	add	x0, x28, w1, sxtw
    1b30:	17ffffd1 	b	1a74 <__vsnprintf+0x434>
    1b34:	11002034 	add	w20, w1, #0x8
    1b38:	7100029f 	cmp	w20, #0x0
    1b3c:	5400008d 	b.le	1b4c <__vsnprintf+0x50c>
    1b40:	91002c13 	add	x19, x0, #0xb
    1b44:	927df273 	and	x19, x19, #0xfffffffffffffff8
    1b48:	17fffff0 	b	1b08 <__vsnprintf+0x4c8>
    1b4c:	aa0003f3 	mov	x19, x0
    1b50:	8b21c380 	add	x0, x28, w1, sxtw
    1b54:	17ffffed 	b	1b08 <__vsnprintf+0x4c8>
    1b58:	37f800c1 	tbnz	w1, #31, 1b70 <__vsnprintf+0x530>
    1b5c:	91002c13 	add	x19, x0, #0xb
    1b60:	2a0103f4 	mov	w20, w1
    1b64:	927df273 	and	x19, x19, #0xfffffffffffffff8
    1b68:	b9800000 	ldrsw	x0, [x0]
    1b6c:	17ffffc3 	b	1a78 <__vsnprintf+0x438>
    1b70:	11002034 	add	w20, w1, #0x8
    1b74:	7100029f 	cmp	w20, #0x0
    1b78:	5400008d 	b.le	1b88 <__vsnprintf+0x548>
    1b7c:	91002c13 	add	x19, x0, #0xb
    1b80:	927df273 	and	x19, x19, #0xfffffffffffffff8
    1b84:	17fffff9 	b	1b68 <__vsnprintf+0x528>
    1b88:	aa0003f3 	mov	x19, x0
    1b8c:	8b21c380 	add	x0, x28, w1, sxtw
    1b90:	17fffff6 	b	1b68 <__vsnprintf+0x528>
/home/thesis/Desktop/optee_rpi3bplus/optee_os/lib/libutils/ext/snprintk.c:392
    1b94:	36380135 	tbz	w21, #7, 1bb8 <__vsnprintf+0x578>
/home/thesis/Desktop/optee_rpi3bplus/optee_os/lib/libutils/ext/snprintk.c:401
    1b98:	37f80281 	tbnz	w1, #31, 1be8 <__vsnprintf+0x5a8>
    1b9c:	91003c13 	add	x19, x0, #0xf
    1ba0:	2a0103f4 	mov	w20, w1
    1ba4:	927df273 	and	x19, x19, #0xfffffffffffffff8
    1ba8:	f9400000 	ldr	x0, [x0]
    1bac:	93407f41 	sxtw	x1, w26
    1bb0:	f9000001 	str	x1, [x0]
    1bb4:	17fffeb7 	b	1690 <__vsnprintf+0x50>
/home/thesis/Desktop/optee_rpi3bplus/optee_os/lib/libutils/ext/snprintk.c:394
    1bb8:	3747ff15 	tbnz	w21, #8, 1b98 <__vsnprintf+0x558>
/home/thesis/Desktop/optee_rpi3bplus/optee_os/lib/libutils/ext/snprintk.c:396
    1bbc:	374ffef5 	tbnz	w21, #9, 1b98 <__vsnprintf+0x558>
/home/thesis/Desktop/optee_rpi3bplus/optee_os/lib/libutils/ext/snprintk.c:398
    1bc0:	372ffed5 	tbnz	w21, #5, 1b98 <__vsnprintf+0x558>
/home/thesis/Desktop/optee_rpi3bplus/optee_os/lib/libutils/ext/snprintk.c:400
    1bc4:	3727feb5 	tbnz	w21, #4, 1b98 <__vsnprintf+0x558>
/home/thesis/Desktop/optee_rpi3bplus/optee_os/lib/libutils/ext/snprintk.c:402
    1bc8:	36300355 	tbz	w21, #6, 1c30 <__vsnprintf+0x5f0>
/home/thesis/Desktop/optee_rpi3bplus/optee_os/lib/libutils/ext/snprintk.c:403
    1bcc:	37f80201 	tbnz	w1, #31, 1c0c <__vsnprintf+0x5cc>
    1bd0:	91003c13 	add	x19, x0, #0xf
    1bd4:	2a0103f4 	mov	w20, w1
    1bd8:	927df273 	and	x19, x19, #0xfffffffffffffff8
    1bdc:	f9400000 	ldr	x0, [x0]
    1be0:	7900001a 	strh	w26, [x0]
    1be4:	17fffeab 	b	1690 <__vsnprintf+0x50>
/home/thesis/Desktop/optee_rpi3bplus/optee_os/lib/libutils/ext/snprintk.c:401
    1be8:	11002034 	add	w20, w1, #0x8
    1bec:	7100029f 	cmp	w20, #0x0
    1bf0:	5400008d 	b.le	1c00 <__vsnprintf+0x5c0>
    1bf4:	91003c13 	add	x19, x0, #0xf
    1bf8:	927df273 	and	x19, x19, #0xfffffffffffffff8
    1bfc:	17ffffeb 	b	1ba8 <__vsnprintf+0x568>
    1c00:	aa0003f3 	mov	x19, x0
    1c04:	8b21c380 	add	x0, x28, w1, sxtw
    1c08:	17ffffe8 	b	1ba8 <__vsnprintf+0x568>
/home/thesis/Desktop/optee_rpi3bplus/optee_os/lib/libutils/ext/snprintk.c:403
    1c0c:	11002034 	add	w20, w1, #0x8
    1c10:	7100029f 	cmp	w20, #0x0
    1c14:	5400008d 	b.le	1c24 <__vsnprintf+0x5e4>
    1c18:	91003c13 	add	x19, x0, #0xf
    1c1c:	927df273 	and	x19, x19, #0xfffffffffffffff8
    1c20:	17ffffef 	b	1bdc <__vsnprintf+0x59c>
    1c24:	aa0003f3 	mov	x19, x0
    1c28:	8b21c380 	add	x0, x28, w1, sxtw
    1c2c:	17ffffec 	b	1bdc <__vsnprintf+0x59c>
/home/thesis/Desktop/optee_rpi3bplus/optee_os/lib/libutils/ext/snprintk.c:405
    1c30:	37f800e1 	tbnz	w1, #31, 1c4c <__vsnprintf+0x60c>
    1c34:	91003c13 	add	x19, x0, #0xf
    1c38:	2a0103f4 	mov	w20, w1
    1c3c:	927df273 	and	x19, x19, #0xfffffffffffffff8
    1c40:	f9400000 	ldr	x0, [x0]
    1c44:	b900001a 	str	w26, [x0]
    1c48:	17fffe92 	b	1690 <__vsnprintf+0x50>
    1c4c:	11002034 	add	w20, w1, #0x8
    1c50:	7100029f 	cmp	w20, #0x0
    1c54:	5400008d 	b.le	1c64 <__vsnprintf+0x624>
    1c58:	91003c13 	add	x19, x0, #0xf
    1c5c:	927df273 	and	x19, x19, #0xfffffffffffffff8
    1c60:	17fffff8 	b	1c40 <__vsnprintf+0x600>
    1c64:	aa0003f3 	mov	x19, x0
    1c68:	8b21c380 	add	x0, x28, w1, sxtw
    1c6c:	17fffff5 	b	1c40 <__vsnprintf+0x600>
/home/thesis/Desktop/optee_rpi3bplus/optee_os/lib/libutils/ext/snprintk.c:411
    1c70:	3747d9d5 	tbnz	w21, #8, 17a8 <__vsnprintf+0x168>
    1c74:	374fd9b5 	tbnz	w21, #9, 17a8 <__vsnprintf+0x168>
    1c78:	372fd995 	tbnz	w21, #5, 17a8 <__vsnprintf+0x168>
    1c7c:	3727d975 	tbnz	w21, #4, 17a8 <__vsnprintf+0x168>
    1c80:	36300335 	tbz	w21, #6, 1ce4 <__vsnprintf+0x6a4>
    1c84:	37f801e1 	tbnz	w1, #31, 1cc0 <__vsnprintf+0x680>
    1c88:	91002c13 	add	x19, x0, #0xb
    1c8c:	2a0103f4 	mov	w20, w1
    1c90:	927df273 	and	x19, x19, #0xfffffffffffffff8
    1c94:	79400000 	ldrh	w0, [x0]
    1c98:	17fffec9 	b	17bc <__vsnprintf+0x17c>
    1c9c:	11002034 	add	w20, w1, #0x8
    1ca0:	7100029f 	cmp	w20, #0x0
    1ca4:	5400008d 	b.le	1cb4 <__vsnprintf+0x674>
    1ca8:	91003c13 	add	x19, x0, #0xf
    1cac:	927df273 	and	x19, x19, #0xfffffffffffffff8
    1cb0:	17fffec2 	b	17b8 <__vsnprintf+0x178>
    1cb4:	aa0003f3 	mov	x19, x0
    1cb8:	8b21c380 	add	x0, x28, w1, sxtw
    1cbc:	17fffebf 	b	17b8 <__vsnprintf+0x178>
    1cc0:	11002034 	add	w20, w1, #0x8
    1cc4:	7100029f 	cmp	w20, #0x0
    1cc8:	5400008d 	b.le	1cd8 <__vsnprintf+0x698>
    1ccc:	91002c13 	add	x19, x0, #0xb
    1cd0:	927df273 	and	x19, x19, #0xfffffffffffffff8
    1cd4:	17fffff0 	b	1c94 <__vsnprintf+0x654>
    1cd8:	aa0003f3 	mov	x19, x0
    1cdc:	8b21c380 	add	x0, x28, w1, sxtw
    1ce0:	17ffffed 	b	1c94 <__vsnprintf+0x654>
    1ce4:	37f800c1 	tbnz	w1, #31, 1cfc <__vsnprintf+0x6bc>
    1ce8:	91002c13 	add	x19, x0, #0xb
    1cec:	2a0103f4 	mov	w20, w1
    1cf0:	927df273 	and	x19, x19, #0xfffffffffffffff8
    1cf4:	b9400000 	ldr	w0, [x0]
    1cf8:	17fffeb1 	b	17bc <__vsnprintf+0x17c>
    1cfc:	11002034 	add	w20, w1, #0x8
    1d00:	7100029f 	cmp	w20, #0x0
    1d04:	5400008d 	b.le	1d14 <__vsnprintf+0x6d4>
    1d08:	91002c13 	add	x19, x0, #0xb
    1d0c:	927df273 	and	x19, x19, #0xfffffffffffffff8
    1d10:	17fffff9 	b	1cf4 <__vsnprintf+0x6b4>
    1d14:	aa0003f3 	mov	x19, x0
    1d18:	8b21c380 	add	x0, x28, w1, sxtw
    1d1c:	17fffff6 	b	1cf4 <__vsnprintf+0x6b4>
/home/thesis/Desktop/optee_rpi3bplus/optee_os/lib/libutils/ext/snprintk.c:415
    1d20:	b940afe2 	ldr	w2, [sp, #172]
    1d24:	34000b82 	cbz	w2, 1e94 <__vsnprintf+0x854>
    1d28:	39400122 	ldrb	w2, [x9]
    1d2c:	7101545f 	cmp	w2, #0x55
    1d30:	54000b21 	b.ne	1e94 <__vsnprintf+0x854>  // b.any
    1d34:	39400522 	ldrb	w2, [x9, #1]
    1d38:	7101b05f 	cmp	w2, #0x6c
    1d3c:	54000ac1 	b.ne	1e94 <__vsnprintf+0x854>  // b.any
/home/thesis/Desktop/optee_rpi3bplus/optee_os/lib/libutils/ext/snprintk.c:420
    1d40:	91000929 	add	x9, x9, #0x2
/home/thesis/Desktop/optee_rpi3bplus/optee_os/lib/libutils/ext/snprintk.c:421
    1d44:	37f80961 	tbnz	w1, #31, 1e70 <__vsnprintf+0x830>
    1d48:	91003c13 	add	x19, x0, #0xf
    1d4c:	2a0103f4 	mov	w20, w1
    1d50:	927df273 	and	x19, x19, #0xfffffffffffffff8
    1d54:	f9400000 	ldr	x0, [x0]
uuid2str():
/home/thesis/Desktop/optee_rpi3bplus/optee_os/lib/libutils/ext/snprintk.c:223
    1d58:	b0000042 	adrp	x2, a000 <__text_end+0x1670>
    1d5c:	9130c842 	add	x2, x2, #0xc32
    1d60:	a90b27ed 	stp	x13, x9, [sp, #176]
    1d64:	39403c01 	ldrb	w1, [x0, #15]
    1d68:	79400804 	ldrh	w4, [x0, #4]
    1d6c:	39402407 	ldrb	w7, [x0, #9]
    1d70:	39402006 	ldrb	w6, [x0, #8]
    1d74:	79400c05 	ldrh	w5, [x0, #6]
    1d78:	b9002be1 	str	w1, [sp, #40]
    1d7c:	39403801 	ldrb	w1, [x0, #14]
    1d80:	b90023e1 	str	w1, [sp, #32]
    1d84:	39403401 	ldrb	w1, [x0, #13]
    1d88:	b9001be1 	str	w1, [sp, #24]
    1d8c:	39403001 	ldrb	w1, [x0, #12]
    1d90:	b90013e1 	str	w1, [sp, #16]
    1d94:	39402c01 	ldrb	w1, [x0, #11]
    1d98:	b9000be1 	str	w1, [sp, #8]
    1d9c:	39402801 	ldrb	w1, [x0, #10]
    1da0:	b90003e1 	str	w1, [sp]
    1da4:	d28004a1 	mov	x1, #0x25                  	// #37
    1da8:	b9400003 	ldr	w3, [x0]
    1dac:	aa0d03e0 	mov	x0, x13
    1db0:	94000146 	bl	22c8 <snprintk>
    1db4:	2a0003e3 	mov	w3, w0
kprintf():
/home/thesis/Desktop/optee_rpi3bplus/optee_os/lib/libutils/ext/snprintk.c:425
    1db8:	a94b27ed 	ldp	x13, x9, [sp, #176]
/home/thesis/Desktop/optee_rpi3bplus/optee_os/lib/libutils/ext/snprintk.c:285
    1dbc:	52800001 	mov	w1, #0x0                   	// #0
/home/thesis/Desktop/optee_rpi3bplus/optee_os/lib/libutils/ext/snprintk.c:424
    1dc0:	52800002 	mov	w2, #0x0                   	// #0
/home/thesis/Desktop/optee_rpi3bplus/optee_os/lib/libutils/ext/snprintk.c:423
    1dc4:	aa0d03e4 	mov	x4, x13
/home/thesis/Desktop/optee_rpi3bplus/optee_os/lib/libutils/ext/snprintk.c:565
    1dc8:	6b03003f 	cmp	w1, w3
    1dcc:	1a83a020 	csel	w0, w1, w3, ge  // ge = tcont
/home/thesis/Desktop/optee_rpi3bplus/optee_os/lib/libutils/ext/snprintk.c:566
    1dd0:	34001c82 	cbz	w2, 2160 <__vsnprintf+0xb20>
/home/thesis/Desktop/optee_rpi3bplus/optee_os/lib/libutils/ext/snprintk.c:567
    1dd4:	11000400 	add	w0, w0, #0x1
/home/thesis/Desktop/optee_rpi3bplus/optee_os/lib/libutils/ext/snprintk.c:572
    1dd8:	6b17001f 	cmp	w0, w23
    1ddc:	1a97a005 	csel	w5, w0, w23, ge  // ge = tcont
    1de0:	0b05035a 	add	w26, w26, w5
/home/thesis/Desktop/optee_rpi3bplus/optee_os/lib/libutils/ext/snprintk.c:575
    1de4:	52808085 	mov	w5, #0x404                 	// #1028
    1de8:	6a0502a5 	ands	w5, w21, w5
    1dec:	540000a1 	b.ne	1e00 <__vsnprintf+0x7c0>  // b.any
/home/thesis/Desktop/optee_rpi3bplus/optee_os/lib/libutils/ext/snprintk.c:576
    1df0:	4b0002e6 	sub	w6, w23, w0
/home/thesis/Desktop/optee_rpi3bplus/optee_os/lib/libutils/ext/snprintk.c:578
    1df4:	52800407 	mov	w7, #0x20                  	// #32
/home/thesis/Desktop/optee_rpi3bplus/optee_os/lib/libutils/ext/snprintk.c:577
    1df8:	710000df 	cmp	w6, #0x0
    1dfc:	54001b8c 	b.gt	216c <__vsnprintf+0xb2c>
/home/thesis/Desktop/optee_rpi3bplus/optee_os/lib/libutils/ext/snprintk.c:582
    1e00:	34001ca2 	cbz	w2, 2194 <__vsnprintf+0xb54>
/home/thesis/Desktop/optee_rpi3bplus/optee_os/lib/libutils/ext/snprintk.c:583
    1e04:	b5001c1b 	cbnz	x27, 2184 <__vsnprintf+0xb44>
/home/thesis/Desktop/optee_rpi3bplus/optee_os/lib/libutils/ext/snprintk.c:586
    1e08:	d280001b 	mov	x27, #0x0                   	// #0
/home/thesis/Desktop/optee_rpi3bplus/optee_os/lib/libutils/ext/snprintk.c:590
    1e0c:	711000bf 	cmp	w5, #0x400
    1e10:	540000a1 	b.ne	1e24 <__vsnprintf+0x7e4>  // b.any
/home/thesis/Desktop/optee_rpi3bplus/optee_os/lib/libutils/ext/snprintk.c:591
    1e14:	4b0002e2 	sub	w2, w23, w0
/home/thesis/Desktop/optee_rpi3bplus/optee_os/lib/libutils/ext/snprintk.c:593
    1e18:	52800605 	mov	w5, #0x30                  	// #48
/home/thesis/Desktop/optee_rpi3bplus/optee_os/lib/libutils/ext/snprintk.c:592
    1e1c:	7100005f 	cmp	w2, #0x0
    1e20:	54001d8c 	b.gt	21d0 <__vsnprintf+0xb90>
/home/thesis/Desktop/optee_rpi3bplus/optee_os/lib/libutils/ext/snprintk.c:597
    1e24:	4b030021 	sub	w1, w1, w3
/home/thesis/Desktop/optee_rpi3bplus/optee_os/lib/libutils/ext/snprintk.c:599
    1e28:	52800602 	mov	w2, #0x30                  	// #48
/home/thesis/Desktop/optee_rpi3bplus/optee_os/lib/libutils/ext/snprintk.c:598
    1e2c:	7100003f 	cmp	w1, #0x0
    1e30:	54001dcc 	b.gt	21e8 <__vsnprintf+0xba8>
    1e34:	2a0303e3 	mov	w3, w3
    1e38:	d2800001 	mov	x1, #0x0                   	// #0
/home/thesis/Desktop/optee_rpi3bplus/optee_os/lib/libutils/ext/snprintk.c:602
    1e3c:	eb01007f 	cmp	x3, x1
    1e40:	54001e01 	b.ne	2200 <__vsnprintf+0xbc0>  // b.any
/home/thesis/Desktop/optee_rpi3bplus/optee_os/lib/libutils/ext/snprintk.c:605
    1e44:	3617c275 	tbz	w21, #2, 1690 <__vsnprintf+0x50>
/home/thesis/Desktop/optee_rpi3bplus/optee_os/lib/libutils/ext/snprintk.c:606
    1e48:	4b0002eb 	sub	w11, w23, w0
/home/thesis/Desktop/optee_rpi3bplus/optee_os/lib/libutils/ext/snprintk.c:608
    1e4c:	52800400 	mov	w0, #0x20                  	// #32
/home/thesis/Desktop/optee_rpi3bplus/optee_os/lib/libutils/ext/snprintk.c:607
    1e50:	7100017f 	cmp	w11, #0x0
    1e54:	54ffc1ed 	b.le	1690 <__vsnprintf+0x50>
/home/thesis/Desktop/optee_rpi3bplus/optee_os/lib/libutils/ext/snprintk.c:608
    1e58:	b400009b 	cbz	x27, 1e68 <__vsnprintf+0x828>
    1e5c:	eb1b033f 	cmp	x25, x27
    1e60:	54000049 	b.ls	1e68 <__vsnprintf+0x828>  // b.plast
    1e64:	38001760 	strb	w0, [x27], #1
    1e68:	5100056b 	sub	w11, w11, #0x1
    1e6c:	17fffff9 	b	1e50 <__vsnprintf+0x810>
/home/thesis/Desktop/optee_rpi3bplus/optee_os/lib/libutils/ext/snprintk.c:421
    1e70:	11002034 	add	w20, w1, #0x8
    1e74:	7100029f 	cmp	w20, #0x0
    1e78:	5400008d 	b.le	1e88 <__vsnprintf+0x848>
    1e7c:	91003c13 	add	x19, x0, #0xf
    1e80:	927df273 	and	x19, x19, #0xfffffffffffffff8
    1e84:	17ffffb4 	b	1d54 <__vsnprintf+0x714>
    1e88:	aa0003f3 	mov	x19, x0
    1e8c:	8b21c380 	add	x0, x28, w1, sxtw
    1e90:	17ffffb1 	b	1d54 <__vsnprintf+0x714>
/home/thesis/Desktop/optee_rpi3bplus/optee_os/lib/libutils/ext/snprintk.c:435
    1e94:	37f80261 	tbnz	w1, #31, 1ee0 <__vsnprintf+0x8a0>
    1e98:	91003c13 	add	x19, x0, #0xf
    1e9c:	2a0103f4 	mov	w20, w1
    1ea0:	927df273 	and	x19, x19, #0xfffffffffffffff8
    1ea4:	f9400000 	ldr	x0, [x0]
/home/thesis/Desktop/optee_rpi3bplus/optee_os/lib/libutils/ext/snprintk.c:437
    1ea8:	b0000056 	adrp	x22, a000 <__text_end+0x1670>
/home/thesis/Desktop/optee_rpi3bplus/optee_os/lib/libutils/ext/snprintk.c:438
    1eac:	321f02b5 	orr	w21, w21, #0x2
/home/thesis/Desktop/optee_rpi3bplus/optee_os/lib/libutils/ext/snprintk.c:437
    1eb0:	913026d6 	add	x22, x22, #0xc09
/home/thesis/Desktop/optee_rpi3bplus/optee_os/lib/libutils/ext/snprintk.c:439
    1eb4:	52800f18 	mov	w24, #0x78                  	// #120
/home/thesis/Desktop/optee_rpi3bplus/optee_os/lib/libutils/ext/snprintk.c:488
    1eb8:	52800002 	mov	w2, #0x0                   	// #0
    1ebc:	3100047f 	cmn	w3, #0x1
    1ec0:	54001201 	b.ne	2100 <__vsnprintf+0xac0>  // b.any
    1ec4:	910095a4 	add	x4, x13, #0x25
/home/thesis/Desktop/optee_rpi3bplus/optee_os/lib/libutils/ext/snprintk.c:525
    1ec8:	92400c01 	and	x1, x0, #0xf
/home/thesis/Desktop/optee_rpi3bplus/optee_os/lib/libutils/ext/snprintk.c:526
    1ecc:	d344fc00 	lsr	x0, x0, #4
/home/thesis/Desktop/optee_rpi3bplus/optee_os/lib/libutils/ext/snprintk.c:525
    1ed0:	38616ac1 	ldrb	w1, [x22, x1]
    1ed4:	381ffc81 	strb	w1, [x4, #-1]!
/home/thesis/Desktop/optee_rpi3bplus/optee_os/lib/libutils/ext/snprintk.c:527
    1ed8:	b5ffff80 	cbnz	x0, 1ec8 <__vsnprintf+0x888>
    1edc:	17fffefe 	b	1ad4 <__vsnprintf+0x494>
/home/thesis/Desktop/optee_rpi3bplus/optee_os/lib/libutils/ext/snprintk.c:435
    1ee0:	11002034 	add	w20, w1, #0x8
    1ee4:	7100029f 	cmp	w20, #0x0
    1ee8:	5400008d 	b.le	1ef8 <__vsnprintf+0x8b8>
    1eec:	91003c13 	add	x19, x0, #0xf
    1ef0:	927df273 	and	x19, x19, #0xfffffffffffffff8
    1ef4:	17ffffec 	b	1ea4 <__vsnprintf+0x864>
    1ef8:	aa0003f3 	mov	x19, x0
    1efc:	8b21c380 	add	x0, x28, w1, sxtw
    1f00:	17ffffe9 	b	1ea4 <__vsnprintf+0x864>
/home/thesis/Desktop/optee_rpi3bplus/optee_os/lib/libutils/ext/snprintk.c:442
    1f04:	11002034 	add	w20, w1, #0x8
    1f08:	7100029f 	cmp	w20, #0x0
    1f0c:	5400008d 	b.le	1f1c <__vsnprintf+0x8dc>
    1f10:	91003c13 	add	x19, x0, #0xf
    1f14:	927df273 	and	x19, x19, #0xfffffffffffffff8
    1f18:	17fffe4e 	b	1850 <__vsnprintf+0x210>
    1f1c:	aa0003f3 	mov	x19, x0
    1f20:	8b21c380 	add	x0, x28, w1, sxtw
    1f24:	17fffe4b 	b	1850 <__vsnprintf+0x210>
/home/thesis/Desktop/optee_rpi3bplus/optee_os/lib/libutils/ext/snprintk.c:460
    1f28:	aa0403e0 	mov	x0, x4
    1f2c:	a90b27e4 	stp	x4, x9, [sp, #176]
    1f30:	f90063ed 	str	x13, [sp, #192]
    1f34:	97fffdbc 	bl	1624 <strlen>
/home/thesis/Desktop/optee_rpi3bplus/optee_os/lib/libutils/ext/snprintk.c:285
    1f38:	52800001 	mov	w1, #0x0                   	// #0
/home/thesis/Desktop/optee_rpi3bplus/optee_os/lib/libutils/ext/snprintk.c:460
    1f3c:	2a0003e3 	mov	w3, w0
/home/thesis/Desktop/optee_rpi3bplus/optee_os/lib/libutils/ext/snprintk.c:461
    1f40:	52800002 	mov	w2, #0x0                   	// #0
    1f44:	a94b27e4 	ldp	x4, x9, [sp, #176]
    1f48:	f94063ed 	ldr	x13, [sp, #192]
    1f4c:	17ffff9f 	b	1dc8 <__vsnprintf+0x788>
/home/thesis/Desktop/optee_rpi3bplus/optee_os/lib/libutils/ext/snprintk.c:464
    1f50:	321c02b5 	orr	w21, w21, #0x10
    1f54:	17fffe5c 	b	18c4 <__vsnprintf+0x284>
/home/thesis/Desktop/optee_rpi3bplus/optee_os/lib/libutils/ext/snprintk.c:467
    1f58:	3747cb95 	tbnz	w21, #8, 18c8 <__vsnprintf+0x288>
    1f5c:	374fcb75 	tbnz	w21, #9, 18c8 <__vsnprintf+0x288>
    1f60:	372fcb55 	tbnz	w21, #5, 18c8 <__vsnprintf+0x288>
    1f64:	3727cb35 	tbnz	w21, #4, 18c8 <__vsnprintf+0x288>
    1f68:	36300335 	tbz	w21, #6, 1fcc <__vsnprintf+0x98c>
    1f6c:	37f801e1 	tbnz	w1, #31, 1fa8 <__vsnprintf+0x968>
    1f70:	91002c13 	add	x19, x0, #0xb
    1f74:	2a0103f4 	mov	w20, w1
    1f78:	927df273 	and	x19, x19, #0xfffffffffffffff8
    1f7c:	79400000 	ldrh	w0, [x0]
    1f80:	17fffe57 	b	18dc <__vsnprintf+0x29c>
    1f84:	11002034 	add	w20, w1, #0x8
    1f88:	7100029f 	cmp	w20, #0x0
    1f8c:	5400008d 	b.le	1f9c <__vsnprintf+0x95c>
    1f90:	91003c13 	add	x19, x0, #0xf
    1f94:	927df273 	and	x19, x19, #0xfffffffffffffff8
    1f98:	17fffe50 	b	18d8 <__vsnprintf+0x298>
    1f9c:	aa0003f3 	mov	x19, x0
    1fa0:	8b21c380 	add	x0, x28, w1, sxtw
    1fa4:	17fffe4d 	b	18d8 <__vsnprintf+0x298>
    1fa8:	11002034 	add	w20, w1, #0x8
    1fac:	7100029f 	cmp	w20, #0x0
    1fb0:	5400008d 	b.le	1fc0 <__vsnprintf+0x980>
    1fb4:	91002c13 	add	x19, x0, #0xb
    1fb8:	927df273 	and	x19, x19, #0xfffffffffffffff8
    1fbc:	17fffff0 	b	1f7c <__vsnprintf+0x93c>
    1fc0:	aa0003f3 	mov	x19, x0
    1fc4:	8b21c380 	add	x0, x28, w1, sxtw
    1fc8:	17ffffed 	b	1f7c <__vsnprintf+0x93c>
    1fcc:	37f800c1 	tbnz	w1, #31, 1fe4 <__vsnprintf+0x9a4>
    1fd0:	91002c13 	add	x19, x0, #0xb
    1fd4:	2a0103f4 	mov	w20, w1
    1fd8:	927df273 	and	x19, x19, #0xfffffffffffffff8
    1fdc:	b9400000 	ldr	w0, [x0]
    1fe0:	17fffe3f 	b	18dc <__vsnprintf+0x29c>
    1fe4:	11002034 	add	w20, w1, #0x8
    1fe8:	7100029f 	cmp	w20, #0x0
    1fec:	5400008d 	b.le	1ffc <__vsnprintf+0x9bc>
    1ff0:	91002c13 	add	x19, x0, #0xb
    1ff4:	927df273 	and	x19, x19, #0xfffffffffffffff8
    1ff8:	17fffff9 	b	1fdc <__vsnprintf+0x99c>
    1ffc:	aa0003f3 	mov	x19, x0
    2000:	8b21c380 	add	x0, x28, w1, sxtw
    2004:	17fffff6 	b	1fdc <__vsnprintf+0x99c>
/home/thesis/Desktop/optee_rpi3bplus/optee_os/lib/libutils/ext/snprintk.c:471
    2008:	90000056 	adrp	x22, a000 <__text_end+0x1670>
    200c:	913026d6 	add	x22, x22, #0xc09
    2010:	910046d6 	add	x22, x22, #0x11
/home/thesis/Desktop/optee_rpi3bplus/optee_os/lib/libutils/ext/snprintk.c:475
    2014:	363801f5 	tbz	w21, #7, 2050 <__vsnprintf+0xa10>
    2018:	37f80321 	tbnz	w1, #31, 207c <__vsnprintf+0xa3c>
    201c:	91003c13 	add	x19, x0, #0xf
    2020:	2a0103f4 	mov	w20, w1
    2024:	927df273 	and	x19, x19, #0xfffffffffffffff8
    2028:	f9400000 	ldr	x0, [x0]
/home/thesis/Desktop/optee_rpi3bplus/optee_os/lib/libutils/ext/snprintk.c:478
    202c:	3607f475 	tbz	w21, #0, 1eb8 <__vsnprintf+0x878>
    2030:	b4fff440 	cbz	x0, 1eb8 <__vsnprintf+0x878>
/home/thesis/Desktop/optee_rpi3bplus/optee_os/lib/libutils/ext/snprintk.c:479
    2034:	321f02b5 	orr	w21, w21, #0x2
/home/thesis/Desktop/optee_rpi3bplus/optee_os/lib/libutils/ext/snprintk.c:476
    2038:	52800041 	mov	w1, #0x2                   	// #2
/home/thesis/Desktop/optee_rpi3bplus/optee_os/lib/libutils/ext/snprintk.c:482
    203c:	52800002 	mov	w2, #0x0                   	// #0
    2040:	17fffe92 	b	1a88 <__vsnprintf+0x448>
/home/thesis/Desktop/optee_rpi3bplus/optee_os/lib/libutils/ext/snprintk.c:474
    2044:	90000056 	adrp	x22, a000 <__text_end+0x1670>
    2048:	913026d6 	add	x22, x22, #0xc09
    204c:	17fffff2 	b	2014 <__vsnprintf+0x9d4>
/home/thesis/Desktop/optee_rpi3bplus/optee_os/lib/libutils/ext/snprintk.c:475
    2050:	3747fe55 	tbnz	w21, #8, 2018 <__vsnprintf+0x9d8>
    2054:	374ffe35 	tbnz	w21, #9, 2018 <__vsnprintf+0x9d8>
    2058:	372ffe15 	tbnz	w21, #5, 2018 <__vsnprintf+0x9d8>
    205c:	3727fdf5 	tbnz	w21, #4, 2018 <__vsnprintf+0x9d8>
    2060:	36300335 	tbz	w21, #6, 20c4 <__vsnprintf+0xa84>
    2064:	37f801e1 	tbnz	w1, #31, 20a0 <__vsnprintf+0xa60>
    2068:	91002c13 	add	x19, x0, #0xb
    206c:	2a0103f4 	mov	w20, w1
    2070:	927df273 	and	x19, x19, #0xfffffffffffffff8
    2074:	79400000 	ldrh	w0, [x0]
    2078:	17ffffed 	b	202c <__vsnprintf+0x9ec>
    207c:	11002034 	add	w20, w1, #0x8
    2080:	7100029f 	cmp	w20, #0x0
    2084:	5400008d 	b.le	2094 <__vsnprintf+0xa54>
    2088:	91003c13 	add	x19, x0, #0xf
    208c:	927df273 	and	x19, x19, #0xfffffffffffffff8
    2090:	17ffffe6 	b	2028 <__vsnprintf+0x9e8>
    2094:	aa0003f3 	mov	x19, x0
    2098:	8b21c380 	add	x0, x28, w1, sxtw
    209c:	17ffffe3 	b	2028 <__vsnprintf+0x9e8>
    20a0:	11002034 	add	w20, w1, #0x8
    20a4:	7100029f 	cmp	w20, #0x0
    20a8:	5400008d 	b.le	20b8 <__vsnprintf+0xa78>
    20ac:	91002c13 	add	x19, x0, #0xb
    20b0:	927df273 	and	x19, x19, #0xfffffffffffffff8
    20b4:	17fffff0 	b	2074 <__vsnprintf+0xa34>
    20b8:	aa0003f3 	mov	x19, x0
    20bc:	8b21c380 	add	x0, x28, w1, sxtw
    20c0:	17ffffed 	b	2074 <__vsnprintf+0xa34>
    20c4:	37f800c1 	tbnz	w1, #31, 20dc <__vsnprintf+0xa9c>
    20c8:	91002c13 	add	x19, x0, #0xb
    20cc:	2a0103f4 	mov	w20, w1
    20d0:	927df273 	and	x19, x19, #0xfffffffffffffff8
    20d4:	b9400000 	ldr	w0, [x0]
    20d8:	17ffffd5 	b	202c <__vsnprintf+0x9ec>
    20dc:	11002034 	add	w20, w1, #0x8
    20e0:	7100029f 	cmp	w20, #0x0
    20e4:	5400008d 	b.le	20f4 <__vsnprintf+0xab4>
    20e8:	91002c13 	add	x19, x0, #0xb
    20ec:	927df273 	and	x19, x19, #0xfffffffffffffff8
    20f0:	17fffff9 	b	20d4 <__vsnprintf+0xa94>
    20f4:	aa0003f3 	mov	x19, x0
    20f8:	8b21c380 	add	x0, x28, w1, sxtw
    20fc:	17fffff6 	b	20d4 <__vsnprintf+0xa94>
/home/thesis/Desktop/optee_rpi3bplus/optee_os/lib/libutils/ext/snprintk.c:488
    2100:	52800041 	mov	w1, #0x2                   	// #2
/home/thesis/Desktop/optee_rpi3bplus/optee_os/lib/libutils/ext/snprintk.c:497
    2104:	f100001f 	cmp	x0, #0x0
/home/thesis/Desktop/optee_rpi3bplus/optee_os/lib/libutils/ext/snprintk.c:489
    2108:	12157ab5 	and	w21, w21, #0xfffffbff
/home/thesis/Desktop/optee_rpi3bplus/optee_os/lib/libutils/ext/snprintk.c:497
    210c:	7a400860 	ccmp	w3, #0x0, #0x0, eq  // eq = none
    2110:	54ffcc01 	b.ne	1a90 <__vsnprintf+0x450>  // b.any
    2114:	52800003 	mov	w3, #0x0                   	// #0
/home/thesis/Desktop/optee_rpi3bplus/optee_os/lib/libutils/ext/snprintk.c:496
    2118:	910095a4 	add	x4, x13, #0x25
    211c:	17fffe6e 	b	1ad4 <__vsnprintf+0x494>
/home/thesis/Desktop/optee_rpi3bplus/optee_os/lib/libutils/ext/snprintk.c:488
    2120:	52800021 	mov	w1, #0x1                   	// #1
    2124:	17fffff8 	b	2104 <__vsnprintf+0xac4>
/home/thesis/Desktop/optee_rpi3bplus/optee_os/lib/libutils/ext/snprintk.c:508
    2128:	aa0403e1 	mov	x1, x4
    212c:	17fffe5e 	b	1aa4 <__vsnprintf+0x464>
/home/thesis/Desktop/optee_rpi3bplus/optee_os/lib/libutils/ext/snprintk.c:517
    2130:	9ac50806 	udiv	x6, x0, x5
    2134:	9b0580c0 	msub	x0, x6, x5, x0
    2138:	1100c000 	add	w0, w0, #0x30
    213c:	381ff020 	sturb	w0, [x1, #-1]
/home/thesis/Desktop/optee_rpi3bplus/optee_os/lib/libutils/ext/snprintk.c:518
    2140:	aa0603e0 	mov	x0, x6
    2144:	aa0403e1 	mov	x1, x4
    2148:	d1000424 	sub	x4, x1, #0x1
/home/thesis/Desktop/optee_rpi3bplus/optee_os/lib/libutils/ext/snprintk.c:516
    214c:	f100241f 	cmp	x0, #0x9
    2150:	54ffff08 	b.hi	2130 <__vsnprintf+0xaf0>  // b.pmore
/home/thesis/Desktop/optee_rpi3bplus/optee_os/lib/libutils/ext/snprintk.c:520
    2154:	1100c000 	add	w0, w0, #0x30
    2158:	381ff020 	sturb	w0, [x1, #-1]
/home/thesis/Desktop/optee_rpi3bplus/optee_os/lib/libutils/ext/snprintk.c:521
    215c:	17fffe5e 	b	1ad4 <__vsnprintf+0x494>
/home/thesis/Desktop/optee_rpi3bplus/optee_os/lib/libutils/ext/snprintk.c:568
    2160:	360fe3d5 	tbz	w21, #1, 1dd8 <__vsnprintf+0x798>
/home/thesis/Desktop/optee_rpi3bplus/optee_os/lib/libutils/ext/snprintk.c:569
    2164:	11000800 	add	w0, w0, #0x2
    2168:	17ffff1c 	b	1dd8 <__vsnprintf+0x798>
/home/thesis/Desktop/optee_rpi3bplus/optee_os/lib/libutils/ext/snprintk.c:578
    216c:	b400009b 	cbz	x27, 217c <__vsnprintf+0xb3c>
    2170:	eb1b033f 	cmp	x25, x27
    2174:	54000049 	b.ls	217c <__vsnprintf+0xb3c>  // b.plast
    2178:	38001767 	strb	w7, [x27], #1
    217c:	510004c6 	sub	w6, w6, #0x1
    2180:	17ffff1e 	b	1df8 <__vsnprintf+0x7b8>
/home/thesis/Desktop/optee_rpi3bplus/optee_os/lib/libutils/ext/snprintk.c:583
    2184:	eb1b033f 	cmp	x25, x27
    2188:	54ffe429 	b.ls	1e0c <__vsnprintf+0x7cc>  // b.plast
    218c:	38001762 	strb	w2, [x27], #1
    2190:	17ffff1f 	b	1e0c <__vsnprintf+0x7cc>
/home/thesis/Desktop/optee_rpi3bplus/optee_os/lib/libutils/ext/snprintk.c:584
    2194:	360fe3d5 	tbz	w21, #1, 1e0c <__vsnprintf+0x7cc>
/home/thesis/Desktop/optee_rpi3bplus/optee_os/lib/libutils/ext/snprintk.c:585
    2198:	b4ffe39b 	cbz	x27, 1e08 <__vsnprintf+0x7c8>
    219c:	eb1b033f 	cmp	x25, x27
    21a0:	54ffe369 	b.ls	1e0c <__vsnprintf+0x7cc>  // b.plast
    21a4:	aa1b03e2 	mov	x2, x27
    21a8:	52800606 	mov	w6, #0x30                  	// #48
    21ac:	38001446 	strb	w6, [x2], #1
/home/thesis/Desktop/optee_rpi3bplus/optee_os/lib/libutils/ext/snprintk.c:586
    21b0:	b4ffe2c2 	cbz	x2, 1e08 <__vsnprintf+0x7c8>
    21b4:	eb02033f 	cmp	x25, x2
    21b8:	54000089 	b.ls	21c8 <__vsnprintf+0xb88>  // b.plast
    21bc:	91000b7b 	add	x27, x27, #0x2
    21c0:	381ff378 	sturb	w24, [x27, #-1]
    21c4:	17ffff12 	b	1e0c <__vsnprintf+0x7cc>
    21c8:	aa0203fb 	mov	x27, x2
    21cc:	17ffff10 	b	1e0c <__vsnprintf+0x7cc>
/home/thesis/Desktop/optee_rpi3bplus/optee_os/lib/libutils/ext/snprintk.c:593
    21d0:	b400009b 	cbz	x27, 21e0 <__vsnprintf+0xba0>
    21d4:	eb1b033f 	cmp	x25, x27
    21d8:	54000049 	b.ls	21e0 <__vsnprintf+0xba0>  // b.plast
    21dc:	38001765 	strb	w5, [x27], #1
    21e0:	51000442 	sub	w2, w2, #0x1
    21e4:	17ffff0e 	b	1e1c <__vsnprintf+0x7dc>
/home/thesis/Desktop/optee_rpi3bplus/optee_os/lib/libutils/ext/snprintk.c:599
    21e8:	b400009b 	cbz	x27, 21f8 <__vsnprintf+0xbb8>
    21ec:	eb1b033f 	cmp	x25, x27
    21f0:	54000049 	b.ls	21f8 <__vsnprintf+0xbb8>  // b.plast
    21f4:	38001762 	strb	w2, [x27], #1
    21f8:	51000421 	sub	w1, w1, #0x1
    21fc:	17ffff0c 	b	1e2c <__vsnprintf+0x7ec>
/home/thesis/Desktop/optee_rpi3bplus/optee_os/lib/libutils/ext/snprintk.c:603
    2200:	b40000bb 	cbz	x27, 2214 <__vsnprintf+0xbd4>
    2204:	eb1b033f 	cmp	x25, x27
    2208:	54000069 	b.ls	2214 <__vsnprintf+0xbd4>  // b.plast
    220c:	38616882 	ldrb	w2, [x4, x1]
    2210:	38001762 	strb	w2, [x27], #1
    2214:	91000421 	add	x1, x1, #0x1
    2218:	17ffff09 	b	1e3c <__vsnprintf+0x7fc>
__vsnprintf():
/home/thesis/Desktop/optee_rpi3bplus/optee_os/lib/libutils/ext/snprintk.c:143
    221c:	f9404fe0 	ldr	x0, [sp, #152]
    2220:	f100001f 	cmp	x0, #0x0
    2224:	f94053e0 	ldr	x0, [sp, #160]
    2228:	fa401804 	ccmp	x0, #0x0, #0x4, ne  // ne = any
    222c:	540000c0 	b.eq	2244 <__vsnprintf+0xc04>  // b.none
/home/thesis/Desktop/optee_rpi3bplus/optee_os/lib/libutils/ext/snprintk.c:145
    2230:	f94053e1 	ldr	x1, [sp, #160]
    2234:	93407f40 	sxtw	x0, w26
    2238:	eb01001f 	cmp	x0, x1
    223c:	54000163 	b.cc	2268 <__vsnprintf+0xc28>  // b.lo, b.ul, b.last
/home/thesis/Desktop/optee_rpi3bplus/optee_os/lib/libutils/ext/snprintk.c:146
    2240:	381ff33f 	sturb	wzr, [x25, #-1]
/home/thesis/Desktop/optee_rpi3bplus/optee_os/lib/libutils/ext/snprintk.c:151
    2244:	2a1a03e0 	mov	w0, w26
    2248:	a9437bfd 	ldp	x29, x30, [sp, #48]
    224c:	a94453f3 	ldp	x19, x20, [sp, #64]
    2250:	a9455bf5 	ldp	x21, x22, [sp, #80]
    2254:	a94663f7 	ldp	x23, x24, [sp, #96]
    2258:	a9476bf9 	ldp	x25, x26, [sp, #112]
    225c:	a94873fb 	ldp	x27, x28, [sp, #128]
    2260:	910403ff 	add	sp, sp, #0x100
    2264:	d65f03c0 	ret
/home/thesis/Desktop/optee_rpi3bplus/optee_os/lib/libutils/ext/snprintk.c:148
    2268:	f9404fe1 	ldr	x1, [sp, #152]
    226c:	3820683f 	strb	wzr, [x1, x0]
/home/thesis/Desktop/optee_rpi3bplus/optee_os/lib/libutils/ext/snprintk.c:150
    2270:	17fffff5 	b	2244 <__vsnprintf+0xc04>

0000000000002274 <vsnprintk>:
vsnprintk():
/home/thesis/Desktop/optee_rpi3bplus/optee_os/lib/libutils/ext/snprintk.c:129
    2274:	a9bb7bfd 	stp	x29, x30, [sp, #-80]!
    2278:	910003fd 	mov	x29, sp
    227c:	a90153f3 	stp	x19, x20, [sp, #16]
    2280:	aa0003f3 	mov	x19, x0
    2284:	aa0103f4 	mov	x20, x1
/home/thesis/Desktop/optee_rpi3bplus/optee_os/lib/libutils/ext/snprintk.c:130
    2288:	9100c3e0 	add	x0, sp, #0x30
    228c:	aa0303e1 	mov	x1, x3
/home/thesis/Desktop/optee_rpi3bplus/optee_os/lib/libutils/ext/snprintk.c:129
    2290:	f90013f5 	str	x21, [sp, #32]
    2294:	aa0203f5 	mov	x21, x2
/home/thesis/Desktop/optee_rpi3bplus/optee_os/lib/libutils/ext/snprintk.c:130
    2298:	d2800402 	mov	x2, #0x20                  	// #32
    229c:	97fffcd3 	bl	15e8 <memcpy>
    22a0:	aa1503e2 	mov	x2, x21
    22a4:	aa0003e3 	mov	x3, x0
    22a8:	aa1403e1 	mov	x1, x20
    22ac:	52800024 	mov	w4, #0x1                   	// #1
    22b0:	aa1303e0 	mov	x0, x19
    22b4:	97fffce3 	bl	1640 <__vsnprintf>
/home/thesis/Desktop/optee_rpi3bplus/optee_os/lib/libutils/ext/snprintk.c:131
    22b8:	a94153f3 	ldp	x19, x20, [sp, #16]
    22bc:	f94013f5 	ldr	x21, [sp, #32]
    22c0:	a8c57bfd 	ldp	x29, x30, [sp], #80
    22c4:	d65f03c0 	ret

00000000000022c8 <snprintk>:
snprintk():
/home/thesis/Desktop/optee_rpi3bplus/optee_os/lib/libutils/ext/snprintk.c:112
    22c8:	a9b07bfd 	stp	x29, x30, [sp, #-256]!
    22cc:	910003fd 	mov	x29, sp
    22d0:	a90d93e3 	stp	x3, x4, [sp, #216]
/home/thesis/Desktop/optee_rpi3bplus/optee_os/lib/libutils/ext/snprintk.c:116
    22d4:	910403e3 	add	x3, sp, #0x100
    22d8:	a9030fe3 	stp	x3, x3, [sp, #48]
    22dc:	910343e3 	add	x3, sp, #0xd0
    22e0:	f90023e3 	str	x3, [sp, #64]
    22e4:	128004e3 	mov	w3, #0xffffffd8            	// #-40
    22e8:	b9004be3 	str	w3, [sp, #72]
    22ec:	12800fe3 	mov	w3, #0xffffff80            	// #-128
    22f0:	b9004fe3 	str	w3, [sp, #76]
/home/thesis/Desktop/optee_rpi3bplus/optee_os/lib/libutils/ext/snprintk.c:117
    22f4:	910043e3 	add	x3, sp, #0x10
/home/thesis/Desktop/optee_rpi3bplus/optee_os/lib/libutils/ext/snprintk.c:112
    22f8:	a90e9be5 	stp	x5, x6, [sp, #232]
/home/thesis/Desktop/optee_rpi3bplus/optee_os/lib/libutils/ext/snprintk.c:117
    22fc:	a94317e4 	ldp	x4, x5, [sp, #48]
    2300:	a90117e4 	stp	x4, x5, [sp, #16]
    2304:	a94417e4 	ldp	x4, x5, [sp, #64]
    2308:	a90217e4 	stp	x4, x5, [sp, #32]
/home/thesis/Desktop/optee_rpi3bplus/optee_os/lib/libutils/ext/snprintk.c:112
    230c:	3d8017e0 	str	q0, [sp, #80]
    2310:	3d801be1 	str	q1, [sp, #96]
    2314:	3d801fe2 	str	q2, [sp, #112]
    2318:	3d8023e3 	str	q3, [sp, #128]
    231c:	3d8027e4 	str	q4, [sp, #144]
    2320:	3d802be5 	str	q5, [sp, #160]
    2324:	3d802fe6 	str	q6, [sp, #176]
    2328:	3d8033e7 	str	q7, [sp, #192]
    232c:	f9007fe7 	str	x7, [sp, #248]
/home/thesis/Desktop/optee_rpi3bplus/optee_os/lib/libutils/ext/snprintk.c:117
    2330:	97ffffd1 	bl	2274 <vsnprintk>
/home/thesis/Desktop/optee_rpi3bplus/optee_os/lib/libutils/ext/snprintk.c:121
    2334:	a8d07bfd 	ldp	x29, x30, [sp], #256
    2338:	d65f03c0 	ret

000000000000233c <memchr>:
memchr():
/home/thesis/Desktop/optee_rpi3bplus/optee_os/lib/libutils/isoc/newlib/memchr.c:109
    233c:	12001c21 	and	w1, w1, #0xff
/home/thesis/Desktop/optee_rpi3bplus/optee_os/lib/libutils/isoc/newlib/memchr.c:153
    2340:	8b020002 	add	x2, x0, x2
    2344:	eb02001f 	cmp	x0, x2
    2348:	54000061 	b.ne	2354 <memchr+0x18>  // b.any
/home/thesis/Desktop/optee_rpi3bplus/optee_os/lib/libutils/isoc/newlib/memchr.c:159
    234c:	d2800000 	mov	x0, #0x0                   	// #0
/home/thesis/Desktop/optee_rpi3bplus/optee_os/lib/libutils/isoc/newlib/memchr.c:160
    2350:	d65f03c0 	ret
/home/thesis/Desktop/optee_rpi3bplus/optee_os/lib/libutils/isoc/newlib/memchr.c:154
    2354:	39400003 	ldrb	w3, [x0]
    2358:	6b01007f 	cmp	w3, w1
    235c:	54ffffa0 	b.eq	2350 <memchr+0x14>  // b.none
/home/thesis/Desktop/optee_rpi3bplus/optee_os/lib/libutils/isoc/newlib/memchr.c:156
    2360:	91000400 	add	x0, x0, #0x1
    2364:	17fffff8 	b	2344 <memchr+0x8>

0000000000002368 <trace_ext_puts>:
trace_ext_puts():
/home/thesis/Desktop/optee_rpi3bplus/optee_os/lib/libutee/trace_ext.c:17
    2368:	a9be7bfd 	stp	x29, x30, [sp, #-32]!
    236c:	910003fd 	mov	x29, sp
    2370:	f9000bf3 	str	x19, [sp, #16]
    2374:	aa0003f3 	mov	x19, x0
/home/thesis/Desktop/optee_rpi3bplus/optee_os/lib/libutee/trace_ext.c:18
    2378:	97fffcab 	bl	1624 <strlen>
    237c:	aa0003e1 	mov	x1, x0
    2380:	aa1303e0 	mov	x0, x19
/home/thesis/Desktop/optee_rpi3bplus/optee_os/lib/libutee/trace_ext.c:19
    2384:	f9400bf3 	ldr	x19, [sp, #16]
    2388:	a8c27bfd 	ldp	x29, x30, [sp], #32
/home/thesis/Desktop/optee_rpi3bplus/optee_os/lib/libutee/trace_ext.c:18
    238c:	1400025d 	b	2d00 <utee_log>

0000000000002390 <trace_ext_get_thread_id>:
trace_ext_get_thread_id():
/home/thesis/Desktop/optee_rpi3bplus/optee_os/lib/libutee/trace_ext.c:24
    2390:	12800000 	mov	w0, #0xffffffff            	// #-1
    2394:	d65f03c0 	ret

0000000000002398 <printf>:
printf():
/home/thesis/Desktop/optee_rpi3bplus/optee_os/lib/libutee/trace_ext.c:32
    2398:	d10883ff 	sub	sp, sp, #0x220
    239c:	a9007bfd 	stp	x29, x30, [sp]
    23a0:	910003fd 	mov	x29, sp
    23a4:	a90153f3 	stp	x19, x20, [sp, #16]
    23a8:	aa0003f3 	mov	x19, x0
    23ac:	3d805be0 	str	q0, [sp, #352]
    23b0:	3d805fe1 	str	q1, [sp, #368]
    23b4:	3d8063e2 	str	q2, [sp, #384]
    23b8:	3d8067e3 	str	q3, [sp, #400]
    23bc:	3d806be4 	str	q4, [sp, #416]
    23c0:	3d806fe5 	str	q5, [sp, #432]
    23c4:	3d8073e6 	str	q6, [sp, #448]
    23c8:	3d8077e7 	str	q7, [sp, #464]
    23cc:	a91e8be1 	stp	x1, x2, [sp, #488]
    23d0:	a91f93e3 	stp	x3, x4, [sp, #504]
    23d4:	f90107e5 	str	x5, [sp, #520]
    23d8:	f9010be6 	str	x6, [sp, #528]
    23dc:	f9010fe7 	str	x7, [sp, #536]
/home/thesis/Desktop/optee_rpi3bplus/optee_os/lib/libutee/trace_ext.c:37
    23e0:	94001853 	bl	852c <trace_get_level>
    23e4:	7100001f 	cmp	w0, #0x0
    23e8:	5400038d 	b.le	2458 <printf+0xc0>
/home/thesis/Desktop/optee_rpi3bplus/optee_os/lib/libutee/trace_ext.c:40
    23ec:	910883e0 	add	x0, sp, #0x220
    23f0:	a90403e0 	stp	x0, x0, [sp, #64]
    23f4:	910783e0 	add	x0, sp, #0x1e0
    23f8:	f9002be0 	str	x0, [sp, #80]
    23fc:	128006e0 	mov	w0, #0xffffffc8            	// #-56
    2400:	b9005be0 	str	w0, [sp, #88]
    2404:	12800fe0 	mov	w0, #0xffffff80            	// #-128
    2408:	b9005fe0 	str	w0, [sp, #92]
/home/thesis/Desktop/optee_rpi3bplus/optee_os/lib/libutee/trace_ext.c:41
    240c:	910183f4 	add	x20, sp, #0x60
    2410:	a94407e0 	ldp	x0, x1, [sp, #64]
    2414:	a90207e0 	stp	x0, x1, [sp, #32]
    2418:	aa1303e2 	mov	x2, x19
    241c:	a94507e0 	ldp	x0, x1, [sp, #80]
    2420:	910083e3 	add	x3, sp, #0x20
    2424:	a90307e0 	stp	x0, x1, [sp, #48]
    2428:	aa1403e0 	mov	x0, x20
    242c:	d2802001 	mov	x1, #0x100                 	// #256
    2430:	97fffc59 	bl	1594 <vsnprintf>
    2434:	2a0003f3 	mov	w19, w0
/home/thesis/Desktop/optee_rpi3bplus/optee_os/lib/libutee/trace_ext.c:44
    2438:	37f80060 	tbnz	w0, #31, 2444 <printf+0xac>
/home/thesis/Desktop/optee_rpi3bplus/optee_os/lib/libutee/trace_ext.c:47
    243c:	aa1403e0 	mov	x0, x20
    2440:	97ffffca 	bl	2368 <trace_ext_puts>
/home/thesis/Desktop/optee_rpi3bplus/optee_os/lib/libutee/trace_ext.c:50
    2444:	2a1303e0 	mov	w0, w19
    2448:	a9407bfd 	ldp	x29, x30, [sp]
    244c:	a94153f3 	ldp	x19, x20, [sp, #16]
    2450:	910883ff 	add	sp, sp, #0x220
    2454:	d65f03c0 	ret
/home/thesis/Desktop/optee_rpi3bplus/optee_os/lib/libutee/trace_ext.c:38
    2458:	52800013 	mov	w19, #0x0                   	// #0
    245c:	17fffffa 	b	2444 <printf+0xac>

0000000000002460 <puts>:
puts():
/home/thesis/Desktop/optee_rpi3bplus/optee_os/lib/libutee/trace_ext.c:53
    2460:	a9be7bfd 	stp	x29, x30, [sp, #-32]!
    2464:	910003fd 	mov	x29, sp
    2468:	f9000bf3 	str	x19, [sp, #16]
    246c:	aa0003f3 	mov	x19, x0
/home/thesis/Desktop/optee_rpi3bplus/optee_os/lib/libutee/trace_ext.c:54
    2470:	9400182f 	bl	852c <trace_get_level>
    2474:	7100001f 	cmp	w0, #0x0
    2478:	540000cd 	b.le	2490 <puts+0x30>
/home/thesis/Desktop/optee_rpi3bplus/optee_os/lib/libutee/trace_ext.c:55
    247c:	aa1303e0 	mov	x0, x19
    2480:	97ffffba 	bl	2368 <trace_ext_puts>
/home/thesis/Desktop/optee_rpi3bplus/optee_os/lib/libutee/trace_ext.c:56
    2484:	b0000040 	adrp	x0, b000 <__func__.5055+0x23d>
    2488:	910ba800 	add	x0, x0, #0x2ea
    248c:	97ffffb7 	bl	2368 <trace_ext_puts>
/home/thesis/Desktop/optee_rpi3bplus/optee_os/lib/libutee/trace_ext.c:59
    2490:	52800020 	mov	w0, #0x1                   	// #1
    2494:	f9400bf3 	ldr	x19, [sp, #16]
    2498:	a8c27bfd 	ldp	x29, x30, [sp], #32
    249c:	d65f03c0 	ret

00000000000024a0 <putchar>:
putchar():
/home/thesis/Desktop/optee_rpi3bplus/optee_os/lib/libutee/trace_ext.c:62
    24a0:	a9bd7bfd 	stp	x29, x30, [sp, #-48]!
    24a4:	910003fd 	mov	x29, sp
    24a8:	f9000bf3 	str	x19, [sp, #16]
    24ac:	2a0003f3 	mov	w19, w0
/home/thesis/Desktop/optee_rpi3bplus/optee_os/lib/libutee/trace_ext.c:63
    24b0:	3900a3e0 	strb	w0, [sp, #40]
    24b4:	3900a7ff 	strb	wzr, [sp, #41]
/home/thesis/Desktop/optee_rpi3bplus/optee_os/lib/libutee/trace_ext.c:65
    24b8:	9400181d 	bl	852c <trace_get_level>
    24bc:	7100001f 	cmp	w0, #0x0
    24c0:	5400006d 	b.le	24cc <putchar+0x2c>
/home/thesis/Desktop/optee_rpi3bplus/optee_os/lib/libutee/trace_ext.c:66
    24c4:	9100a3e0 	add	x0, sp, #0x28
    24c8:	97ffffa8 	bl	2368 <trace_ext_puts>
/home/thesis/Desktop/optee_rpi3bplus/optee_os/lib/libutee/trace_ext.c:73
    24cc:	12001e60 	and	w0, w19, #0xff
    24d0:	f9400bf3 	ldr	x19, [sp, #16]
    24d4:	a8c37bfd 	ldp	x29, x30, [sp], #48
    24d8:	d65f03c0 	ret

00000000000024dc <_assert_log>:
_assert_log():
/home/thesis/Desktop/optee_rpi3bplus/optee_os/lib/libutee/assert.c:17
    24dc:	d10083ff 	sub	sp, sp, #0x20
/home/thesis/Desktop/optee_rpi3bplus/optee_os/lib/libutee/assert.c:18
    24e0:	2a0203e7 	mov	w7, w2
    24e4:	aa0103e6 	mov	x6, x1
    24e8:	aa0003e5 	mov	x5, x0
    24ec:	52800022 	mov	w2, #0x1                   	// #1
    24f0:	52800001 	mov	w1, #0x0                   	// #0
/home/thesis/Desktop/optee_rpi3bplus/optee_os/lib/libutee/assert.c:17
    24f4:	a9017bfd 	stp	x29, x30, [sp, #16]
    24f8:	910043fd 	add	x29, sp, #0x10
/home/thesis/Desktop/optee_rpi3bplus/optee_os/lib/libutee/assert.c:18
    24fc:	d2800000 	mov	x0, #0x0                   	// #0
    2500:	90000044 	adrp	x4, a000 <__text_end+0x1670>
    2504:	f90003e3 	str	x3, [sp]
    2508:	91318c84 	add	x4, x4, #0xc63
    250c:	52800023 	mov	w3, #0x1                   	// #1
    2510:	9400180b 	bl	853c <trace_printf>
/home/thesis/Desktop/optee_rpi3bplus/optee_os/lib/libutee/assert.c:20
    2514:	a9417bfd 	ldp	x29, x30, [sp, #16]
    2518:	910083ff 	add	sp, sp, #0x20
    251c:	d65f03c0 	ret

0000000000002520 <_assert_break>:
_assert_break():
/home/thesis/Desktop/optee_rpi3bplus/optee_os/lib/libutee/assert.c:23
    2520:	a9bf7bfd 	stp	x29, x30, [sp, #-16]!
/home/thesis/Desktop/optee_rpi3bplus/optee_os/lib/libutee/assert.c:24
    2524:	d2bfffe0 	mov	x0, #0xffff0000            	// #4294901760
/home/thesis/Desktop/optee_rpi3bplus/optee_os/lib/libutee/assert.c:23
    2528:	910003fd 	mov	x29, sp
/home/thesis/Desktop/optee_rpi3bplus/optee_os/lib/libutee/assert.c:24
    252c:	940001ef 	bl	2ce8 <utee_panic>
/home/thesis/Desktop/optee_rpi3bplus/optee_os/lib/libutee/assert.c:27 (discriminator 1)
    2530:	14000000 	b	2530 <_assert_break+0x10>

0000000000002534 <__utee_from_param>:
__utee_from_param():
/home/thesis/Desktop/optee_rpi3bplus/optee_os/lib/libutee/tee_api.c:26
    2534:	90000045 	adrp	x5, a000 <__text_end+0x1670>
    2538:	9114d0a5 	add	x5, x5, #0x534
/home/thesis/Desktop/optee_rpi3bplus/optee_os/lib/libutee/tee_api.c:24
    253c:	2a0103e3 	mov	w3, w1
    2540:	52800004 	mov	w4, #0x0                   	// #0
    2544:	f8008403 	str	x3, [x0], #8
/home/thesis/Desktop/optee_rpi3bplus/optee_os/lib/libutee/tee_api.c:26
    2548:	1ac42423 	lsr	w3, w1, w4
    254c:	12000c63 	and	w3, w3, #0xf
    2550:	51000463 	sub	w3, w3, #0x1
    2554:	7100187f 	cmp	w3, #0x6
    2558:	54000268 	b.hi	25a4 <__utee_from_param+0x70>  // b.pmore
    255c:	386348a3 	ldrb	w3, [x5, w3, uxtw]
    2560:	10000066 	adr	x6, 256c <__utee_from_param+0x38>
    2564:	8b2388c3 	add	x3, x6, w3, sxtb #2
    2568:	d61f0060 	br	x3
/home/thesis/Desktop/optee_rpi3bplus/optee_os/lib/libutee/tee_api.c:30
    256c:	b9400043 	ldr	w3, [x2]
    2570:	f9000003 	str	x3, [x0]
/home/thesis/Desktop/optee_rpi3bplus/optee_os/lib/libutee/tee_api.c:31
    2574:	b9400443 	ldr	w3, [x2, #4]
/home/thesis/Desktop/optee_rpi3bplus/optee_os/lib/libutee/tee_api.c:37
    2578:	f9000403 	str	x3, [x0, #8]
/home/thesis/Desktop/optee_rpi3bplus/optee_os/lib/libutee/tee_api.c:38
    257c:	11001084 	add	w4, w4, #0x4
    2580:	91004042 	add	x2, x2, #0x10
    2584:	91004000 	add	x0, x0, #0x10
/home/thesis/Desktop/optee_rpi3bplus/optee_os/lib/libutee/tee_api.c:25 (discriminator 2)
    2588:	7100409f 	cmp	w4, #0x10
    258c:	54fffde1 	b.ne	2548 <__utee_from_param+0x14>  // b.any
/home/thesis/Desktop/optee_rpi3bplus/optee_os/lib/libutee/tee_api.c:45
    2590:	d65f03c0 	ret
/home/thesis/Desktop/optee_rpi3bplus/optee_os/lib/libutee/tee_api.c:36
    2594:	f9400043 	ldr	x3, [x2]
    2598:	f9000003 	str	x3, [x0]
/home/thesis/Desktop/optee_rpi3bplus/optee_os/lib/libutee/tee_api.c:37
    259c:	b9400843 	ldr	w3, [x2, #8]
    25a0:	17fffff6 	b	2578 <__utee_from_param+0x44>
/home/thesis/Desktop/optee_rpi3bplus/optee_os/lib/libutee/tee_api.c:41
    25a4:	a9007c1f 	stp	xzr, xzr, [x0]
/home/thesis/Desktop/optee_rpi3bplus/optee_os/lib/libutee/tee_api.c:42
    25a8:	17fffff5 	b	257c <__utee_from_param+0x48>

00000000000025ac <__utee_to_param>:
__utee_to_param():
/home/thesis/Desktop/optee_rpi3bplus/optee_os/lib/libutee/tee_api.c:51
    25ac:	f8408446 	ldr	x6, [x2], #8
/home/thesis/Desktop/optee_rpi3bplus/optee_os/lib/libutee/tee_api.c:57
    25b0:	90000045 	adrp	x5, a000 <__text_end+0x1670>
    25b4:	9114f0a5 	add	x5, x5, #0x53c
/home/thesis/Desktop/optee_rpi3bplus/optee_os/lib/libutee/tee_api.c:51
    25b8:	52800004 	mov	w4, #0x0                   	// #0
    25bc:	2a0603e9 	mov	w9, w6
/home/thesis/Desktop/optee_rpi3bplus/optee_os/lib/libutee/tee_api.c:57
    25c0:	1ac42523 	lsr	w3, w9, w4
    25c4:	12000c63 	and	w3, w3, #0xf
    25c8:	51000463 	sub	w3, w3, #0x1
    25cc:	7100187f 	cmp	w3, #0x6
/home/thesis/Desktop/optee_rpi3bplus/optee_os/lib/libutee/tee_api.c:55
    25d0:	a9401c48 	ldp	x8, x7, [x2]
/home/thesis/Desktop/optee_rpi3bplus/optee_os/lib/libutee/tee_api.c:57
    25d4:	540000c8 	b.hi	25ec <__utee_to_param+0x40>  // b.pmore
    25d8:	386348a3 	ldrb	w3, [x5, w3, uxtw]
    25dc:	1000006a 	adr	x10, 25e8 <__utee_to_param+0x3c>
    25e0:	8b238943 	add	x3, x10, w3, sxtb #2
    25e4:	d61f0060 	br	x3
/home/thesis/Desktop/optee_rpi3bplus/optee_os/lib/libutee/tee_api.c:62
    25e8:	29001c08 	stp	w8, w7, [x0]
/home/thesis/Desktop/optee_rpi3bplus/optee_os/lib/libutee/tee_api.c:63
    25ec:	11001084 	add	w4, w4, #0x4
    25f0:	91004042 	add	x2, x2, #0x10
    25f4:	91004000 	add	x0, x0, #0x10
/home/thesis/Desktop/optee_rpi3bplus/optee_os/lib/libutee/tee_api.c:53 (discriminator 2)
    25f8:	7100409f 	cmp	w4, #0x10
    25fc:	54fffe21 	b.ne	25c0 <__utee_to_param+0x14>  // b.any
/home/thesis/Desktop/optee_rpi3bplus/optee_os/lib/libutee/tee_api.c:75
    2600:	b4000041 	cbz	x1, 2608 <__utee_to_param+0x5c>
/home/thesis/Desktop/optee_rpi3bplus/optee_os/lib/libutee/tee_api.c:76
    2604:	b9000026 	str	w6, [x1]
/home/thesis/Desktop/optee_rpi3bplus/optee_os/lib/libutee/tee_api.c:77
    2608:	d65f03c0 	ret
/home/thesis/Desktop/optee_rpi3bplus/optee_os/lib/libutee/tee_api.c:67
    260c:	f9000008 	str	x8, [x0]
/home/thesis/Desktop/optee_rpi3bplus/optee_os/lib/libutee/tee_api.c:68
    2610:	b9000807 	str	w7, [x0, #8]
/home/thesis/Desktop/optee_rpi3bplus/optee_os/lib/libutee/tee_api.c:69
    2614:	17fffff6 	b	25ec <__utee_to_param+0x40>

0000000000002618 <TEE_OpenTASession>:
TEE_OpenTASession():
/home/thesis/Desktop/optee_rpi3bplus/optee_os/lib/libutee/tee_api.c:85
    2618:	a9b67bfd 	stp	x29, x30, [sp, #-160]!
    261c:	910003fd 	mov	x29, sp
    2620:	a90153f3 	stp	x19, x20, [sp, #16]
/home/thesis/Desktop/optee_rpi3bplus/optee_os/lib/libutee/tee_api.c:90
    2624:	910163f3 	add	x19, sp, #0x58
/home/thesis/Desktop/optee_rpi3bplus/optee_os/lib/libutee/tee_api.c:85
    2628:	aa0003f4 	mov	x20, x0
/home/thesis/Desktop/optee_rpi3bplus/optee_os/lib/libutee/tee_api.c:90
    262c:	aa1303e0 	mov	x0, x19
/home/thesis/Desktop/optee_rpi3bplus/optee_os/lib/libutee/tee_api.c:85
    2630:	a9025bf5 	stp	x21, x22, [sp, #32]
    2634:	aa0303f5 	mov	x21, x3
    2638:	aa0403f6 	mov	x22, x4
    263c:	f9001bf7 	str	x23, [sp, #48]
    2640:	2a0103f7 	mov	w23, w1
    2644:	2a0203e1 	mov	w1, w2
/home/thesis/Desktop/optee_rpi3bplus/optee_os/lib/libutee/tee_api.c:90
    2648:	aa0303e2 	mov	x2, x3
/home/thesis/Desktop/optee_rpi3bplus/optee_os/lib/libutee/tee_api.c:85
    264c:	f90027e5 	str	x5, [sp, #72]
/home/thesis/Desktop/optee_rpi3bplus/optee_os/lib/libutee/tee_api.c:90
    2650:	97ffffb9 	bl	2534 <__utee_from_param>
/home/thesis/Desktop/optee_rpi3bplus/optee_os/lib/libutee/tee_api.c:91
    2654:	f94027e4 	ldr	x4, [sp, #72]
    2658:	910153e3 	add	x3, sp, #0x54
    265c:	aa1303e2 	mov	x2, x19
    2660:	2a1703e1 	mov	w1, w23
    2664:	aa1403e0 	mov	x0, x20
    2668:	940001b2 	bl	2d30 <utee_open_ta_session>
    266c:	2a0003f4 	mov	w20, w0
/home/thesis/Desktop/optee_rpi3bplus/optee_os/lib/libutee/tee_api.c:93
    2670:	aa1303e2 	mov	x2, x19
    2674:	d2800001 	mov	x1, #0x0                   	// #0
    2678:	aa1503e0 	mov	x0, x21
    267c:	97ffffcc 	bl	25ac <__utee_to_param>
/home/thesis/Desktop/optee_rpi3bplus/optee_os/lib/libutee/tee_api.c:99
    2680:	34000054 	cbz	w20, 2688 <TEE_OpenTASession+0x70>
/home/thesis/Desktop/optee_rpi3bplus/optee_os/lib/libutee/tee_api.c:100
    2684:	b90057ff 	str	wzr, [sp, #84]
/home/thesis/Desktop/optee_rpi3bplus/optee_os/lib/libutee/tee_api.c:102
    2688:	b94057e0 	ldr	w0, [sp, #84]
/home/thesis/Desktop/optee_rpi3bplus/optee_os/lib/libutee/tee_api.c:104
    268c:	f9401bf7 	ldr	x23, [sp, #48]
/home/thesis/Desktop/optee_rpi3bplus/optee_os/lib/libutee/tee_api.c:102
    2690:	f90002c0 	str	x0, [x22]
/home/thesis/Desktop/optee_rpi3bplus/optee_os/lib/libutee/tee_api.c:104
    2694:	2a1403e0 	mov	w0, w20
    2698:	a94153f3 	ldp	x19, x20, [sp, #16]
    269c:	a9425bf5 	ldp	x21, x22, [sp, #32]
    26a0:	a8ca7bfd 	ldp	x29, x30, [sp], #160
    26a4:	d65f03c0 	ret

00000000000026a8 <TEE_CloseTASession>:
TEE_CloseTASession():
/home/thesis/Desktop/optee_rpi3bplus/optee_os/lib/libutee/tee_api.c:108
    26a8:	b4000120 	cbz	x0, 26cc <TEE_CloseTASession+0x24>
/home/thesis/Desktop/optee_rpi3bplus/optee_os/lib/libutee/tee_api.c:107
    26ac:	a9bf7bfd 	stp	x29, x30, [sp, #-16]!
    26b0:	910003fd 	mov	x29, sp
/home/thesis/Desktop/optee_rpi3bplus/optee_os/lib/libutee/tee_api.c:109
    26b4:	940001a2 	bl	2d3c <utee_close_ta_session>
/home/thesis/Desktop/optee_rpi3bplus/optee_os/lib/libutee/tee_api.c:111
    26b8:	34000060 	cbz	w0, 26c4 <TEE_CloseTASession+0x1c>
/home/thesis/Desktop/optee_rpi3bplus/optee_os/lib/libutee/tee_api.c:114
    26bc:	a8c17bfd 	ldp	x29, x30, [sp], #16
/home/thesis/Desktop/optee_rpi3bplus/optee_os/lib/libutee/tee_api.c:112
    26c0:	140000d5 	b	2a14 <TEE_Panic>
/home/thesis/Desktop/optee_rpi3bplus/optee_os/lib/libutee/tee_api.c:114
    26c4:	a8c17bfd 	ldp	x29, x30, [sp], #16
    26c8:	d65f03c0 	ret
    26cc:	d65f03c0 	ret

00000000000026d0 <TEE_InvokeTACommand>:
TEE_InvokeTACommand():
/home/thesis/Desktop/optee_rpi3bplus/optee_os/lib/libutee/tee_api.c:121
    26d0:	a9b77bfd 	stp	x29, x30, [sp, #-144]!
    26d4:	910003fd 	mov	x29, sp
    26d8:	a90153f3 	stp	x19, x20, [sp, #16]
/home/thesis/Desktop/optee_rpi3bplus/optee_os/lib/libutee/tee_api.c:126
    26dc:	910123f4 	add	x20, sp, #0x48
/home/thesis/Desktop/optee_rpi3bplus/optee_os/lib/libutee/tee_api.c:121
    26e0:	aa0003f3 	mov	x19, x0
/home/thesis/Desktop/optee_rpi3bplus/optee_os/lib/libutee/tee_api.c:126
    26e4:	aa1403e0 	mov	x0, x20
/home/thesis/Desktop/optee_rpi3bplus/optee_os/lib/libutee/tee_api.c:121
    26e8:	a9025bf5 	stp	x21, x22, [sp, #32]
    26ec:	aa0403f6 	mov	x22, x4
    26f0:	aa0503f5 	mov	x21, x5
    26f4:	a90363f7 	stp	x23, x24, [sp, #48]
    26f8:	2a0103f7 	mov	w23, w1
    26fc:	2a0203f8 	mov	w24, w2
/home/thesis/Desktop/optee_rpi3bplus/optee_os/lib/libutee/tee_api.c:126
    2700:	2a0303e1 	mov	w1, w3
    2704:	aa0403e2 	mov	x2, x4
    2708:	97ffff8b 	bl	2534 <__utee_from_param>
/home/thesis/Desktop/optee_rpi3bplus/optee_os/lib/libutee/tee_api.c:127
    270c:	910113e4 	add	x4, sp, #0x44
    2710:	aa1403e3 	mov	x3, x20
    2714:	2a1803e2 	mov	w2, w24
    2718:	2a1703e1 	mov	w1, w23
    271c:	aa1303e0 	mov	x0, x19
    2720:	9400018a 	bl	2d48 <utee_invoke_ta_command>
/home/thesis/Desktop/optee_rpi3bplus/optee_os/lib/libutee/tee_api.c:130
    2724:	aa1403e2 	mov	x2, x20
/home/thesis/Desktop/optee_rpi3bplus/optee_os/lib/libutee/tee_api.c:127
    2728:	2a0003f3 	mov	w19, w0
/home/thesis/Desktop/optee_rpi3bplus/optee_os/lib/libutee/tee_api.c:130
    272c:	d2800001 	mov	x1, #0x0                   	// #0
    2730:	aa1603e0 	mov	x0, x22
    2734:	97ffff9e 	bl	25ac <__utee_to_param>
/home/thesis/Desktop/optee_rpi3bplus/optee_os/lib/libutee/tee_api.c:132
    2738:	b94047e0 	ldr	w0, [sp, #68]
    273c:	b4000055 	cbz	x21, 2744 <TEE_InvokeTACommand+0x74>
/home/thesis/Desktop/optee_rpi3bplus/optee_os/lib/libutee/tee_api.c:133
    2740:	b90002a0 	str	w0, [x21]
/home/thesis/Desktop/optee_rpi3bplus/optee_os/lib/libutee/tee_api.c:135
    2744:	7100101f 	cmp	w0, #0x4
    2748:	54000140 	b.eq	2770 <TEE_InvokeTACommand+0xa0>  // b.none
/home/thesis/Desktop/optee_rpi3bplus/optee_os/lib/libutee/tee_api.c:138
    274c:	7100027f 	cmp	w19, #0x0
    2750:	129ffe60 	mov	w0, #0xffff000c            	// #-65524
    2754:	7a401264 	ccmp	w19, w0, #0x4, ne  // ne = any
    2758:	540000c0 	b.eq	2770 <TEE_InvokeTACommand+0xa0>  // b.none
/home/thesis/Desktop/optee_rpi3bplus/optee_os/lib/libutee/tee_api.c:139
    275c:	1299fb60 	mov	w0, #0xffff3024            	// #-53212
    2760:	6b00027f 	cmp	w19, w0
    2764:	54000060 	b.eq	2770 <TEE_InvokeTACommand+0xa0>  // b.none
/home/thesis/Desktop/optee_rpi3bplus/optee_os/lib/libutee/tee_api.c:141
    2768:	2a1303e0 	mov	w0, w19
    276c:	940000aa 	bl	2a14 <TEE_Panic>
/home/thesis/Desktop/optee_rpi3bplus/optee_os/lib/libutee/tee_api.c:144
    2770:	2a1303e0 	mov	w0, w19
    2774:	a94153f3 	ldp	x19, x20, [sp, #16]
    2778:	a9425bf5 	ldp	x21, x22, [sp, #32]
    277c:	a94363f7 	ldp	x23, x24, [sp, #48]
    2780:	a8c97bfd 	ldp	x29, x30, [sp], #144
    2784:	d65f03c0 	ret

0000000000002788 <TEE_GetCancellationFlag>:
TEE_GetCancellationFlag():
/home/thesis/Desktop/optee_rpi3bplus/optee_os/lib/libutee/tee_api.c:149
    2788:	a9be7bfd 	stp	x29, x30, [sp, #-32]!
    278c:	910003fd 	mov	x29, sp
/home/thesis/Desktop/optee_rpi3bplus/optee_os/lib/libutee/tee_api.c:151
    2790:	910073e0 	add	x0, sp, #0x1c
    2794:	94000170 	bl	2d54 <utee_get_cancellation_flag>
/home/thesis/Desktop/optee_rpi3bplus/optee_os/lib/libutee/tee_api.c:153
    2798:	34000040 	cbz	w0, 27a0 <TEE_GetCancellationFlag+0x18>
/home/thesis/Desktop/optee_rpi3bplus/optee_os/lib/libutee/tee_api.c:154
    279c:	b9001fff 	str	wzr, [sp, #28]
/home/thesis/Desktop/optee_rpi3bplus/optee_os/lib/libutee/tee_api.c:155
    27a0:	b9401fe0 	ldr	w0, [sp, #28]
/home/thesis/Desktop/optee_rpi3bplus/optee_os/lib/libutee/tee_api.c:156
    27a4:	a8c27bfd 	ldp	x29, x30, [sp], #32
/home/thesis/Desktop/optee_rpi3bplus/optee_os/lib/libutee/tee_api.c:155
    27a8:	7100001f 	cmp	w0, #0x0
/home/thesis/Desktop/optee_rpi3bplus/optee_os/lib/libutee/tee_api.c:156
    27ac:	1a9f07e0 	cset	w0, ne  // ne = any
    27b0:	d65f03c0 	ret

00000000000027b4 <TEE_UnmaskCancellation>:
TEE_UnmaskCancellation():
/home/thesis/Desktop/optee_rpi3bplus/optee_os/lib/libutee/tee_api.c:159
    27b4:	a9be7bfd 	stp	x29, x30, [sp, #-32]!
    27b8:	910003fd 	mov	x29, sp
/home/thesis/Desktop/optee_rpi3bplus/optee_os/lib/libutee/tee_api.c:161
    27bc:	910073e0 	add	x0, sp, #0x1c
    27c0:	9400016b 	bl	2d6c <utee_unmask_cancellation>
/home/thesis/Desktop/optee_rpi3bplus/optee_os/lib/libutee/tee_api.c:163
    27c4:	34000040 	cbz	w0, 27cc <TEE_UnmaskCancellation+0x18>
/home/thesis/Desktop/optee_rpi3bplus/optee_os/lib/libutee/tee_api.c:164
    27c8:	94000093 	bl	2a14 <TEE_Panic>
/home/thesis/Desktop/optee_rpi3bplus/optee_os/lib/libutee/tee_api.c:165
    27cc:	b9401fe0 	ldr	w0, [sp, #28]
/home/thesis/Desktop/optee_rpi3bplus/optee_os/lib/libutee/tee_api.c:166
    27d0:	a8c27bfd 	ldp	x29, x30, [sp], #32
/home/thesis/Desktop/optee_rpi3bplus/optee_os/lib/libutee/tee_api.c:165
    27d4:	7100001f 	cmp	w0, #0x0
/home/thesis/Desktop/optee_rpi3bplus/optee_os/lib/libutee/tee_api.c:166
    27d8:	1a9f07e0 	cset	w0, ne  // ne = any
    27dc:	d65f03c0 	ret

00000000000027e0 <TEE_MaskCancellation>:
TEE_MaskCancellation():
/home/thesis/Desktop/optee_rpi3bplus/optee_os/lib/libutee/tee_api.c:169
    27e0:	a9be7bfd 	stp	x29, x30, [sp, #-32]!
    27e4:	910003fd 	mov	x29, sp
/home/thesis/Desktop/optee_rpi3bplus/optee_os/lib/libutee/tee_api.c:171
    27e8:	910073e0 	add	x0, sp, #0x1c
    27ec:	94000163 	bl	2d78 <utee_mask_cancellation>
/home/thesis/Desktop/optee_rpi3bplus/optee_os/lib/libutee/tee_api.c:173
    27f0:	34000040 	cbz	w0, 27f8 <TEE_MaskCancellation+0x18>
/home/thesis/Desktop/optee_rpi3bplus/optee_os/lib/libutee/tee_api.c:174
    27f4:	94000088 	bl	2a14 <TEE_Panic>
/home/thesis/Desktop/optee_rpi3bplus/optee_os/lib/libutee/tee_api.c:175
    27f8:	b9401fe0 	ldr	w0, [sp, #28]
/home/thesis/Desktop/optee_rpi3bplus/optee_os/lib/libutee/tee_api.c:176
    27fc:	a8c27bfd 	ldp	x29, x30, [sp], #32
/home/thesis/Desktop/optee_rpi3bplus/optee_os/lib/libutee/tee_api.c:175
    2800:	7100001f 	cmp	w0, #0x0
/home/thesis/Desktop/optee_rpi3bplus/optee_os/lib/libutee/tee_api.c:176
    2804:	1a9f07e0 	cset	w0, ne  // ne = any
    2808:	d65f03c0 	ret

000000000000280c <TEE_CheckMemoryAccessRights>:
TEE_CheckMemoryAccessRights():
/home/thesis/Desktop/optee_rpi3bplus/optee_os/lib/libutee/tee_api.c:185
    280c:	34000062 	cbz	w2, 2818 <TEE_CheckMemoryAccessRights+0xc>
/home/thesis/Desktop/optee_rpi3bplus/optee_os/lib/libutee/tee_api.c:189
    2810:	2a0203e2 	mov	w2, w2
    2814:	14000153 	b	2d60 <utee_check_access_rights>
/home/thesis/Desktop/optee_rpi3bplus/optee_os/lib/libutee/tee_api.c:201
    2818:	52800000 	mov	w0, #0x0                   	// #0
    281c:	d65f03c0 	ret

0000000000002820 <TEE_SetInstanceData>:
TEE_SetInstanceData():
/home/thesis/Desktop/optee_rpi3bplus/optee_os/lib/libutee/tee_api.c:205
    2820:	d0000041 	adrp	x1, c000 <.got>
    2824:	f9021820 	str	x0, [x1, #1072]
/home/thesis/Desktop/optee_rpi3bplus/optee_os/lib/libutee/tee_api.c:206
    2828:	d65f03c0 	ret

000000000000282c <TEE_GetInstanceData>:
TEE_GetInstanceData():
/home/thesis/Desktop/optee_rpi3bplus/optee_os/lib/libutee/tee_api.c:211
    282c:	d0000040 	adrp	x0, c000 <.got>
    2830:	f9421800 	ldr	x0, [x0, #1072]
    2834:	d65f03c0 	ret

0000000000002838 <TEE_MemMove>:
TEE_MemMove():
/home/thesis/Desktop/optee_rpi3bplus/optee_os/lib/libutee/tee_api.c:215
    2838:	2a0203e2 	mov	w2, w2
    283c:	1400171e 	b	84b4 <memmove>

0000000000002840 <TEE_MemCompare>:
TEE_MemCompare():
/home/thesis/Desktop/optee_rpi3bplus/optee_os/lib/libutee/tee_api.c:220
    2840:	2a0203e2 	mov	w2, w2
    2844:	14001837 	b	8920 <consttime_memcmp>

0000000000002848 <TEE_MemFill>:
TEE_MemFill():
/home/thesis/Desktop/optee_rpi3bplus/optee_os/lib/libutee/tee_api.c:225
    2848:	2a0203e2 	mov	w2, w2
    284c:	17fffb6f 	b	1608 <memset>

0000000000002850 <TEE_GetSystemTime>:
TEE_GetSystemTime():
/home/thesis/Desktop/optee_rpi3bplus/optee_os/lib/libutee/tee_api.c:231
    2850:	a9bf7bfd 	stp	x29, x30, [sp, #-16]!
/home/thesis/Desktop/optee_rpi3bplus/optee_os/lib/libutee/tee_api.c:232
    2854:	aa0003e1 	mov	x1, x0
    2858:	d2800000 	mov	x0, #0x0                   	// #0
/home/thesis/Desktop/optee_rpi3bplus/optee_os/lib/libutee/tee_api.c:231
    285c:	910003fd 	mov	x29, sp
/home/thesis/Desktop/optee_rpi3bplus/optee_os/lib/libutee/tee_api.c:232
    2860:	9400014c 	bl	2d90 <utee_get_time>
/home/thesis/Desktop/optee_rpi3bplus/optee_os/lib/libutee/tee_api.c:234
    2864:	34000060 	cbz	w0, 2870 <TEE_GetSystemTime+0x20>
/home/thesis/Desktop/optee_rpi3bplus/optee_os/lib/libutee/tee_api.c:236
    2868:	a8c17bfd 	ldp	x29, x30, [sp], #16
/home/thesis/Desktop/optee_rpi3bplus/optee_os/lib/libutee/tee_api.c:235
    286c:	1400006a 	b	2a14 <TEE_Panic>
/home/thesis/Desktop/optee_rpi3bplus/optee_os/lib/libutee/tee_api.c:236
    2870:	a8c17bfd 	ldp	x29, x30, [sp], #16
    2874:	d65f03c0 	ret

0000000000002878 <TEE_Wait>:
TEE_Wait():
/home/thesis/Desktop/optee_rpi3bplus/optee_os/lib/libutee/tee_api.c:239
    2878:	a9be7bfd 	stp	x29, x30, [sp, #-32]!
/home/thesis/Desktop/optee_rpi3bplus/optee_os/lib/libutee/tee_api.c:240
    287c:	2a0003e0 	mov	w0, w0
/home/thesis/Desktop/optee_rpi3bplus/optee_os/lib/libutee/tee_api.c:239
    2880:	910003fd 	mov	x29, sp
    2884:	f9000bf3 	str	x19, [sp, #16]
/home/thesis/Desktop/optee_rpi3bplus/optee_os/lib/libutee/tee_api.c:240
    2888:	9400013f 	bl	2d84 <utee_wait>
/home/thesis/Desktop/optee_rpi3bplus/optee_os/lib/libutee/tee_api.c:242
    288c:	7100001f 	cmp	w0, #0x0
    2890:	129fffa1 	mov	w1, #0xffff0002            	// #-65534
/home/thesis/Desktop/optee_rpi3bplus/optee_os/lib/libutee/tee_api.c:240
    2894:	2a0003f3 	mov	w19, w0
/home/thesis/Desktop/optee_rpi3bplus/optee_os/lib/libutee/tee_api.c:242
    2898:	7a411004 	ccmp	w0, w1, #0x4, ne  // ne = any
    289c:	54000040 	b.eq	28a4 <TEE_Wait+0x2c>  // b.none
/home/thesis/Desktop/optee_rpi3bplus/optee_os/lib/libutee/tee_api.c:243
    28a0:	9400005d 	bl	2a14 <TEE_Panic>
/home/thesis/Desktop/optee_rpi3bplus/optee_os/lib/libutee/tee_api.c:246
    28a4:	2a1303e0 	mov	w0, w19
    28a8:	f9400bf3 	ldr	x19, [sp, #16]
    28ac:	a8c27bfd 	ldp	x29, x30, [sp], #32
    28b0:	d65f03c0 	ret

00000000000028b4 <TEE_GetTAPersistentTime>:
TEE_GetTAPersistentTime():
/home/thesis/Desktop/optee_rpi3bplus/optee_os/lib/libutee/tee_api.c:249
    28b4:	a9be7bfd 	stp	x29, x30, [sp, #-32]!
/home/thesis/Desktop/optee_rpi3bplus/optee_os/lib/libutee/tee_api.c:252
    28b8:	aa0003e1 	mov	x1, x0
/home/thesis/Desktop/optee_rpi3bplus/optee_os/lib/libutee/tee_api.c:249
    28bc:	910003fd 	mov	x29, sp
    28c0:	a90153f3 	stp	x19, x20, [sp, #16]
    28c4:	aa0003f4 	mov	x20, x0
/home/thesis/Desktop/optee_rpi3bplus/optee_os/lib/libutee/tee_api.c:252
    28c8:	d2800020 	mov	x0, #0x1                   	// #1
    28cc:	94000131 	bl	2d90 <utee_get_time>
/home/thesis/Desktop/optee_rpi3bplus/optee_os/lib/libutee/tee_api.c:254
    28d0:	7100001f 	cmp	w0, #0x0
/home/thesis/Desktop/optee_rpi3bplus/optee_os/lib/libutee/tee_api.c:252
    28d4:	2a0003f3 	mov	w19, w0
/home/thesis/Desktop/optee_rpi3bplus/optee_os/lib/libutee/tee_api.c:254
    28d8:	1a9f07e2 	cset	w2, ne  // ne = any
    28dc:	1299fe00 	mov	w0, #0xffff300f            	// #-53233
    28e0:	6b00027f 	cmp	w19, w0
    28e4:	1a9f1041 	csel	w1, w2, wzr, ne  // ne = any
    28e8:	34000041 	cbz	w1, 28f0 <TEE_GetTAPersistentTime+0x3c>
/home/thesis/Desktop/optee_rpi3bplus/optee_os/lib/libutee/tee_api.c:256
    28ec:	29007e9f 	stp	wzr, wzr, [x20]
/home/thesis/Desktop/optee_rpi3bplus/optee_os/lib/libutee/tee_api.c:260
    28f0:	11402e60 	add	w0, w19, #0xb, lsl #12
/home/thesis/Desktop/optee_rpi3bplus/optee_os/lib/libutee/tee_api.c:259
    28f4:	7100005f 	cmp	w2, #0x0
    28f8:	7a411800 	ccmp	w0, #0x1, #0x0, ne  // ne = any
    28fc:	540000e9 	b.ls	2918 <TEE_GetTAPersistentTime+0x64>  // b.plast
/home/thesis/Desktop/optee_rpi3bplus/optee_os/lib/libutee/tee_api.c:261
    2900:	340000c1 	cbz	w1, 2918 <TEE_GetTAPersistentTime+0x64>
/home/thesis/Desktop/optee_rpi3bplus/optee_os/lib/libutee/tee_api.c:262
    2904:	129ffe60 	mov	w0, #0xffff000c            	// #-65524
    2908:	6b00027f 	cmp	w19, w0
    290c:	54000060 	b.eq	2918 <TEE_GetTAPersistentTime+0x64>  // b.none
/home/thesis/Desktop/optee_rpi3bplus/optee_os/lib/libutee/tee_api.c:264
    2910:	2a1303e0 	mov	w0, w19
    2914:	94000040 	bl	2a14 <TEE_Panic>
/home/thesis/Desktop/optee_rpi3bplus/optee_os/lib/libutee/tee_api.c:267
    2918:	2a1303e0 	mov	w0, w19
    291c:	a94153f3 	ldp	x19, x20, [sp, #16]
    2920:	a8c27bfd 	ldp	x29, x30, [sp], #32
    2924:	d65f03c0 	ret

0000000000002928 <TEE_SetTAPersistentTime>:
TEE_SetTAPersistentTime():
/home/thesis/Desktop/optee_rpi3bplus/optee_os/lib/libutee/tee_api.c:270
    2928:	a9be7bfd 	stp	x29, x30, [sp, #-32]!
    292c:	910003fd 	mov	x29, sp
    2930:	f9000bf3 	str	x19, [sp, #16]
/home/thesis/Desktop/optee_rpi3bplus/optee_os/lib/libutee/tee_api.c:273
    2934:	9400011a 	bl	2d9c <utee_set_ta_time>
/home/thesis/Desktop/optee_rpi3bplus/optee_os/lib/libutee/tee_api.c:275
    2938:	7100001f 	cmp	w0, #0x0
    293c:	129ffe61 	mov	w1, #0xffff000c            	// #-65524
/home/thesis/Desktop/optee_rpi3bplus/optee_os/lib/libutee/tee_api.c:273
    2940:	2a0003f3 	mov	w19, w0
/home/thesis/Desktop/optee_rpi3bplus/optee_os/lib/libutee/tee_api.c:275
    2944:	7a411004 	ccmp	w0, w1, #0x4, ne  // ne = any
    2948:	540000a0 	b.eq	295c <TEE_SetTAPersistentTime+0x34>  // b.none
/home/thesis/Desktop/optee_rpi3bplus/optee_os/lib/libutee/tee_api.c:276
    294c:	1299f7c1 	mov	w1, #0xffff3041            	// #-53183
    2950:	6b01001f 	cmp	w0, w1
    2954:	54000040 	b.eq	295c <TEE_SetTAPersistentTime+0x34>  // b.none
/home/thesis/Desktop/optee_rpi3bplus/optee_os/lib/libutee/tee_api.c:278
    2958:	9400002f 	bl	2a14 <TEE_Panic>
/home/thesis/Desktop/optee_rpi3bplus/optee_os/lib/libutee/tee_api.c:281
    295c:	2a1303e0 	mov	w0, w19
    2960:	f9400bf3 	ldr	x19, [sp, #16]
    2964:	a8c27bfd 	ldp	x29, x30, [sp], #32
    2968:	d65f03c0 	ret

000000000000296c <TEE_GetREETime>:
TEE_GetREETime():
/home/thesis/Desktop/optee_rpi3bplus/optee_os/lib/libutee/tee_api.c:284
    296c:	a9bf7bfd 	stp	x29, x30, [sp, #-16]!
/home/thesis/Desktop/optee_rpi3bplus/optee_os/lib/libutee/tee_api.c:285
    2970:	aa0003e1 	mov	x1, x0
    2974:	d2800040 	mov	x0, #0x2                   	// #2
/home/thesis/Desktop/optee_rpi3bplus/optee_os/lib/libutee/tee_api.c:284
    2978:	910003fd 	mov	x29, sp
/home/thesis/Desktop/optee_rpi3bplus/optee_os/lib/libutee/tee_api.c:285
    297c:	94000105 	bl	2d90 <utee_get_time>
/home/thesis/Desktop/optee_rpi3bplus/optee_os/lib/libutee/tee_api.c:287
    2980:	34000060 	cbz	w0, 298c <TEE_GetREETime+0x20>
/home/thesis/Desktop/optee_rpi3bplus/optee_os/lib/libutee/tee_api.c:289
    2984:	a8c17bfd 	ldp	x29, x30, [sp], #16
/home/thesis/Desktop/optee_rpi3bplus/optee_os/lib/libutee/tee_api.c:288
    2988:	14000023 	b	2a14 <TEE_Panic>
/home/thesis/Desktop/optee_rpi3bplus/optee_os/lib/libutee/tee_api.c:289
    298c:	a8c17bfd 	ldp	x29, x30, [sp], #16
    2990:	d65f03c0 	ret

0000000000002994 <TEE_Malloc>:
TEE_Malloc():
/home/thesis/Desktop/optee_rpi3bplus/optee_os/lib/libutee/tee_api.c:293
    2994:	35000081 	cbnz	w1, 29a4 <TEE_Malloc+0x10>
/home/thesis/Desktop/optee_rpi3bplus/optee_os/lib/libutee/tee_api.c:294
    2998:	2a0003e1 	mov	w1, w0
    299c:	d2800020 	mov	x0, #0x1                   	// #1
    29a0:	17fff9e4 	b	1130 <calloc>
/home/thesis/Desktop/optee_rpi3bplus/optee_os/lib/libutee/tee_api.c:295
    29a4:	52b00002 	mov	w2, #0x80000000            	// #-2147483648
    29a8:	6b02003f 	cmp	w1, w2
    29ac:	54000061 	b.ne	29b8 <TEE_Malloc+0x24>  // b.any
/home/thesis/Desktop/optee_rpi3bplus/optee_os/lib/libutee/tee_api.c:296
    29b0:	2a0003e0 	mov	w0, w0
    29b4:	17fff9cb 	b	10e0 <malloc>
/home/thesis/Desktop/optee_rpi3bplus/optee_os/lib/libutee/tee_api.c:292
    29b8:	a9bf7bfd 	stp	x29, x30, [sp, #-16]!
    29bc:	2a0103e5 	mov	w5, w1
/home/thesis/Desktop/optee_rpi3bplus/optee_os/lib/libutee/tee_api.c:298
    29c0:	52800023 	mov	w3, #0x1                   	// #1
/home/thesis/Desktop/optee_rpi3bplus/optee_os/lib/libutee/tee_api.c:292
    29c4:	910003fd 	mov	x29, sp
/home/thesis/Desktop/optee_rpi3bplus/optee_os/lib/libutee/tee_api.c:298
    29c8:	52800022 	mov	w2, #0x1                   	// #1
    29cc:	52802541 	mov	w1, #0x12a                 	// #298
    29d0:	90000044 	adrp	x4, a000 <__text_end+0x1670>
    29d4:	90000040 	adrp	x0, a000 <__text_end+0x1670>
    29d8:	91322884 	add	x4, x4, #0xc8a
    29dc:	91150c00 	add	x0, x0, #0x543
    29e0:	940016d7 	bl	853c <trace_printf>
/home/thesis/Desktop/optee_rpi3bplus/optee_os/lib/libutee/tee_api.c:301
    29e4:	d2800000 	mov	x0, #0x0                   	// #0
    29e8:	a8c17bfd 	ldp	x29, x30, [sp], #16
    29ec:	d65f03c0 	ret

00000000000029f0 <TEE_Realloc>:
TEE_Realloc():
/home/thesis/Desktop/optee_rpi3bplus/optee_os/lib/libutee/tee_api.c:305
    29f0:	2a0103e1 	mov	w1, w1
    29f4:	17fff9e8 	b	1194 <realloc>

00000000000029f8 <TEE_Free>:
TEE_Free():
/home/thesis/Desktop/optee_rpi3bplus/optee_os/lib/libutee/tee_api.c:310
    29f8:	17fff9fb 	b	11e4 <free>

00000000000029fc <TEE_CacheClean>:
TEE_CacheClean():
/home/thesis/Desktop/optee_rpi3bplus/optee_os/lib/libutee/tee_api.c:316
    29fc:	d2800002 	mov	x2, #0x0                   	// #0
    2a00:	14000162 	b	2f88 <utee_cache_operation>

0000000000002a04 <TEE_CacheFlush>:
TEE_CacheFlush():
/home/thesis/Desktop/optee_rpi3bplus/optee_os/lib/libutee/tee_api.c:320
    2a04:	d2800022 	mov	x2, #0x1                   	// #1
    2a08:	14000160 	b	2f88 <utee_cache_operation>

0000000000002a0c <TEE_CacheInvalidate>:
TEE_CacheInvalidate():
/home/thesis/Desktop/optee_rpi3bplus/optee_os/lib/libutee/tee_api.c:325
    2a0c:	d2800042 	mov	x2, #0x2                   	// #2
    2a10:	1400015e 	b	2f88 <utee_cache_operation>

0000000000002a14 <TEE_Panic>:
TEE_Panic():
/home/thesis/Desktop/optee_rpi3bplus/optee_os/lib/libutee/tee_api_panic.c:12
    2a14:	2a0003e0 	mov	w0, w0
    2a18:	140000b4 	b	2ce8 <utee_panic>

0000000000002a1c <ta_header_get_session>:
ta_header_get_session():
/home/thesis/Desktop/optee_rpi3bplus/optee_os/lib/libutee/arch/arm/user_ta_entry.c:65
    2a1c:	2a0003e1 	mov	w1, w0
/home/thesis/Desktop/optee_rpi3bplus/optee_os/lib/libutee/arch/arm/user_ta_entry.c:68
    2a20:	d0000040 	adrp	x0, c000 <.got>
    2a24:	f941fc00 	ldr	x0, [x0, #1016]
/home/thesis/Desktop/optee_rpi3bplus/optee_os/lib/libutee/arch/arm/user_ta_entry.c:68 (discriminator 1)
    2a28:	b5000040 	cbnz	x0, 2a30 <ta_header_get_session+0x14>
/home/thesis/Desktop/optee_rpi3bplus/optee_os/lib/libutee/arch/arm/user_ta_entry.c:73
    2a2c:	d65f03c0 	ret
/home/thesis/Desktop/optee_rpi3bplus/optee_os/lib/libutee/arch/arm/user_ta_entry.c:69
    2a30:	b9400002 	ldr	w2, [x0]
    2a34:	6b01005f 	cmp	w2, w1
    2a38:	54ffffa0 	b.eq	2a2c <ta_header_get_session+0x10>  // b.none
/home/thesis/Desktop/optee_rpi3bplus/optee_os/lib/libutee/arch/arm/user_ta_entry.c:68 (discriminator 2)
    2a3c:	f9400800 	ldr	x0, [x0, #16]
    2a40:	17fffffa 	b	2a28 <ta_header_get_session+0xc>

0000000000002a44 <ta_header_remove_session>:
ta_header_remove_session():
/home/thesis/Desktop/optee_rpi3bplus/optee_os/lib/libutee/arch/arm/user_ta_entry.c:102
    2a44:	a9be7bfd 	stp	x29, x30, [sp, #-32]!
    2a48:	2a0003e2 	mov	w2, w0
    2a4c:	910003fd 	mov	x29, sp
    2a50:	f9000bf3 	str	x19, [sp, #16]
/home/thesis/Desktop/optee_rpi3bplus/optee_os/lib/libutee/arch/arm/user_ta_entry.c:106
    2a54:	d0000053 	adrp	x19, c000 <.got>
    2a58:	f941fe60 	ldr	x0, [x19, #1016]
/home/thesis/Desktop/optee_rpi3bplus/optee_os/lib/libutee/arch/arm/user_ta_entry.c:106 (discriminator 1)
    2a5c:	b5000080 	cbnz	x0, 2a6c <ta_header_remove_session+0x28>
/home/thesis/Desktop/optee_rpi3bplus/optee_os/lib/libutee/arch/arm/user_ta_entry.c:120
    2a60:	f9400bf3 	ldr	x19, [sp, #16]
    2a64:	a8c27bfd 	ldp	x29, x30, [sp], #32
    2a68:	d65f03c0 	ret
/home/thesis/Desktop/optee_rpi3bplus/optee_os/lib/libutee/arch/arm/user_ta_entry.c:107
    2a6c:	b9400003 	ldr	w3, [x0]
    2a70:	f9400801 	ldr	x1, [x0, #16]
    2a74:	6b02007f 	cmp	w3, w2
    2a78:	540002c1 	b.ne	2ad0 <ta_header_remove_session+0x8c>  // b.any
/home/thesis/Desktop/optee_rpi3bplus/optee_os/lib/libutee/arch/arm/user_ta_entry.c:108
    2a7c:	f9400c02 	ldr	x2, [x0, #24]
    2a80:	b4000221 	cbz	x1, 2ac4 <ta_header_remove_session+0x80>
/home/thesis/Desktop/optee_rpi3bplus/optee_os/lib/libutee/arch/arm/user_ta_entry.c:108 (discriminator 1)
    2a84:	f9000c22 	str	x2, [x1, #24]
/home/thesis/Desktop/optee_rpi3bplus/optee_os/lib/libutee/arch/arm/user_ta_entry.c:108 (discriminator 4)
    2a88:	f9400c02 	ldr	x2, [x0, #24]
    2a8c:	f9000041 	str	x1, [x2]
/home/thesis/Desktop/optee_rpi3bplus/optee_os/lib/libutee/arch/arm/user_ta_entry.c:109 (discriminator 4)
    2a90:	97ffffda 	bl	29f8 <TEE_Free>
/home/thesis/Desktop/optee_rpi3bplus/optee_os/lib/libutee/arch/arm/user_ta_entry.c:114 (discriminator 4)
    2a94:	f941fe60 	ldr	x0, [x19, #1016]
    2a98:	b5fffe40 	cbnz	x0, 2a60 <ta_header_remove_session+0x1c>
/home/thesis/Desktop/optee_rpi3bplus/optee_os/lib/libutee/arch/arm/user_ta_entry.c:112 (discriminator 1)
    2a9c:	d0000040 	adrp	x0, c000 <.got>
    2aa0:	52800281 	mov	w1, #0x14                  	// #20
    2aa4:	f9403800 	ldr	x0, [x0, #112]
    2aa8:	b9401400 	ldr	w0, [x0, #20]
    2aac:	0a010000 	and	w0, w0, w1
/home/thesis/Desktop/optee_rpi3bplus/optee_os/lib/libutee/arch/arm/user_ta_entry.c:114 (discriminator 1)
    2ab0:	6b01001f 	cmp	w0, w1
    2ab4:	54fffd60 	b.eq	2a60 <ta_header_remove_session+0x1c>  // b.none
/home/thesis/Desktop/optee_rpi3bplus/optee_os/lib/libutee/arch/arm/user_ta_entry.c:120
    2ab8:	f9400bf3 	ldr	x19, [sp, #16]
    2abc:	a8c27bfd 	ldp	x29, x30, [sp], #32
uninit_instance():
/home/thesis/Desktop/optee_rpi3bplus/optee_os/lib/libutee/arch/arm/user_ta_entry.c:50
    2ac0:	17fff74f 	b	7fc <TA_DestroyEntryPoint>
ta_header_remove_session():
/home/thesis/Desktop/optee_rpi3bplus/optee_os/lib/libutee/arch/arm/user_ta_entry.c:108 (discriminator 2)
    2ac4:	910fe263 	add	x3, x19, #0x3f8
    2ac8:	f9000462 	str	x2, [x3, #8]
    2acc:	17ffffef 	b	2a88 <ta_header_remove_session+0x44>
    2ad0:	aa0103e0 	mov	x0, x1
    2ad4:	17ffffe2 	b	2a5c <ta_header_remove_session+0x18>

0000000000002ad8 <ta_header_save_params.part.0>:
ta_header_save_params():
/home/thesis/Desktop/optee_rpi3bplus/optee_os/lib/libutee/arch/arm/user_ta_entry.c:61
    2ad8:	d0000040 	adrp	x0, c000 <.got>
    2adc:	d2800802 	mov	x2, #0x40                  	// #64
    2ae0:	52800001 	mov	w1, #0x0                   	// #0
    2ae4:	f9403400 	ldr	x0, [x0, #104]
    2ae8:	17fffac8 	b	1608 <memset>

0000000000002aec <__utee_entry>:
__utee_entry():
/home/thesis/Desktop/optee_rpi3bplus/optee_os/lib/libutee/arch/arm/user_ta_entry.c:187
    2aec:	a9b77bfd 	stp	x29, x30, [sp, #-144]!
/home/thesis/Desktop/optee_rpi3bplus/optee_os/lib/libutee/arch/arm/user_ta_entry.c:198
    2af0:	f100041f 	cmp	x0, #0x1
/home/thesis/Desktop/optee_rpi3bplus/optee_os/lib/libutee/arch/arm/user_ta_entry.c:187
    2af4:	910003fd 	mov	x29, sp
    2af8:	a90153f3 	stp	x19, x20, [sp, #16]
    2afc:	d0000054 	adrp	x20, c000 <.got>
    2b00:	a9025bf5 	stp	x21, x22, [sp, #32]
    2b04:	aa0103f5 	mov	x21, x1
    2b08:	a90363f7 	stp	x23, x24, [sp, #48]
/home/thesis/Desktop/optee_rpi3bplus/optee_os/lib/libutee/arch/arm/user_ta_entry.c:198
    2b0c:	54000a00 	b.eq	2c4c <__utee_entry+0x160>  // b.none
    2b10:	aa0203f7 	mov	x23, x2
    2b14:	b40000e0 	cbz	x0, 2b30 <__utee_entry+0x44>
    2b18:	f100081f 	cmp	x0, #0x2
    2b1c:	54000aa0 	b.eq	2c70 <__utee_entry+0x184>  // b.none
/home/thesis/Desktop/optee_rpi3bplus/optee_os/lib/libutee/arch/arm/user_ta_entry.c:210
    2b20:	52800000 	mov	w0, #0x0                   	// #0
/home/thesis/Desktop/optee_rpi3bplus/optee_os/lib/libutee/arch/arm/user_ta_entry.c:209
    2b24:	12800013 	mov	w19, #0xffffffff            	// #-1
/home/thesis/Desktop/optee_rpi3bplus/optee_os/lib/libutee/arch/arm/user_ta_entry.c:210
    2b28:	97ffffbb 	bl	2a14 <TEE_Panic>
/home/thesis/Desktop/optee_rpi3bplus/optee_os/lib/libutee/arch/arm/user_ta_entry.c:211
    2b2c:	14000019 	b	2b90 <__utee_entry+0xa4>
ta_header_add_session():
/home/thesis/Desktop/optee_rpi3bplus/optee_os/lib/libutee/arch/arm/user_ta_entry.c:77
    2b30:	2a0103e0 	mov	w0, w1
    2b34:	97ffffba 	bl	2a1c <ta_header_get_session>
/home/thesis/Desktop/optee_rpi3bplus/optee_os/lib/libutee/arch/arm/user_ta_entry.c:80
    2b38:	b5000500 	cbnz	x0, 2bd8 <__utee_entry+0xec>
/home/thesis/Desktop/optee_rpi3bplus/optee_os/lib/libutee/arch/arm/user_ta_entry.c:83
    2b3c:	b00000a0 	adrp	x0, 17000 <ta_heap+0x7b78>
    2b40:	39522001 	ldrb	w1, [x0, #1160]
    2b44:	340000e1 	cbz	w1, 2b60 <__utee_entry+0x74>
/home/thesis/Desktop/optee_rpi3bplus/optee_os/lib/libutee/arch/arm/user_ta_entry.c:90
    2b48:	52b00001 	mov	w1, #0x80000000            	// #-2147483648
    2b4c:	52800400 	mov	w0, #0x20                  	// #32
    2b50:	97ffff91 	bl	2994 <TEE_Malloc>
/home/thesis/Desktop/optee_rpi3bplus/optee_os/lib/libutee/arch/arm/user_ta_entry.c:92
    2b54:	b5000300 	cbnz	x0, 2bb4 <__utee_entry+0xc8>
/home/thesis/Desktop/optee_rpi3bplus/optee_os/lib/libutee/arch/arm/user_ta_entry.c:93
    2b58:	129ffe73 	mov	w19, #0xffff000c            	// #-65524
    2b5c:	1400000d 	b	2b90 <__utee_entry+0xa4>
/home/thesis/Desktop/optee_rpi3bplus/optee_os/lib/libutee/arch/arm/user_ta_entry.c:84
    2b60:	52800021 	mov	w1, #0x1                   	// #1
    2b64:	39122001 	strb	w1, [x0, #1160]
init_instance():
/home/thesis/Desktop/optee_rpi3bplus/optee_os/lib/libutee/arch/arm/user_ta_entry.c:40
    2b68:	97fff767 	bl	904 <tahead_get_trace_level>
    2b6c:	94001669 	bl	8510 <trace_set_level>
/home/thesis/Desktop/optee_rpi3bplus/optee_os/lib/libutee/arch/arm/user_ta_entry.c:42
    2b70:	f9401280 	ldr	x0, [x20, #32]
    2b74:	f9400001 	ldr	x1, [x0]
    2b78:	f9402680 	ldr	x0, [x20, #72]
    2b7c:	97fff9a6 	bl	1214 <malloc_add_pool>
/home/thesis/Desktop/optee_rpi3bplus/optee_os/lib/libutee/arch/arm/user_ta_entry.c:43
    2b80:	94000307 	bl	379c <_TEE_MathAPI_Init>
/home/thesis/Desktop/optee_rpi3bplus/optee_os/lib/libutee/arch/arm/user_ta_entry.c:44
    2b84:	97fff71d 	bl	7f8 <TA_CreateEntryPoint>
    2b88:	2a0003f3 	mov	w19, w0
ta_header_add_session():
/home/thesis/Desktop/optee_rpi3bplus/optee_os/lib/libutee/arch/arm/user_ta_entry.c:86
    2b8c:	34fffde0 	cbz	w0, 2b48 <__utee_entry+0x5c>
ta_header_save_params():
/home/thesis/Desktop/optee_rpi3bplus/optee_os/lib/libutee/arch/arm/user_ta_entry.c:56
    2b90:	f9402e94 	ldr	x20, [x20, #88]
    2b94:	b900029f 	str	wzr, [x20]
/home/thesis/Desktop/optee_rpi3bplus/optee_os/lib/libutee/arch/arm/user_ta_entry.c:58
    2b98:	97ffffd0 	bl	2ad8 <ta_header_save_params.part.0>
__utee_entry():
/home/thesis/Desktop/optee_rpi3bplus/optee_os/lib/libutee/arch/arm/user_ta_entry.c:216
    2b9c:	2a1303e0 	mov	w0, w19
    2ba0:	a94153f3 	ldp	x19, x20, [sp, #16]
    2ba4:	a9425bf5 	ldp	x21, x22, [sp, #32]
    2ba8:	a94363f7 	ldp	x23, x24, [sp, #48]
    2bac:	a8c97bfd 	ldp	x29, x30, [sp], #144
    2bb0:	d65f03c0 	ret
ta_header_add_session():
/home/thesis/Desktop/optee_rpi3bplus/optee_os/lib/libutee/arch/arm/user_ta_entry.c:96
    2bb4:	d0000041 	adrp	x1, c000 <.got>
    2bb8:	910fe021 	add	x1, x1, #0x3f8
    2bbc:	f9400422 	ldr	x2, [x1, #8]
/home/thesis/Desktop/optee_rpi3bplus/optee_os/lib/libutee/arch/arm/user_ta_entry.c:94
    2bc0:	b9000015 	str	w21, [x0]
/home/thesis/Desktop/optee_rpi3bplus/optee_os/lib/libutee/arch/arm/user_ta_entry.c:96
    2bc4:	a900fc1f 	stp	xzr, xzr, [x0, #8]
    2bc8:	f9000c02 	str	x2, [x0, #24]
    2bcc:	f9000040 	str	x0, [x2]
    2bd0:	91004000 	add	x0, x0, #0x10
    2bd4:	f9000420 	str	x0, [x1, #8]
entry_open_session():
/home/thesis/Desktop/optee_rpi3bplus/optee_os/lib/libutee/arch/arm/user_ta_entry.c:134
    2bd8:	2a1503e0 	mov	w0, w21
    2bdc:	97ffff90 	bl	2a1c <ta_header_get_session>
    2be0:	aa0003f8 	mov	x24, x0
/home/thesis/Desktop/optee_rpi3bplus/optee_os/lib/libutee/arch/arm/user_ta_entry.c:135
    2be4:	b40007e0 	cbz	x0, 2ce0 <__utee_entry+0x1f4>
/home/thesis/Desktop/optee_rpi3bplus/optee_os/lib/libutee/arch/arm/user_ta_entry.c:138
    2be8:	910143f6 	add	x22, sp, #0x50
    2bec:	aa1703e2 	mov	x2, x23
    2bf0:	910133e1 	add	x1, sp, #0x4c
    2bf4:	aa1603e0 	mov	x0, x22
    2bf8:	97fffe6d 	bl	25ac <__utee_to_param>
/home/thesis/Desktop/optee_rpi3bplus/optee_os/lib/libutee/arch/arm/user_ta_entry.c:139
    2bfc:	b9404ff3 	ldr	w19, [sp, #76]
ta_header_save_params():
/home/thesis/Desktop/optee_rpi3bplus/optee_os/lib/libutee/arch/arm/user_ta_entry.c:56
    2c00:	f9402e80 	ldr	x0, [x20, #88]
/home/thesis/Desktop/optee_rpi3bplus/optee_os/lib/libutee/arch/arm/user_ta_entry.c:59
    2c04:	d2800802 	mov	x2, #0x40                  	// #64
    2c08:	aa1603e1 	mov	x1, x22
/home/thesis/Desktop/optee_rpi3bplus/optee_os/lib/libutee/arch/arm/user_ta_entry.c:56
    2c0c:	b9000013 	str	w19, [x0]
/home/thesis/Desktop/optee_rpi3bplus/optee_os/lib/libutee/arch/arm/user_ta_entry.c:59
    2c10:	f9403680 	ldr	x0, [x20, #104]
    2c14:	97fffa75 	bl	15e8 <memcpy>
entry_open_session():
/home/thesis/Desktop/optee_rpi3bplus/optee_os/lib/libutee/arch/arm/user_ta_entry.c:141
    2c18:	91002302 	add	x2, x24, #0x8
    2c1c:	aa1603e1 	mov	x1, x22
    2c20:	2a1303e0 	mov	w0, w19
    2c24:	97fff6fb 	bl	810 <TA_OpenSessionEntryPoint>
/home/thesis/Desktop/optee_rpi3bplus/optee_os/lib/libutee/arch/arm/user_ta_entry.c:144
    2c28:	b9404fe1 	ldr	w1, [sp, #76]
/home/thesis/Desktop/optee_rpi3bplus/optee_os/lib/libutee/arch/arm/user_ta_entry.c:141
    2c2c:	2a0003f3 	mov	w19, w0
/home/thesis/Desktop/optee_rpi3bplus/optee_os/lib/libutee/arch/arm/user_ta_entry.c:144
    2c30:	aa1603e2 	mov	x2, x22
    2c34:	aa1703e0 	mov	x0, x23
    2c38:	97fffe3f 	bl	2534 <__utee_from_param>
/home/thesis/Desktop/optee_rpi3bplus/optee_os/lib/libutee/arch/arm/user_ta_entry.c:146
    2c3c:	34fffab3 	cbz	w19, 2b90 <__utee_entry+0xa4>
/home/thesis/Desktop/optee_rpi3bplus/optee_os/lib/libutee/arch/arm/user_ta_entry.c:147
    2c40:	2a1503e0 	mov	w0, w21
    2c44:	97ffff80 	bl	2a44 <ta_header_remove_session>
    2c48:	17ffffd2 	b	2b90 <__utee_entry+0xa4>
entry_close_session():
/home/thesis/Desktop/optee_rpi3bplus/optee_os/lib/libutee/arch/arm/user_ta_entry.c:153
    2c4c:	2a0103e0 	mov	w0, w1
    2c50:	97ffff73 	bl	2a1c <ta_header_get_session>
/home/thesis/Desktop/optee_rpi3bplus/optee_os/lib/libutee/arch/arm/user_ta_entry.c:155
    2c54:	b4000460 	cbz	x0, 2ce0 <__utee_entry+0x1f4>
/home/thesis/Desktop/optee_rpi3bplus/optee_os/lib/libutee/arch/arm/user_ta_entry.c:158
    2c58:	f9400400 	ldr	x0, [x0, #8]
/home/thesis/Desktop/optee_rpi3bplus/optee_os/lib/libutee/arch/arm/user_ta_entry.c:161
    2c5c:	52800013 	mov	w19, #0x0                   	// #0
/home/thesis/Desktop/optee_rpi3bplus/optee_os/lib/libutee/arch/arm/user_ta_entry.c:158
    2c60:	97fff6f0 	bl	820 <TA_CloseSessionEntryPoint>
/home/thesis/Desktop/optee_rpi3bplus/optee_os/lib/libutee/arch/arm/user_ta_entry.c:160
    2c64:	2a1503e0 	mov	w0, w21
    2c68:	97ffff77 	bl	2a44 <ta_header_remove_session>
/home/thesis/Desktop/optee_rpi3bplus/optee_os/lib/libutee/arch/arm/user_ta_entry.c:161
    2c6c:	17ffffc9 	b	2b90 <__utee_entry+0xa4>
entry_invoke_command():
/home/thesis/Desktop/optee_rpi3bplus/optee_os/lib/libutee/arch/arm/user_ta_entry.c:170
    2c70:	2a0103e0 	mov	w0, w1
    2c74:	97ffff6a 	bl	2a1c <ta_header_get_session>
    2c78:	aa0003f3 	mov	x19, x0
/home/thesis/Desktop/optee_rpi3bplus/optee_os/lib/libutee/arch/arm/user_ta_entry.c:172
    2c7c:	b4000320 	cbz	x0, 2ce0 <__utee_entry+0x1f4>
/home/thesis/Desktop/optee_rpi3bplus/optee_os/lib/libutee/arch/arm/user_ta_entry.c:175
    2c80:	910143f5 	add	x21, sp, #0x50
    2c84:	aa0303f8 	mov	x24, x3
    2c88:	aa1703e2 	mov	x2, x23
    2c8c:	910133e1 	add	x1, sp, #0x4c
    2c90:	aa1503e0 	mov	x0, x21
    2c94:	97fffe46 	bl	25ac <__utee_to_param>
ta_header_save_params():
/home/thesis/Desktop/optee_rpi3bplus/optee_os/lib/libutee/arch/arm/user_ta_entry.c:56
    2c98:	f9402e80 	ldr	x0, [x20, #88]
/home/thesis/Desktop/optee_rpi3bplus/optee_os/lib/libutee/arch/arm/user_ta_entry.c:59
    2c9c:	aa1503e1 	mov	x1, x21
entry_invoke_command():
/home/thesis/Desktop/optee_rpi3bplus/optee_os/lib/libutee/arch/arm/user_ta_entry.c:176
    2ca0:	b9404ff6 	ldr	w22, [sp, #76]
ta_header_save_params():
/home/thesis/Desktop/optee_rpi3bplus/optee_os/lib/libutee/arch/arm/user_ta_entry.c:59
    2ca4:	d2800802 	mov	x2, #0x40                  	// #64
/home/thesis/Desktop/optee_rpi3bplus/optee_os/lib/libutee/arch/arm/user_ta_entry.c:56
    2ca8:	b9000016 	str	w22, [x0]
/home/thesis/Desktop/optee_rpi3bplus/optee_os/lib/libutee/arch/arm/user_ta_entry.c:59
    2cac:	f9403680 	ldr	x0, [x20, #104]
    2cb0:	97fffa4e 	bl	15e8 <memcpy>
entry_invoke_command():
/home/thesis/Desktop/optee_rpi3bplus/optee_os/lib/libutee/arch/arm/user_ta_entry.c:178
    2cb4:	f9400660 	ldr	x0, [x19, #8]
    2cb8:	2a1603e2 	mov	w2, w22
    2cbc:	2a1803e1 	mov	w1, w24
    2cc0:	aa1503e3 	mov	x3, x21
    2cc4:	97fff6dc 	bl	834 <TA_InvokeCommandEntryPoint>
    2cc8:	2a0003f3 	mov	w19, w0
/home/thesis/Desktop/optee_rpi3bplus/optee_os/lib/libutee/arch/arm/user_ta_entry.c:181
    2ccc:	b9404fe1 	ldr	w1, [sp, #76]
    2cd0:	aa1503e2 	mov	x2, x21
    2cd4:	aa1703e0 	mov	x0, x23
    2cd8:	97fffe17 	bl	2534 <__utee_from_param>
/home/thesis/Desktop/optee_rpi3bplus/optee_os/lib/libutee/arch/arm/user_ta_entry.c:182
    2cdc:	17ffffad 	b	2b90 <__utee_entry+0xa4>
entry_close_session():
/home/thesis/Desktop/optee_rpi3bplus/optee_os/lib/libutee/arch/arm/user_ta_entry.c:156
    2ce0:	129fff13 	mov	w19, #0xffff0007            	// #-65529
    2ce4:	17ffffab 	b	2b90 <__utee_entry+0xa4>

0000000000002ce8 <utee_panic>:
utee_panic():
/home/thesis/Desktop/optee_rpi3bplus/optee_os/lib/libutee/arch/arm/utee_syscalls_a64.S:24
    2ce8:	a9bf7bfd 	stp	x29, x30, [sp, #-16]!
/home/thesis/Desktop/optee_rpi3bplus/optee_os/lib/libutee/arch/arm/utee_syscalls_a64.S:25
    2cec:	910003e1 	mov	x1, sp
/home/thesis/Desktop/optee_rpi3bplus/optee_os/lib/libutee/arch/arm/utee_syscalls_a64.S:26
    2cf0:	94000007 	bl	2d0c <__utee_panic>

0000000000002cf4 <utee_return>:
utee_return():
/home/thesis/Desktop/optee_rpi3bplus/optee_os/lib/libutee/arch/arm/utee_syscalls_asm.S:8
    2cf4:	d2800008 	mov	x8, #0x0                   	// #0
    2cf8:	d4000001 	svc	#0x0
    2cfc:	d65f03c0 	ret

0000000000002d00 <utee_log>:
utee_log():
/home/thesis/Desktop/optee_rpi3bplus/optee_os/lib/libutee/arch/arm/utee_syscalls_asm.S:10
    2d00:	d2800028 	mov	x8, #0x1                   	// #1
    2d04:	d4000001 	svc	#0x0
    2d08:	d65f03c0 	ret

0000000000002d0c <__utee_panic>:
__utee_panic():
/home/thesis/Desktop/optee_rpi3bplus/optee_os/lib/libutee/arch/arm/utee_syscalls_asm.S:12
    2d0c:	d2800048 	mov	x8, #0x2                   	// #2
    2d10:	d4000001 	svc	#0x0
    2d14:	d65f03c0 	ret

0000000000002d18 <utee_get_property>:
utee_get_property():
/home/thesis/Desktop/optee_rpi3bplus/optee_os/lib/libutee/arch/arm/utee_syscalls_asm.S:14
    2d18:	d2800068 	mov	x8, #0x3                   	// #3
    2d1c:	d4000001 	svc	#0x0
    2d20:	d65f03c0 	ret

0000000000002d24 <utee_get_property_name_to_index>:
utee_get_property_name_to_index():
/home/thesis/Desktop/optee_rpi3bplus/optee_os/lib/libutee/arch/arm/utee_syscalls_asm.S:16
    2d24:	d2800088 	mov	x8, #0x4                   	// #4
    2d28:	d4000001 	svc	#0x0
    2d2c:	d65f03c0 	ret

0000000000002d30 <utee_open_ta_session>:
utee_open_ta_session():
/home/thesis/Desktop/optee_rpi3bplus/optee_os/lib/libutee/arch/arm/utee_syscalls_asm.S:19
    2d30:	d28000a8 	mov	x8, #0x5                   	// #5
    2d34:	d4000001 	svc	#0x0
    2d38:	d65f03c0 	ret

0000000000002d3c <utee_close_ta_session>:
utee_close_ta_session():
/home/thesis/Desktop/optee_rpi3bplus/optee_os/lib/libutee/arch/arm/utee_syscalls_asm.S:21
    2d3c:	d28000c8 	mov	x8, #0x6                   	// #6
    2d40:	d4000001 	svc	#0x0
    2d44:	d65f03c0 	ret

0000000000002d48 <utee_invoke_ta_command>:
utee_invoke_ta_command():
/home/thesis/Desktop/optee_rpi3bplus/optee_os/lib/libutee/arch/arm/utee_syscalls_asm.S:23
    2d48:	d28000e8 	mov	x8, #0x7                   	// #7
    2d4c:	d4000001 	svc	#0x0
    2d50:	d65f03c0 	ret

0000000000002d54 <utee_get_cancellation_flag>:
utee_get_cancellation_flag():
/home/thesis/Desktop/optee_rpi3bplus/optee_os/lib/libutee/arch/arm/utee_syscalls_asm.S:25
    2d54:	d2800128 	mov	x8, #0x9                   	// #9
    2d58:	d4000001 	svc	#0x0
    2d5c:	d65f03c0 	ret

0000000000002d60 <utee_check_access_rights>:
utee_check_access_rights():
/home/thesis/Desktop/optee_rpi3bplus/optee_os/lib/libutee/arch/arm/utee_syscalls_asm.S:28
    2d60:	d2800108 	mov	x8, #0x8                   	// #8
    2d64:	d4000001 	svc	#0x0
    2d68:	d65f03c0 	ret

0000000000002d6c <utee_unmask_cancellation>:
utee_unmask_cancellation():
/home/thesis/Desktop/optee_rpi3bplus/optee_os/lib/libutee/arch/arm/utee_syscalls_asm.S:30
    2d6c:	d2800148 	mov	x8, #0xa                   	// #10
    2d70:	d4000001 	svc	#0x0
    2d74:	d65f03c0 	ret

0000000000002d78 <utee_mask_cancellation>:
utee_mask_cancellation():
/home/thesis/Desktop/optee_rpi3bplus/optee_os/lib/libutee/arch/arm/utee_syscalls_asm.S:32
    2d78:	d2800168 	mov	x8, #0xb                   	// #11
    2d7c:	d4000001 	svc	#0x0
    2d80:	d65f03c0 	ret

0000000000002d84 <utee_wait>:
utee_wait():
/home/thesis/Desktop/optee_rpi3bplus/optee_os/lib/libutee/arch/arm/utee_syscalls_asm.S:34
    2d84:	d2800188 	mov	x8, #0xc                   	// #12
    2d88:	d4000001 	svc	#0x0
    2d8c:	d65f03c0 	ret

0000000000002d90 <utee_get_time>:
utee_get_time():
/home/thesis/Desktop/optee_rpi3bplus/optee_os/lib/libutee/arch/arm/utee_syscalls_asm.S:36
    2d90:	d28001a8 	mov	x8, #0xd                   	// #13
    2d94:	d4000001 	svc	#0x0
    2d98:	d65f03c0 	ret

0000000000002d9c <utee_set_ta_time>:
utee_set_ta_time():
/home/thesis/Desktop/optee_rpi3bplus/optee_os/lib/libutee/arch/arm/utee_syscalls_asm.S:38
    2d9c:	d28001c8 	mov	x8, #0xe                   	// #14
    2da0:	d4000001 	svc	#0x0
    2da4:	d65f03c0 	ret

0000000000002da8 <utee_cryp_state_alloc>:
utee_cryp_state_alloc():
/home/thesis/Desktop/optee_rpi3bplus/optee_os/lib/libutee/arch/arm/utee_syscalls_asm.S:40
    2da8:	d28001e8 	mov	x8, #0xf                   	// #15
    2dac:	d4000001 	svc	#0x0
    2db0:	d65f03c0 	ret

0000000000002db4 <utee_cryp_state_copy>:
utee_cryp_state_copy():
/home/thesis/Desktop/optee_rpi3bplus/optee_os/lib/libutee/arch/arm/utee_syscalls_asm.S:42
    2db4:	d2800208 	mov	x8, #0x10                  	// #16
    2db8:	d4000001 	svc	#0x0
    2dbc:	d65f03c0 	ret

0000000000002dc0 <utee_cryp_state_free>:
utee_cryp_state_free():
/home/thesis/Desktop/optee_rpi3bplus/optee_os/lib/libutee/arch/arm/utee_syscalls_asm.S:44
    2dc0:	d2800228 	mov	x8, #0x11                  	// #17
    2dc4:	d4000001 	svc	#0x0
    2dc8:	d65f03c0 	ret

0000000000002dcc <utee_hash_init>:
utee_hash_init():
/home/thesis/Desktop/optee_rpi3bplus/optee_os/lib/libutee/arch/arm/utee_syscalls_asm.S:46
    2dcc:	d2800248 	mov	x8, #0x12                  	// #18
    2dd0:	d4000001 	svc	#0x0
    2dd4:	d65f03c0 	ret

0000000000002dd8 <utee_hash_update>:
utee_hash_update():
/home/thesis/Desktop/optee_rpi3bplus/optee_os/lib/libutee/arch/arm/utee_syscalls_asm.S:48
    2dd8:	d2800268 	mov	x8, #0x13                  	// #19
    2ddc:	d4000001 	svc	#0x0
    2de0:	d65f03c0 	ret

0000000000002de4 <utee_hash_final>:
utee_hash_final():
/home/thesis/Desktop/optee_rpi3bplus/optee_os/lib/libutee/arch/arm/utee_syscalls_asm.S:50
    2de4:	d2800288 	mov	x8, #0x14                  	// #20
    2de8:	d4000001 	svc	#0x0
    2dec:	d65f03c0 	ret

0000000000002df0 <utee_cipher_init>:
utee_cipher_init():
/home/thesis/Desktop/optee_rpi3bplus/optee_os/lib/libutee/arch/arm/utee_syscalls_asm.S:52
    2df0:	d28002a8 	mov	x8, #0x15                  	// #21
    2df4:	d4000001 	svc	#0x0
    2df8:	d65f03c0 	ret

0000000000002dfc <utee_cipher_update>:
utee_cipher_update():
/home/thesis/Desktop/optee_rpi3bplus/optee_os/lib/libutee/arch/arm/utee_syscalls_asm.S:54
    2dfc:	d28002c8 	mov	x8, #0x16                  	// #22
    2e00:	d4000001 	svc	#0x0
    2e04:	d65f03c0 	ret

0000000000002e08 <utee_cipher_final>:
utee_cipher_final():
/home/thesis/Desktop/optee_rpi3bplus/optee_os/lib/libutee/arch/arm/utee_syscalls_asm.S:56
    2e08:	d28002e8 	mov	x8, #0x17                  	// #23
    2e0c:	d4000001 	svc	#0x0
    2e10:	d65f03c0 	ret

0000000000002e14 <utee_cryp_obj_get_info>:
utee_cryp_obj_get_info():
/home/thesis/Desktop/optee_rpi3bplus/optee_os/lib/libutee/arch/arm/utee_syscalls_asm.S:58
    2e14:	d2800308 	mov	x8, #0x18                  	// #24
    2e18:	d4000001 	svc	#0x0
    2e1c:	d65f03c0 	ret

0000000000002e20 <utee_cryp_obj_restrict_usage>:
utee_cryp_obj_restrict_usage():
/home/thesis/Desktop/optee_rpi3bplus/optee_os/lib/libutee/arch/arm/utee_syscalls_asm.S:60
    2e20:	d2800328 	mov	x8, #0x19                  	// #25
    2e24:	d4000001 	svc	#0x0
    2e28:	d65f03c0 	ret

0000000000002e2c <utee_cryp_obj_get_attr>:
utee_cryp_obj_get_attr():
/home/thesis/Desktop/optee_rpi3bplus/optee_os/lib/libutee/arch/arm/utee_syscalls_asm.S:63
    2e2c:	d2800348 	mov	x8, #0x1a                  	// #26
    2e30:	d4000001 	svc	#0x0
    2e34:	d65f03c0 	ret

0000000000002e38 <utee_cryp_obj_alloc>:
utee_cryp_obj_alloc():
/home/thesis/Desktop/optee_rpi3bplus/optee_os/lib/libutee/arch/arm/utee_syscalls_asm.S:65
    2e38:	d2800368 	mov	x8, #0x1b                  	// #27
    2e3c:	d4000001 	svc	#0x0
    2e40:	d65f03c0 	ret

0000000000002e44 <utee_cryp_obj_close>:
utee_cryp_obj_close():
/home/thesis/Desktop/optee_rpi3bplus/optee_os/lib/libutee/arch/arm/utee_syscalls_asm.S:67
    2e44:	d2800388 	mov	x8, #0x1c                  	// #28
    2e48:	d4000001 	svc	#0x0
    2e4c:	d65f03c0 	ret

0000000000002e50 <utee_cryp_obj_reset>:
utee_cryp_obj_reset():
/home/thesis/Desktop/optee_rpi3bplus/optee_os/lib/libutee/arch/arm/utee_syscalls_asm.S:69
    2e50:	d28003a8 	mov	x8, #0x1d                  	// #29
    2e54:	d4000001 	svc	#0x0
